ASxxxx Linker V03.00 + NoICE + sdld,  page 1.
Hexadecimal  [32-Bits]

Area                                    Addr        Size        Decimal Bytes (Attributes)
--------------------------------        ----        ----        ------- ----- ------------
CABS                                00000000    00000000 =           0. bytes (ABS,CON)

      Value  Global                              Global Defined In Module
      -----  --------------------------------   ------------------------
     00000000  l_CABS                          
     00000000  l_CODEIVT                       
     00000000  l_DABS                          
     00000000  l_DATA                          
     00000000  l_XINIT                         
     00000000  l__CODE                         
     00000000  l__DATA                         
     00000000  s_CABS                          
     00000000  s_CODEIVT                       
     00000000  s_CODEIVT0                      
     00000000  s_DABS                          
     00000001  s_ZP                            
     00000006  l_CODEIVT0                      
     00000006  l_GSFINAL                       
     00000009  l_OSEG                          
     00000014  l_ZP                            
     00000015  s_OSEG                          
     0000001E  l_RODATA                        
     0000002D  l_BSS                           
     00000045  l_GSINIT                        
     00000200  s_BSS                           
     00000200  s_DATA                          
     00000200  s__DATA                         
     0000022D  s_GSINIT                        
     00000272  s_GSFINAL                       
     00000278  s_CODE                          
     00000A35  l_CODE                          
     00000CAD  s_RODATA                        
     00000CCB  s_XINIT                         
     00008000  s__CODE                         
ASxxxx Linker V03.00 + NoICE + sdld,  page 2.
Hexadecimal  [32-Bits]

Area                                    Addr        Size        Decimal Bytes (Attributes)
--------------------------------        ----        ----        ------- ----- ------------
CODEIVT0                            00000000    00000006 =           6. bytes (ABS,CON)

      Value  Global                              Global Defined In Module
      -----  --------------------------------   ------------------------
ASxxxx Linker V03.00 + NoICE + sdld,  page 3.
Hexadecimal  [32-Bits]

Area                                    Addr        Size        Decimal Bytes (Attributes)
--------------------------------        ----        ----        ------- ----- ------------
.  .ABS.                            00000000    00000000 =           0. bytes (ABS,CON)

      Value  Global                              Global Defined In Module
      -----  --------------------------------   ------------------------
     00000000  .__.ABS.                           

ASxxxx Linker V03.00 + NoICE + sdld,  page 4.
Hexadecimal  [32-Bits]

Area                                    Addr        Size        Decimal Bytes (Attributes)
--------------------------------        ----        ----        ------- ----- ------------
ZP                                  00000001    00000014 =          20. bytes (REL,CON,PAG)

      Value  Global                              Global Defined In Module
      -----  --------------------------------   ------------------------
     00000001  REGTEMP                            __sdcc_regs
     00000001  ___SDCC_m6502_ret0                 __sdcc_regs
     00000002  ___SDCC_m6502_ret1                 __sdcc_regs
     00000003  ___SDCC_m6502_ret2                 __sdcc_regs
     00000004  ___SDCC_m6502_ret3                 __sdcc_regs
     00000005  ___SDCC_m6502_ret4                 __sdcc_regs
     00000006  ___SDCC_m6502_ret5                 __sdcc_regs
     00000007  DPTR                               __sdcc_regs
     00000007  ___SDCC_m6502_ret6                 __sdcc_regs
     00000008  ___SDCC_m6502_ret7                 __sdcc_regs

ASxxxx Linker V03.00 + NoICE + sdld,  page 5.
Hexadecimal  [32-Bits]

Area                                    Addr        Size        Decimal Bytes (Attributes)
--------------------------------        ----        ----        ------- ----- ------------
OSEG                                00000015    00000009 =           9. bytes (REL,OVR,PAG)

      Value  Global                              Global Defined In Module
      -----  --------------------------------   ------------------------
     00000015  ___memcpy_PARM_2                   _memcpy
     00000015  __mulint_PARM_2                    _mulint
     00000015  _memcpy_PARM_2                     _memcpy
     00000015  _memset_PARM_2                     _memset
     00000016  _memset_PARM_3                     _memset
     00000017  ___memcpy_PARM_3                   _memcpy
     00000017  _memcpy_PARM_3                     _memcpy

ASxxxx Linker V03.00 + NoICE + sdld,  page 6.
Hexadecimal  [32-Bits]

Area                                    Addr        Size        Decimal Bytes (Attributes)
--------------------------------        ----        ----        ------- ----- ------------
BSS                                 00000200    0000002D =          45. bytes (REL,CON)

      Value  Global                              Global Defined In Module
      -----  --------------------------------   ------------------------
     00000200  _vprintf_PARM_2                    vprintf
     0000020F  __print_format_PARM_2              printf_large
     00000211  __print_format_PARM_3              printf_large
     00000213  __print_format_PARM_4              printf_large

ASxxxx Linker V03.00 + NoICE + sdld,  page 7.
Hexadecimal  [32-Bits]

Area                                    Addr        Size        Decimal Bytes (Attributes)
--------------------------------        ----        ----        ------- ----- ------------
GSINIT                              0000022D    00000045 =          69. bytes (REL,CON)

      Value  Global                              Global Defined In Module
      -----  --------------------------------   ------------------------
ASxxxx Linker V03.00 + NoICE + sdld,  page 8.
Hexadecimal  [32-Bits]

Area                                    Addr        Size        Decimal Bytes (Attributes)
--------------------------------        ----        ----        ------- ----- ------------
GSFINAL                             00000272    00000006 =           6. bytes (REL,CON)

      Value  Global                              Global Defined In Module
      -----  --------------------------------   ------------------------
ASxxxx Linker V03.00 + NoICE + sdld,  page 9.
Hexadecimal  [32-Bits]

Area                                    Addr        Size        Decimal Bytes (Attributes)
--------------------------------        ----        ----        ------- ----- ------------
CODE                                00000278    00000A35 =        2613. bytes (REL,CON)

      Value  Global                              Global Defined In Module
      -----  --------------------------------   ------------------------
     00000278  _putchar                           hello
     0000027D  _main                              hello
     00000289  ___memcpy                          _memcpy
     00000289  _memcpy                            _memcpy
     000002BB  _memset                            _memset
     000002E7  ___sdcc_external_startup           _startup
     000002EF  _vprintf                           vprintf
     00000310  _printf                            vprintf
     000003F7  __print_format                     printf_large
     00000C62  _strlen                            _strlen
     00000C78  __mulint                           _mulint
     00000CAA  __sdcc_indirect_jsr                
ASxxxx Linker V03.00 + NoICE + sdld,  page 10.
Hexadecimal  [32-Bits]

Area                                    Addr        Size        Decimal Bytes (Attributes)
--------------------------------        ----        ----        ------- ----- ------------
RODATA                              00000CAD    0000001E =          30. bytes (REL,CON)

      Value  Global                              Global Defined In Module
      -----  --------------------------------   ------------------------
ASxxxx Linker V03.00 + NoICE + sdld,  page 11.

Files Linked                              [ module(s) ]

/usr/local/bin/../share/sdcc/lib/mos6502/crt0.rel
                                          [ crt0 ]
hello.rel                                 [ hello ]


Libraries Linked                          [ object file ]

/usr/local/bin/../share/sdcc/lib/mos6502/mos6502.lib
                                          [ memcpy.rel ]
/usr/local/bin/../share/sdcc/lib/mos6502/mos6502.lib
                                          [ _memset.rel ]
/usr/local/bin/../share/sdcc/lib/mos6502/mos6502.lib
                                          [ __sdcc_regs.rel ]
/usr/local/bin/../share/sdcc/lib/mos6502/mos6502.lib
                                          [ _startup.rel ]
/usr/local/bin/../share/sdcc/lib/mos6502/mos6502.lib
                                          [ vprintf.rel ]
/usr/local/bin/../share/sdcc/lib/mos6502/mos6502.lib
                                          [ printf_large.rel ]
/usr/local/bin/../share/sdcc/lib/mos6502/mos6502.lib
                                          [ strlen.rel ]
/usr/local/bin/../share/sdcc/lib/mos6502/mos6502.lib
                                          [ _mulint.rel ]
/usr/local/bin/../share/sdcc/lib/mos6502/mos6502.lib
                                          [ __sdcc_indirect_jsr.rel ]

ASxxxx Linker V03.00 + NoICE + sdld,  page 12.

User Base Address Definitions

_CODE = 0x8000
ZP = 0x0001
_DATA = 0x0200

