                                      1 ;--------------------------------------------------------
                                      2 ; File Created by SDCC : free open source ISO C Compiler
                                      3 ; Version 4.5.10 #15691 (Linux)
                                      4 ;--------------------------------------------------------
                                      5 	.module __stdc_count_ones
                                      6 	
                                      7 	.optsdcc -mmos6502
                                      8 
                                      9 ;--------------------------------------------------------
                                     10 ;  Ordering of segments for the linker.
                                     11 ;--------------------------------------------------------
                                     12 	.area ZP      (PAG)
                                     13 	.area OSEG    (PAG, OVR)
                                     14 	.area _CODE
                                     15 	.area GSINIT
                                     16 	.area GSFINAL
                                     17 	.area CODE
                                     18 	.area RODATA
                                     19 	.area XINIT
                                     20 	.area _DATA
                                     21 	.area DATA
                                     22 	.area BSS
                                     23 ;--------------------------------------------------------
                                     24 ; Public variables in this module
                                     25 ;--------------------------------------------------------
                                     26 	.globl ___stdc_count_ones
                                     27 ;--------------------------------------------------------
                                     28 ; ZP ram data
                                     29 ;--------------------------------------------------------
                                     30 	.area ZP      (PAG)
                                     31 ;--------------------------------------------------------
                                     32 ; overlayable items in ram
                                     33 ;--------------------------------------------------------
                                     34 ;--------------------------------------------------------
                                     35 ; uninitialized external ram data
                                     36 ;--------------------------------------------------------
                                     37 	.area BSS
                                     38 ;--------------------------------------------------------
                                     39 ; absolute external ram data
                                     40 ;--------------------------------------------------------
                                     41 	.area DABS    (ABS)
                                     42 ;--------------------------------------------------------
                                     43 ; initialized external ram data
                                     44 ;--------------------------------------------------------
                                     45 	.area DATA
                                     46 ;--------------------------------------------------------
                                     47 ; global & static initialisations
                                     48 ;--------------------------------------------------------
                                     49 	.area _CODE
                                     50 	.area GSINIT
                                     51 	.area GSFINAL
                                     52 	.area GSINIT
                                     53 ;--------------------------------------------------------
                                     54 ; Home
                                     55 ;--------------------------------------------------------
                                     56 	.area _CODE
                                     57 	.area _CODE
                                     58 ;--------------------------------------------------------
                                     59 ; code
                                     60 ;--------------------------------------------------------
                                     61 	.area CODE
                                     62 ;------------------------------------------------------------
                                     63 ;Allocation info for local variables in function '__stdc_count_ones'
                                     64 ;------------------------------------------------------------
                                     65 ;value         Allocated to stack - sp +12 +8 
                                     66 ;count         Allocated to stack - sp +9 +1 
                                     67 ;i             Allocated to registers y 
                                     68 ;sloc0         Allocated to stack - sp +1 +8 
                                     69 ;------------------------------------------------------------
                                     70 ;	../__stdc_count_ones.c: 37: unsigned _BitInt(8) __stdc_count_ones(unsigned long long value)
                                     71 ;	genLabel
                                     72 ;	Raw cost for generated ic 0 : (0, 0.000000) count=1.000000
                                     73 ;	-----------------------------------------
                                     74 ;	 function __stdc_count_ones
                                     75 ;	-----------------------------------------
                                     76 ;	Register assignment is optimal.
                                     77 ;	Stack space usage: 9 bytes.
      000000                         78 ___stdc_count_ones:
                                     79 ;	  adjustStack : cycles stk:27  incdec:22  adc:12
      000000 BA               [ 2]   80 	tsx
      000001 8A               [ 2]   81 	txa
      000002 18               [ 2]   82 	clc
      000003 69 F7            [ 2]   83 	adc	#0xf7
      000005 AA               [ 2]   84 	tax
      000006 9A               [ 2]   85 	txs
                                     86 ;	Raw cost for generated ic 1 : (7, 12.000000) count=1.000000
                                     87 ;	../__stdc_count_ones.c: 40: for(uint_fast8_t i = 0; i < ULLONG_WIDTH; i++)
                                     88 ;	genAssign
                                     89 ;	genAssignLit
      000007 A9 00            [ 2]   90 	lda	#0x00
      000009 9D 09 01         [ 5]   91 	sta	0x109,x
                                     92 ;	Raw cost for generated ic 29 : (5, 7.000000) count=1.000000
                                     93 ;	genAssign
                                     94 ;	genCopy
      00000C A8               [ 2]   95 	tay
                                     96 ;	Raw cost for generated ic 32 : (1, 2.000000) count=1.000000
                                     97 ;	genLabel
      00000D                         98 00105$:
                                     99 ;	Raw cost for generated ic 4 : (0, 0.000000) count=3.999993
                                    100 ;	genCmp
      00000D C0 40            [ 2]  101 	cpy	#0x40
      00000F 90 03            [ 4]  102 	bcc	00128$
      000011 4CrABr00         [ 3]  103 	jmp	00103$
      000014                        104 00128$:
                                    105 ;	Raw cost for generated ic 5 : (7, 7.600000) count=3.999993
                                    106 ;	skipping generated iCode
                                    107 ;	Raw cost for generated ic 6 : (0, 0.000000) count=3.999993
                                    108 ;	../__stdc_count_ones.c: 41: if(value & (1ull << i))
                                    109 ;	genCast
                                    110 ;	genCopy
      000014 98               [ 2]  111 	tya
                                    112 ;	Raw cost for generated ic 37 : (1, 2.000000) count=2.999995
                                    113 ;	genIpush
      000015 85*00            [ 3]  114 	sta	*(REGTEMP+0)
      000017 98               [ 2]  115 	tya
      000018 48               [ 3]  116 	pha
      000019 A5*00            [ 3]  117 	lda	*(REGTEMP+0)
      00001B 48               [ 3]  118 	pha
                                    119 ;	Raw cost for generated ic 38 : (7, 14.000000) count=2.999995
                                    120 ;	genIpush
      00001C A9 00            [ 2]  121 	lda	#0x00
      00001E 48               [ 3]  122 	pha
      00001F 48               [ 3]  123 	pha
      000020 48               [ 3]  124 	pha
      000021 48               [ 3]  125 	pha
      000022 48               [ 3]  126 	pha
      000023 48               [ 3]  127 	pha
      000024 48               [ 3]  128 	pha
      000025 A9 01            [ 2]  129 	lda	#0x01
      000027 48               [ 3]  130 	pha
                                    131 ;	Raw cost for generated ic 39 : (12, 28.000000) count=2.999995
                                    132 ;	genCall
      000028 20r00r00         [ 6]  133 	jsr	__slulonglong
                                    134 ;	assignResultValue
      00002B 86*00            [ 3]  135 	stx	*(REGTEMP+0)
      00002D BA               [ 2]  136 	tsx
      00002E 9D 0B 01         [ 5]  137 	sta	0x10b,x
      000031 A5*00            [ 3]  138 	lda	*(REGTEMP+0)
      000033 9D 0C 01         [ 5]  139 	sta	0x10c,x
      000036 A5*00            [ 3]  140 	lda	*___SDCC_m6502_ret2
      000038 9D 0D 01         [ 5]  141 	sta	0x10d,x
      00003B A5*00            [ 3]  142 	lda	*___SDCC_m6502_ret3
      00003D 9D 0E 01         [ 5]  143 	sta	0x10e,x
      000040 A5*00            [ 3]  144 	lda	*___SDCC_m6502_ret4
      000042 9D 0F 01         [ 5]  145 	sta	0x10f,x
      000045 A5*00            [ 3]  146 	lda	*___SDCC_m6502_ret5
      000047 9D 10 01         [ 5]  147 	sta	0x110,x
      00004A A5*00            [ 3]  148 	lda	*___SDCC_m6502_ret6
      00004C 9D 11 01         [ 5]  149 	sta	0x111,x
      00004F A5*00            [ 3]  150 	lda	*___SDCC_m6502_ret7
      000051 9D 12 01         [ 5]  151 	sta	0x112,x
                                    152 ;	  adjustStack : cycles stk:36  incdec:20  adc:10
      000054 8A               [ 2]  153 	txa
      000055 18               [ 2]  154 	clc
      000056 69 09            [ 2]  155 	adc	#0x09
      000058 AA               [ 2]  156 	tax
      000059 9A               [ 2]  157 	txs
      00005A 85*00            [ 3]  158 	sta	*(REGTEMP+0)
      00005C 68               [ 4]  159 	pla
      00005D A8               [ 2]  160 	tay
                                    161 ;	Raw cost for generated ic 40 : (56, 94.000000) count=2.999995
                                    162 ;	genAnd
      00005E BD 0D 01         [ 5]  163 	lda	0x10d,x
      000061 3D 02 01         [ 5]  164 	and	0x102,x
      000064 D0 36            [ 4]  165 	bne	00129$
      000066 BD 0E 01         [ 5]  166 	lda	0x10e,x
      000069 3D 03 01         [ 5]  167 	and	0x103,x
      00006C D0 2E            [ 4]  168 	bne	00129$
      00006E BD 0F 01         [ 5]  169 	lda	0x10f,x
      000071 3D 04 01         [ 5]  170 	and	0x104,x
      000074 D0 26            [ 4]  171 	bne	00129$
      000076 BD 10 01         [ 5]  172 	lda	0x110,x
      000079 3D 05 01         [ 5]  173 	and	0x105,x
      00007C D0 1E            [ 4]  174 	bne	00129$
      00007E BD 11 01         [ 5]  175 	lda	0x111,x
      000081 3D 06 01         [ 5]  176 	and	0x106,x
      000084 D0 16            [ 4]  177 	bne	00129$
      000086 BD 12 01         [ 5]  178 	lda	0x112,x
      000089 3D 07 01         [ 5]  179 	and	0x107,x
      00008C D0 0E            [ 4]  180 	bne	00129$
      00008E BD 13 01         [ 5]  181 	lda	0x113,x
      000091 3D 08 01         [ 5]  182 	and	0x108,x
      000094 D0 06            [ 4]  183 	bne	00129$
      000096 BD 14 01         [ 5]  184 	lda	0x114,x
      000099 3D 09 01         [ 5]  185 	and	0x109,x
      00009C                        186 00129$:
                                    187 ;	genIfxJump : z
      00009C F0 09            [ 4]  188 	beq	00106$
                                    189 ;	Raw cost for generated ic 10 : (67, 87.799995) count=2.999995
                                    190 ;	skipping generated iCode
                                    191 ;	Raw cost for generated ic 11 : (0, 0.000000) count=2.999995
                                    192 ;	../__stdc_count_ones.c: 42: count++;
                                    193 ;	genPlus
                                    194 ;	  genPlusInc
      00009E BD 0A 01         [ 5]  195 	lda	0x10a,x
      0000A1 18               [ 2]  196 	clc
      0000A2 69 01            [ 2]  197 	adc	#0x01
      0000A4 9D 0A 01         [ 5]  198 	sta	0x10a,x
                                    199 ;	Raw cost for generated ic 15 : (9, 13.000000) count=2.249995
                                    200 ;	genLabel
      0000A7                        201 00106$:
                                    202 ;	Raw cost for generated ic 18 : (0, 0.000000) count=2.999993
                                    203 ;	../__stdc_count_ones.c: 40: for(uint_fast8_t i = 0; i < ULLONG_WIDTH; i++)
                                    204 ;	genPlus
                                    205 ;	  genPlusInc
      0000A7 C8               [ 2]  206 	iny
                                    207 ;	Raw cost for generated ic 20 : (1, 2.000000) count=2.999993
                                    208 ;	genGoto
      0000A8 4Cr0Dr00         [ 3]  209 	jmp	00105$
                                    210 ;	Raw cost for generated ic 22 : (3, 3.000000) count=2.999993
                                    211 ;	genLabel
      0000AB                        212 00103$:
                                    213 ;	Raw cost for generated ic 23 : (0, 0.000000) count=0.999997
                                    214 ;	../__stdc_count_ones.c: 43: return count;
                                    215 ;	genCast
                                    216 ;	genCopy
      0000AB BA               [ 2]  217 	tsx
      0000AC BD 09 01         [ 5]  218 	lda	0x109,x
      0000AF 9D 01 01         [ 5]  219 	sta	0x101,x
                                    220 ;	Raw cost for generated ic 24 : (7, 11.000000) count=0.999997
                                    221 ;	genRet
                                    222 ;	Raw cost for generated ic 25 : (0, 0.000000) count=0.999997
                                    223 ;	genLabel
                                    224 ;	Raw cost for generated ic 26 : (0, 0.000000) count=0.999997
                                    225 ;	../__stdc_count_ones.c: 44: }
                                    226 ;	genEndFunction
                                    227 ;	  adjustStack : cycles stk:42  incdec:28  adc:24
      0000B2 86*00            [ 3]  228 	stx	*(REGTEMP+0)
      0000B4 85*01            [ 3]  229 	sta	*(REGTEMP+1)
      0000B6 BA               [ 2]  230 	tsx
      0000B7 8A               [ 2]  231 	txa
      0000B8 18               [ 2]  232 	clc
      0000B9 69 09            [ 2]  233 	adc	#0x09
      0000BB AA               [ 2]  234 	tax
      0000BC 9A               [ 2]  235 	txs
      0000BD A5*01            [ 3]  236 	lda	*(REGTEMP+1)
      0000BF A6*00            [ 3]  237 	ldx	*(REGTEMP+0)
      0000C1 60               [ 6]  238 	rts
                                    239 ;	Raw cost for generated ic 27 : (16, 30.000000) count=0.999997
                                    240 	.area CODE
                                    241 	.area RODATA
                                    242 	.area XINIT
                                    243 	.area CABS    (ABS)
