                                      1 ;--------------------------------------------------------
                                      2 ; File Created by SDCC : free open source ISO C Compiler
                                      3 ; Version 4.5.10 #15691 (Linux)
                                      4 ;--------------------------------------------------------
                                      5 	.module _fs2schar
                                      6 	
                                      7 	.optsdcc -mmos6502
                                      8 
                                      9 ;--------------------------------------------------------
                                     10 ;  Ordering of segments for the linker.
                                     11 ;--------------------------------------------------------
                                     12 	.area ZP      (PAG)
                                     13 	.area OSEG    (PAG, OVR)
                                     14 	.area _CODE
                                     15 	.area GSINIT
                                     16 	.area GSFINAL
                                     17 	.area CODE
                                     18 	.area RODATA
                                     19 	.area XINIT
                                     20 	.area _DATA
                                     21 	.area DATA
                                     22 	.area BSS
                                     23 ;--------------------------------------------------------
                                     24 ; Public variables in this module
                                     25 ;--------------------------------------------------------
                                     26 	.globl ___fs2slong
                                     27 	.globl ___fs2schar
                                     28 ;--------------------------------------------------------
                                     29 ; ZP ram data
                                     30 ;--------------------------------------------------------
                                     31 	.area ZP      (PAG)
                                     32 ;--------------------------------------------------------
                                     33 ; overlayable items in ram
                                     34 ;--------------------------------------------------------
                                     35 ;--------------------------------------------------------
                                     36 ; uninitialized external ram data
                                     37 ;--------------------------------------------------------
                                     38 	.area BSS
                                     39 ;--------------------------------------------------------
                                     40 ; absolute external ram data
                                     41 ;--------------------------------------------------------
                                     42 	.area DABS    (ABS)
                                     43 ;--------------------------------------------------------
                                     44 ; initialized external ram data
                                     45 ;--------------------------------------------------------
                                     46 	.area DATA
                                     47 ;--------------------------------------------------------
                                     48 ; global & static initialisations
                                     49 ;--------------------------------------------------------
                                     50 	.area _CODE
                                     51 	.area GSINIT
                                     52 	.area GSFINAL
                                     53 	.area GSINIT
                                     54 ;--------------------------------------------------------
                                     55 ; Home
                                     56 ;--------------------------------------------------------
                                     57 	.area _CODE
                                     58 	.area _CODE
                                     59 ;--------------------------------------------------------
                                     60 ; code
                                     61 ;--------------------------------------------------------
                                     62 	.area CODE
                                     63 ;------------------------------------------------------------
                                     64 ;Allocation info for local variables in function '__fs2schar'
                                     65 ;------------------------------------------------------------
                                     66 ;f             Allocated to stack - sp +7 +4 
                                     67 ;sl            Allocated to stack - sp +1 +4 
                                     68 ;sloc0         Allocated to stack - sp +1 +4 
                                     69 ;------------------------------------------------------------
                                     70 ;	../_fs2schar.c: 87: signed char __fs2schar (float f) __SDCC_FLOAT_NONBANKED
                                     71 ;	genLabel
                                     72 ;	Raw cost for generated ic 0 : (0, 0.000000) count=1.000000
                                     73 ;	-----------------------------------------
                                     74 ;	 function __fs2schar
                                     75 ;	-----------------------------------------
                                     76 ;	Register assignment is optimal.
                                     77 ;	Stack space usage: 4 bytes.
      000000                         78 ___fs2schar:
                                     79 ;	  adjustStack : cycles stk:12  incdec:12  adc:12
      000000 48               [ 3]   80 	pha
      000001 48               [ 3]   81 	pha
      000002 48               [ 3]   82 	pha
      000003 48               [ 3]   83 	pha
                                     84 ;	Raw cost for generated ic 1 : (4, 12.000000) count=1.000000
                                     85 ;	../_fs2schar.c: 89: signed long sl=__fs2slong(f);
                                     86 ;	genIpush
      000004 BA               [ 2]   87 	tsx
      000005 BD 0A 01         [ 5]   88 	lda	0x10a,x
      000008 48               [ 3]   89 	pha
      000009 BD 09 01         [ 5]   90 	lda	0x109,x
      00000C 48               [ 3]   91 	pha
      00000D BD 08 01         [ 5]   92 	lda	0x108,x
      000010 48               [ 3]   93 	pha
      000011 BD 07 01         [ 5]   94 	lda	0x107,x
      000014 48               [ 3]   95 	pha
                                     96 ;	Raw cost for generated ic 2 : (17, 30.000000) count=1.000000
                                     97 ;	genCall
      000015 20r00r00         [ 6]   98 	jsr	___fs2slong
                                     99 ;	assignResultValue
      000018 86*00            [ 3]  100 	stx	*(REGTEMP+0)
      00001A BA               [ 2]  101 	tsx
      00001B 9D 05 01         [ 5]  102 	sta	0x105,x
      00001E A5*00            [ 3]  103 	lda	*(REGTEMP+0)
      000020 9D 06 01         [ 5]  104 	sta	0x106,x
      000023 A5*00            [ 3]  105 	lda	*___SDCC_m6502_ret2
      000025 9D 07 01         [ 5]  106 	sta	0x107,x
      000028 A5*00            [ 3]  107 	lda	*___SDCC_m6502_ret3
      00002A 9D 08 01         [ 5]  108 	sta	0x108,x
                                    109 ;	  adjustStack : cycles stk:16  incdec:10  adc:10
      00002D E8               [ 2]  110 	inx
      00002E E8               [ 2]  111 	inx
      00002F E8               [ 2]  112 	inx
      000030 E8               [ 2]  113 	inx
      000031 9A               [ 2]  114 	txs
                                    115 ;	Raw cost for generated ic 3 : (29, 50.000000) count=1.000000
                                    116 ;	../_fs2schar.c: 90: if (sl>=SCHAR_MAX)
                                    117 ;	genCmp
      000032 BD 01 01         [ 5]  118 	lda	0x101,x
      000035 38               [ 2]  119 	sec
      000036 E9 7F            [ 2]  120 	sbc	#0x7f
      000038 BD 02 01         [ 5]  121 	lda	0x102,x
      00003B E9 00            [ 2]  122 	sbc	#0x00
      00003D BD 03 01         [ 5]  123 	lda	0x103,x
      000040 E9 00            [ 2]  124 	sbc	#0x00
      000042 BD 04 01         [ 5]  125 	lda	0x104,x
      000045 E9 00            [ 2]  126 	sbc	#0x00
      000047 70 04            [ 4]  127 	bvs	00120$
      000049 10 04            [ 4]  128 	bpl	00119$
      00004B 30 07            [ 4]  129 	bmi	00102$
      00004D                        130 00120$:
      00004D 10 05            [ 4]  131 	bpl	00102$
      00004F                        132 00119$:
                                    133 ;	Raw cost for generated ic 5 : (32, 39.399998) count=1.000000
                                    134 ;	skipping generated iCode
                                    135 ;	Raw cost for generated ic 6 : (0, 0.000000) count=1.000000
                                    136 ;	../_fs2schar.c: 91: return SCHAR_MAX;
                                    137 ;	genRet
      00004F A9 7F            [ 2]  138 	lda	#0x7f
      000051 4Cr7Br00         [ 3]  139 	jmp	00105$
                                    140 ;	Raw cost for generated ic 9 : (5, 5.000000) count=0.750000
                                    141 ;	genLabel
      000054                        142 00102$:
                                    143 ;	Raw cost for generated ic 10 : (0, 0.000000) count=1.000000
                                    144 ;	../_fs2schar.c: 92: if (sl<=SCHAR_MIN)
                                    145 ;	genCmp
      000054 A9 80            [ 2]  146 	lda	#0x80
      000056 38               [ 2]  147 	sec
      000057 BA               [ 2]  148 	tsx
      000058 FD 01 01         [ 5]  149 	sbc	0x101,x
      00005B A9 FF            [ 2]  150 	lda	#0xff
      00005D FD 02 01         [ 5]  151 	sbc	0x102,x
      000060 A9 FF            [ 2]  152 	lda	#0xff
      000062 FD 03 01         [ 5]  153 	sbc	0x103,x
      000065 A9 FF            [ 2]  154 	lda	#0xff
      000067 FD 04 01         [ 5]  155 	sbc	0x104,x
      00006A 70 04            [ 4]  156 	bvs	00123$
      00006C 10 04            [ 4]  157 	bpl	00122$
      00006E 30 07            [ 4]  158 	bmi	00104$
      000070                        159 00123$:
      000070 10 05            [ 4]  160 	bpl	00104$
      000072                        161 00122$:
                                    162 ;	Raw cost for generated ic 11 : (33, 41.399998) count=1.000000
                                    163 ;	skipping generated iCode
                                    164 ;	Raw cost for generated ic 12 : (0, 0.000000) count=1.000000
                                    165 ;	../_fs2schar.c: 93: return -SCHAR_MIN;
                                    166 ;	genRet
      000072 A9 80            [ 2]  167 	lda	#0x80
      000074 4Cr7Br00         [ 3]  168 	jmp	00105$
                                    169 ;	Raw cost for generated ic 15 : (5, 5.000000) count=0.750000
                                    170 ;	genLabel
      000077                        171 00104$:
                                    172 ;	Raw cost for generated ic 16 : (0, 0.000000) count=1.000000
                                    173 ;	../_fs2schar.c: 94: return sl;
                                    174 ;	genCast
                                    175 ;	genCopy
      000077 BA               [ 2]  176 	tsx
      000078 BD 01 01         [ 5]  177 	lda	0x101,x
                                    178 ;	Raw cost for generated ic 17 : (4, 6.000000) count=1.000000
                                    179 ;	genRet
                                    180 ;	Raw cost for generated ic 18 : (0, 0.000000) count=1.000000
                                    181 ;	genLabel
      00007B                        182 00105$:
                                    183 ;	Raw cost for generated ic 19 : (0, 0.000000) count=1.000000
                                    184 ;	../_fs2schar.c: 95: }
                                    185 ;	genEndFunction
                                    186 ;	  adjustStack : cycles stk:22  incdec:18  adc:24
      00007B 86*00            [ 3]  187 	stx	*(REGTEMP+0)
      00007D BA               [ 2]  188 	tsx
      00007E E8               [ 2]  189 	inx
      00007F E8               [ 2]  190 	inx
      000080 E8               [ 2]  191 	inx
      000081 E8               [ 2]  192 	inx
      000082 9A               [ 2]  193 	txs
      000083 A6*00            [ 3]  194 	ldx	*(REGTEMP+0)
      000085 60               [ 6]  195 	rts
                                    196 ;	Raw cost for generated ic 20 : (11, 24.000000) count=1.000000
                                    197 	.area CODE
                                    198 	.area RODATA
                                    199 	.area XINIT
                                    200 	.area CABS    (ABS)
