                                      1 ;--------------------------------------------------------
                                      2 ; File Created by SDCC : free open source ISO C Compiler
                                      3 ; Version 4.5.10 #15691 (Linux)
                                      4 ;--------------------------------------------------------
                                      5 	.module _mullonglong
                                      6 	
                                      7 	.optsdcc -mmos6502
                                      8 
                                      9 ;--------------------------------------------------------
                                     10 ;  Ordering of segments for the linker.
                                     11 ;--------------------------------------------------------
                                     12 	.area ZP      (PAG)
                                     13 	.area OSEG    (PAG, OVR)
                                     14 	.area _CODE
                                     15 	.area GSINIT
                                     16 	.area GSFINAL
                                     17 	.area CODE
                                     18 	.area RODATA
                                     19 	.area XINIT
                                     20 	.area _DATA
                                     21 	.area DATA
                                     22 	.area BSS
                                     23 ;--------------------------------------------------------
                                     24 ; Public variables in this module
                                     25 ;--------------------------------------------------------
                                     26 	.globl __mullonglong
                                     27 ;--------------------------------------------------------
                                     28 ; ZP ram data
                                     29 ;--------------------------------------------------------
                                     30 	.area ZP      (PAG)
                                     31 ;--------------------------------------------------------
                                     32 ; overlayable items in ram
                                     33 ;--------------------------------------------------------
                                     34 ;--------------------------------------------------------
                                     35 ; uninitialized external ram data
                                     36 ;--------------------------------------------------------
                                     37 	.area BSS
                                     38 ;--------------------------------------------------------
                                     39 ; absolute external ram data
                                     40 ;--------------------------------------------------------
                                     41 	.area DABS    (ABS)
                                     42 ;--------------------------------------------------------
                                     43 ; initialized external ram data
                                     44 ;--------------------------------------------------------
                                     45 	.area DATA
                                     46 ;--------------------------------------------------------
                                     47 ; global & static initialisations
                                     48 ;--------------------------------------------------------
                                     49 	.area _CODE
                                     50 	.area GSINIT
                                     51 	.area GSFINAL
                                     52 	.area GSINIT
                                     53 ;--------------------------------------------------------
                                     54 ; Home
                                     55 ;--------------------------------------------------------
                                     56 	.area _CODE
                                     57 	.area _CODE
                                     58 ;--------------------------------------------------------
                                     59 ; code
                                     60 ;--------------------------------------------------------
                                     61 	.area CODE
                                     62 ;------------------------------------------------------------
                                     63 ;Allocation info for local variables in function '_mullonglong'
                                     64 ;------------------------------------------------------------
                                     65 ;ll            Allocated to stack - sp +21 +8 
                                     66 ;lr            Allocated to stack - sp +29 +8 
                                     67 ;ret           Allocated to stack - sp +1 +8 
                                     68 ;i             Allocated to stack - sp +18 +1 
                                     69 ;j             Allocated to registers y 
                                     70 ;l             Allocated to stack - sp +17 +1 
                                     71 ;r             Allocated to registers a 
                                     72 ;sloc0         Allocated to stack - sp +9 +8 
                                     73 ;------------------------------------------------------------
                                     74 ;	../_mullonglong.c: 35: long long _mullonglong(long long ll, long long lr) __SDCC_NONBANKED
                                     75 ;	genLabel
                                     76 ;	Raw cost for generated ic 0 : (0, 0.000000) count=1.000000
                                     77 ;	-----------------------------------------
                                     78 ;	 function _mullonglong
                                     79 ;	-----------------------------------------
                                     80 ;	Register assignment is optimal.
                                     81 ;	Stack space usage: 18 bytes.
      000000                         82 __mullonglong:
                                     83 ;	  adjustStack : cycles stk:54  incdec:40  adc:12
      000000 BA               [ 2]   84 	tsx
      000001 8A               [ 2]   85 	txa
      000002 18               [ 2]   86 	clc
      000003 69 EE            [ 2]   87 	adc	#0xee
      000005 AA               [ 2]   88 	tax
      000006 9A               [ 2]   89 	txs
                                     90 ;	Raw cost for generated ic 1 : (7, 12.000000) count=1.000000
                                     91 ;	../_mullonglong.c: 37: unsigned long long ret = 0ull;
                                     92 ;	genAssign
                                     93 ;	genAssignLit
      000007 A9 00            [ 2]   94 	lda	#0x00
      000009 9D 01 01         [ 5]   95 	sta	0x101,x
      00000C 9D 02 01         [ 5]   96 	sta	0x102,x
      00000F 9D 03 01         [ 5]   97 	sta	0x103,x
      000012 9D 04 01         [ 5]   98 	sta	0x104,x
      000015 9D 05 01         [ 5]   99 	sta	0x105,x
      000018 9D 06 01         [ 5]  100 	sta	0x106,x
      00001B 9D 07 01         [ 5]  101 	sta	0x107,x
      00001E 9D 08 01         [ 5]  102 	sta	0x108,x
                                    103 ;	Raw cost for generated ic 2 : (26, 42.000000) count=1.000000
                                    104 ;	../_mullonglong.c: 40: for (i = 0; i < sizeof (long long); i++)
                                    105 ;	genAssign
                                    106 ;	genAssignLit
      000021 9D 12 01         [ 5]  107 	sta	0x112,x
                                    108 ;	Raw cost for generated ic 61 : (3, 5.000000) count=1.000000
                                    109 ;	genLabel
      000024                        110 00106$:
                                    111 ;	Raw cost for generated ic 4 : (0, 0.000000) count=3.969304
                                    112 ;	../_mullonglong.c: 42: unsigned char l = ll >> (i * 8);
                                    113 ;	genLeftShift
                                    114 ;	genLeftShiftLiteral
                                    115 ;	  genlsh8 - shift=3
      000024 BA               [ 2]  116 	tsx
      000025 BD 12 01         [ 5]  117 	lda	0x112,x
      000028 0A               [ 2]  118 	asl	a
      000029 0A               [ 2]  119 	asl	a
      00002A 0A               [ 2]  120 	asl	a
                                    121 ;	Raw cost for generated ic 6 : (7, 12.000000) count=3.969304
                                    122 ;	genCast
                                    123 ;	genCopy
                                    124 ;	Raw cost for generated ic 70 : (0, 0.000000) count=3.969304
                                    125 ;	genIpush
      00002B 48               [ 3]  126 	pha
                                    127 ;	Raw cost for generated ic 71 : (1, 3.000000) count=3.969304
                                    128 ;	genIpush
      00002C BD 1C 01         [ 5]  129 	lda	0x11c,x
      00002F 48               [ 3]  130 	pha
      000030 BD 1B 01         [ 5]  131 	lda	0x11b,x
      000033 48               [ 3]  132 	pha
      000034 BD 1A 01         [ 5]  133 	lda	0x11a,x
      000037 48               [ 3]  134 	pha
      000038 BD 19 01         [ 5]  135 	lda	0x119,x
      00003B 48               [ 3]  136 	pha
      00003C BD 18 01         [ 5]  137 	lda	0x118,x
      00003F 48               [ 3]  138 	pha
      000040 BD 17 01         [ 5]  139 	lda	0x117,x
      000043 48               [ 3]  140 	pha
      000044 BD 16 01         [ 5]  141 	lda	0x116,x
      000047 48               [ 3]  142 	pha
      000048 BD 15 01         [ 5]  143 	lda	0x115,x
      00004B 48               [ 3]  144 	pha
                                    145 ;	Raw cost for generated ic 72 : (32, 56.000000) count=3.969304
                                    146 ;	genCall
      00004C 20r00r00         [ 6]  147 	jsr	__srslonglong
                                    148 ;	assignResultValue
      00004F 86*00            [ 3]  149 	stx	*(REGTEMP+0)
      000051 BA               [ 2]  150 	tsx
      000052 9D 12 01         [ 5]  151 	sta	0x112,x
      000055 A5*00            [ 3]  152 	lda	*(REGTEMP+0)
      000057 9D 13 01         [ 5]  153 	sta	0x113,x
      00005A A5*00            [ 3]  154 	lda	*___SDCC_m6502_ret2
      00005C 9D 14 01         [ 5]  155 	sta	0x114,x
      00005F A5*00            [ 3]  156 	lda	*___SDCC_m6502_ret3
      000061 9D 15 01         [ 5]  157 	sta	0x115,x
      000064 A5*00            [ 3]  158 	lda	*___SDCC_m6502_ret4
      000066 9D 16 01         [ 5]  159 	sta	0x116,x
      000069 A5*00            [ 3]  160 	lda	*___SDCC_m6502_ret5
      00006B 9D 17 01         [ 5]  161 	sta	0x117,x
      00006E A5*00            [ 3]  162 	lda	*___SDCC_m6502_ret6
      000070 9D 18 01         [ 5]  163 	sta	0x118,x
      000073 A5*00            [ 3]  164 	lda	*___SDCC_m6502_ret7
      000075 9D 19 01         [ 5]  165 	sta	0x119,x
                                    166 ;	  adjustStack : cycles stk:36  incdec:20  adc:10
      000078 8A               [ 2]  167 	txa
      000079 18               [ 2]  168 	clc
      00007A 69 09            [ 2]  169 	adc	#0x09
      00007C AA               [ 2]  170 	tax
      00007D 9A               [ 2]  171 	txs
                                    172 ;	Raw cost for generated ic 73 : (50, 82.000000) count=3.969304
                                    173 ;	genCast
                                    174 ;	genCopy
      00007E BD 09 01         [ 5]  175 	lda	0x109,x
      000081 9D 11 01         [ 5]  176 	sta	0x111,x
                                    177 ;	Raw cost for generated ic 8 : (6, 9.000000) count=3.969304
                                    178 ;	../_mullonglong.c: 43: for(j = 0; (i + j) < sizeof (long long); j++)
                                    179 ;	genAssign
                                    180 ;	genCopy
      000084 A0 00            [ 2]  181 	ldy	#0x00
                                    182 ;	Raw cost for generated ic 58 : (2, 2.000000) count=3.969304
                                    183 ;	genLabel
      000086                        184 00104$:
                                    185 ;	Raw cost for generated ic 11 : (0, 0.000000) count=15.846519
                                    186 ;	genCast
                                    187 ;	genCopy
      000086 A9 00            [ 2]  188 	lda	#0x00
      000088 BA               [ 2]  189 	tsx
      000089 9D 0A 01         [ 5]  190 	sta	0x10a,x
      00008C BD 12 01         [ 5]  191 	lda	0x112,x
      00008F 9D 09 01         [ 5]  192 	sta	0x109,x
                                    193 ;	Raw cost for generated ic 12 : (12, 18.000000) count=15.846519
                                    194 ;	genCast
                                    195 ;	genCopy
      000092 A2 00            [ 2]  196 	ldx	#0x00
      000094 98               [ 2]  197 	tya
                                    198 ;	Raw cost for generated ic 13 : (3, 4.000000) count=15.846519
                                    199 ;	genPlus
      000095 18               [ 2]  200 	clc
      000096 BA               [ 2]  201 	tsx
      000097 7D 09 01         [ 5]  202 	adc	0x109,x
      00009A 48               [ 3]  203 	pha
      00009B A9 00            [ 2]  204 	lda	#0x00
      00009D 7D 0A 01         [ 5]  205 	adc	0x10a,x
      0000A0 AA               [ 2]  206 	tax
      0000A1 68               [ 4]  207 	pla
                                    208 ;	Raw cost for generated ic 14 : (13, 23.000000) count=15.846519
                                    209 ;	genCmp
      0000A2 38               [ 2]  210 	sec
      0000A3 E9 08            [ 2]  211 	sbc	#0x08
      0000A5 8A               [ 2]  212 	txa
      0000A6 E9 00            [ 2]  213 	sbc	#0x00
      0000A8 50 04            [ 4]  214 	bvc	00137$
      0000AA 10 07            [ 4]  215 	bpl	00136$
      0000AC 30 02            [ 4]  216 	bmi	00138$
      0000AE                        217 00137$:
      0000AE 30 03            [ 4]  218 	bmi	00136$
      0000B0                        219 00138$:
      0000B0 4Cr04r02         [ 3]  220 	jmp	00107$
      0000B3                        221 00136$:
                                    222 ;	Raw cost for generated ic 15 : (17, 21.400002) count=15.846519
                                    223 ;	skipping generated iCode
                                    224 ;	Raw cost for generated ic 16 : (0, 0.000000) count=15.846519
                                    225 ;	../_mullonglong.c: 45: unsigned char r = lr >> (j * 8);
                                    226 ;	genLeftShift
                                    227 ;	genLeftShiftLiteral
                                    228 ;	  genlsh8 - shift=3
      0000B3 98               [ 2]  229 	tya
      0000B4 0A               [ 2]  230 	asl	a
      0000B5 0A               [ 2]  231 	asl	a
      0000B6 0A               [ 2]  232 	asl	a
                                    233 ;	Raw cost for generated ic 20 : (4, 8.000000) count=11.884890
                                    234 ;	genCast
                                    235 ;	genCopy
                                    236 ;	Raw cost for generated ic 74 : (0, 0.000000) count=11.884890
                                    237 ;	genIpush
      0000B7 85*00            [ 3]  238 	sta	*(REGTEMP+0)
      0000B9 98               [ 2]  239 	tya
      0000BA 48               [ 3]  240 	pha
      0000BB A5*00            [ 3]  241 	lda	*(REGTEMP+0)
      0000BD 48               [ 3]  242 	pha
                                    243 ;	Raw cost for generated ic 75 : (7, 14.000000) count=11.884890
                                    244 ;	genIpush
      0000BE BA               [ 2]  245 	tsx
      0000BF BD 26 01         [ 5]  246 	lda	0x126,x
      0000C2 48               [ 3]  247 	pha
      0000C3 BD 25 01         [ 5]  248 	lda	0x125,x
      0000C6 48               [ 3]  249 	pha
      0000C7 BD 24 01         [ 5]  250 	lda	0x124,x
      0000CA 48               [ 3]  251 	pha
      0000CB BD 23 01         [ 5]  252 	lda	0x123,x
      0000CE 48               [ 3]  253 	pha
      0000CF BD 22 01         [ 5]  254 	lda	0x122,x
      0000D2 48               [ 3]  255 	pha
      0000D3 BD 21 01         [ 5]  256 	lda	0x121,x
      0000D6 48               [ 3]  257 	pha
      0000D7 BD 20 01         [ 5]  258 	lda	0x120,x
      0000DA 48               [ 3]  259 	pha
      0000DB BD 1F 01         [ 5]  260 	lda	0x11f,x
      0000DE 48               [ 3]  261 	pha
                                    262 ;	Raw cost for generated ic 76 : (33, 58.000000) count=11.884890
                                    263 ;	genCall
      0000DF 20r00r00         [ 6]  264 	jsr	__srslonglong
                                    265 ;	assignResultValue
      0000E2 86*00            [ 3]  266 	stx	*(REGTEMP+0)
      0000E4 BA               [ 2]  267 	tsx
      0000E5 9D 13 01         [ 5]  268 	sta	0x113,x
      0000E8 A5*00            [ 3]  269 	lda	*(REGTEMP+0)
      0000EA 9D 14 01         [ 5]  270 	sta	0x114,x
      0000ED A5*00            [ 3]  271 	lda	*___SDCC_m6502_ret2
      0000EF 9D 15 01         [ 5]  272 	sta	0x115,x
      0000F2 A5*00            [ 3]  273 	lda	*___SDCC_m6502_ret3
      0000F4 9D 16 01         [ 5]  274 	sta	0x116,x
      0000F7 A5*00            [ 3]  275 	lda	*___SDCC_m6502_ret4
      0000F9 9D 17 01         [ 5]  276 	sta	0x117,x
      0000FC A5*00            [ 3]  277 	lda	*___SDCC_m6502_ret5
      0000FE 9D 18 01         [ 5]  278 	sta	0x118,x
      000101 A5*00            [ 3]  279 	lda	*___SDCC_m6502_ret6
      000103 9D 19 01         [ 5]  280 	sta	0x119,x
      000106 A5*00            [ 3]  281 	lda	*___SDCC_m6502_ret7
      000108 9D 1A 01         [ 5]  282 	sta	0x11a,x
                                    283 ;	  adjustStack : cycles stk:36  incdec:20  adc:10
      00010B 8A               [ 2]  284 	txa
      00010C 18               [ 2]  285 	clc
      00010D 69 09            [ 2]  286 	adc	#0x09
      00010F AA               [ 2]  287 	tax
      000110 9A               [ 2]  288 	txs
      000111 85*00            [ 3]  289 	sta	*(REGTEMP+0)
      000113 68               [ 4]  290 	pla
      000114 A8               [ 2]  291 	tay
                                    292 ;	Raw cost for generated ic 77 : (56, 94.000000) count=11.884890
                                    293 ;	genCast
                                    294 ;	genCopy
      000115 BD 0A 01         [ 5]  295 	lda	0x10a,x
                                    296 ;	Raw cost for generated ic 22 : (3, 4.000000) count=11.884890
                                    297 ;	../_mullonglong.c: 46: ret += (unsigned long long)((unsigned short)(l * r)) << ((i + j) * 8);
                                    298 ;	Raw cost for generated ic 78 : (0, 0.000000) count=11.884890
                                    299 ;	Raw cost for generated ic 79 : (0, 0.000000) count=11.884890
                                    300 ;	genCall
      000118 85*00            [ 3]  301 	sta	*(REGTEMP+0)
      00011A 98               [ 2]  302 	tya
      00011B 48               [ 3]  303 	pha
      00011C A5*00            [ 3]  304 	lda	*(REGTEMP+0)
                                    305 ;	genSend
      00011E AA               [ 2]  306 	tax
      00011F 86*00            [ 3]  307 	stx	*(REGTEMP+0)
      000121 BA               [ 2]  308 	tsx
      000122 BD 12 01         [ 5]  309 	lda	0x112,x
      000125 08               [ 3]  310 	php
      000126 A6*00            [ 3]  311 	ldx	*(REGTEMP+0)
      000128 28               [ 4]  312 	plp
      000129 20r00r00         [ 6]  313 	jsr	__muluchar
                                    314 ;	assignResultValue
      00012C 86*00            [ 3]  315 	stx	*(REGTEMP+0)
      00012E BA               [ 2]  316 	tsx
      00012F 9D 0A 01         [ 5]  317 	sta	0x10a,x
      000132 A5*00            [ 3]  318 	lda	*(REGTEMP+0)
      000134 9D 0B 01         [ 5]  319 	sta	0x10b,x
      000137 85*00            [ 3]  320 	sta	*(REGTEMP+0)
      000139 68               [ 4]  321 	pla
      00013A A8               [ 2]  322 	tay
                                    323 ;	Raw cost for generated ic 80 : (37, 68.000000) count=11.884890
                                    324 ;	genCast
                                    325 ;	genCopy
                                    326 ;	Raw cost for generated ic 25 : (0, 0.000000) count=11.884890
                                    327 ;	genCast
                                    328 ;	genCopy
      00013B A9 00            [ 2]  329 	lda	#0x00
      00013D 9D 11 01         [ 5]  330 	sta	0x111,x
      000140 9D 10 01         [ 5]  331 	sta	0x110,x
      000143 9D 0F 01         [ 5]  332 	sta	0x10f,x
      000146 9D 0E 01         [ 5]  333 	sta	0x10e,x
      000149 9D 0D 01         [ 5]  334 	sta	0x10d,x
      00014C 9D 0C 01         [ 5]  335 	sta	0x10c,x
      00014F BD 0A 01         [ 5]  336 	lda	0x10a,x
                                    337 ;	Raw cost for generated ic 26 : (32, 50.000000) count=11.884890
                                    338 ;	genPlus
      000152 98               [ 2]  339 	tya
      000153 18               [ 2]  340 	clc
      000154 7D 13 01         [ 5]  341 	adc	0x113,x
                                    342 ;	Raw cost for generated ic 29 : (5, 8.000000) count=11.884890
                                    343 ;	genLeftShift
                                    344 ;	genLeftShiftLiteral
                                    345 ;	  genlsh8 - shift=3
      000157 0A               [ 2]  346 	asl	a
      000158 0A               [ 2]  347 	asl	a
      000159 0A               [ 2]  348 	asl	a
                                    349 ;	Raw cost for generated ic 30 : (3, 6.000000) count=11.884890
                                    350 ;	genCast
                                    351 ;	genCopy
                                    352 ;	Raw cost for generated ic 81 : (0, 0.000000) count=11.884890
                                    353 ;	genIpush
      00015A 85*00            [ 3]  354 	sta	*(REGTEMP+0)
      00015C 98               [ 2]  355 	tya
      00015D 48               [ 3]  356 	pha
      00015E A5*00            [ 3]  357 	lda	*(REGTEMP+0)
      000160 48               [ 3]  358 	pha
                                    359 ;	Raw cost for generated ic 82 : (7, 14.000000) count=11.884890
                                    360 ;	genIpush
      000161 BD 11 01         [ 5]  361 	lda	0x111,x
      000164 48               [ 3]  362 	pha
      000165 BD 10 01         [ 5]  363 	lda	0x110,x
      000168 48               [ 3]  364 	pha
      000169 BD 0F 01         [ 5]  365 	lda	0x10f,x
      00016C 48               [ 3]  366 	pha
      00016D BD 0E 01         [ 5]  367 	lda	0x10e,x
      000170 48               [ 3]  368 	pha
      000171 BD 0D 01         [ 5]  369 	lda	0x10d,x
      000174 48               [ 3]  370 	pha
      000175 BD 0C 01         [ 5]  371 	lda	0x10c,x
      000178 48               [ 3]  372 	pha
      000179 BD 0B 01         [ 5]  373 	lda	0x10b,x
      00017C 48               [ 3]  374 	pha
      00017D BD 0A 01         [ 5]  375 	lda	0x10a,x
      000180 48               [ 3]  376 	pha
                                    377 ;	Raw cost for generated ic 83 : (32, 56.000000) count=11.884890
                                    378 ;	genCall
      000181 20r00r00         [ 6]  379 	jsr	__slulonglong
                                    380 ;	assignResultValue
      000184 86*00            [ 3]  381 	stx	*(REGTEMP+0)
      000186 BA               [ 2]  382 	tsx
      000187 9D 13 01         [ 5]  383 	sta	0x113,x
      00018A A5*00            [ 3]  384 	lda	*(REGTEMP+0)
      00018C 9D 14 01         [ 5]  385 	sta	0x114,x
      00018F A5*00            [ 3]  386 	lda	*___SDCC_m6502_ret2
      000191 9D 15 01         [ 5]  387 	sta	0x115,x
      000194 A5*00            [ 3]  388 	lda	*___SDCC_m6502_ret3
      000196 9D 16 01         [ 5]  389 	sta	0x116,x
      000199 A5*00            [ 3]  390 	lda	*___SDCC_m6502_ret4
      00019B 9D 17 01         [ 5]  391 	sta	0x117,x
      00019E A5*00            [ 3]  392 	lda	*___SDCC_m6502_ret5
      0001A0 9D 18 01         [ 5]  393 	sta	0x118,x
      0001A3 A5*00            [ 3]  394 	lda	*___SDCC_m6502_ret6
      0001A5 9D 19 01         [ 5]  395 	sta	0x119,x
      0001A8 A5*00            [ 3]  396 	lda	*___SDCC_m6502_ret7
      0001AA 9D 1A 01         [ 5]  397 	sta	0x11a,x
                                    398 ;	  adjustStack : cycles stk:36  incdec:20  adc:10
      0001AD 8A               [ 2]  399 	txa
      0001AE 18               [ 2]  400 	clc
      0001AF 69 09            [ 2]  401 	adc	#0x09
      0001B1 AA               [ 2]  402 	tax
      0001B2 9A               [ 2]  403 	txs
      0001B3 85*00            [ 3]  404 	sta	*(REGTEMP+0)
      0001B5 68               [ 4]  405 	pla
      0001B6 A8               [ 2]  406 	tay
                                    407 ;	Raw cost for generated ic 84 : (56, 94.000000) count=11.884890
                                    408 ;	genPlus
      0001B7 BD 02 01         [ 5]  409 	lda	0x102,x
      0001BA 18               [ 2]  410 	clc
      0001BB 7D 0A 01         [ 5]  411 	adc	0x10a,x
      0001BE 9D 02 01         [ 5]  412 	sta	0x102,x
      0001C1 BD 03 01         [ 5]  413 	lda	0x103,x
      0001C4 7D 0B 01         [ 5]  414 	adc	0x10b,x
      0001C7 9D 03 01         [ 5]  415 	sta	0x103,x
      0001CA BD 04 01         [ 5]  416 	lda	0x104,x
      0001CD 7D 0C 01         [ 5]  417 	adc	0x10c,x
      0001D0 9D 04 01         [ 5]  418 	sta	0x104,x
      0001D3 BD 05 01         [ 5]  419 	lda	0x105,x
      0001D6 7D 0D 01         [ 5]  420 	adc	0x10d,x
      0001D9 9D 05 01         [ 5]  421 	sta	0x105,x
      0001DC BD 06 01         [ 5]  422 	lda	0x106,x
      0001DF 7D 0E 01         [ 5]  423 	adc	0x10e,x
      0001E2 9D 06 01         [ 5]  424 	sta	0x106,x
      0001E5 BD 07 01         [ 5]  425 	lda	0x107,x
      0001E8 7D 0F 01         [ 5]  426 	adc	0x10f,x
      0001EB 9D 07 01         [ 5]  427 	sta	0x107,x
      0001EE BD 08 01         [ 5]  428 	lda	0x108,x
      0001F1 7D 10 01         [ 5]  429 	adc	0x110,x
      0001F4 9D 08 01         [ 5]  430 	sta	0x108,x
      0001F7 BD 09 01         [ 5]  431 	lda	0x109,x
      0001FA 7D 11 01         [ 5]  432 	adc	0x111,x
      0001FD 9D 09 01         [ 5]  433 	sta	0x109,x
                                    434 ;	Raw cost for generated ic 32 : (73, 106.000000) count=11.884890
                                    435 ;	../_mullonglong.c: 43: for(j = 0; (i + j) < sizeof (long long); j++)
                                    436 ;	genPlus
                                    437 ;	  genPlusInc
      000200 C8               [ 2]  438 	iny
                                    439 ;	Raw cost for generated ic 36 : (1, 2.000000) count=11.884890
                                    440 ;	genGoto
      000201 4Cr86r00         [ 3]  441 	jmp	00104$
                                    442 ;	Raw cost for generated ic 38 : (3, 3.000000) count=11.884890
                                    443 ;	genLabel
      000204                        444 00107$:
                                    445 ;	Raw cost for generated ic 40 : (0, 0.000000) count=3.961630
                                    446 ;	../_mullonglong.c: 40: for (i = 0; i < sizeof (long long); i++)
                                    447 ;	genPlus
                                    448 ;	  genPlusInc
      000204 BA               [ 2]  449 	tsx
      000205 BD 12 01         [ 5]  450 	lda	0x112,x
      000208 18               [ 2]  451 	clc
      000209 69 01            [ 2]  452 	adc	#0x01
      00020B 9D 12 01         [ 5]  453 	sta	0x112,x
                                    454 ;	Raw cost for generated ic 42 : (10, 15.000000) count=3.961630
                                    455 ;	genCmp
      00020E C9 08            [ 2]  456 	cmp	#0x08
      000210 B0 03            [ 4]  457 	bcs	00139$
      000212 4Cr24r00         [ 3]  458 	jmp	00106$
      000215                        459 00139$:
                                    460 ;	Raw cost for generated ic 44 : (7, 7.600000) count=3.961630
                                    461 ;	skipping generated iCode
                                    462 ;	Raw cost for generated ic 45 : (0, 0.000000) count=3.961630
                                    463 ;	../_mullonglong.c: 50: return(ret);
                                    464 ;	genRet
      000215 BD 08 01         [ 5]  465 	lda	0x108,x
      000218 85*00            [ 3]  466 	sta	*___SDCC_m6502_ret7
      00021A BD 07 01         [ 5]  467 	lda	0x107,x
      00021D 85*00            [ 3]  468 	sta	*___SDCC_m6502_ret6
      00021F BD 06 01         [ 5]  469 	lda	0x106,x
      000222 85*00            [ 3]  470 	sta	*___SDCC_m6502_ret5
      000224 BD 05 01         [ 5]  471 	lda	0x105,x
      000227 85*00            [ 3]  472 	sta	*___SDCC_m6502_ret4
      000229 BD 04 01         [ 5]  473 	lda	0x104,x
      00022C 85*00            [ 3]  474 	sta	*___SDCC_m6502_ret3
      00022E BD 03 01         [ 5]  475 	lda	0x103,x
      000231 85*00            [ 3]  476 	sta	*___SDCC_m6502_ret2
      000233 BD 02 01         [ 5]  477 	lda	0x102,x
      000236 85*00            [ 3]  478 	sta	*(REGTEMP+0)
      000238 BD 01 01         [ 5]  479 	lda	0x101,x
                                    480 ;	Raw cost for generated ic 48 : (40, 56.000000) count=0.990407
                                    481 ;	genLabel
                                    482 ;	Raw cost for generated ic 49 : (0, 0.000000) count=0.990407
                                    483 ;	../_mullonglong.c: 51: }
                                    484 ;	genEndFunction
                                    485 ;	  adjustStack : cycles stk:78  incdec:46  adc:24
      00023B A6*00            [ 3]  486 	ldx	*(REGTEMP+0)
      00023D 85*01            [ 3]  487 	sta	*(REGTEMP+1)
      00023F BA               [ 2]  488 	tsx
      000240 8A               [ 2]  489 	txa
      000241 18               [ 2]  490 	clc
      000242 69 12            [ 2]  491 	adc	#0x12
      000244 AA               [ 2]  492 	tax
      000245 9A               [ 2]  493 	txs
      000246 A5*01            [ 3]  494 	lda	*(REGTEMP+1)
      000248 A6*00            [ 3]  495 	ldx	*(REGTEMP+0)
      00024A 60               [ 6]  496 	rts
                                    497 ;	Raw cost for generated ic 50 : (16, 30.000000) count=0.990407
                                    498 	.area CODE
                                    499 	.area RODATA
                                    500 	.area XINIT
                                    501 	.area CABS    (ABS)
