                                      1 ;--------------------------------------------------------
                                      2 ; File Created by SDCC : free open source ISO C Compiler
                                      3 ; Version 4.5.10 #15691 (Linux)
                                      4 ;--------------------------------------------------------
                                      5 	.module _srulonglong
                                      6 	
                                      7 	.optsdcc -mmos6502
                                      8 
                                      9 ;--------------------------------------------------------
                                     10 ;  Ordering of segments for the linker.
                                     11 ;--------------------------------------------------------
                                     12 	.area ZP      (PAG)
                                     13 	.area OSEG    (PAG, OVR)
                                     14 	.area _CODE
                                     15 	.area GSINIT
                                     16 	.area GSFINAL
                                     17 	.area CODE
                                     18 	.area RODATA
                                     19 	.area XINIT
                                     20 	.area _DATA
                                     21 	.area DATA
                                     22 	.area BSS
                                     23 ;--------------------------------------------------------
                                     24 ; Public variables in this module
                                     25 ;--------------------------------------------------------
                                     26 	.globl __srulonglong
                                     27 ;--------------------------------------------------------
                                     28 ; ZP ram data
                                     29 ;--------------------------------------------------------
                                     30 	.area ZP      (PAG)
                                     31 ;--------------------------------------------------------
                                     32 ; overlayable items in ram
                                     33 ;--------------------------------------------------------
                                     34 ;--------------------------------------------------------
                                     35 ; uninitialized external ram data
                                     36 ;--------------------------------------------------------
                                     37 	.area BSS
                                     38 ;--------------------------------------------------------
                                     39 ; absolute external ram data
                                     40 ;--------------------------------------------------------
                                     41 	.area DABS    (ABS)
                                     42 ;--------------------------------------------------------
                                     43 ; initialized external ram data
                                     44 ;--------------------------------------------------------
                                     45 	.area DATA
                                     46 ;--------------------------------------------------------
                                     47 ; global & static initialisations
                                     48 ;--------------------------------------------------------
                                     49 	.area _CODE
                                     50 	.area GSINIT
                                     51 	.area GSFINAL
                                     52 	.area GSINIT
                                     53 ;--------------------------------------------------------
                                     54 ; Home
                                     55 ;--------------------------------------------------------
                                     56 	.area _CODE
                                     57 	.area _CODE
                                     58 ;--------------------------------------------------------
                                     59 ; code
                                     60 ;--------------------------------------------------------
                                     61 	.area CODE
                                     62 ;------------------------------------------------------------
                                     63 ;Allocation info for local variables in function '_srulonglong'
                                     64 ;------------------------------------------------------------
                                     65 ;l             Allocated to stack - sp +16 +8 
                                     66 ;s             Allocated to stack - sp +24 +1 
                                     67 ;b             Allocated to stack - sp +12 +2 
                                     68 ;shift         Allocated to registers 
                                     69 ;t1            Allocated to registers y 
                                     70 ;t2            Allocated to stack - sp +6 +2 
                                     71 ;zb            Allocated to stack - sp +11 +1 
                                     72 ;i             Allocated to stack - sp +10 +1 
                                     73 ;sloc0         Allocated to stack - sp +8 +2 
                                     74 ;sloc1         Allocated to stack - sp +6 +2 
                                     75 ;sloc2         Allocated to stack - sp +4 +2 
                                     76 ;sloc3         Allocated to stack - sp +3 +1 
                                     77 ;sloc4         Allocated to stack - sp +1 +2 
                                     78 ;------------------------------------------------------------
                                     79 ;	_srulonglong.c: 5: unsigned long long _srulonglong(unsigned long long l, char s)
                                     80 ;	genLabel
                                     81 ;	Raw cost for generated ic 0 : (0, 0.000000) count=1.000000
                                     82 ;	-----------------------------------------
                                     83 ;	 function _srulonglong
                                     84 ;	-----------------------------------------
                                     85 ;	Register assignment is optimal.
                                     86 ;	Stack space usage: 13 bytes.
      000000                         87 __srulonglong:
                                     88 ;	  adjustStack : cycles stk:39  incdec:30  adc:12
      000000 BA               [ 2]   89 	tsx
      000001 8A               [ 2]   90 	txa
      000002 18               [ 2]   91 	clc
      000003 69 F3            [ 2]   92 	adc	#0xf3
      000005 AA               [ 2]   93 	tax
      000006 9A               [ 2]   94 	txs
                                     95 ;	Raw cost for generated ic 1 : (7, 12.000000) count=1.000000
                                     96 ;	_srulonglong.c: 7: uint8_t *const b = (uint8_t *)(&l);
                                     97 ;	genAddrOf
      000007 8A               [ 2]   98 	txa
      000008 18               [ 2]   99 	clc
      000009 69 10            [ 2]  100 	adc	#0x10
      00000B 9D 08 01         [ 5]  101 	sta	0x108,x
      00000E A9 01            [ 2]  102 	lda	#0x01
                                    103 ;	Raw cost for generated ic 2 : (12, 18.000000) count=1.000000
                                    104 ;	genCast
                                    105 ;	genCopy
      000010 9D 09 01         [ 5]  106 	sta	0x109,x
      000013 9D 0D 01         [ 5]  107 	sta	0x10d,x
      000016 BD 08 01         [ 5]  108 	lda	0x108,x
      000019 9D 0C 01         [ 5]  109 	sta	0x10c,x
                                    110 ;	Raw cost for generated ic 4 : (12, 18.000000) count=1.000000
                                    111 ;	_srulonglong.c: 11: zb=s>>3;
                                    112 ;	genRightShift
                                    113 ;	genRightShiftLiteral
                                    114 ;	  genrsh8 - shift=3
      00001C BD 18 01         [ 5]  115 	lda	0x118,x
      00001F 4A               [ 2]  116 	lsr	a
      000020 4A               [ 2]  117 	lsr	a
      000021 4A               [ 2]  118 	lsr	a
      000022 9D 0B 01         [ 5]  119 	sta	0x10b,x
                                    120 ;	Raw cost for generated ic 6 : (9, 15.000000) count=1.000000
                                    121 ;	_srulonglong.c: 12: if(zb) {
                                    122 ;	genIfx
                                    123 ;	genIfxJump : z
      000025 D0 03            [ 4]  124 	bne	00186$
      000027 4Cr13r01         [ 3]  125 	jmp	00104$
      00002A                        126 00186$:
                                    127 ;	Raw cost for generated ic 8 : (5, 5.600000) count=1.000000
                                    128 ;	_srulonglong.c: 13: for(i=0;i<(8-zb);i++) {
                                    129 ;	genAssign
                                    130 ;	genAssignLit
      00002A A9 00            [ 2]  131 	lda	#0x00
      00002C 9D 0A 01         [ 5]  132 	sta	0x10a,x
                                    133 ;	Raw cost for generated ic 108 : (5, 7.000000) count=0.750000
                                    134 ;	genLabel
      00002F                        135 00110$:
                                    136 ;	Raw cost for generated ic 12 : (0, 0.000000) count=2.999995
                                    137 ;	genCast
      00002F BA               [ 2]  138 	tsx
      000030 BD 0B 01         [ 5]  139 	lda	0x10b,x
      000033 9D 08 01         [ 5]  140 	sta	0x108,x
      000036 0A               [ 2]  141 	asl	a
      000037 A9 00            [ 2]  142 	lda	#0x00
      000039 69 FF            [ 2]  143 	adc	#0xff
      00003B 49 FF            [ 2]  144 	eor	#0xff
      00003D 9D 09 01         [ 5]  145 	sta	0x109,x
                                    146 ;	Raw cost for generated ic 13 : (17, 24.000000) count=2.999995
                                    147 ;	genMinus
      000040 A9 08            [ 2]  148 	lda	#0x08
      000042 38               [ 2]  149 	sec
      000043 FD 08 01         [ 5]  150 	sbc	0x108,x
      000046 9D 06 01         [ 5]  151 	sta	0x106,x
      000049 A9 00            [ 2]  152 	lda	#0x00
      00004B FD 09 01         [ 5]  153 	sbc	0x109,x
      00004E 9D 07 01         [ 5]  154 	sta	0x107,x
                                    155 ;	Raw cost for generated ic 14 : (17, 24.000000) count=2.999995
                                    156 ;	genCast
      000051 BD 0A 01         [ 5]  157 	lda	0x10a,x
      000054 9D 04 01         [ 5]  158 	sta	0x104,x
      000057 0A               [ 2]  159 	asl	a
      000058 A9 00            [ 2]  160 	lda	#0x00
      00005A 69 FF            [ 2]  161 	adc	#0xff
      00005C 49 FF            [ 2]  162 	eor	#0xff
      00005E 9D 05 01         [ 5]  163 	sta	0x105,x
                                    164 ;	Raw cost for generated ic 15 : (16, 22.000000) count=2.999995
                                    165 ;	genCmp
      000061 BD 04 01         [ 5]  166 	lda	0x104,x
      000064 38               [ 2]  167 	sec
      000065 FD 06 01         [ 5]  168 	sbc	0x106,x
      000068 BD 05 01         [ 5]  169 	lda	0x105,x
      00006B FD 07 01         [ 5]  170 	sbc	0x107,x
      00006E 50 04            [ 4]  171 	bvc	00188$
      000070 10 04            [ 4]  172 	bpl	00187$
      000072 30 62            [ 4]  173 	bmi	00126$
      000074                        174 00188$:
      000074 10 60            [ 4]  175 	bpl	00126$
      000076                        176 00187$:
                                    177 ;	Raw cost for generated ic 16 : (24, 31.400002) count=2.999995
                                    178 ;	skipping generated iCode
                                    179 ;	Raw cost for generated ic 17 : (0, 0.000000) count=2.999995
                                    180 ;	_srulonglong.c: 14: b[i]=b[zb+i];
                                    181 ;	genPlus
      000076 BD 0C 01         [ 5]  182 	lda	0x10c,x
      000079 18               [ 2]  183 	clc
      00007A 7D 04 01         [ 5]  184 	adc	0x104,x
      00007D 9D 06 01         [ 5]  185 	sta	0x106,x
      000080 BD 0D 01         [ 5]  186 	lda	0x10d,x
      000083 7D 05 01         [ 5]  187 	adc	0x105,x
      000086 9D 07 01         [ 5]  188 	sta	0x107,x
                                    189 ;	Raw cost for generated ic 21 : (19, 28.000000) count=2.249995
                                    190 ;	genPlus
      000089 BD 08 01         [ 5]  191 	lda	0x108,x
      00008C 18               [ 2]  192 	clc
      00008D 7D 04 01         [ 5]  193 	adc	0x104,x
      000090 48               [ 3]  194 	pha
      000091 BD 09 01         [ 5]  195 	lda	0x109,x
      000094 7D 05 01         [ 5]  196 	adc	0x105,x
      000097 AA               [ 2]  197 	tax
      000098 68               [ 4]  198 	pla
                                    199 ;	Raw cost for generated ic 24 : (16, 27.000000) count=2.249995
                                    200 ;	genPlus
      000099 86*00            [ 3]  201 	stx	*(REGTEMP+0)
      00009B 18               [ 2]  202 	clc
      00009C BA               [ 2]  203 	tsx
      00009D 7D 0C 01         [ 5]  204 	adc	0x10c,x
      0000A0 9D 04 01         [ 5]  205 	sta	0x104,x
      0000A3 A5*00            [ 3]  206 	lda	*(REGTEMP+0)
      0000A5 7D 0D 01         [ 5]  207 	adc	0x10d,x
      0000A8 9D 05 01         [ 5]  208 	sta	0x105,x
                                    209 ;	Raw cost for generated ic 25 : (18, 28.000000) count=2.249995
                                    210 ;	genPointerGet
                                    211 ;	  setupDPTR - off=0 remat=(null) savea=0
      0000AB 85*01            [ 3]  212 	sta	*(DPTR+1)
      0000AD BD 04 01         [ 5]  213 	lda	0x104,x
      0000B0 85*00            [ 3]  214 	sta	*(DPTR+0)
      0000B2 A0 00            [ 2]  215 	ldy	#0x00
      0000B4 B1*00            [ 6]  216 	lda	[DPTR],y
      0000B6 AA               [ 2]  217 	tax
                                    218 ;	Raw cost for generated ic 26 : (12, 19.000000) count=2.249995
                                    219 ;	genPointerSet
      0000B7 86*00            [ 3]  220 	stx	*(REGTEMP+0)
                                    221 ;	  setupDPTR - off=0 remat=(null) savea=0
      0000B9 BA               [ 2]  222 	tsx
      0000BA BD 06 01         [ 5]  223 	lda	0x106,x
      0000BD 85*00            [ 3]  224 	sta	*(DPTR+0)
      0000BF BD 07 01         [ 5]  225 	lda	0x107,x
      0000C2 85*01            [ 3]  226 	sta	*(DPTR+1)
      0000C4 A6*00            [ 3]  227 	ldx	*(REGTEMP+0)
      0000C6 8A               [ 2]  228 	txa
      0000C7 91*00            [ 6]  229 	sta	[DPTR],y
                                    230 ;	Raw cost for generated ic 27 : (20, 33.000000) count=2.249995
                                    231 ;	_srulonglong.c: 13: for(i=0;i<(8-zb);i++) {
                                    232 ;	genPlus
                                    233 ;	  genPlusInc
      0000C9 BA               [ 2]  234 	tsx
      0000CA BD 0A 01         [ 5]  235 	lda	0x10a,x
      0000CD 18               [ 2]  236 	clc
      0000CE 69 01            [ 2]  237 	adc	#0x01
      0000D0 9D 0A 01         [ 5]  238 	sta	0x10a,x
                                    239 ;	Raw cost for generated ic 30 : (10, 15.000000) count=2.249995
                                    240 ;	genGoto
      0000D3 4Cr2Fr00         [ 3]  241 	jmp	00110$
                                    242 ;	Raw cost for generated ic 32 : (3, 3.000000) count=2.249995
                                    243 ;	genLabel
      0000D6                        244 00126$:
                                    245 ;	Raw cost for generated ic 103 : (0, 0.000000) count=0.749999
                                    246 ;	genAssign
                                    247 ;	genCopy
      0000D6 BA               [ 2]  248 	tsx
      0000D7 BD 0A 01         [ 5]  249 	lda	0x10a,x
      0000DA A8               [ 2]  250 	tay
                                    251 ;	Raw cost for generated ic 111 : (5, 8.000000) count=0.749999
                                    252 ;	genLabel
      0000DB                        253 00113$:
                                    254 ;	Raw cost for generated ic 34 : (0, 0.000000) count=2.999988
                                    255 ;	_srulonglong.c: 17: for(;i<8;i++)
                                    256 ;	genCmp
      0000DB 98               [ 2]  257 	tya
      0000DC 38               [ 2]  258 	sec
      0000DD E9 08            [ 2]  259 	sbc	#0x08
      0000DF 50 04            [ 4]  260 	bvc	00191$
      0000E1 10 04            [ 4]  261 	bpl	00190$
      0000E3 30 2E            [ 4]  262 	bmi	00104$
      0000E5                        263 00191$:
      0000E5 10 2C            [ 4]  264 	bpl	00104$
      0000E7                        265 00190$:
                                    266 ;	Raw cost for generated ic 35 : (15, 19.400002) count=2.999988
                                    267 ;	skipping generated iCode
                                    268 ;	Raw cost for generated ic 36 : (0, 0.000000) count=2.999988
                                    269 ;	_srulonglong.c: 18: b[i]=0;
                                    270 ;	genCast
                                    271 ;	genCopy
      0000E7 A2 00            [ 2]  272 	ldx	#0x00
      0000E9 98               [ 2]  273 	tya
      0000EA 10 01            [ 4]  274 	bpl	00193$
      0000EC CA               [ 2]  275 	dex
      0000ED                        276 00193$:
                                    277 ;	Raw cost for generated ic 39 : (6, 8.600000) count=2.249989
                                    278 ;	genPlus
      0000ED 86*00            [ 3]  279 	stx	*(REGTEMP+0)
      0000EF 18               [ 2]  280 	clc
      0000F0 BA               [ 2]  281 	tsx
      0000F1 7D 0C 01         [ 5]  282 	adc	0x10c,x
      0000F4 9D 04 01         [ 5]  283 	sta	0x104,x
      0000F7 A5*00            [ 3]  284 	lda	*(REGTEMP+0)
      0000F9 7D 0D 01         [ 5]  285 	adc	0x10d,x
      0000FC 9D 05 01         [ 5]  286 	sta	0x105,x
                                    287 ;	Raw cost for generated ic 40 : (18, 28.000000) count=2.249989
                                    288 ;	genPointerSet
      0000FF 84*00            [ 3]  289 	sty	*(REGTEMP+0)
                                    290 ;	  setupDPTR - off=0 remat=(null) savea=0
      000101 85*01            [ 3]  291 	sta	*(DPTR+1)
      000103 BD 04 01         [ 5]  292 	lda	0x104,x
      000106 85*00            [ 3]  293 	sta	*(DPTR+0)
      000108 A9 00            [ 2]  294 	lda	#0x00
      00010A A8               [ 2]  295 	tay
      00010B 91*00            [ 6]  296 	sta	[DPTR],y
      00010D A4*00            [ 3]  297 	ldy	*(REGTEMP+0)
                                    298 ;	Raw cost for generated ic 41 : (16, 26.000000) count=2.249989
                                    299 ;	_srulonglong.c: 17: for(;i<8;i++)
                                    300 ;	genPlus
                                    301 ;	  genPlusInc
      00010F C8               [ 2]  302 	iny
                                    303 ;	Raw cost for generated ic 44 : (1, 2.000000) count=2.249989
                                    304 ;	genGoto
      000110 4CrDBr00         [ 3]  305 	jmp	00113$
                                    306 ;	Raw cost for generated ic 46 : (3, 3.000000) count=2.249989
                                    307 ;	genLabel
      000113                        308 00104$:
                                    309 ;	Raw cost for generated ic 48 : (0, 0.000000) count=0.999997
                                    310 ;	_srulonglong.c: 21: shift=s&0x7;
                                    311 ;	genAnd
      000113 BA               [ 2]  312 	tsx
      000114 BD 18 01         [ 5]  313 	lda	0x118,x
      000117 29 07            [ 2]  314 	and	#0x07
      000119 9D 04 01         [ 5]  315 	sta	0x104,x
                                    316 ;	Raw cost for generated ic 50 : (9, 13.000000) count=0.999997
                                    317 ;	_srulonglong.c: 22: while(shift--) {
                                    318 ;	genMinus
      00011C A9 07            [ 2]  319 	lda	#0x07
      00011E 38               [ 2]  320 	sec
      00011F FD 0B 01         [ 5]  321 	sbc	0x10b,x
      000122 9D 0A 01         [ 5]  322 	sta	0x10a,x
                                    323 ;	Raw cost for generated ic 61 : (9, 13.000000) count=0.999997
                                    324 ;	genLabel
      000125                        325 00106$:
                                    326 ;	Raw cost for generated ic 53 : (0, 0.000000) count=3.999825
                                    327 ;	genAssign
                                    328 ;	genCopy
      000125 BA               [ 2]  329 	tsx
                                    330 ;	Raw cost for generated ic 54 : (7, 11.000000) count=3.999825
                                    331 ;	genMinus
                                    332 ;	  genMinusDec - size=1  icount=1
      000126 BD 04 01         [ 5]  333 	lda	0x104,x
      000129 9D 06 01         [ 5]  334 	sta	0x106,x
      00012C 38               [ 2]  335 	sec
      00012D E9 01            [ 2]  336 	sbc	#0x01
      00012F 9D 04 01         [ 5]  337 	sta	0x104,x
                                    338 ;	Raw cost for generated ic 55 : (9, 13.000000) count=3.999825
                                    339 ;	genIfx
      000132 BD 06 01         [ 5]  340 	lda	0x106,x
                                    341 ;	genIfxJump : z
      000135 F0 68            [ 4]  342 	beq	00108$
                                    343 ;	Raw cost for generated ic 57 : (8, 9.600000) count=3.999825
                                    344 ;	_srulonglong.c: 23: t2=0;
                                    345 ;	genAssign
                                    346 ;	genAssignLit
      000137 A9 00            [ 2]  347 	lda	#0x00
      000139 9D 06 01         [ 5]  348 	sta	0x106,x
                                    349 ;	Raw cost for generated ic 60 : (5, 7.000000) count=2.999869
                                    350 ;	_srulonglong.c: 24: for(i=7-zb;i>=0;i--) {
                                    351 ;	genAssign
                                    352 ;	genCopy
      00013C BD 0A 01         [ 5]  353 	lda	0x10a,x
      00013F 9D 08 01         [ 5]  354 	sta	0x108,x
                                    355 ;	Raw cost for generated ic 62 : (6, 9.000000) count=2.999869
                                    356 ;	genLabel
      000142                        357 00116$:
                                    358 ;	Raw cost for generated ic 63 : (0, 0.000000) count=3.999788
                                    359 ;	genCmp
      000142 BA               [ 2]  360 	tsx
      000143 BD 08 01         [ 5]  361 	lda	0x108,x
      000146 38               [ 2]  362 	sec
      000147 E9 00            [ 2]  363 	sbc	#0x00
      000149 70 04            [ 4]  364 	bvs	00197$
      00014B 10 04            [ 4]  365 	bpl	00196$
      00014D 30 D6            [ 4]  366 	bmi	00106$
      00014F                        367 00197$:
      00014F 10 D4            [ 4]  368 	bpl	00106$
      000151                        369 00196$:
                                    370 ;	Raw cost for generated ic 64 : (18, 23.400002) count=3.999788
                                    371 ;	skipping generated iCode
                                    372 ;	Raw cost for generated ic 65 : (0, 0.000000) count=3.999788
                                    373 ;	_srulonglong.c: 25: t1=b[i]&1;
                                    374 ;	genCast
                                    375 ;	genCopy
      000151 BD 08 01         [ 5]  376 	lda	0x108,x
      000154 9D 03 01         [ 5]  377 	sta	0x103,x
                                    378 ;	Raw cost for generated ic 68 : (6, 9.000000) count=0.999936
                                    379 ;	genPlus
      000157 BD 0C 01         [ 5]  380 	lda	0x10c,x
      00015A 18               [ 2]  381 	clc
      00015B 7D 03 01         [ 5]  382 	adc	0x103,x
      00015E 9D 01 01         [ 5]  383 	sta	0x101,x
      000161 BD 0D 01         [ 5]  384 	lda	0x10d,x
      000164 69 00            [ 2]  385 	adc	#0x00
      000166 9D 02 01         [ 5]  386 	sta	0x102,x
                                    387 ;	Raw cost for generated ic 69 : (18, 26.000000) count=0.999936
                                    388 ;	genPointerGet
                                    389 ;	  setupDPTR - off=0 remat=(null) savea=0
      000169 85*01            [ 3]  390 	sta	*(DPTR+1)
      00016B BD 01 01         [ 5]  391 	lda	0x101,x
      00016E 85*00            [ 3]  392 	sta	*(DPTR+0)
      000170 A0 00            [ 2]  393 	ldy	#0x00
      000172 B1*00            [ 6]  394 	lda	[DPTR],y
                                    395 ;	Raw cost for generated ic 70 : (12, 19.000000) count=0.999936
                                    396 ;	genAnd
      000174 AA               [ 2]  397 	tax
      000175 29 01            [ 2]  398 	and	#0x01
      000177 A8               [ 2]  399 	tay
                                    400 ;	Raw cost for generated ic 72 : (4, 6.000000) count=0.999936
                                    401 ;	_srulonglong.c: 26: b[i]=(b[i]>>1)|t2;
                                    402 ;	genRightShift
                                    403 ;	genRightShiftLiteral
                                    404 ;	  genrsh8 - shift=1
      000178 8A               [ 2]  405 	txa
      000179 4A               [ 2]  406 	lsr	a
                                    407 ;	Raw cost for generated ic 80 : (2, 4.000000) count=0.999936
                                    408 ;	genOr
      00017A BA               [ 2]  409 	tsx
      00017B 1D 06 01         [ 5]  410 	ora	0x106,x
                                    411 ;	Raw cost for generated ic 81 : (4, 6.000000) count=0.999936
                                    412 ;	genPointerSet
      00017E 84*00            [ 3]  413 	sty	*(REGTEMP+0)
                                    414 ;	  setupDPTR - off=0 remat=(null) savea=0
      000180 A0 00            [ 2]  415 	ldy	#0x00
      000182 91*00            [ 6]  416 	sta	[DPTR],y
      000184 A4*00            [ 3]  417 	ldy	*(REGTEMP+0)
                                    418 ;	Raw cost for generated ic 82 : (8, 14.000000) count=0.999936
                                    419 ;	_srulonglong.c: 27: t2=t1?0x80:0;
                                    420 ;	genIfx
                                    421 ;	genIfxJump : z
      000186 F0 05            [ 4]  422 	beq	00120$
                                    423 ;	Raw cost for generated ic 83 : (5, 5.600000) count=0.999936
                                    424 ;	genAssign
                                    425 ;	genCopy
      000188 A9 80            [ 2]  426 	lda	#0x80
                                    427 ;	Raw cost for generated ic 84 : (2, 2.000000) count=0.749942
                                    428 ;	genGoto
      00018A 4Cr8Fr01         [ 3]  429 	jmp	00121$
                                    430 ;	Raw cost for generated ic 85 : (3, 3.000000) count=0.749942
                                    431 ;	genLabel
      00018D                        432 00120$:
                                    433 ;	Raw cost for generated ic 86 : (0, 0.000000) count=0.249977
                                    434 ;	genAssign
                                    435 ;	genCopy
      00018D A9 00            [ 2]  436 	lda	#0x00
                                    437 ;	Raw cost for generated ic 87 : (2, 2.000000) count=0.249977
                                    438 ;	genLabel
      00018F                        439 00121$:
                                    440 ;	Raw cost for generated ic 88 : (0, 0.000000) count=0.999919
                                    441 ;	genCast
                                    442 ;	genCopy
      00018F BA               [ 2]  443 	tsx
      000190 9D 06 01         [ 5]  444 	sta	0x106,x
                                    445 ;	Raw cost for generated ic 89 : (4, 7.000000) count=0.999919
                                    446 ;	_srulonglong.c: 24: for(i=7-zb;i>=0;i--) {
                                    447 ;	genMinus
                                    448 ;	  genMinusDec - size=1  icount=1
      000193 BD 08 01         [ 5]  449 	lda	0x108,x
      000196 38               [ 2]  450 	sec
      000197 E9 01            [ 2]  451 	sbc	#0x01
      000199 9D 08 01         [ 5]  452 	sta	0x108,x
                                    453 ;	Raw cost for generated ic 93 : (9, 13.000000) count=0.999919
                                    454 ;	genGoto
      00019C 4Cr42r01         [ 3]  455 	jmp	00116$
                                    456 ;	Raw cost for generated ic 95 : (3, 3.000000) count=0.999919
                                    457 ;	genLabel
      00019F                        458 00108$:
                                    459 ;	Raw cost for generated ic 98 : (0, 0.000000) count=0.999951
                                    460 ;	_srulonglong.c: 31: return(l);
                                    461 ;	genRet
      00019F BA               [ 2]  462 	tsx
      0001A0 BD 17 01         [ 5]  463 	lda	0x117,x
      0001A3 85*00            [ 3]  464 	sta	*___SDCC_m6502_ret7
      0001A5 BD 16 01         [ 5]  465 	lda	0x116,x
      0001A8 85*00            [ 3]  466 	sta	*___SDCC_m6502_ret6
      0001AA BD 15 01         [ 5]  467 	lda	0x115,x
      0001AD 85*00            [ 3]  468 	sta	*___SDCC_m6502_ret5
      0001AF BD 14 01         [ 5]  469 	lda	0x114,x
      0001B2 85*00            [ 3]  470 	sta	*___SDCC_m6502_ret4
      0001B4 BD 13 01         [ 5]  471 	lda	0x113,x
      0001B7 85*00            [ 3]  472 	sta	*___SDCC_m6502_ret3
      0001B9 BD 12 01         [ 5]  473 	lda	0x112,x
      0001BC 85*00            [ 3]  474 	sta	*___SDCC_m6502_ret2
      0001BE BD 11 01         [ 5]  475 	lda	0x111,x
      0001C1 85*00            [ 3]  476 	sta	*(REGTEMP+0)
      0001C3 BD 10 01         [ 5]  477 	lda	0x110,x
                                    478 ;	Raw cost for generated ic 99 : (41, 58.000000) count=0.999951
                                    479 ;	genLabel
                                    480 ;	Raw cost for generated ic 100 : (0, 0.000000) count=0.999951
                                    481 ;	_srulonglong.c: 32: }
                                    482 ;	genEndFunction
                                    483 ;	  adjustStack : cycles stk:58  incdec:36  adc:24
      0001C6 A6*00            [ 3]  484 	ldx	*(REGTEMP+0)
      0001C8 85*01            [ 3]  485 	sta	*(REGTEMP+1)
      0001CA BA               [ 2]  486 	tsx
      0001CB 8A               [ 2]  487 	txa
      0001CC 18               [ 2]  488 	clc
      0001CD 69 0D            [ 2]  489 	adc	#0x0d
      0001CF AA               [ 2]  490 	tax
      0001D0 9A               [ 2]  491 	txs
      0001D1 A5*01            [ 3]  492 	lda	*(REGTEMP+1)
      0001D3 A6*00            [ 3]  493 	ldx	*(REGTEMP+0)
      0001D5 60               [ 6]  494 	rts
                                    495 ;	Raw cost for generated ic 101 : (16, 30.000000) count=0.999951
                                    496 	.area CODE
                                    497 	.area RODATA
                                    498 	.area XINIT
                                    499 	.area CABS    (ABS)
