                                      1 ;--------------------------------------------------------
                                      2 ; File Created by SDCC : free open source ISO C Compiler
                                      3 ; Version 4.5.10 #15691 (Linux)
                                      4 ;--------------------------------------------------------
                                      5 	.module printf_large
                                      6 	
                                      7 	.optsdcc -mmos6502
                                      8 
                                      9 ;--------------------------------------------------------
                                     10 ;  Ordering of segments for the linker.
                                     11 ;--------------------------------------------------------
                                     12 	.area ZP      (PAG)
                                     13 	.area OSEG    (PAG, OVR)
                                     14 	.area _CODE
                                     15 	.area GSINIT
                                     16 	.area GSFINAL
                                     17 	.area CODE
                                     18 	.area RODATA
                                     19 	.area XINIT
                                     20 	.area _DATA
                                     21 	.area DATA
                                     22 	.area BSS
                                     23 ;--------------------------------------------------------
                                     24 ; Public variables in this module
                                     25 ;--------------------------------------------------------
                                     26 	.globl _strlen
                                     27 	.globl __print_format
                                     28 ;--------------------------------------------------------
                                     29 ; ZP ram data
                                     30 ;--------------------------------------------------------
                                     31 	.area ZP      (PAG)
                                     32 ;--------------------------------------------------------
                                     33 ; overlayable items in ram
                                     34 ;--------------------------------------------------------
                                     35 ;--------------------------------------------------------
                                     36 ; uninitialized external ram data
                                     37 ;--------------------------------------------------------
                                     38 	.area BSS
                                     39 ;--------------------------------------------------------
                                     40 ; absolute external ram data
                                     41 ;--------------------------------------------------------
                                     42 	.area DABS    (ABS)
                                     43 ;--------------------------------------------------------
                                     44 ; initialized external ram data
                                     45 ;--------------------------------------------------------
                                     46 	.area DATA
                                     47 ;--------------------------------------------------------
                                     48 ; global & static initialisations
                                     49 ;--------------------------------------------------------
                                     50 	.area _CODE
                                     51 	.area GSINIT
                                     52 	.area GSFINAL
                                     53 	.area GSINIT
                                     54 ;--------------------------------------------------------
                                     55 ; Home
                                     56 ;--------------------------------------------------------
                                     57 	.area _CODE
                                     58 	.area _CODE
                                     59 ;--------------------------------------------------------
                                     60 ; code
                                     61 ;--------------------------------------------------------
                                     62 	.area CODE
                                     63 ;------------------------------------------------------------
                                     64 ;Allocation info for local variables in function 'output_digit'
                                     65 ;------------------------------------------------------------
                                     66 ;output_char   Allocated to stack - sp +3 +2 
                                     67 ;p             Allocated to stack - sp +5 +2 
                                     68 ;lower_case    Allocated to registers x 
                                     69 ;n             Allocated to registers a 
                                     70 ;c             Allocated to registers y 
                                     71 ;------------------------------------------------------------
                                     72 ;	../printf_large.c: 116: output_digit (unsigned char n, _Bool lower_case, pfn_outputchar output_char, void* p)
                                     73 ;	genLabel
                                     74 ;	Raw cost for generated ic 0 : (0, 0.000000) count=1.000000
                                     75 ;	-----------------------------------------
                                     76 ;	 function output_digit
                                     77 ;	-----------------------------------------
                                     78 ;	Register assignment is optimal.
                                     79 ;	Stack space usage: 0 bytes.
      000000                         80 _output_digit:
                                     81 ;	Raw cost for generated ic 1 : (0, 0.000000) count=1.000000
                                     82 ;	genReceive
                                     83 ;	Raw cost for generated ic 2 : (0, 0.000000) count=1.000000
                                     84 ;	genReceive
                                     85 ;	Raw cost for generated ic 3 : (0, 0.000000) count=1.000000
                                     86 ;	../printf_large.c: 118: register unsigned char c = n + (unsigned char)'0';
                                     87 ;	genPlus
                                     88 ;	  genPlusInc
      000000 18               [ 2]   89 	clc
      000001 69 30            [ 2]   90 	adc	#0x30
      000003 A8               [ 2]   91 	tay
                                     92 ;	Raw cost for generated ic 4 : (4, 6.000000) count=1.000000
                                     93 ;	../printf_large.c: 120: if (c > (unsigned char)'9')
                                     94 ;	genCmp
      000004 C0 39            [ 2]   95 	cpy	#0x39
      000006 F0 10            [ 4]   96 	beq	00104$
      000008 90 0E            [ 4]   97 	bcc	00104$
                                     98 ;	Raw cost for generated ic 6 : (9, 10.200000) count=1.000000
                                     99 ;	skipping generated iCode
                                    100 ;	Raw cost for generated ic 7 : (0, 0.000000) count=1.000000
                                    101 ;	../printf_large.c: 122: c += (unsigned char)('A' - '0' - 10);
                                    102 ;	genPlus
                                    103 ;	  genPlusInc
      00000A 98               [ 2]  104 	tya
      00000B 18               [ 2]  105 	clc
      00000C 69 07            [ 2]  106 	adc	#0x07
      00000E A8               [ 2]  107 	tay
                                    108 ;	Raw cost for generated ic 10 : (5, 8.000000) count=0.750000
                                    109 ;	../printf_large.c: 123: if (lower_case)
                                    110 ;	genIfx
      00000F E0 00            [ 2]  111 	cpx	#0x00
                                    112 ;	genIfxJump : z
      000011 F0 05            [ 4]  113 	beq	00104$
                                    114 ;	Raw cost for generated ic 12 : (7, 7.600000) count=0.750000
                                    115 ;	../printf_large.c: 124: c += (unsigned char)('a' - 'A');
                                    116 ;	genPlus
                                    117 ;	  genPlusInc
      000013 98               [ 2]  118 	tya
      000014 18               [ 2]  119 	clc
      000015 69 20            [ 2]  120 	adc	#0x20
      000017 A8               [ 2]  121 	tay
                                    122 ;	Raw cost for generated ic 15 : (5, 8.000000) count=0.562500
                                    123 ;	genLabel
      000018                        124 00104$:
                                    125 ;	Raw cost for generated ic 18 : (0, 0.000000) count=1.000000
                                    126 ;	../printf_large.c: 126: output_char( c, p );
                                    127 ;	genIpush
      000018 BA               [ 2]  128 	tsx
      000019 BD 06 01         [ 5]  129 	lda	0x106,x
      00001C 48               [ 3]  130 	pha
      00001D BD 05 01         [ 5]  131 	lda	0x105,x
      000020 48               [ 3]  132 	pha
                                    133 ;	Raw cost for generated ic 19 : (9, 16.000000) count=1.000000
                                    134 ;	Raw cost for generated ic 20 : (0, 0.000000) count=1.000000
                                    135 ;	genPcall
      000021 BD 03 01         [ 5]  136 	lda	0x103,x
      000024 85*00            [ 3]  137 	sta	*(REGTEMP+0)
      000026 BD 04 01         [ 5]  138 	lda	0x104,x
      000029 85*01            [ 3]  139 	sta	*(REGTEMP+1)
                                    140 ;	genSend
      00002B 98               [ 2]  141 	tya
      00002C 20r00r00         [ 6]  142 	jsr	__sdcc_indirect_jsr
                                    143 ;	  adjustStack : cycles stk:14  incdec:8  adc:18
      00002F BA               [ 2]  144 	tsx
      000030 E8               [ 2]  145 	inx
      000031 E8               [ 2]  146 	inx
      000032 9A               [ 2]  147 	txs
                                    148 ;	Raw cost for generated ic 21 : (18, 30.000000) count=1.000000
                                    149 ;	genLabel
                                    150 ;	Raw cost for generated ic 22 : (0, 0.000000) count=1.000000
                                    151 ;	../printf_large.c: 127: }
                                    152 ;	genEndFunction
      000033 60               [ 6]  153 	rts
                                    154 ;	Raw cost for generated ic 23 : (1, 6.000000) count=1.000000
                                    155 ;------------------------------------------------------------
                                    156 ;Allocation info for local variables in function 'output_2digits'
                                    157 ;------------------------------------------------------------
                                    158 ;output_char   Allocated to stack - sp +5 +2 
                                    159 ;p             Allocated to stack - sp +7 +2 
                                    160 ;lower_case    Allocated to stack - sp +2 +1 
                                    161 ;b             Allocated to registers y 
                                    162 ;sloc0         Allocated to stack - sp +1 +1 
                                    163 ;------------------------------------------------------------
                                    164 ;	../printf_large.c: 149: output_2digits (unsigned char b, _Bool lower_case, pfn_outputchar output_char, void* p)
                                    165 ;	genLabel
                                    166 ;	Raw cost for generated ic 0 : (0, 0.000000) count=1.000000
                                    167 ;	-----------------------------------------
                                    168 ;	 function output_2digits
                                    169 ;	-----------------------------------------
                                    170 ;	Register assignment is optimal.
                                    171 ;	Stack space usage: 2 bytes.
      000034                        172 _output_2digits:
                                    173 ;	genReceive: size=1
                                    174 ;	pushreg: ofs=0
      000034 85*00            [ 3]  175 	sta	*(REGTEMP+0)
      000036 8A               [ 2]  176 	txa
      000037 48               [ 3]  177 	pha
      000038 A5*00            [ 3]  178 	lda	*(REGTEMP+0)
                                    179 ;	  adjustStack : cycles stk:3  incdec:6  adc:18
      00003A 48               [ 3]  180 	pha
                                    181 ;	Raw cost for generated ic 1 : (7, 14.000000) count=1.000000
                                    182 ;	genReceive
                                    183 ;	Raw cost for generated ic 2 : (1, 2.000000) count=1.000000
                                    184 ;	skipping generated iCode
                                    185 ;	Raw cost for generated ic 3 : (0, 0.000000) count=1.000000
                                    186 ;	../printf_large.c: 151: output_digit( b>>4,   lower_case, output_char, p );
                                    187 ;	genRightShift
                                    188 ;	genRightShiftLiteral
                                    189 ;	  genrsh8 - shift=4
      00003B A8               [ 2]  190 	tay
      00003C 4A               [ 2]  191 	lsr	a
      00003D 4A               [ 2]  192 	lsr	a
      00003E 4A               [ 2]  193 	lsr	a
      00003F 4A               [ 2]  194 	lsr	a
      000040 BA               [ 2]  195 	tsx
      000041 9D 01 01         [ 5]  196 	sta	0x101,x
                                    197 ;	Raw cost for generated ic 4 : (9, 17.000000) count=1.000000
                                    198 ;	genIpush
      000044 98               [ 2]  199 	tya
      000045 48               [ 3]  200 	pha
      000046 BD 08 01         [ 5]  201 	lda	0x108,x
      000049 48               [ 3]  202 	pha
      00004A BD 07 01         [ 5]  203 	lda	0x107,x
      00004D 48               [ 3]  204 	pha
                                    205 ;	Raw cost for generated ic 5 : (10, 19.000000) count=1.000000
                                    206 ;	genIpush
      00004E BD 06 01         [ 5]  207 	lda	0x106,x
      000051 48               [ 3]  208 	pha
      000052 BD 05 01         [ 5]  209 	lda	0x105,x
      000055 48               [ 3]  210 	pha
                                    211 ;	Raw cost for generated ic 6 : (8, 14.000000) count=1.000000
                                    212 ;	Raw cost for generated ic 7 : (0, 0.000000) count=1.000000
                                    213 ;	Raw cost for generated ic 8 : (0, 0.000000) count=1.000000
                                    214 ;	genCall
                                    215 ;	genSend
      000056 BD 01 01         [ 5]  216 	lda	0x101,x
      000059 85*00            [ 3]  217 	sta	*(REGTEMP+0)
      00005B BD 02 01         [ 5]  218 	lda	0x102,x
      00005E AA               [ 2]  219 	tax
      00005F A5*00            [ 3]  220 	lda	*(REGTEMP+0)
      000061 20r00r00         [ 6]  221 	jsr	_output_digit
                                    222 ;	  adjustStack : cycles stk:22  incdec:18  adc:24
      000064 86*00            [ 3]  223 	stx	*(REGTEMP+0)
      000066 BA               [ 2]  224 	tsx
      000067 E8               [ 2]  225 	inx
      000068 E8               [ 2]  226 	inx
      000069 E8               [ 2]  227 	inx
      00006A E8               [ 2]  228 	inx
      00006B 9A               [ 2]  229 	txs
      00006C A6*00            [ 3]  230 	ldx	*(REGTEMP+0)
      00006E 85*00            [ 3]  231 	sta	*(REGTEMP+0)
      000070 68               [ 4]  232 	pla
                                    233 ;	Raw cost for generated ic 9 : (30, 52.000000) count=1.000000
                                    234 ;	../printf_large.c: 152: output_digit( b&0x0F, lower_case, output_char, p );
                                    235 ;	genAnd
      000071 29 0F            [ 2]  236 	and #0x0f
      000073 A8               [ 2]  237 	tay
                                    238 ;	Raw cost for generated ic 11 : (4, 6.000000) count=1.000000
                                    239 ;	genIpush
      000074 BA               [ 2]  240 	tsx
      000075 BD 08 01         [ 5]  241 	lda	0x108,x
      000078 48               [ 3]  242 	pha
      000079 BD 07 01         [ 5]  243 	lda	0x107,x
      00007C 48               [ 3]  244 	pha
                                    245 ;	Raw cost for generated ic 13 : (9, 16.000000) count=1.000000
                                    246 ;	genIpush
      00007D BD 06 01         [ 5]  247 	lda	0x106,x
      000080 48               [ 3]  248 	pha
      000081 BD 05 01         [ 5]  249 	lda	0x105,x
      000084 48               [ 3]  250 	pha
                                    251 ;	Raw cost for generated ic 14 : (8, 14.000000) count=1.000000
                                    252 ;	Raw cost for generated ic 15 : (0, 0.000000) count=1.000000
                                    253 ;	Raw cost for generated ic 16 : (0, 0.000000) count=1.000000
                                    254 ;	genCall
                                    255 ;	genSend
      000085 98               [ 2]  256 	tya
      000086 85*00            [ 3]  257 	sta	*(REGTEMP+0)
      000088 BD 02 01         [ 5]  258 	lda	0x102,x
      00008B AA               [ 2]  259 	tax
      00008C A5*00            [ 3]  260 	lda	*(REGTEMP+0)
      00008E 20r00r00         [ 6]  261 	jsr	_output_digit
                                    262 ;	  adjustStack : cycles stk:22  incdec:18  adc:24
      000091 86*00            [ 3]  263 	stx	*(REGTEMP+0)
      000093 BA               [ 2]  264 	tsx
      000094 E8               [ 2]  265 	inx
      000095 E8               [ 2]  266 	inx
      000096 E8               [ 2]  267 	inx
      000097 E8               [ 2]  268 	inx
      000098 9A               [ 2]  269 	txs
      000099 A6*00            [ 3]  270 	ldx	*(REGTEMP+0)
                                    271 ;	Raw cost for generated ic 17 : (22, 38.000000) count=1.000000
                                    272 ;	genLabel
                                    273 ;	Raw cost for generated ic 18 : (0, 0.000000) count=1.000000
                                    274 ;	../printf_large.c: 153: }
                                    275 ;	genEndFunction
                                    276 ;	  adjustStack : cycles stk:14  incdec:14  adc:24
      00009B 85*00            [ 3]  277 	sta	*(REGTEMP+0)
      00009D 68               [ 4]  278 	pla
      00009E 68               [ 4]  279 	pla
      00009F A5*00            [ 3]  280 	lda	*(REGTEMP+0)
      0000A1 60               [ 6]  281 	rts
                                    282 ;	Raw cost for generated ic 19 : (7, 20.000000) count=1.000000
                                    283 ;------------------------------------------------------------
                                    284 ;Allocation info for local variables in function 'calculate_digit'
                                    285 ;------------------------------------------------------------
                                    286 ;radix         Allocated to stack - sp +18 +1 
                                    287 ;value         Allocated to stack - sp +14 +2 
                                    288 ;ul            Allocated to stack - sp +1 +4 
                                    289 ;pb4           Allocated to stack - sp +12 +2 
                                    290 ;i             Allocated to stack - sp +11 +1 
                                    291 ;sloc0         Allocated to stack - sp +9 +2 
                                    292 ;sloc1         Allocated to stack - sp +5 +4 
                                    293 ;------------------------------------------------------------
                                    294 ;	../printf_large.c: 168: calculate_digit (value_t _AUTOMEM * value, unsigned char radix)
                                    295 ;	genLabel
                                    296 ;	Raw cost for generated ic 0 : (0, 0.000000) count=1.000000
                                    297 ;	-----------------------------------------
                                    298 ;	 function calculate_digit
                                    299 ;	-----------------------------------------
                                    300 ;	Register assignment is optimal.
                                    301 ;	Stack space usage: 15 bytes.
      0000A2                        302 _calculate_digit:
                                    303 ;	genReceive: size=2
                                    304 ;	pushreg: ofs=1
      0000A2 85*00            [ 3]  305 	sta	*(REGTEMP+0)
      0000A4 8A               [ 2]  306 	txa
      0000A5 48               [ 3]  307 	pha
      0000A6 A5*00            [ 3]  308 	lda	*(REGTEMP+0)
                                    309 ;	pushreg: ofs=0
      0000A8 48               [ 3]  310 	pha
                                    311 ;	  adjustStack : cycles stk:39  incdec:30  adc:12
      0000A9 BA               [ 2]  312 	tsx
      0000AA 8A               [ 2]  313 	txa
      0000AB 18               [ 2]  314 	clc
      0000AC 69 F3            [ 2]  315 	adc	#0xf3
      0000AE AA               [ 2]  316 	tax
      0000AF 9A               [ 2]  317 	txs
                                    318 ;	Raw cost for generated ic 1 : (14, 26.000000) count=1.000000
                                    319 ;	skipping generated iCode
                                    320 ;	Raw cost for generated ic 2 : (0, 0.000000) count=1.000000
                                    321 ;	../printf_large.c: 170: unsigned long ul = value->ul;
                                    322 ;	genCast
                                    323 ;	genCopy
      0000B0 BD 0F 01         [ 5]  324 	lda	0x10f,x
      0000B3 9D 0A 01         [ 5]  325 	sta	0x10a,x
      0000B6 BD 0E 01         [ 5]  326 	lda	0x10e,x
      0000B9 9D 09 01         [ 5]  327 	sta	0x109,x
                                    328 ;	Raw cost for generated ic 4 : (12, 18.000000) count=1.000000
                                    329 ;	genPointerGet
                                    330 ;	  setupDPTR - off=0 remat=(null) savea=0
      0000BC 85*00            [ 3]  331 	sta	*(DPTR+0)
      0000BE BD 0A 01         [ 5]  332 	lda	0x10a,x
      0000C1 85*01            [ 3]  333 	sta	*(DPTR+1)
      0000C3 A0 00            [ 2]  334 	ldy	#0x00
      0000C5 B1*00            [ 6]  335 	lda	[DPTR],y
      0000C7 9D 01 01         [ 5]  336 	sta	0x101,x
      0000CA C8               [ 2]  337 	iny
      0000CB B1*00            [ 6]  338 	lda	[DPTR],y
      0000CD 9D 02 01         [ 5]  339 	sta	0x102,x
      0000D0 C8               [ 2]  340 	iny
      0000D1 B1*00            [ 6]  341 	lda	[DPTR],y
      0000D3 9D 03 01         [ 5]  342 	sta	0x103,x
      0000D6 C8               [ 2]  343 	iny
      0000D7 B1*00            [ 6]  344 	lda	[DPTR],y
      0000D9 9D 04 01         [ 5]  345 	sta	0x104,x
                                    346 ;	Raw cost for generated ic 5 : (32, 58.000000) count=1.000000
                                    347 ;	../printf_large.c: 171: unsigned char _AUTOMEM * pb4 = &value->byte[4];
                                    348 ;	genAssign
                                    349 ;	genCopy
      0000DC BD 0F 01         [ 5]  350 	lda	0x10f,x
      0000DF 9D 0D 01         [ 5]  351 	sta	0x10d,x
      0000E2 BD 0E 01         [ 5]  352 	lda	0x10e,x
      0000E5 9D 0C 01         [ 5]  353 	sta	0x10c,x
                                    354 ;	Raw cost for generated ic 9 : (12, 18.000000) count=1.000000
                                    355 ;	../printf_large.c: 174: do
                                    356 ;	genAssign
                                    357 ;	genAssignLit
      0000E8 A9 20            [ 2]  358 	lda	#0x20
      0000EA 9D 0B 01         [ 5]  359 	sta	0x10b,x
                                    360 ;	Raw cost for generated ic 54 : (5, 7.000000) count=1.000000
                                    361 ;	genLabel
      0000ED                        362 00103$:
                                    363 ;	Raw cost for generated ic 12 : (0, 0.000000) count=3.999997
                                    364 ;	../printf_large.c: 176: *pb4 = (*pb4 << 1) | ((ul >> 31) & 0x01);
                                    365 ;	genPointerGet
                                    366 ;	  setupDPTR - off=4 remat=(null) savea=0
      0000ED BA               [ 2]  367 	tsx
      0000EE BD 0C 01         [ 5]  368 	lda	0x10c,x
      0000F1 85*00            [ 3]  369 	sta	*(DPTR+0)
      0000F3 BD 0D 01         [ 5]  370 	lda	0x10d,x
      0000F6 85*01            [ 3]  371 	sta	*(DPTR+1)
      0000F8 A0 04            [ 2]  372 	ldy	#0x04
      0000FA B1*00            [ 6]  373 	lda	[DPTR],y
                                    374 ;	Raw cost for generated ic 15 : (15, 23.000000) count=3.999997
                                    375 ;	genLeftShift
                                    376 ;	genLeftShiftLiteral
                                    377 ;	  genlsh8 - shift=1
      0000FC 0A               [ 2]  378 	asl	a
      0000FD A8               [ 2]  379 	tay
                                    380 ;	Raw cost for generated ic 16 : (2, 4.000000) count=3.999997
                                    381 ;	genRightShift
                                    382 ;	genRightShiftLiteral
                                    383 ;	  genrsh32 - shift=31
      0000FE BD 04 01         [ 5]  384 	lda	0x104,x
      000101 0A               [ 2]  385 	asl	a
      000102 A9 00            [ 2]  386 	lda	#0x00
      000104 9D 08 01         [ 5]  387 	sta	0x108,x
      000107 9D 07 01         [ 5]  388 	sta	0x107,x
      00010A 9D 06 01         [ 5]  389 	sta	0x106,x
      00010D 2A               [ 2]  390 	rol	a
      00010E 9D 05 01         [ 5]  391 	sta	0x105,x
                                    392 ;	Raw cost for generated ic 17 : (19, 30.000000) count=3.999997
                                    393 ;	genCast
                                    394 ;	genCopy
                                    395 ;	Raw cost for generated ic 53 : (0, 0.000000) count=3.999997
                                    396 ;	genAnd
      000111 29 01            [ 2]  397 	and	#0x01
                                    398 ;	Raw cost for generated ic 18 : (2, 2.000000) count=3.999997
                                    399 ;	genOr
      000113 84*00            [ 3]  400 	sty	*(REGTEMP+0)
      000115 05*00            [ 3]  401 	ora	*(REGTEMP+0)
                                    402 ;	Raw cost for generated ic 20 : (4, 6.000000) count=3.999997
                                    403 ;	genPointerSet
                                    404 ;	  setupDPTR - off=4 remat=(null) savea=0
      000117 A0 04            [ 2]  405 	ldy	#0x04
      000119 91*00            [ 6]  406 	sta	[DPTR],y
                                    407 ;	Raw cost for generated ic 22 : (4, 8.000000) count=3.999997
                                    408 ;	../printf_large.c: 177: ul <<= 1;
                                    409 ;	genLeftShift
                                    410 ;	genLeftShiftLiteral
                                    411 ;	  genlsh32 - shift=1
      00011B 48               [ 3]  412 	pha
      00011C 1E 01 01         [ 7]  413 	asl	0x101,x
      00011F 3E 02 01         [ 7]  414 	rol	0x102,x
      000122 3E 03 01         [ 7]  415 	rol	0x103,x
      000125 3E 04 01         [ 7]  416 	rol	0x104,x
      000128 68               [ 4]  417 	pla
                                    418 ;	Raw cost for generated ic 23 : (14, 31.000000) count=3.999997
                                    419 ;	../printf_large.c: 179: if (radix <= *pb4 )
                                    420 ;	genCmp
      000129 DD 12 01         [ 5]  421 	cmp	0x112,x
      00012C 90 10            [ 4]  422 	bcc	00104$
                                    423 ;	Raw cost for generated ic 27 : (8, 9.600000) count=3.999997
                                    424 ;	skipping generated iCode
                                    425 ;	Raw cost for generated ic 28 : (0, 0.000000) count=3.999997
                                    426 ;	../printf_large.c: 181: *pb4 -= radix;
                                    427 ;	genPointerGet
                                    428 ;	  setupDPTR - off=4 remat=(null) savea=0
      00012E B1*00            [ 6]  429 	lda	[DPTR],y
                                    430 ;	Raw cost for generated ic 33 : (2, 5.000000) count=2.999997
                                    431 ;	genMinus
      000130 38               [ 2]  432 	sec
      000131 FD 12 01         [ 5]  433 	sbc	0x112,x
                                    434 ;	Raw cost for generated ic 34 : (4, 6.000000) count=2.999997
                                    435 ;	genPointerSet
                                    436 ;	  setupDPTR - off=4 remat=(null) savea=0
      000134 91*00            [ 6]  437 	sta	[DPTR],y
                                    438 ;	Raw cost for generated ic 35 : (2, 6.000000) count=2.999997
                                    439 ;	../printf_large.c: 182: ul |= 1;
                                    440 ;	genOr
      000136 BD 01 01         [ 5]  441 	lda	0x101,x
      000139 09 01            [ 2]  442 	ora	#0x01
      00013B 9D 01 01         [ 5]  443 	sta	0x101,x
                                    444 ;	Raw cost for generated ic 36 : (8, 11.000000) count=2.999997
                                    445 ;	genLabel
      00013E                        446 00104$:
                                    447 ;	Raw cost for generated ic 39 : (0, 0.000000) count=3.999996
                                    448 ;	../printf_large.c: 184: } while (--i);
                                    449 ;	genMinus
                                    450 ;	  genMinusDec - size=1  icount=1
      00013E BA               [ 2]  451 	tsx
      00013F BD 0B 01         [ 5]  452 	lda	0x10b,x
      000142 38               [ 2]  453 	sec
      000143 E9 01            [ 2]  454 	sbc	#0x01
      000145 9D 0B 01         [ 5]  455 	sta	0x10b,x
                                    456 ;	Raw cost for generated ic 40 : (10, 15.000000) count=3.999996
                                    457 ;	genIfx
                                    458 ;	genIfxJump : z
      000148 D0 A3            [ 4]  459 	bne	00103$
                                    460 ;	Raw cost for generated ic 42 : (5, 5.600000) count=3.999996
                                    461 ;	../printf_large.c: 185: value->ul = ul;
                                    462 ;	genPointerSet
                                    463 ;	  setupDPTR - off=0 remat=(null) savea=0
      00014A BD 09 01         [ 5]  464 	lda	0x109,x
      00014D 85*00            [ 3]  465 	sta	*(DPTR+0)
      00014F BD 0A 01         [ 5]  466 	lda	0x10a,x
      000152 85*01            [ 3]  467 	sta	*(DPTR+1)
      000154 BD 01 01         [ 5]  468 	lda	0x101,x
      000157 A0 00            [ 2]  469 	ldy	#0x00
      000159 91*00            [ 6]  470 	sta	[DPTR],y
      00015B BD 02 01         [ 5]  471 	lda	0x102,x
      00015E C8               [ 2]  472 	iny
      00015F 91*00            [ 6]  473 	sta	[DPTR],y
      000161 BD 03 01         [ 5]  474 	lda	0x103,x
      000164 C8               [ 2]  475 	iny
      000165 91*00            [ 6]  476 	sta	[DPTR],y
      000167 BD 04 01         [ 5]  477 	lda	0x104,x
      00016A C8               [ 2]  478 	iny
      00016B 91*00            [ 6]  479 	sta	[DPTR],y
                                    480 ;	Raw cost for generated ic 47 : (35, 62.000000) count=0.999998
                                    481 ;	genLabel
                                    482 ;	Raw cost for generated ic 48 : (0, 0.000000) count=0.999998
                                    483 ;	../printf_large.c: 186: }
                                    484 ;	genEndFunction
                                    485 ;	  adjustStack : cycles stk:66  incdec:40  adc:24
      00016D 86*00            [ 3]  486 	stx	*(REGTEMP+0)
      00016F 85*01            [ 3]  487 	sta	*(REGTEMP+1)
      000171 BA               [ 2]  488 	tsx
      000172 8A               [ 2]  489 	txa
      000173 18               [ 2]  490 	clc
      000174 69 0F            [ 2]  491 	adc	#0x0f
      000176 AA               [ 2]  492 	tax
      000177 9A               [ 2]  493 	txs
      000178 A5*01            [ 3]  494 	lda	*(REGTEMP+1)
      00017A A6*00            [ 3]  495 	ldx	*(REGTEMP+0)
      00017C 60               [ 6]  496 	rts
                                    497 ;	Raw cost for generated ic 49 : (16, 30.000000) count=0.999998
                                    498 ;------------------------------------------------------------
                                    499 ;Allocation info for local variables in function '_print_format'
                                    500 ;------------------------------------------------------------
                                    501 ;pvoid         Allocated to stack - sp +83 +2 
                                    502 ;format        Allocated to stack - sp +85 +2 
                                    503 ;ap            Allocated to stack - sp +87 +2 
                                    504 ;pfn           Allocated to stack - sp +79 +2 
                                    505 ;left_justify  Allocated to stack - sp +78 +1 
                                    506 ;zero_padding  Allocated to stack - sp +77 +1 
                                    507 ;prefix_sign   Allocated to stack - sp +76 +1 
                                    508 ;prefix_space  Allocated to stack - sp +75 +1 
                                    509 ;signed_argument Allocated to stack - sp +74 +1 
                                    510 ;char_argument Allocated to stack - sp +73 +1 
                                    511 ;long_argument Allocated to stack - sp +72 +1 
                                    512 ;float_argument Allocated to stack - sp +71 +1 
                                    513 ;lower_case    Allocated to stack - sp +70 +1 
                                    514 ;value         Allocated to stack - sp +7 +5 
                                    515 ;charsOutputted Allocated to stack - sp +68 +2 
                                    516 ;lsd           Allocated to stack - sp +67 +1 
                                    517 ;radix         Allocated to stack - sp +66 +1 
                                    518 ;width         Allocated to stack - sp +64 +2 
                                    519 ;decimals      Allocated to stack - sp +62 +2 
                                    520 ;length        Allocated to stack - sp +60 +2 
                                    521 ;c             Allocated to registers y 
                                    522 ;store         Allocated to stack - sp +1 +6 
                                    523 ;pstore        Allocated to stack - sp +58 +2 
                                    524 ;sloc0         Allocated to stack - sp +56 +2 
                                    525 ;sloc1         Allocated to stack - sp +54 +2 
                                    526 ;sloc2         Allocated to stack - sp +52 +2 
                                    527 ;sloc3         Allocated to stack - sp +50 +2 
                                    528 ;sloc4         Allocated to stack - sp +48 +2 
                                    529 ;sloc5         Allocated to stack - sp +46 +2 
                                    530 ;sloc6         Allocated to stack - sp +44 +2 
                                    531 ;sloc7         Allocated to stack - sp +42 +2 
                                    532 ;sloc8         Allocated to stack - sp +40 +2 
                                    533 ;sloc9         Allocated to stack - sp +38 +2 
                                    534 ;sloc10        Allocated to stack - sp +36 +2 
                                    535 ;sloc11        Allocated to stack - sp +34 +2 
                                    536 ;sloc12        Allocated to stack - sp +32 +2 
                                    537 ;sloc13        Allocated to stack - sp +30 +2 
                                    538 ;sloc14        Allocated to stack - sp +28 +2 
                                    539 ;sloc15        Allocated to stack - sp +24 +4 
                                    540 ;sloc16        Allocated to stack - sp +20 +4 
                                    541 ;sloc17        Allocated to stack - sp +16 +4 
                                    542 ;sloc18        Allocated to stack - sp +12 +4 
                                    543 ;------------------------------------------------------------
                                    544 ;	../printf_large.c: 434: _print_format (pfn_outputchar pfn, void* pvoid, const char *format, va_list ap)
                                    545 ;	genLabel
                                    546 ;	Raw cost for generated ic 0 : (0, 0.000000) count=1.000000
                                    547 ;	-----------------------------------------
                                    548 ;	 function _print_format
                                    549 ;	-----------------------------------------
                                    550 ;	Register assignment might be sub-optimal.
                                    551 ;	Stack space usage: 80 bytes.
      00017D                        552 __print_format:
                                    553 ;	genReceive: size=2
                                    554 ;	pushreg: ofs=1
      00017D 85*00            [ 3]  555 	sta	*(REGTEMP+0)
      00017F 8A               [ 2]  556 	txa
      000180 48               [ 3]  557 	pha
      000181 A5*00            [ 3]  558 	lda	*(REGTEMP+0)
                                    559 ;	pushreg: ofs=0
      000183 48               [ 3]  560 	pha
                                    561 ;	  adjustStack : cycles stk:234  incdec:160  adc:12
      000184 BA               [ 2]  562 	tsx
      000185 8A               [ 2]  563 	txa
      000186 18               [ 2]  564 	clc
      000187 69 B2            [ 2]  565 	adc	#0xb2
      000189 AA               [ 2]  566 	tax
      00018A 9A               [ 2]  567 	txs
                                    568 ;	Raw cost for generated ic 1 : (14, 26.000000) count=1.000000
                                    569 ;	skipping generated iCode
                                    570 ;	Raw cost for generated ic 2 : (0, 0.000000) count=1.000000
                                    571 ;	../printf_large.c: 466: charsOutputted = 0;
                                    572 ;	genAssign
                                    573 ;	genAssignLit
      00018B A9 00            [ 2]  574 	lda	#0x00
      00018D 9D 38 01         [ 5]  575 	sta	0x138,x
      000190 9D 39 01         [ 5]  576 	sta	0x139,x
                                    577 ;	Raw cost for generated ic 3 : (8, 12.000000) count=1.000000
                                    578 ;	../printf_large.c: 475: while( c=*format++ )
                                    579 ;	genAddrOf
      000193 8A               [ 2]  580 	txa
      000194 18               [ 2]  581 	clc
      000195 69 07            [ 2]  582 	adc	#0x07
      000197 9D 36 01         [ 5]  583 	sta	0x136,x
      00019A A9 01            [ 2]  584 	lda	#0x01
      00019C 9D 37 01         [ 5]  585 	sta	0x137,x
                                    586 ;	Raw cost for generated ic 193 : (12, 18.000000) count=1.000000
                                    587 ;	genAssign
                                    588 ;	genCopy
      00019F BD 37 01         [ 5]  589 	lda	0x137,x
      0001A2 9D 35 01         [ 5]  590 	sta	0x135,x
      0001A5 BD 36 01         [ 5]  591 	lda	0x136,x
      0001A8 9D 34 01         [ 5]  592 	sta	0x134,x
                                    593 ;	Raw cost for generated ic 295 : (12, 18.000000) count=1.000000
                                    594 ;	genAssign
                                    595 ;	genCopy
      0001AB BD 37 01         [ 5]  596 	lda	0x137,x
      0001AE 9D 33 01         [ 5]  597 	sta	0x133,x
      0001B1 BD 36 01         [ 5]  598 	lda	0x136,x
      0001B4 9D 32 01         [ 5]  599 	sta	0x132,x
                                    600 ;	Raw cost for generated ic 317 : (12, 18.000000) count=1.000000
                                    601 ;	genAssign
                                    602 ;	genCopy
      0001B7 BD 37 01         [ 5]  603 	lda	0x137,x
      0001BA 9D 31 01         [ 5]  604 	sta	0x131,x
      0001BD BD 36 01         [ 5]  605 	lda	0x136,x
      0001C0 9D 30 01         [ 5]  606 	sta	0x130,x
                                    607 ;	Raw cost for generated ic 367 : (12, 18.000000) count=1.000000
                                    608 ;	skipping iCode since result will be rematerialized
                                    609 ;	Raw cost for generated ic 377 : (0, 0.000000) count=1.000000
                                    610 ;	genAddrOf
      0001C3 E8               [ 2]  611 	inx
      0001C4 8A               [ 2]  612 	txa
                                    613 ;	Raw cost for generated ic 405 : (4, 6.000000) count=1.000000
                                    614 ;	genPlus
                                    615 ;	  genPlusInc
      0001C5 18               [ 2]  616 	clc
      0001C6 69 05            [ 2]  617 	adc #0x05
      0001C8 BA               [ 2]  618 	tsx
      0001C9 9D 2E 01         [ 5]  619 	sta	0x12e,x
      0001CC A9 01            [ 2]  620 	lda	#0x01
      0001CE 69 00            [ 2]  621 	adc	#0x00
      0001D0 9D 2F 01         [ 5]  622 	sta	0x12f,x
                                    623 ;	Raw cost for generated ic 406 : (14, 20.000000) count=1.000000
                                    624 ;	genAssign
                                    625 ;	genCopy
      0001D3 BD 37 01         [ 5]  626 	lda	0x137,x
      0001D6 9D 2D 01         [ 5]  627 	sta	0x12d,x
      0001D9 BD 36 01         [ 5]  628 	lda	0x136,x
      0001DC 9D 2C 01         [ 5]  629 	sta	0x12c,x
                                    630 ;	Raw cost for generated ic 446 : (12, 18.000000) count=1.000000
                                    631 ;	genAssign
                                    632 ;	genCopy
      0001DF BD 37 01         [ 5]  633 	lda	0x137,x
      0001E2 9D 2B 01         [ 5]  634 	sta	0x12b,x
      0001E5 BD 36 01         [ 5]  635 	lda	0x136,x
      0001E8 9D 2A 01         [ 5]  636 	sta	0x12a,x
                                    637 ;	Raw cost for generated ic 412 : (12, 18.000000) count=1.000000
                                    638 ;	genAssign
                                    639 ;	genCopy
      0001EB BD 37 01         [ 5]  640 	lda	0x137,x
      0001EE 9D 29 01         [ 5]  641 	sta	0x129,x
      0001F1 BD 36 01         [ 5]  642 	lda	0x136,x
      0001F4 9D 28 01         [ 5]  643 	sta	0x128,x
                                    644 ;	Raw cost for generated ic 471 : (12, 18.000000) count=1.000000
                                    645 ;	genAssign
                                    646 ;	genCopy
      0001F7 BD 37 01         [ 5]  647 	lda	0x137,x
      0001FA 9D 27 01         [ 5]  648 	sta	0x127,x
      0001FD BD 36 01         [ 5]  649 	lda	0x136,x
      000200 9D 26 01         [ 5]  650 	sta	0x126,x
                                    651 ;	Raw cost for generated ic 493 : (12, 18.000000) count=1.000000
                                    652 ;	genLabel
      000203                        653 00231$:
                                    654 ;	Raw cost for generated ic 4 : (0, 0.000000) count=3.899817
                                    655 ;	genAssign
                                    656 ;	genCopy
      000203 BA               [ 2]  657 	tsx
      000204 BD 56 01         [ 5]  658 	lda	0x156,x
      000207 9D 25 01         [ 5]  659 	sta	0x125,x
      00020A BD 55 01         [ 5]  660 	lda	0x155,x
      00020D 9D 24 01         [ 5]  661 	sta	0x124,x
                                    662 ;	Raw cost for generated ic 5 : (13, 20.000000) count=3.899817
                                    663 ;	genPointerGet
                                    664 ;	  setupDPTR - off=0 remat=(null) savea=0
      000210 85*00            [ 3]  665 	sta	*(DPTR+0)
      000212 BD 25 01         [ 5]  666 	lda	0x125,x
      000215 85*01            [ 3]  667 	sta	*(DPTR+1)
      000217 A0 00            [ 2]  668 	ldy	#0x00
      000219 B1*00            [ 6]  669 	lda	[DPTR],y
      00021B A8               [ 2]  670 	tay
                                    671 ;	Raw cost for generated ic 8 : (12, 19.000000) count=3.899817
                                    672 ;	genPlus
                                    673 ;	  genPlusInc
      00021C BD 24 01         [ 5]  674 	lda	0x124,x
      00021F 18               [ 2]  675 	clc
      000220 69 01            [ 2]  676 	adc	#0x01
      000222 9D 55 01         [ 5]  677 	sta	0x155,x
      000225 BD 25 01         [ 5]  678 	lda	0x125,x
      000228 69 00            [ 2]  679 	adc	#0x00
      00022A 9D 56 01         [ 5]  680 	sta	0x156,x
                                    681 ;	Raw cost for generated ic 6 : (17, 24.000000) count=3.899817
                                    682 ;	genAssign
                                    683 ;	genCopy
      00022D 98               [ 2]  684 	tya
      00022E AA               [ 2]  685 	tax
                                    686 ;	Raw cost for generated ic 9 : (2, 4.000000) count=3.899817
                                    687 ;	genIfx
      00022F C0 00            [ 2]  688 	cpy	#0x00
                                    689 ;	genIfxJump : z
      000231 D0 03            [ 4]  690 	bne	00782$
      000233 4Cr74r12         [ 3]  691 	jmp	00233$
      000236                        692 00782$:
                                    693 ;	Raw cost for generated ic 10 : (7, 7.600000) count=3.899817
                                    694 ;	../printf_large.c: 477: if ( c=='%' )
                                    695 ;	genCmpEQorNE
      000236 E0 25            [ 2]  696 	cpx	#0x25
      000238 F0 03            [ 4]  697 	beq	00783$
      00023A 4Cr33r12         [ 3]  698 	jmp	00229$
      00023D                        699 00783$:
                                    700 ;	Raw cost for generated ic 13 : (7, 7.600000) count=2.925049
                                    701 ;	skipping generated iCode
                                    702 ;	Raw cost for generated ic 14 : (0, 0.000000) count=2.925049
                                    703 ;	../printf_large.c: 479: left_justify    = 0;
                                    704 ;	genAssign
                                    705 ;	genAssignLit
      00023D A9 00            [ 2]  706 	lda	#0x00
      00023F BA               [ 2]  707 	tsx
      000240 9D 4E 01         [ 5]  708 	sta	0x14e,x
                                    709 ;	Raw cost for generated ic 17 : (6, 9.000000) count=2.184802
                                    710 ;	../printf_large.c: 480: zero_padding    = 0;
                                    711 ;	genAssign
                                    712 ;	genAssignLit
      000243 9D 4D 01         [ 5]  713 	sta	0x14d,x
                                    714 ;	Raw cost for generated ic 18 : (3, 5.000000) count=2.184802
                                    715 ;	../printf_large.c: 481: prefix_sign     = 0;
                                    716 ;	genAssign
                                    717 ;	genAssignLit
      000246 9D 4C 01         [ 5]  718 	sta	0x14c,x
                                    719 ;	Raw cost for generated ic 19 : (3, 5.000000) count=2.184802
                                    720 ;	../printf_large.c: 482: prefix_space    = 0;
                                    721 ;	genAssign
                                    722 ;	genAssignLit
      000249 9D 4B 01         [ 5]  723 	sta	0x14b,x
                                    724 ;	Raw cost for generated ic 20 : (3, 5.000000) count=2.184802
                                    725 ;	../printf_large.c: 483: signed_argument = 0;
                                    726 ;	genAssign
                                    727 ;	genAssignLit
      00024C 9D 4A 01         [ 5]  728 	sta	0x14a,x
                                    729 ;	Raw cost for generated ic 21 : (3, 5.000000) count=2.184802
                                    730 ;	../printf_large.c: 484: char_argument   = 0;
                                    731 ;	genAssign
                                    732 ;	genAssignLit
      00024F 9D 49 01         [ 5]  733 	sta	0x149,x
                                    734 ;	Raw cost for generated ic 22 : (3, 5.000000) count=2.184802
                                    735 ;	../printf_large.c: 485: long_argument   = 0;
                                    736 ;	genAssign
                                    737 ;	genAssignLit
      000252 9D 48 01         [ 5]  738 	sta	0x148,x
                                    739 ;	Raw cost for generated ic 23 : (3, 5.000000) count=2.184802
                                    740 ;	../printf_large.c: 486: float_argument  = 0;
                                    741 ;	genAssign
                                    742 ;	genAssignLit
      000255 9D 47 01         [ 5]  743 	sta	0x147,x
                                    744 ;	Raw cost for generated ic 24 : (3, 5.000000) count=2.184802
                                    745 ;	../printf_large.c: 487: radix           = 0;
                                    746 ;	genAssign
                                    747 ;	genAssignLit
      000258 9D 42 01         [ 5]  748 	sta	0x142,x
                                    749 ;	Raw cost for generated ic 25 : (3, 5.000000) count=2.184802
                                    750 ;	../printf_large.c: 488: width           = 0;
                                    751 ;	genAssign
                                    752 ;	genAssignLit
      00025B 9D 40 01         [ 5]  753 	sta	0x140,x
      00025E 9D 41 01         [ 5]  754 	sta	0x141,x
                                    755 ;	Raw cost for generated ic 26 : (6, 10.000000) count=2.184802
                                    756 ;	../printf_large.c: 489: decimals        = -1;
                                    757 ;	genAssign
                                    758 ;	genAssignLit
      000261 A9 FF            [ 2]  759 	lda	#0xff
      000263 9D 3E 01         [ 5]  760 	sta	0x13e,x
      000266 9D 3F 01         [ 5]  761 	sta	0x13f,x
                                    762 ;	Raw cost for generated ic 27 : (8, 12.000000) count=2.184802
                                    763 ;	../printf_large.c: 491: get_conversion_spec:
                                    764 ;	genAssign
                                    765 ;	genCopy
      000269 BD 56 01         [ 5]  766 	lda	0x156,x
      00026C 9D 25 01         [ 5]  767 	sta	0x125,x
      00026F BD 55 01         [ 5]  768 	lda	0x155,x
      000272 9D 24 01         [ 5]  769 	sta	0x124,x
                                    770 ;	Raw cost for generated ic 760 : (12, 18.000000) count=2.184802
                                    771 ;	genLabel
      000275                        772 00101$:
                                    773 ;	Raw cost for generated ic 28 : (0, 0.000000) count=2.863543
                                    774 ;	../printf_large.c: 493: c = *format++;
                                    775 ;	genPointerGet
                                    776 ;	  setupDPTR - off=0 remat=(null) savea=0
      000275 BA               [ 2]  777 	tsx
      000276 BD 24 01         [ 5]  778 	lda	0x124,x
      000279 85*00            [ 3]  779 	sta	*(DPTR+0)
      00027B BD 25 01         [ 5]  780 	lda	0x125,x
      00027E 85*01            [ 3]  781 	sta	*(DPTR+1)
      000280 A0 00            [ 2]  782 	ldy	#0x00
      000282 B1*00            [ 6]  783 	lda	[DPTR],y
      000284 A8               [ 2]  784 	tay
                                    785 ;	Raw cost for generated ic 32 : (16, 25.000000) count=2.863543
                                    786 ;	genPlus
                                    787 ;	  genPlusInc
      000285 BD 24 01         [ 5]  788 	lda	0x124,x
      000288 18               [ 2]  789 	clc
      000289 69 01            [ 2]  790 	adc	#0x01
      00028B 9D 24 01         [ 5]  791 	sta	0x124,x
      00028E BD 25 01         [ 5]  792 	lda	0x125,x
      000291 69 00            [ 2]  793 	adc	#0x00
      000293 9D 25 01         [ 5]  794 	sta	0x125,x
                                    795 ;	Raw cost for generated ic 30 : (17, 24.000000) count=2.863543
                                    796 ;	genAssign
                                    797 ;	genCopy
      000296 9D 56 01         [ 5]  798 	sta	0x156,x
      000299 BD 24 01         [ 5]  799 	lda	0x124,x
      00029C 9D 55 01         [ 5]  800 	sta	0x155,x
                                    801 ;	Raw cost for generated ic 31 : (9, 14.000000) count=2.863543
                                    802 ;	../printf_large.c: 495: if (c=='%')
                                    803 ;	genCmpEQorNE
      00029F C0 25            [ 2]  804 	cpy	#0x25
      0002A1 D0 2E            [ 4]  805 	bne	00103$
                                    806 ;	Raw cost for generated ic 34 : (7, 7.600000) count=2.863543
                                    807 ;	skipping generated iCode
                                    808 ;	Raw cost for generated ic 35 : (0, 0.000000) count=2.863543
                                    809 ;	../printf_large.c: 497: OUTPUT_CHAR(c, p);
                                    810 ;	genIpush
      0002A3 BD 54 01         [ 5]  811 	lda	0x154,x
      0002A6 48               [ 3]  812 	pha
      0002A7 BD 53 01         [ 5]  813 	lda	0x153,x
      0002AA 48               [ 3]  814 	pha
                                    815 ;	Raw cost for generated ic 38 : (8, 14.000000) count=2.147657
                                    816 ;	Raw cost for generated ic 39 : (0, 0.000000) count=2.147657
                                    817 ;	genPcall
      0002AB BD 4F 01         [ 5]  818 	lda	0x14f,x
      0002AE 85*00            [ 3]  819 	sta	*(REGTEMP+0)
      0002B0 BD 50 01         [ 5]  820 	lda	0x150,x
      0002B3 85*01            [ 3]  821 	sta	*(REGTEMP+1)
                                    822 ;	genSend
      0002B5 98               [ 2]  823 	tya
      0002B6 20r00r00         [ 6]  824 	jsr	__sdcc_indirect_jsr
                                    825 ;	  adjustStack : cycles stk:14  incdec:8  adc:18
      0002B9 BA               [ 2]  826 	tsx
      0002BA E8               [ 2]  827 	inx
      0002BB E8               [ 2]  828 	inx
      0002BC 9A               [ 2]  829 	txs
                                    830 ;	Raw cost for generated ic 40 : (18, 30.000000) count=2.147657
                                    831 ;	genPlus
                                    832 ;	  genPlusInc
      0002BD BD 38 01         [ 5]  833 	lda	0x138,x
      0002C0 18               [ 2]  834 	clc
      0002C1 69 01            [ 2]  835 	adc	#0x01
      0002C3 9D 38 01         [ 5]  836 	sta	0x138,x
      0002C6 BD 39 01         [ 5]  837 	lda	0x139,x
      0002C9 69 00            [ 2]  838 	adc	#0x00
      0002CB 9D 39 01         [ 5]  839 	sta	0x139,x
                                    840 ;	Raw cost for generated ic 42 : (17, 24.000000) count=2.147657
                                    841 ;	../printf_large.c: 498: continue;
                                    842 ;	genGoto
      0002CE 4Cr03r02         [ 3]  843 	jmp	00231$
                                    844 ;	Raw cost for generated ic 44 : (3, 3.000000) count=2.147657
                                    845 ;	genLabel
      0002D1                        846 00103$:
                                    847 ;	Raw cost for generated ic 45 : (0, 0.000000) count=0.715886
                                    848 ;	../printf_large.c: 501: if (isdigit(c))
                                    849 ;	genCmp
      0002D1 C0 30            [ 2]  850 	cpy	#0x30
      0002D3 B0 03            [ 4]  851 	bcs	00785$
      0002D5 4Cr89r03         [ 3]  852 	jmp	00110$
      0002D8                        853 00785$:
                                    854 ;	Raw cost for generated ic 46 : (7, 7.600000) count=0.715886
                                    855 ;	skipping generated iCode
                                    856 ;	Raw cost for generated ic 47 : (0, 0.000000) count=0.715886
                                    857 ;	genCmp
      0002D8 C0 39            [ 2]  858 	cpy	#0x39
      0002DA F0 05            [ 4]  859 	beq	00786$
      0002DC 90 03            [ 4]  860 	bcc	00786$
      0002DE 4Cr89r03         [ 3]  861 	jmp	00110$
      0002E1                        862 00786$:
                                    863 ;	Raw cost for generated ic 50 : (9, 10.200000) count=0.537951
                                    864 ;	skipping generated iCode
                                    865 ;	Raw cost for generated ic 51 : (0, 0.000000) count=0.537951
                                    866 ;	../printf_large.c: 503: if (decimals==-1)
                                    867 ;	genCmpEQorNE
      0002E1 BA               [ 2]  868 	tsx
      0002E2 BD 3E 01         [ 5]  869 	lda	0x13e,x
      0002E5 C9 FF            [ 2]  870 	cmp	#0xff
      0002E7 D0 57            [ 4]  871 	bne	00107$
      0002E9 BD 3F 01         [ 5]  872 	lda	0x13f,x
      0002EC C9 FF            [ 2]  873 	cmp	#0xff
      0002EE D0 50            [ 4]  874 	bne	00107$
                                    875 ;	Raw cost for generated ic 54 : (21, 25.200001) count=0.411172
                                    876 ;	skipping generated iCode
                                    877 ;	Raw cost for generated ic 55 : (0, 0.000000) count=0.411172
                                    878 ;	../printf_large.c: 505: width = 10*width + c - '0';
                                    879 ;	genIpush
      0002F0 98               [ 2]  880 	tya
      0002F1 48               [ 3]  881 	pha
      0002F2 BD 41 01         [ 5]  882 	lda	0x141,x
      0002F5 48               [ 3]  883 	pha
      0002F6 BD 40 01         [ 5]  884 	lda	0x140,x
      0002F9 48               [ 3]  885 	pha
                                    886 ;	Raw cost for generated ic 836 : (10, 19.000000) count=0.308379
                                    887 ;	Raw cost for generated ic 837 : (0, 0.000000) count=0.308379
                                    888 ;	genCall
                                    889 ;	genSend
      0002FA A2 00            [ 2]  890 	ldx	#0x00
      0002FC A9 0A            [ 2]  891 	lda	#0x0a
      0002FE 20r00r00         [ 6]  892 	jsr	__mulint
                                    893 ;	assignResultValue
      000301 86*00            [ 3]  894 	stx	*(REGTEMP+0)
      000303 BA               [ 2]  895 	tsx
      000304 9D 25 01         [ 5]  896 	sta	0x125,x
      000307 A5*00            [ 3]  897 	lda	*(REGTEMP+0)
      000309 9D 26 01         [ 5]  898 	sta	0x126,x
                                    899 ;	  adjustStack : cycles stk:8  incdec:6  adc:10
      00030C E8               [ 2]  900 	inx
      00030D E8               [ 2]  901 	inx
      00030E 9A               [ 2]  902 	txs
      00030F 85*00            [ 3]  903 	sta	*(REGTEMP+0)
      000311 68               [ 4]  904 	pla
                                    905 ;	Raw cost for generated ic 838 : (27, 46.000000) count=0.308379
                                    906 ;	genCast
                                    907 ;	genCopy
      000312 A8               [ 2]  908 	tay
                                    909 ;	Raw cost for generated ic 59 : (1, 2.000000) count=0.308379
                                    910 ;	genCast
                                    911 ;	genCopy
                                    912 ;	Raw cost for generated ic 60 : (2, 2.000000) count=0.308379
                                    913 ;	genPlus
      000313 18               [ 2]  914 	clc
      000314 BA               [ 2]  915 	tsx
      000315 7D 22 01         [ 5]  916 	adc	0x122,x
      000318 48               [ 3]  917 	pha
      000319 A9 00            [ 2]  918 	lda	#0x00
      00031B 7D 23 01         [ 5]  919 	adc	0x123,x
      00031E AA               [ 2]  920 	tax
      00031F 68               [ 4]  921 	pla
                                    922 ;	Raw cost for generated ic 61 : (13, 23.000000) count=0.308379
                                    923 ;	genMinus
                                    924 ;	  genMinusDec - size=2  icount=48
      000320 86*00            [ 3]  925 	stx	*(REGTEMP+0)
      000322 38               [ 2]  926 	sec
      000323 E9 30            [ 2]  927 	sbc	#0x30
      000325 BA               [ 2]  928 	tsx
      000326 9D 40 01         [ 5]  929 	sta	0x140,x
      000329 A5*00            [ 3]  930 	lda	*(REGTEMP+0)
      00032B E9 00            [ 2]  931 	sbc	#0x00
      00032D 9D 41 01         [ 5]  932 	sta	0x141,x
                                    933 ;	Raw cost for generated ic 62 : (16, 24.000000) count=0.308379
                                    934 ;	../printf_large.c: 506: if (width == 0)
                                    935 ;	genIfx
      000330 1D 40 01         [ 5]  936 	ora	0x140,x
                                    937 ;	genIfxJump : z
      000333 F0 03            [ 4]  938 	beq	00792$
      000335 4Cr75r02         [ 3]  939 	jmp	00101$
      000338                        940 00792$:
                                    941 ;	Raw cost for generated ic 64 : (8, 9.600000) count=0.308379
                                    942 ;	../printf_large.c: 509: zero_padding = 1;
                                    943 ;	genAssign
                                    944 ;	genAssignLit
      000338 A9 01            [ 2]  945 	lda	#0x01
      00033A 9D 4D 01         [ 5]  946 	sta	0x14d,x
                                    947 ;	Raw cost for generated ic 67 : (5, 7.000000) count=0.070547
                                    948 ;	genGoto
      00033D 4Cr75r02         [ 3]  949 	jmp	00101$
                                    950 ;	Raw cost for generated ic 69 : (3, 3.000000) count=0.070547
                                    951 ;	genLabel
      000340                        952 00107$:
                                    953 ;	Raw cost for generated ic 70 : (0, 0.000000) count=0.106922
                                    954 ;	../printf_large.c: 514: decimals = 10*decimals + c - '0';
                                    955 ;	genIpush
      000340 98               [ 2]  956 	tya
      000341 48               [ 3]  957 	pha
      000342 BA               [ 2]  958 	tsx
      000343 BD 40 01         [ 5]  959 	lda	0x140,x
      000346 48               [ 3]  960 	pha
      000347 BD 3F 01         [ 5]  961 	lda	0x13f,x
      00034A 48               [ 3]  962 	pha
                                    963 ;	Raw cost for generated ic 839 : (11, 21.000000) count=0.106922
                                    964 ;	Raw cost for generated ic 840 : (0, 0.000000) count=0.106922
                                    965 ;	genCall
                                    966 ;	genSend
      00034B A2 00            [ 2]  967 	ldx	#0x00
      00034D A9 0A            [ 2]  968 	lda	#0x0a
      00034F 20r00r00         [ 6]  969 	jsr	__mulint
                                    970 ;	assignResultValue
      000352 86*00            [ 3]  971 	stx	*(REGTEMP+0)
      000354 BA               [ 2]  972 	tsx
      000355 9D 25 01         [ 5]  973 	sta	0x125,x
      000358 A5*00            [ 3]  974 	lda	*(REGTEMP+0)
      00035A 9D 26 01         [ 5]  975 	sta	0x126,x
                                    976 ;	  adjustStack : cycles stk:8  incdec:6  adc:10
      00035D E8               [ 2]  977 	inx
      00035E E8               [ 2]  978 	inx
      00035F 9A               [ 2]  979 	txs
      000360 85*00            [ 3]  980 	sta	*(REGTEMP+0)
      000362 68               [ 4]  981 	pla
      000363 A8               [ 2]  982 	tay
      000364 A5*00            [ 3]  983 	lda	*(REGTEMP+0)
                                    984 ;	Raw cost for generated ic 841 : (27, 46.000000) count=0.106922
                                    985 ;	genCast
                                    986 ;	genCopy
      000366 A2 00            [ 2]  987 	ldx	#0x00
      000368 98               [ 2]  988 	tya
                                    989 ;	Raw cost for generated ic 72 : (3, 4.000000) count=0.106922
                                    990 ;	genPlus
      000369 18               [ 2]  991 	clc
      00036A BA               [ 2]  992 	tsx
      00036B 7D 22 01         [ 5]  993 	adc	0x122,x
      00036E 48               [ 3]  994 	pha
      00036F A9 00            [ 2]  995 	lda	#0x00
      000371 7D 23 01         [ 5]  996 	adc	0x123,x
      000374 AA               [ 2]  997 	tax
      000375 68               [ 4]  998 	pla
                                    999 ;	Raw cost for generated ic 73 : (13, 23.000000) count=0.106922
                                   1000 ;	genMinus
                                   1001 ;	  genMinusDec - size=2  icount=48
      000376 86*00            [ 3] 1002 	stx	*(REGTEMP+0)
      000378 38               [ 2] 1003 	sec
      000379 E9 30            [ 2] 1004 	sbc	#0x30
      00037B BA               [ 2] 1005 	tsx
      00037C 9D 3E 01         [ 5] 1006 	sta	0x13e,x
      00037F A5*00            [ 3] 1007 	lda	*(REGTEMP+0)
      000381 E9 00            [ 2] 1008 	sbc	#0x00
      000383 9D 3F 01         [ 5] 1009 	sta	0x13f,x
                                   1010 ;	Raw cost for generated ic 74 : (16, 24.000000) count=0.106922
                                   1011 ;	../printf_large.c: 516: goto get_conversion_spec;
                                   1012 ;	genGoto
      000386 4Cr75r02         [ 3] 1013 	jmp	00101$
                                   1014 ;	Raw cost for generated ic 77 : (3, 3.000000) count=0.106922
                                   1015 ;	genLabel
      000389                       1016 00110$:
                                   1017 ;	Raw cost for generated ic 78 : (0, 0.000000) count=0.313805
                                   1018 ;	../printf_large.c: 519: if (c=='.')
                                   1019 ;	genCmpEQorNE
      000389 C0 2E            [ 2] 1020 	cpy	#0x2e
      00038B D0 1D            [ 4] 1021 	bne	00115$
                                   1022 ;	Raw cost for generated ic 79 : (7, 7.600000) count=0.313805
                                   1023 ;	skipping generated iCode
                                   1024 ;	Raw cost for generated ic 80 : (0, 0.000000) count=0.313805
                                   1025 ;	../printf_large.c: 521: if (decimals==-1)
                                   1026 ;	genCmpEQorNE
      00038D BA               [ 2] 1027 	tsx
      00038E BD 3E 01         [ 5] 1028 	lda	0x13e,x
      000391 C9 FF            [ 2] 1029 	cmp	#0xff
      000393 D0 07            [ 4] 1030 	bne	00795$
      000395 BD 3F 01         [ 5] 1031 	lda	0x13f,x
      000398 C9 FF            [ 2] 1032 	cmp	#0xff
      00039A F0 03            [ 4] 1033 	beq	00796$
      00039C                       1034 00795$:
      00039C 4Cr75r02         [ 3] 1035 	jmp	00101$
      00039F                       1036 00796$:
                                   1037 ;	Raw cost for generated ic 83 : (21, 25.200001) count=0.227574
                                   1038 ;	skipping generated iCode
                                   1039 ;	Raw cost for generated ic 84 : (0, 0.000000) count=0.227574
                                   1040 ;	../printf_large.c: 522: decimals=0;
                                   1041 ;	genAssign
                                   1042 ;	genAssignLit
      00039F A9 00            [ 2] 1043 	lda	#0x00
      0003A1 9D 3E 01         [ 5] 1044 	sta	0x13e,x
      0003A4 9D 3F 01         [ 5] 1045 	sta	0x13f,x
                                   1046 ;	Raw cost for generated ic 87 : (8, 12.000000) count=0.061003
                                   1047 ;	../printf_large.c: 525: goto get_conversion_spec;
                                   1048 ;	genGoto
      0003A7 4Cr75r02         [ 3] 1049 	jmp	00101$
                                   1050 ;	Raw cost for generated ic 89 : (3, 3.000000) count=0.061003
                                   1051 ;	genLabel
      0003AA                       1052 00115$:
                                   1053 ;	Raw cost for generated ic 90 : (0, 0.000000) count=0.071661
                                   1054 ;	../printf_large.c: 528: if (islower(c))
                                   1055 ;	genCmp
      0003AA C0 61            [ 2] 1056 	cpy	#0x61
      0003AC 90 13            [ 4] 1057 	bcc	00117$
                                   1058 ;	Raw cost for generated ic 91 : (7, 7.600000) count=0.071661
                                   1059 ;	skipping generated iCode
                                   1060 ;	Raw cost for generated ic 92 : (0, 0.000000) count=0.071661
                                   1061 ;	genCmp
      0003AE C0 7A            [ 2] 1062 	cpy	#0x7a
      0003B0 F0 02            [ 4] 1063 	beq	00798$
      0003B2 B0 0D            [ 4] 1064 	bcs	00117$
      0003B4                       1065 00798$:
                                   1066 ;	Raw cost for generated ic 95 : (9, 10.200000) count=0.043883
                                   1067 ;	skipping generated iCode
                                   1068 ;	Raw cost for generated ic 96 : (0, 0.000000) count=0.043883
                                   1069 ;	../printf_large.c: 530: c = toupper(c);
                                   1070 ;	genAnd
      0003B4 98               [ 2] 1071 	tya
      0003B5 29 DF            [ 2] 1072 	and	#0xdf
      0003B7 A8               [ 2] 1073 	tay
                                   1074 ;	Raw cost for generated ic 100 : (4, 6.000000) count=0.032913
                                   1075 ;	../printf_large.c: 531: lower_case = 1;
                                   1076 ;	genAssign
                                   1077 ;	genAssignLit
      0003B8 A9 01            [ 2] 1078 	lda	#0x01
      0003BA BA               [ 2] 1079 	tsx
      0003BB 9D 46 01         [ 5] 1080 	sta	0x146,x
                                   1081 ;	Raw cost for generated ic 104 : (6, 9.000000) count=0.032913
                                   1082 ;	genGoto
      0003BE 4CrC7r03         [ 3] 1083 	jmp	00118$
                                   1084 ;	Raw cost for generated ic 105 : (3, 3.000000) count=0.032913
                                   1085 ;	genLabel
      0003C1                       1086 00117$:
                                   1087 ;	Raw cost for generated ic 106 : (0, 0.000000) count=0.025599
                                   1088 ;	../printf_large.c: 534: lower_case = 0;
                                   1089 ;	genAssign
                                   1090 ;	genAssignLit
      0003C1 A9 00            [ 2] 1091 	lda	#0x00
      0003C3 BA               [ 2] 1092 	tsx
      0003C4 9D 46 01         [ 5] 1093 	sta	0x146,x
                                   1094 ;	Raw cost for generated ic 107 : (6, 9.000000) count=0.025599
                                   1095 ;	genLabel
      0003C7                       1096 00118$:
                                   1097 ;	Raw cost for generated ic 108 : (0, 0.000000) count=0.058511
                                   1098 ;	../printf_large.c: 536: switch( c )
                                   1099 ;	genCmpEQorNE
      0003C7 C0 20            [ 2] 1100 	cpy	#0x20
      0003C9 D0 03            [ 4] 1101 	bne	00800$
      0003CB 4Cr51r04         [ 3] 1102 	jmp	00122$
      0003CE                       1103 00800$:
                                   1104 ;	Raw cost for generated ic 109 : (7, 7.600000) count=0.058511
                                   1105 ;	skipping generated iCode
                                   1106 ;	Raw cost for generated ic 110 : (0, 0.000000) count=0.058511
                                   1107 ;	genCmpEQorNE
      0003CE C0 2B            [ 2] 1108 	cpy	#0x2b
      0003D0 F0 76            [ 4] 1109 	beq	00121$
                                   1110 ;	Raw cost for generated ic 111 : (7, 7.600000) count=0.043883
                                   1111 ;	skipping generated iCode
                                   1112 ;	Raw cost for generated ic 112 : (0, 0.000000) count=0.043883
                                   1113 ;	genCmpEQorNE
      0003D2 C0 2D            [ 2] 1114 	cpy	#0x2d
      0003D4 F0 69            [ 4] 1115 	beq	00120$
                                   1116 ;	Raw cost for generated ic 113 : (7, 7.600000) count=0.032913
                                   1117 ;	skipping generated iCode
                                   1118 ;	Raw cost for generated ic 114 : (0, 0.000000) count=0.032913
                                   1119 ;	genCmpEQorNE
      0003D6 C0 42            [ 2] 1120 	cpy	#0x42
      0003D8 D0 03            [ 4] 1121 	bne	00803$
      0003DA 4Cr5Ar04         [ 3] 1122 	jmp	00123$
      0003DD                       1123 00803$:
                                   1124 ;	Raw cost for generated ic 115 : (7, 7.600000) count=0.024684
                                   1125 ;	skipping generated iCode
                                   1126 ;	Raw cost for generated ic 116 : (0, 0.000000) count=0.024684
                                   1127 ;	genCmpEQorNE
      0003DD C0 43            [ 2] 1128 	cpy	#0x43
      0003DF D0 03            [ 4] 1129 	bne	00804$
      0003E1 4Cr6Cr04         [ 3] 1130 	jmp	00129$
      0003E4                       1131 00804$:
                                   1132 ;	Raw cost for generated ic 117 : (7, 7.600000) count=0.017404
                                   1133 ;	skipping generated iCode
                                   1134 ;	Raw cost for generated ic 118 : (0, 0.000000) count=0.017404
                                   1135 ;	genCmpEQorNE
      0003E4 C0 44            [ 2] 1136 	cpy	#0x44
      0003E6 D0 03            [ 4] 1137 	bne	00805$
      0003E8 4CrD2r08         [ 3] 1138 	jmp	00154$
      0003EB                       1139 00805$:
                                   1140 ;	Raw cost for generated ic 119 : (7, 7.600000) count=0.013053
                                   1141 ;	skipping generated iCode
                                   1142 ;	Raw cost for generated ic 120 : (0, 0.000000) count=0.013053
                                   1143 ;	genCmpEQorNE
      0003EB C0 46            [ 2] 1144 	cpy	#0x46
      0003ED D0 03            [ 4] 1145 	bne	00806$
      0003EF 4CrFBr08         [ 3] 1146 	jmp	00158$
      0003F2                       1147 00806$:
                                   1148 ;	Raw cost for generated ic 121 : (7, 7.600000) count=0.000000
                                   1149 ;	skipping generated iCode
                                   1150 ;	Raw cost for generated ic 122 : (0, 0.000000) count=0.000000
                                   1151 ;	genCmpEQorNE
      0003F2 C0 48            [ 2] 1152 	cpy	#0x48
      0003F4 D0 03            [ 4] 1153 	bne	00807$
      0003F6 4Cr75r02         [ 3] 1154 	jmp	00101$
      0003F9                       1155 00807$:
                                   1156 ;	Raw cost for generated ic 123 : (7, 7.600000) count=0.000000
                                   1157 ;	skipping generated iCode
                                   1158 ;	Raw cost for generated ic 124 : (0, 0.000000) count=0.000000
                                   1159 ;	genCmpEQorNE
      0003F9 C0 49            [ 2] 1160 	cpy	#0x49
      0003FB D0 03            [ 4] 1161 	bne	00808$
      0003FD 4CrD2r08         [ 3] 1162 	jmp	00154$
      000400                       1163 00808$:
                                   1164 ;	Raw cost for generated ic 125 : (7, 7.600000) count=0.000000
                                   1165 ;	skipping generated iCode
                                   1166 ;	Raw cost for generated ic 126 : (0, 0.000000) count=0.000000
                                   1167 ;	genCmpEQorNE
      000400 C0 4A            [ 2] 1168 	cpy	#0x4a
      000402 D0 03            [ 4] 1169 	bne	00809$
      000404 4Cr75r02         [ 3] 1170 	jmp	00101$
      000407                       1171 00809$:
                                   1172 ;	Raw cost for generated ic 127 : (7, 7.600000) count=0.000000
                                   1173 ;	skipping generated iCode
                                   1174 ;	Raw cost for generated ic 128 : (0, 0.000000) count=0.000000
                                   1175 ;	genCmpEQorNE
      000407 C0 4C            [ 2] 1176 	cpy	#0x4c
      000409 F0 58            [ 4] 1177 	beq	00128$
                                   1178 ;	Raw cost for generated ic 129 : (7, 7.600000) count=0.000000
                                   1179 ;	skipping generated iCode
                                   1180 ;	Raw cost for generated ic 130 : (0, 0.000000) count=0.000000
                                   1181 ;	genCmpEQorNE
      00040B C0 4F            [ 2] 1182 	cpy	#0x4f
      00040D D0 03            [ 4] 1183 	bne	00811$
      00040F 4CrE0r08         [ 3] 1184 	jmp	00155$
      000412                       1185 00811$:
                                   1186 ;	Raw cost for generated ic 131 : (7, 7.600000) count=0.000000
                                   1187 ;	skipping generated iCode
                                   1188 ;	Raw cost for generated ic 132 : (0, 0.000000) count=0.000000
                                   1189 ;	genCmpEQorNE
      000412 C0 50            [ 2] 1190 	cpy	#0x50
      000414 D0 03            [ 4] 1191 	bne	00812$
      000416 4Cr95r07         [ 3] 1192 	jmp	00152$
      000419                       1193 00812$:
                                   1194 ;	Raw cost for generated ic 133 : (7, 7.600000) count=0.000000
                                   1195 ;	skipping generated iCode
                                   1196 ;	Raw cost for generated ic 134 : (0, 0.000000) count=0.000000
                                   1197 ;	genCmpEQorNE
      000419 C0 53            [ 2] 1198 	cpy	#0x53
      00041B D0 03            [ 4] 1199 	bne	00813$
      00041D 4Cr01r05         [ 3] 1200 	jmp	00133$
      000420                       1201 00813$:
                                   1202 ;	Raw cost for generated ic 135 : (7, 7.600000) count=0.000000
                                   1203 ;	skipping generated iCode
                                   1204 ;	Raw cost for generated ic 136 : (0, 0.000000) count=0.000000
                                   1205 ;	genCmpEQorNE
      000420 C0 54            [ 2] 1206 	cpy	#0x54
      000422 D0 03            [ 4] 1207 	bne	00814$
      000424 4Cr75r02         [ 3] 1208 	jmp	00101$
      000427                       1209 00814$:
                                   1210 ;	Raw cost for generated ic 137 : (7, 7.600000) count=0.000000
                                   1211 ;	skipping generated iCode
                                   1212 ;	Raw cost for generated ic 138 : (0, 0.000000) count=0.000000
                                   1213 ;	genCmpEQorNE
      000427 C0 55            [ 2] 1214 	cpy	#0x55
      000429 D0 03            [ 4] 1215 	bne	00815$
      00042B 4CrE9r08         [ 3] 1216 	jmp	00156$
      00042E                       1217 00815$:
                                   1218 ;	Raw cost for generated ic 139 : (7, 7.600000) count=0.000000
                                   1219 ;	skipping generated iCode
                                   1220 ;	Raw cost for generated ic 140 : (0, 0.000000) count=0.000000
                                   1221 ;	genCmpEQorNE
      00042E C0 58            [ 2] 1222 	cpy	#0x58
      000430 D0 03            [ 4] 1223 	bne	00816$
      000432 4CrF2r08         [ 3] 1224 	jmp	00157$
      000435                       1225 00816$:
                                   1226 ;	Raw cost for generated ic 141 : (7, 7.600000) count=0.000000
                                   1227 ;	skipping generated iCode
                                   1228 ;	Raw cost for generated ic 142 : (0, 0.000000) count=0.000000
                                   1229 ;	genCmpEQorNE
      000435 C0 5A            [ 2] 1230 	cpy	#0x5a
      000437 D0 03            [ 4] 1231 	bne	00817$
      000439 4Cr75r02         [ 3] 1232 	jmp	00101$
      00043C                       1233 00817$:
                                   1234 ;	Raw cost for generated ic 143 : (7, 7.600000) count=0.000000
                                   1235 ;	skipping generated iCode
                                   1236 ;	Raw cost for generated ic 144 : (0, 0.000000) count=0.000000
                                   1237 ;	genGoto
      00043C 4Cr04r09         [ 3] 1238 	jmp	00159$
                                   1239 ;	Raw cost for generated ic 145 : (3, 3.000000) count=0.000000
                                   1240 ;	../printf_large.c: 538: case '-':
                                   1241 ;	genLabel
      00043F                       1242 00120$:
                                   1243 ;	Raw cost for generated ic 146 : (0, 0.000000) count=0.013582
                                   1244 ;	../printf_large.c: 539: left_justify = 1;
                                   1245 ;	genAssign
                                   1246 ;	genAssignLit
      00043F A9 01            [ 2] 1247 	lda	#0x01
      000441 BA               [ 2] 1248 	tsx
      000442 9D 4E 01         [ 5] 1249 	sta	0x14e,x
                                   1250 ;	Raw cost for generated ic 147 : (6, 9.000000) count=0.013582
                                   1251 ;	../printf_large.c: 540: goto get_conversion_spec;
                                   1252 ;	genGoto
      000445 4Cr75r02         [ 3] 1253 	jmp	00101$
                                   1254 ;	Raw cost for generated ic 148 : (3, 3.000000) count=0.013582
                                   1255 ;	../printf_large.c: 541: case '+':
                                   1256 ;	genLabel
      000448                       1257 00121$:
                                   1258 ;	Raw cost for generated ic 149 : (0, 0.000000) count=0.010971
                                   1259 ;	../printf_large.c: 542: prefix_sign = 1;
                                   1260 ;	genAssign
                                   1261 ;	genAssignLit
      000448 A9 01            [ 2] 1262 	lda	#0x01
      00044A BA               [ 2] 1263 	tsx
      00044B 9D 4C 01         [ 5] 1264 	sta	0x14c,x
                                   1265 ;	Raw cost for generated ic 150 : (6, 9.000000) count=0.010971
                                   1266 ;	../printf_large.c: 543: goto get_conversion_spec;
                                   1267 ;	genGoto
      00044E 4Cr75r02         [ 3] 1268 	jmp	00101$
                                   1269 ;	Raw cost for generated ic 151 : (3, 3.000000) count=0.010971
                                   1270 ;	../printf_large.c: 544: case ' ':
                                   1271 ;	genLabel
      000451                       1272 00122$:
                                   1273 ;	Raw cost for generated ic 152 : (0, 0.000000) count=0.013751
                                   1274 ;	../printf_large.c: 545: prefix_space = 1;
                                   1275 ;	genAssign
                                   1276 ;	genAssignLit
      000451 A9 01            [ 2] 1277 	lda	#0x01
      000453 BA               [ 2] 1278 	tsx
      000454 9D 4B 01         [ 5] 1279 	sta	0x14b,x
                                   1280 ;	Raw cost for generated ic 153 : (6, 9.000000) count=0.013751
                                   1281 ;	../printf_large.c: 546: goto get_conversion_spec;
                                   1282 ;	genGoto
      000457 4Cr75r02         [ 3] 1283 	jmp	00101$
                                   1284 ;	Raw cost for generated ic 154 : (3, 3.000000) count=0.013751
                                   1285 ;	../printf_large.c: 547: case 'B': /* byte */
                                   1286 ;	genLabel
      00045A                       1287 00123$:
                                   1288 ;	Raw cost for generated ic 155 : (0, 0.000000) count=0.000000
                                   1289 ;	../printf_large.c: 548: char_argument = 1;
                                   1290 ;	genAssign
                                   1291 ;	genAssignLit
      00045A A9 01            [ 2] 1292 	lda	#0x01
      00045C BA               [ 2] 1293 	tsx
      00045D 9D 49 01         [ 5] 1294 	sta	0x149,x
                                   1295 ;	Raw cost for generated ic 156 : (6, 9.000000) count=0.000000
                                   1296 ;	../printf_large.c: 549: goto get_conversion_spec;
                                   1297 ;	genGoto
      000460 4Cr75r02         [ 3] 1298 	jmp	00101$
                                   1299 ;	Raw cost for generated ic 157 : (3, 3.000000) count=0.000000
                                   1300 ;	../printf_large.c: 556: case 'L': /* long */
                                   1301 ;	genLabel
      000463                       1302 00128$:
                                   1303 ;	Raw cost for generated ic 163 : (0, 0.000000) count=0.000000
                                   1304 ;	../printf_large.c: 557: long_argument = 1;
                                   1305 ;	genAssign
                                   1306 ;	genAssignLit
      000463 A9 01            [ 2] 1307 	lda	#0x01
      000465 BA               [ 2] 1308 	tsx
      000466 9D 48 01         [ 5] 1309 	sta	0x148,x
                                   1310 ;	Raw cost for generated ic 164 : (6, 9.000000) count=0.000000
                                   1311 ;	../printf_large.c: 558: goto get_conversion_spec;
                                   1312 ;	genGoto
      000469 4Cr75r02         [ 3] 1313 	jmp	00101$
                                   1314 ;	Raw cost for generated ic 165 : (3, 3.000000) count=0.000000
                                   1315 ;	../printf_large.c: 560: case 'C':
                                   1316 ;	genLabel
      00046C                       1317 00129$:
                                   1318 ;	Raw cost for generated ic 166 : (0, 0.000000) count=0.014339
                                   1319 ;	../printf_large.c: 561: if( char_argument )
                                   1320 ;	genIfx
      00046C BA               [ 2] 1321 	tsx
      00046D BD 49 01         [ 5] 1322 	lda	0x149,x
                                   1323 ;	genIfxJump : z
      000470 F0 31            [ 4] 1324 	beq	00131$
                                   1325 ;	Raw cost for generated ic 167 : (9, 11.600000) count=0.014339
                                   1326 ;	../printf_large.c: 562: c = va_arg(ap,char);
                                   1327 ;	genPlus
                                   1328 ;	  genPlusInc
      000472 BD 57 01         [ 5] 1329 	lda	0x157,x
      000475 A8               [ 2] 1330 	tay
      000476 BD 58 01         [ 5] 1331 	lda	0x158,x
      000479 AA               [ 2] 1332 	tax
      00047A 98               [ 2] 1333 	tya
      00047B 18               [ 2] 1334 	clc
      00047C 69 01            [ 2] 1335 	adc	#0x01
      00047E 90 01            [ 4] 1336 	bcc	00820$
      000480 E8               [ 2] 1337 	inx
      000481                       1338 00820$:
                                   1339 ;	Raw cost for generated ic 170 : (15, 22.600000) count=0.010755
                                   1340 ;	genAssign
                                   1341 ;	genCopy
      000481 86*00            [ 3] 1342 	stx	*(REGTEMP+0)
      000483 85*01            [ 3] 1343 	sta	*(REGTEMP+1)
      000485 8A               [ 2] 1344 	txa
      000486 BA               [ 2] 1345 	tsx
      000487 9D 58 01         [ 5] 1346 	sta	0x158,x
      00048A A5*01            [ 3] 1347 	lda	*(REGTEMP+1)
      00048C 9D 57 01         [ 5] 1348 	sta	0x157,x
      00048F A6*00            [ 3] 1349 	ldx	*(REGTEMP+0)
                                   1350 ;	Raw cost for generated ic 171 : (16, 26.000000) count=0.010755
                                   1351 ;	genMinus
                                   1352 ;	  genMinusDec - size=2  icount=1
      000491 38               [ 2] 1353 	sec
      000492 E9 01            [ 2] 1354 	sbc	#0x01
      000494 B0 01            [ 4] 1355 	bcs	00821$
      000496 CA               [ 2] 1356 	dex
      000497                       1357 00821$:
                                   1358 ;	Raw cost for generated ic 172 : (6, 8.600000) count=0.010755
                                   1359 ;	genPointerGet
                                   1360 ;	  setupDPTR - off=0 remat=(null) savea=0
      000497 85*00            [ 3] 1361 	sta	*(DPTR+0)
      000499 86*01            [ 3] 1362 	stx	*(DPTR+1)
      00049B A0 00            [ 2] 1363 	ldy	#0x00
      00049D B1*00            [ 6] 1364 	lda	[DPTR],y
      00049F A8               [ 2] 1365 	tay
                                   1366 ;	Raw cost for generated ic 173 : (9, 15.000000) count=0.010755
                                   1367 ;	genGoto
      0004A0 4CrD2r04         [ 3] 1368 	jmp	00132$
                                   1369 ;	Raw cost for generated ic 175 : (3, 3.000000) count=0.010755
                                   1370 ;	genLabel
      0004A3                       1371 00131$:
                                   1372 ;	Raw cost for generated ic 176 : (0, 0.000000) count=0.000000
                                   1373 ;	../printf_large.c: 564: c = va_arg(ap,int);
                                   1374 ;	genPlus
                                   1375 ;	  genPlusInc
      0004A3 BA               [ 2] 1376 	tsx
      0004A4 BD 57 01         [ 5] 1377 	lda	0x157,x
      0004A7 A8               [ 2] 1378 	tay
      0004A8 BD 58 01         [ 5] 1379 	lda	0x158,x
      0004AB AA               [ 2] 1380 	tax
      0004AC 98               [ 2] 1381 	tya
      0004AD 18               [ 2] 1382 	clc
      0004AE 69 02            [ 2] 1383 	adc	#0x02
      0004B0 90 01            [ 4] 1384 	bcc	00822$
      0004B2 E8               [ 2] 1385 	inx
      0004B3                       1386 00822$:
                                   1387 ;	Raw cost for generated ic 177 : (16, 24.600000) count=0.000000
                                   1388 ;	genAssign
                                   1389 ;	genCopy
      0004B3 86*00            [ 3] 1390 	stx	*(REGTEMP+0)
      0004B5 85*01            [ 3] 1391 	sta	*(REGTEMP+1)
      0004B7 8A               [ 2] 1392 	txa
      0004B8 BA               [ 2] 1393 	tsx
      0004B9 9D 58 01         [ 5] 1394 	sta	0x158,x
      0004BC A5*01            [ 3] 1395 	lda	*(REGTEMP+1)
      0004BE 9D 57 01         [ 5] 1396 	sta	0x157,x
      0004C1 A6*00            [ 3] 1397 	ldx	*(REGTEMP+0)
                                   1398 ;	Raw cost for generated ic 178 : (16, 26.000000) count=0.000000
                                   1399 ;	genMinus
                                   1400 ;	  genMinusDec - size=2  icount=2
      0004C3 38               [ 2] 1401 	sec
      0004C4 E9 02            [ 2] 1402 	sbc	#0x02
      0004C6 B0 01            [ 4] 1403 	bcs	00823$
      0004C8 CA               [ 2] 1404 	dex
      0004C9                       1405 00823$:
                                   1406 ;	Raw cost for generated ic 179 : (6, 8.600000) count=0.000000
                                   1407 ;	genPointerGet
                                   1408 ;	  setupDPTR - off=0 remat=(null) savea=0
      0004C9 85*00            [ 3] 1409 	sta	*(DPTR+0)
      0004CB 86*01            [ 3] 1410 	stx	*(DPTR+1)
      0004CD A0 00            [ 2] 1411 	ldy	#0x00
      0004CF B1*00            [ 6] 1412 	lda	[DPTR],y
      0004D1 A8               [ 2] 1413 	tay
                                   1414 ;	Raw cost for generated ic 181 : (9, 15.000000) count=0.000000
                                   1415 ;	genLabel
      0004D2                       1416 00132$:
                                   1417 ;	Raw cost for generated ic 184 : (0, 0.000000) count=0.010755
                                   1418 ;	../printf_large.c: 565: OUTPUT_CHAR( c, p );
                                   1419 ;	genIpush
      0004D2 BA               [ 2] 1420 	tsx
      0004D3 BD 54 01         [ 5] 1421 	lda	0x154,x
      0004D6 48               [ 3] 1422 	pha
      0004D7 BD 53 01         [ 5] 1423 	lda	0x153,x
      0004DA 48               [ 3] 1424 	pha
                                   1425 ;	Raw cost for generated ic 185 : (9, 16.000000) count=0.010755
                                   1426 ;	Raw cost for generated ic 186 : (0, 0.000000) count=0.010755
                                   1427 ;	genPcall
      0004DB BD 4F 01         [ 5] 1428 	lda	0x14f,x
      0004DE 85*00            [ 3] 1429 	sta	*(REGTEMP+0)
      0004E0 BD 50 01         [ 5] 1430 	lda	0x150,x
      0004E3 85*01            [ 3] 1431 	sta	*(REGTEMP+1)
                                   1432 ;	genSend
      0004E5 98               [ 2] 1433 	tya
      0004E6 20r00r00         [ 6] 1434 	jsr	__sdcc_indirect_jsr
                                   1435 ;	  adjustStack : cycles stk:14  incdec:8  adc:18
      0004E9 BA               [ 2] 1436 	tsx
      0004EA E8               [ 2] 1437 	inx
      0004EB E8               [ 2] 1438 	inx
      0004EC 9A               [ 2] 1439 	txs
                                   1440 ;	Raw cost for generated ic 187 : (18, 30.000000) count=0.010755
                                   1441 ;	genPlus
                                   1442 ;	  genPlusInc
      0004ED BD 38 01         [ 5] 1443 	lda	0x138,x
      0004F0 18               [ 2] 1444 	clc
      0004F1 69 01            [ 2] 1445 	adc	#0x01
      0004F3 9D 38 01         [ 5] 1446 	sta	0x138,x
      0004F6 BD 39 01         [ 5] 1447 	lda	0x139,x
      0004F9 69 00            [ 2] 1448 	adc	#0x00
      0004FB 9D 39 01         [ 5] 1449 	sta	0x139,x
                                   1450 ;	Raw cost for generated ic 189 : (17, 24.000000) count=0.010755
                                   1451 ;	../printf_large.c: 566: break;
                                   1452 ;	genGoto
      0004FE 4Cr4Cr09         [ 3] 1453 	jmp	00160$
                                   1454 ;	Raw cost for generated ic 191 : (3, 3.000000) count=0.010755
                                   1455 ;	../printf_large.c: 568: case 'S':
                                   1456 ;	genLabel
      000501                       1457 00133$:
                                   1458 ;	Raw cost for generated ic 192 : (0, 0.000000) count=0.000000
                                   1459 ;	../printf_large.c: 569: PTR = va_arg(ap,ptr_t);
                                   1460 ;	genCast
                                   1461 ;	genCopy
      000501 BA               [ 2] 1462 	tsx
      000502 BD 37 01         [ 5] 1463 	lda	0x137,x
      000505 9D 23 01         [ 5] 1464 	sta	0x123,x
      000508 BD 36 01         [ 5] 1465 	lda	0x136,x
      00050B 9D 22 01         [ 5] 1466 	sta	0x122,x
                                   1467 ;	Raw cost for generated ic 194 : (13, 20.000000) count=0.000000
                                   1468 ;	genPlus
                                   1469 ;	  genPlusInc
      00050E BD 57 01         [ 5] 1470 	lda	0x157,x
      000511 A8               [ 2] 1471 	tay
      000512 BD 58 01         [ 5] 1472 	lda	0x158,x
      000515 AA               [ 2] 1473 	tax
      000516 98               [ 2] 1474 	tya
      000517 18               [ 2] 1475 	clc
      000518 69 02            [ 2] 1476 	adc	#0x02
      00051A 90 01            [ 4] 1477 	bcc	00824$
      00051C E8               [ 2] 1478 	inx
      00051D                       1479 00824$:
                                   1480 ;	Raw cost for generated ic 195 : (15, 22.600000) count=0.000000
                                   1481 ;	genAssign
                                   1482 ;	genCopy
      00051D 86*00            [ 3] 1483 	stx	*(REGTEMP+0)
      00051F 85*01            [ 3] 1484 	sta	*(REGTEMP+1)
      000521 8A               [ 2] 1485 	txa
      000522 BA               [ 2] 1486 	tsx
      000523 9D 58 01         [ 5] 1487 	sta	0x158,x
      000526 A5*01            [ 3] 1488 	lda	*(REGTEMP+1)
      000528 9D 57 01         [ 5] 1489 	sta	0x157,x
      00052B A6*00            [ 3] 1490 	ldx	*(REGTEMP+0)
                                   1491 ;	Raw cost for generated ic 196 : (16, 26.000000) count=0.000000
                                   1492 ;	genMinus
                                   1493 ;	  genMinusDec - size=2  icount=2
      00052D 38               [ 2] 1494 	sec
      00052E E9 02            [ 2] 1495 	sbc	#0x02
      000530 B0 01            [ 4] 1496 	bcs	00825$
      000532 CA               [ 2] 1497 	dex
      000533                       1498 00825$:
                                   1499 ;	Raw cost for generated ic 197 : (6, 8.600000) count=0.000000
                                   1500 ;	genPointerGet
                                   1501 ;	  setupDPTR - off=0 remat=(null) savea=0
      000533 85*00            [ 3] 1502 	sta	*(DPTR+0)
      000535 86*01            [ 3] 1503 	stx	*(DPTR+1)
      000537 A0 01            [ 2] 1504 	ldy	#0x01
      000539 B1*00            [ 6] 1505 	lda	[DPTR],y
      00053B AA               [ 2] 1506 	tax
      00053C 88               [ 2] 1507 	dey
      00053D B1*00            [ 6] 1508 	lda	[DPTR],y
                                   1509 ;	Raw cost for generated ic 199 : (12, 22.000000) count=0.000000
                                   1510 ;	genPointerSet
      00053F 85*00            [ 3] 1511 	sta	*(REGTEMP+0)
      000541 86*01            [ 3] 1512 	stx	*(REGTEMP+1)
                                   1513 ;	  setupDPTR - off=0 remat=(null) savea=0
      000543 BA               [ 2] 1514 	tsx
      000544 BD 22 01         [ 5] 1515 	lda	0x122,x
      000547 85*00            [ 3] 1516 	sta	*(DPTR+0)
      000549 BD 23 01         [ 5] 1517 	lda	0x123,x
      00054C 85*01            [ 3] 1518 	sta	*(DPTR+1)
      00054E A5*00            [ 3] 1519 	lda	*(REGTEMP+0)
      000550 A6*01            [ 3] 1520 	ldx	*(REGTEMP+1)
      000552 91*00            [ 6] 1521 	sta	[DPTR],y
      000554 8A               [ 2] 1522 	txa
      000555 C8               [ 2] 1523 	iny
      000556 91*00            [ 6] 1524 	sta	[DPTR],y
      000558 A6*01            [ 3] 1525 	ldx	*(REGTEMP+1)
      00055A A5*00            [ 3] 1526 	lda	*(REGTEMP+0)
                                   1527 ;	Raw cost for generated ic 200 : (29, 50.000000) count=0.000000
                                   1528 ;	../printf_large.c: 582: length = strlen(PTR);
                                   1529 ;	Raw cost for generated ic 204 : (0, 0.000000) count=0.000000
                                   1530 ;	genCall
                                   1531 ;	genSend
      00055C 20r00r00         [ 6] 1532 	jsr	_strlen
                                   1533 ;	assignResultValue
      00055F 86*00            [ 3] 1534 	stx	*(REGTEMP+0)
      000561 BA               [ 2] 1535 	tsx
      000562 9D 24 01         [ 5] 1536 	sta	0x124,x
      000565 A5*00            [ 3] 1537 	lda	*(REGTEMP+0)
      000567 9D 25 01         [ 5] 1538 	sta	0x125,x
                                   1539 ;	Raw cost for generated ic 205 : (14, 24.000000) count=0.000000
                                   1540 ;	../printf_large.c: 584: if ( decimals == -1 )
                                   1541 ;	genCmpEQorNE
      00056A BD 3E 01         [ 5] 1542 	lda	0x13e,x
      00056D C9 FF            [ 2] 1543 	cmp	#0xff
      00056F D0 13            [ 4] 1544 	bne	00135$
      000571 BD 3F 01         [ 5] 1545 	lda	0x13f,x
      000574 C9 FF            [ 2] 1546 	cmp	#0xff
      000576 D0 0C            [ 4] 1547 	bne	00135$
                                   1548 ;	Raw cost for generated ic 207 : (20, 23.200001) count=0.000000
                                   1549 ;	skipping generated iCode
                                   1550 ;	Raw cost for generated ic 208 : (0, 0.000000) count=0.000000
                                   1551 ;	../printf_large.c: 586: decimals = length;
                                   1552 ;	genAssign
                                   1553 ;	genCopy
      000578 BD 25 01         [ 5] 1554 	lda	0x125,x
      00057B 9D 3F 01         [ 5] 1555 	sta	0x13f,x
      00057E BD 24 01         [ 5] 1556 	lda	0x124,x
      000581 9D 3E 01         [ 5] 1557 	sta	0x13e,x
                                   1558 ;	Raw cost for generated ic 211 : (12, 18.000000) count=0.000000
                                   1559 ;	genLabel
      000584                       1560 00135$:
                                   1561 ;	Raw cost for generated ic 212 : (0, 0.000000) count=0.000000
                                   1562 ;	../printf_large.c: 588: if ( ( !left_justify ) && (length < width) )
                                   1563 ;	genIfx
      000584 BA               [ 2] 1564 	tsx
      000585 BD 4E 01         [ 5] 1565 	lda	0x14e,x
                                   1566 ;	genIfxJump : z
      000588 F0 03            [ 4] 1567 	beq	00830$
      00058A 4Cr38r06         [ 3] 1568 	jmp	00277$
      00058D                       1569 00830$:
                                   1570 ;	Raw cost for generated ic 213 : (9, 11.600000) count=0.000000
                                   1571 ;	genCmp
      00058D BD 24 01         [ 5] 1572 	lda	0x124,x
      000590 38               [ 2] 1573 	sec
      000591 FD 40 01         [ 5] 1574 	sbc	0x140,x
      000594 BD 25 01         [ 5] 1575 	lda	0x125,x
      000597 FD 41 01         [ 5] 1576 	sbc	0x141,x
      00059A 90 03            [ 4] 1577 	bcc	00831$
      00059C 4Cr38r06         [ 3] 1578 	jmp	00277$
      00059F                       1579 00831$:
                                   1580 ;	Raw cost for generated ic 216 : (18, 23.600000) count=0.000000
                                   1581 ;	skipping generated iCode
                                   1582 ;	Raw cost for generated ic 217 : (0, 0.000000) count=0.000000
                                   1583 ;	../printf_large.c: 590: width -= length;
                                   1584 ;	genMinus
      00059F BD 40 01         [ 5] 1585 	lda	0x140,x
      0005A2 38               [ 2] 1586 	sec
      0005A3 FD 24 01         [ 5] 1587 	sbc	0x124,x
      0005A6 9D 40 01         [ 5] 1588 	sta	0x140,x
      0005A9 BD 41 01         [ 5] 1589 	lda	0x141,x
      0005AC FD 25 01         [ 5] 1590 	sbc	0x125,x
      0005AF 9D 41 01         [ 5] 1591 	sta	0x141,x
                                   1592 ;	Raw cost for generated ic 220 : (19, 28.000000) count=0.000000
                                   1593 ;	../printf_large.c: 591: while( width-- != 0 )
                                   1594 ;	genAssign
                                   1595 ;	genCopy
      0005B2 BD 39 01         [ 5] 1596 	lda	0x139,x
      0005B5 9D 21 01         [ 5] 1597 	sta	0x121,x
      0005B8 BD 38 01         [ 5] 1598 	lda	0x138,x
      0005BB 9D 20 01         [ 5] 1599 	sta	0x120,x
                                   1600 ;	Raw cost for generated ic 761 : (12, 18.000000) count=0.000000
                                   1601 ;	genAssign
                                   1602 ;	genCopy
      0005BE BD 41 01         [ 5] 1603 	lda	0x141,x
      0005C1 9D 1F 01         [ 5] 1604 	sta	0x11f,x
      0005C4 BD 40 01         [ 5] 1605 	lda	0x140,x
      0005C7 9D 1E 01         [ 5] 1606 	sta	0x11e,x
                                   1607 ;	Raw cost for generated ic 764 : (12, 18.000000) count=0.000000
                                   1608 ;	genLabel
      0005CA                       1609 00136$:
                                   1610 ;	Raw cost for generated ic 222 : (0, 0.000000) count=0.000000
                                   1611 ;	genAssign
                                   1612 ;	genCopy
      0005CA BA               [ 2] 1613 	tsx
      0005CB BD 1F 01         [ 5] 1614 	lda	0x11f,x
      0005CE 9D 1D 01         [ 5] 1615 	sta	0x11d,x
      0005D1 BD 1E 01         [ 5] 1616 	lda	0x11e,x
      0005D4 9D 1C 01         [ 5] 1617 	sta	0x11c,x
                                   1618 ;	Raw cost for generated ic 223 : (13, 20.000000) count=0.000000
                                   1619 ;	genMinus
                                   1620 ;	  genMinusDec - size=2  icount=1
      0005D7 BD 1E 01         [ 5] 1621 	lda	0x11e,x
      0005DA 38               [ 2] 1622 	sec
      0005DB E9 01            [ 2] 1623 	sbc	#0x01
      0005DD 9D 1E 01         [ 5] 1624 	sta	0x11e,x
      0005E0 BD 1F 01         [ 5] 1625 	lda	0x11f,x
      0005E3 E9 00            [ 2] 1626 	sbc	#0x00
      0005E5 9D 1F 01         [ 5] 1627 	sta	0x11f,x
                                   1628 ;	Raw cost for generated ic 224 : (17, 24.000000) count=0.000000
                                   1629 ;	genIfx
      0005E8 BD 1D 01         [ 5] 1630 	lda	0x11d,x
      0005EB 1D 1C 01         [ 5] 1631 	ora	0x11c,x
                                   1632 ;	genIfxJump : z
      0005EE F0 2F            [ 4] 1633 	beq	00312$
                                   1634 ;	Raw cost for generated ic 226 : (11, 13.600000) count=0.000000
                                   1635 ;	../printf_large.c: 593: OUTPUT_CHAR( ' ', p );
                                   1636 ;	genIpush
      0005F0 BD 54 01         [ 5] 1637 	lda	0x154,x
      0005F3 48               [ 3] 1638 	pha
      0005F4 BD 53 01         [ 5] 1639 	lda	0x153,x
      0005F7 48               [ 3] 1640 	pha
                                   1641 ;	Raw cost for generated ic 229 : (8, 14.000000) count=0.000000
                                   1642 ;	Raw cost for generated ic 230 : (0, 0.000000) count=0.000000
                                   1643 ;	genPcall
      0005F8 BD 4F 01         [ 5] 1644 	lda	0x14f,x
      0005FB 85*00            [ 3] 1645 	sta	*(REGTEMP+0)
      0005FD BD 50 01         [ 5] 1646 	lda	0x150,x
      000600 85*01            [ 3] 1647 	sta	*(REGTEMP+1)
                                   1648 ;	genSend
      000602 A9 20            [ 2] 1649 	lda	#0x20
      000604 20r00r00         [ 6] 1650 	jsr	__sdcc_indirect_jsr
                                   1651 ;	  adjustStack : cycles stk:14  incdec:8  adc:18
      000607 BA               [ 2] 1652 	tsx
      000608 E8               [ 2] 1653 	inx
      000609 E8               [ 2] 1654 	inx
      00060A 9A               [ 2] 1655 	txs
                                   1656 ;	Raw cost for generated ic 231 : (19, 30.000000) count=0.000000
                                   1657 ;	genPlus
                                   1658 ;	  genPlusInc
      00060B BD 20 01         [ 5] 1659 	lda	0x120,x
      00060E 18               [ 2] 1660 	clc
      00060F 69 01            [ 2] 1661 	adc	#0x01
      000611 9D 20 01         [ 5] 1662 	sta	0x120,x
      000614 BD 21 01         [ 5] 1663 	lda	0x121,x
      000617 69 00            [ 2] 1664 	adc	#0x00
      000619 9D 21 01         [ 5] 1665 	sta	0x121,x
                                   1666 ;	Raw cost for generated ic 233 : (17, 24.000000) count=0.000000
                                   1667 ;	genGoto
      00061C 4CrCAr05         [ 3] 1668 	jmp	00136$
                                   1669 ;	Raw cost for generated ic 235 : (3, 3.000000) count=0.000000
                                   1670 ;	../printf_large.c: 597: while ( (c = *PTR)  && (decimals-- > 0))
                                   1671 ;	genLabel
      00061F                       1672 00312$:
                                   1673 ;	Raw cost for generated ic 762 : (0, 0.000000) count=0.000000
                                   1674 ;	genAssign
                                   1675 ;	genCopy
      00061F BA               [ 2] 1676 	tsx
      000620 BD 21 01         [ 5] 1677 	lda	0x121,x
      000623 9D 39 01         [ 5] 1678 	sta	0x139,x
      000626 BD 20 01         [ 5] 1679 	lda	0x120,x
      000629 9D 38 01         [ 5] 1680 	sta	0x138,x
                                   1681 ;	Raw cost for generated ic 763 : (13, 20.000000) count=0.000000
                                   1682 ;	genAssign
                                   1683 ;	genCopy
      00062C BD 1F 01         [ 5] 1684 	lda	0x11f,x
      00062F 9D 41 01         [ 5] 1685 	sta	0x141,x
      000632 BD 1E 01         [ 5] 1686 	lda	0x11e,x
      000635 9D 40 01         [ 5] 1687 	sta	0x140,x
                                   1688 ;	Raw cost for generated ic 765 : (12, 18.000000) count=0.000000
                                   1689 ;	genLabel
      000638                       1690 00277$:
                                   1691 ;	Raw cost for generated ic 750 : (0, 0.000000) count=0.000000
                                   1692 ;	genAssign
                                   1693 ;	genCopy
      000638 BA               [ 2] 1694 	tsx
      000639 BD 3F 01         [ 5] 1695 	lda	0x13f,x
      00063C 9D 1D 01         [ 5] 1696 	sta	0x11d,x
      00063F BD 3E 01         [ 5] 1697 	lda	0x13e,x
      000642 9D 1C 01         [ 5] 1698 	sta	0x11c,x
                                   1699 ;	Raw cost for generated ic 766 : (13, 20.000000) count=0.000000
                                   1700 ;	genAssign
                                   1701 ;	genCopy
      000645 BD 39 01         [ 5] 1702 	lda	0x139,x
      000648 9D 1F 01         [ 5] 1703 	sta	0x11f,x
      00064B BD 38 01         [ 5] 1704 	lda	0x138,x
      00064E 9D 1E 01         [ 5] 1705 	sta	0x11e,x
                                   1706 ;	Raw cost for generated ic 769 : (12, 18.000000) count=0.000000
                                   1707 ;	genLabel
      000651                       1708 00143$:
                                   1709 ;	Raw cost for generated ic 238 : (0, 0.000000) count=0.000000
                                   1710 ;	genPointerGet
                                   1711 ;	  setupDPTR - off=0 remat=(null) savea=0
      000651 BA               [ 2] 1712 	tsx
      000652 BD 22 01         [ 5] 1713 	lda	0x122,x
      000655 85*00            [ 3] 1714 	sta	*(DPTR+0)
      000657 BD 23 01         [ 5] 1715 	lda	0x123,x
      00065A 85*01            [ 3] 1716 	sta	*(DPTR+1)
      00065C A0 01            [ 2] 1717 	ldy	#0x01
      00065E B1*00            [ 6] 1718 	lda	[DPTR],y
      000660 AA               [ 2] 1719 	tax
      000661 88               [ 2] 1720 	dey
      000662 B1*00            [ 6] 1721 	lda	[DPTR],y
                                   1722 ;	Raw cost for generated ic 241 : (19, 32.000000) count=0.000000
                                   1723 ;	genPointerGet
                                   1724 ;	  setupDPTR - off=0 remat=(null) savea=0
      000664 85*00            [ 3] 1725 	sta	*(DPTR+0)
      000666 86*01            [ 3] 1726 	stx	*(DPTR+1)
      000668 B1*00            [ 6] 1727 	lda	[DPTR],y
      00066A A8               [ 2] 1728 	tay
                                   1729 ;	Raw cost for generated ic 242 : (7, 13.000000) count=0.000000
                                   1730 ;	genIfx
                                   1731 ;	genIfxJump : z
      00066B D0 03            [ 4] 1732 	bne	00835$
      00066D 4CrEBr06         [ 3] 1733 	jmp	00313$
      000670                       1734 00835$:
                                   1735 ;	Raw cost for generated ic 244 : (5, 5.600000) count=0.000000
                                   1736 ;	genCmp
      000670 A9 00            [ 2] 1737 	lda	#0x00
      000672 38               [ 2] 1738 	sec
      000673 BA               [ 2] 1739 	tsx
      000674 FD 1C 01         [ 5] 1740 	sbc	0x11c,x
      000677 A9 00            [ 2] 1741 	lda	#0x00
      000679 FD 1D 01         [ 5] 1742 	sbc	0x11d,x
      00067C 50 04            [ 4] 1743 	bvc	00837$
      00067E 10 04            [ 4] 1744 	bpl	00836$
      000680 30 69            [ 4] 1745 	bmi	00313$
      000682                       1746 00837$:
      000682 10 67            [ 4] 1747 	bpl	00313$
      000684                       1748 00836$:
                                   1749 ;	Raw cost for generated ic 250 : (23, 29.400002) count=0.000000
                                   1750 ;	skipping generated iCode
                                   1751 ;	Raw cost for generated ic 251 : (0, 0.000000) count=0.000000
                                   1752 ;	genMinus
                                   1753 ;	  genMinusDec - size=2  icount=1
      000684 BD 1C 01         [ 5] 1754 	lda	0x11c,x
      000687 38               [ 2] 1755 	sec
      000688 E9 01            [ 2] 1756 	sbc	#0x01
      00068A 9D 1C 01         [ 5] 1757 	sta	0x11c,x
      00068D BD 1D 01         [ 5] 1758 	lda	0x11d,x
      000690 E9 00            [ 2] 1759 	sbc	#0x00
      000692 9D 1D 01         [ 5] 1760 	sta	0x11d,x
                                   1761 ;	Raw cost for generated ic 248 : (17, 24.000000) count=0.000000
                                   1762 ;	../printf_large.c: 599: OUTPUT_CHAR( c, p );
                                   1763 ;	genIpush
      000695 BD 54 01         [ 5] 1764 	lda	0x154,x
      000698 48               [ 3] 1765 	pha
      000699 BD 53 01         [ 5] 1766 	lda	0x153,x
      00069C 48               [ 3] 1767 	pha
                                   1768 ;	Raw cost for generated ic 254 : (8, 14.000000) count=0.000000
                                   1769 ;	Raw cost for generated ic 255 : (0, 0.000000) count=0.000000
                                   1770 ;	genPcall
      00069D BD 4F 01         [ 5] 1771 	lda	0x14f,x
      0006A0 85*00            [ 3] 1772 	sta	*(REGTEMP+0)
      0006A2 BD 50 01         [ 5] 1773 	lda	0x150,x
      0006A5 85*01            [ 3] 1774 	sta	*(REGTEMP+1)
                                   1775 ;	genSend
      0006A7 98               [ 2] 1776 	tya
      0006A8 20r00r00         [ 6] 1777 	jsr	__sdcc_indirect_jsr
                                   1778 ;	  adjustStack : cycles stk:14  incdec:8  adc:18
      0006AB BA               [ 2] 1779 	tsx
      0006AC E8               [ 2] 1780 	inx
      0006AD E8               [ 2] 1781 	inx
      0006AE 9A               [ 2] 1782 	txs
                                   1783 ;	Raw cost for generated ic 256 : (18, 30.000000) count=0.000000
                                   1784 ;	genPlus
                                   1785 ;	  genPlusInc
      0006AF BD 1E 01         [ 5] 1786 	lda	0x11e,x
      0006B2 18               [ 2] 1787 	clc
      0006B3 69 01            [ 2] 1788 	adc	#0x01
      0006B5 9D 1E 01         [ 5] 1789 	sta	0x11e,x
      0006B8 BD 1F 01         [ 5] 1790 	lda	0x11f,x
      0006BB 69 00            [ 2] 1791 	adc	#0x00
      0006BD 9D 1F 01         [ 5] 1792 	sta	0x11f,x
                                   1793 ;	Raw cost for generated ic 258 : (17, 24.000000) count=0.000000
                                   1794 ;	../printf_large.c: 600: PTR++;
                                   1795 ;	genPointerGet
                                   1796 ;	  setupDPTR - off=0 remat=(null) savea=0
      0006C0 BD 22 01         [ 5] 1797 	lda	0x122,x
      0006C3 85*00            [ 3] 1798 	sta	*(DPTR+0)
      0006C5 BD 23 01         [ 5] 1799 	lda	0x123,x
      0006C8 85*01            [ 3] 1800 	sta	*(DPTR+1)
      0006CA A0 01            [ 2] 1801 	ldy	#0x01
      0006CC B1*00            [ 6] 1802 	lda	[DPTR],y
      0006CE AA               [ 2] 1803 	tax
      0006CF 88               [ 2] 1804 	dey
      0006D0 B1*00            [ 6] 1805 	lda	[DPTR],y
                                   1806 ;	Raw cost for generated ic 262 : (18, 30.000000) count=0.000000
                                   1807 ;	genPlus
                                   1808 ;	  genPlusInc
      0006D2 18               [ 2] 1809 	clc
      0006D3 69 01            [ 2] 1810 	adc	#0x01
      0006D5 90 01            [ 4] 1811 	bcc	00839$
      0006D7 E8               [ 2] 1812 	inx
      0006D8                       1813 00839$:
                                   1814 ;	Raw cost for generated ic 264 : (6, 8.600000) count=0.000000
                                   1815 ;	genPointerSet
      0006D8 85*00            [ 3] 1816 	sta	*(REGTEMP+0)
      0006DA 86*01            [ 3] 1817 	stx	*(REGTEMP+1)
                                   1818 ;	  setupDPTR - off=0 remat=(null) savea=0
      0006DC A5*00            [ 3] 1819 	lda	*(REGTEMP+0)
      0006DE A6*01            [ 3] 1820 	ldx	*(REGTEMP+1)
      0006E0 91*00            [ 6] 1821 	sta	[DPTR],y
      0006E2 8A               [ 2] 1822 	txa
      0006E3 C8               [ 2] 1823 	iny
      0006E4 91*00            [ 6] 1824 	sta	[DPTR],y
      0006E6 A6*01            [ 3] 1825 	ldx	*(REGTEMP+1)
                                   1826 ;	Raw cost for generated ic 265 : (16, 31.000000) count=0.000000
                                   1827 ;	genGoto
      0006E8 4Cr51r06         [ 3] 1828 	jmp	00143$
                                   1829 ;	Raw cost for generated ic 266 : (3, 3.000000) count=0.000000
                                   1830 ;	genLabel
      0006EB                       1831 00313$:
                                   1832 ;	Raw cost for generated ic 767 : (0, 0.000000) count=0.000000
                                   1833 ;	genAssign
                                   1834 ;	genCopy
      0006EB BA               [ 2] 1835 	tsx
      0006EC BD 1F 01         [ 5] 1836 	lda	0x11f,x
      0006EF 9D 39 01         [ 5] 1837 	sta	0x139,x
      0006F2 BD 1E 01         [ 5] 1838 	lda	0x11e,x
      0006F5 9D 38 01         [ 5] 1839 	sta	0x138,x
                                   1840 ;	Raw cost for generated ic 770 : (13, 20.000000) count=0.000000
                                   1841 ;	../printf_large.c: 603: if ( left_justify && (length < width))
                                   1842 ;	genIfx
      0006F8 BD 4E 01         [ 5] 1843 	lda	0x14e,x
                                   1844 ;	genIfxJump : z
      0006FB D0 03            [ 4] 1845 	bne	00841$
      0006FD 4Cr4Cr09         [ 3] 1846 	jmp	00160$
      000700                       1847 00841$:
                                   1848 ;	Raw cost for generated ic 268 : (8, 9.600000) count=0.000000
                                   1849 ;	genCmp
      000700 BD 24 01         [ 5] 1850 	lda	0x124,x
      000703 38               [ 2] 1851 	sec
      000704 FD 40 01         [ 5] 1852 	sbc	0x140,x
      000707 BD 25 01         [ 5] 1853 	lda	0x125,x
      00070A FD 41 01         [ 5] 1854 	sbc	0x141,x
      00070D 90 03            [ 4] 1855 	bcc	00842$
      00070F 4Cr4Cr09         [ 3] 1856 	jmp	00160$
      000712                       1857 00842$:
                                   1858 ;	Raw cost for generated ic 271 : (18, 23.600000) count=0.000000
                                   1859 ;	skipping generated iCode
                                   1860 ;	Raw cost for generated ic 272 : (0, 0.000000) count=0.000000
                                   1861 ;	../printf_large.c: 605: width -= length;
                                   1862 ;	genMinus
      000712 BD 40 01         [ 5] 1863 	lda	0x140,x
      000715 38               [ 2] 1864 	sec
      000716 FD 24 01         [ 5] 1865 	sbc	0x124,x
      000719 9D 40 01         [ 5] 1866 	sta	0x140,x
      00071C BD 41 01         [ 5] 1867 	lda	0x141,x
      00071F FD 25 01         [ 5] 1868 	sbc	0x125,x
      000722 9D 41 01         [ 5] 1869 	sta	0x141,x
                                   1870 ;	Raw cost for generated ic 275 : (19, 28.000000) count=0.000000
                                   1871 ;	../printf_large.c: 606: while( width-- != 0 )
                                   1872 ;	genAssign
                                   1873 ;	genCopy
      000725 BD 1F 01         [ 5] 1874 	lda	0x11f,x
      000728 9D 45 01         [ 5] 1875 	sta	0x145,x
      00072B BD 1E 01         [ 5] 1876 	lda	0x11e,x
      00072E 9D 44 01         [ 5] 1877 	sta	0x144,x
                                   1878 ;	Raw cost for generated ic 771 : (12, 18.000000) count=0.000000
                                   1879 ;	genAssign
                                   1880 ;	genCopy
      000731 BD 41 01         [ 5] 1881 	lda	0x141,x
      000734 9D 1D 01         [ 5] 1882 	sta	0x11d,x
      000737 BD 40 01         [ 5] 1883 	lda	0x140,x
      00073A 9D 1C 01         [ 5] 1884 	sta	0x11c,x
                                   1885 ;	Raw cost for generated ic 775 : (12, 18.000000) count=0.000000
                                   1886 ;	genLabel
      00073D                       1887 00146$:
                                   1888 ;	Raw cost for generated ic 277 : (0, 0.000000) count=0.000000
                                   1889 ;	genAssign
                                   1890 ;	genCopy
      00073D BA               [ 2] 1891 	tsx
      00073E BD 1D 01         [ 5] 1892 	lda	0x11d,x
      000741 9D 1F 01         [ 5] 1893 	sta	0x11f,x
      000744 BD 1C 01         [ 5] 1894 	lda	0x11c,x
      000747 9D 1E 01         [ 5] 1895 	sta	0x11e,x
                                   1896 ;	Raw cost for generated ic 278 : (13, 20.000000) count=0.000000
                                   1897 ;	genMinus
                                   1898 ;	  genMinusDec - size=2  icount=1
      00074A BD 1C 01         [ 5] 1899 	lda	0x11c,x
      00074D 38               [ 2] 1900 	sec
      00074E E9 01            [ 2] 1901 	sbc	#0x01
      000750 9D 1C 01         [ 5] 1902 	sta	0x11c,x
      000753 BD 1D 01         [ 5] 1903 	lda	0x11d,x
      000756 E9 00            [ 2] 1904 	sbc	#0x00
      000758 9D 1D 01         [ 5] 1905 	sta	0x11d,x
                                   1906 ;	Raw cost for generated ic 279 : (17, 24.000000) count=0.000000
                                   1907 ;	genIfx
      00075B BD 1F 01         [ 5] 1908 	lda	0x11f,x
      00075E 1D 1E 01         [ 5] 1909 	ora	0x11e,x
                                   1910 ;	genIfxJump : z
      000761 D0 03            [ 4] 1911 	bne	00844$
      000763 4Cr33r09         [ 3] 1912 	jmp	00314$
      000766                       1913 00844$:
                                   1914 ;	Raw cost for generated ic 281 : (11, 13.600000) count=0.000000
                                   1915 ;	../printf_large.c: 608: OUTPUT_CHAR( ' ', p );
                                   1916 ;	genIpush
      000766 BD 54 01         [ 5] 1917 	lda	0x154,x
      000769 48               [ 3] 1918 	pha
      00076A BD 53 01         [ 5] 1919 	lda	0x153,x
      00076D 48               [ 3] 1920 	pha
                                   1921 ;	Raw cost for generated ic 284 : (8, 14.000000) count=0.000000
                                   1922 ;	Raw cost for generated ic 285 : (0, 0.000000) count=0.000000
                                   1923 ;	genPcall
      00076E BD 4F 01         [ 5] 1924 	lda	0x14f,x
      000771 85*00            [ 3] 1925 	sta	*(REGTEMP+0)
      000773 BD 50 01         [ 5] 1926 	lda	0x150,x
      000776 85*01            [ 3] 1927 	sta	*(REGTEMP+1)
                                   1928 ;	genSend
      000778 A9 20            [ 2] 1929 	lda	#0x20
      00077A 20r00r00         [ 6] 1930 	jsr	__sdcc_indirect_jsr
                                   1931 ;	  adjustStack : cycles stk:14  incdec:8  adc:18
      00077D BA               [ 2] 1932 	tsx
      00077E E8               [ 2] 1933 	inx
      00077F E8               [ 2] 1934 	inx
      000780 9A               [ 2] 1935 	txs
                                   1936 ;	Raw cost for generated ic 286 : (19, 30.000000) count=0.000000
                                   1937 ;	genPlus
                                   1938 ;	  genPlusInc
      000781 BD 44 01         [ 5] 1939 	lda	0x144,x
      000784 18               [ 2] 1940 	clc
      000785 69 01            [ 2] 1941 	adc	#0x01
      000787 9D 44 01         [ 5] 1942 	sta	0x144,x
      00078A BD 45 01         [ 5] 1943 	lda	0x145,x
      00078D 69 00            [ 2] 1944 	adc	#0x00
      00078F 9D 45 01         [ 5] 1945 	sta	0x145,x
                                   1946 ;	Raw cost for generated ic 288 : (17, 24.000000) count=0.000000
                                   1947 ;	genGoto
      000792 4Cr3Dr07         [ 3] 1948 	jmp	00146$
                                   1949 ;	Raw cost for generated ic 290 : (3, 3.000000) count=0.000000
                                   1950 ;	../printf_large.c: 613: case 'P':
                                   1951 ;	genLabel
      000795                       1952 00152$:
                                   1953 ;	Raw cost for generated ic 294 : (0, 0.000000) count=0.000000
                                   1954 ;	../printf_large.c: 614: PTR = va_arg(ap,ptr_t);
                                   1955 ;	genCast
                                   1956 ;	genCopy
      000795 BA               [ 2] 1957 	tsx
      000796 BD 35 01         [ 5] 1958 	lda	0x135,x
      000799 9D 1F 01         [ 5] 1959 	sta	0x11f,x
      00079C BD 34 01         [ 5] 1960 	lda	0x134,x
      00079F 9D 1E 01         [ 5] 1961 	sta	0x11e,x
                                   1962 ;	Raw cost for generated ic 296 : (13, 20.000000) count=0.000000
                                   1963 ;	genPlus
                                   1964 ;	  genPlusInc
      0007A2 BD 57 01         [ 5] 1965 	lda	0x157,x
      0007A5 A8               [ 2] 1966 	tay
      0007A6 BD 58 01         [ 5] 1967 	lda	0x158,x
      0007A9 AA               [ 2] 1968 	tax
      0007AA 98               [ 2] 1969 	tya
      0007AB 18               [ 2] 1970 	clc
      0007AC 69 02            [ 2] 1971 	adc	#0x02
      0007AE 90 01            [ 4] 1972 	bcc	00845$
      0007B0 E8               [ 2] 1973 	inx
      0007B1                       1974 00845$:
                                   1975 ;	Raw cost for generated ic 297 : (15, 22.600000) count=0.000000
                                   1976 ;	genAssign
                                   1977 ;	genCopy
      0007B1 86*00            [ 3] 1978 	stx	*(REGTEMP+0)
      0007B3 85*01            [ 3] 1979 	sta	*(REGTEMP+1)
      0007B5 8A               [ 2] 1980 	txa
      0007B6 BA               [ 2] 1981 	tsx
      0007B7 9D 58 01         [ 5] 1982 	sta	0x158,x
      0007BA A5*01            [ 3] 1983 	lda	*(REGTEMP+1)
      0007BC 9D 57 01         [ 5] 1984 	sta	0x157,x
      0007BF A6*00            [ 3] 1985 	ldx	*(REGTEMP+0)
                                   1986 ;	Raw cost for generated ic 298 : (16, 26.000000) count=0.000000
                                   1987 ;	genMinus
                                   1988 ;	  genMinusDec - size=2  icount=2
      0007C1 38               [ 2] 1989 	sec
      0007C2 E9 02            [ 2] 1990 	sbc	#0x02
      0007C4 B0 01            [ 4] 1991 	bcs	00846$
      0007C6 CA               [ 2] 1992 	dex
      0007C7                       1993 00846$:
                                   1994 ;	Raw cost for generated ic 299 : (6, 8.600000) count=0.000000
                                   1995 ;	genPointerGet
                                   1996 ;	  setupDPTR - off=0 remat=(null) savea=0
      0007C7 85*00            [ 3] 1997 	sta	*(DPTR+0)
      0007C9 86*01            [ 3] 1998 	stx	*(DPTR+1)
      0007CB A0 01            [ 2] 1999 	ldy	#0x01
      0007CD B1*00            [ 6] 2000 	lda	[DPTR],y
      0007CF AA               [ 2] 2001 	tax
      0007D0 88               [ 2] 2002 	dey
      0007D1 B1*00            [ 6] 2003 	lda	[DPTR],y
                                   2004 ;	Raw cost for generated ic 301 : (12, 22.000000) count=0.000000
                                   2005 ;	genPointerSet
      0007D3 85*00            [ 3] 2006 	sta	*(REGTEMP+0)
      0007D5 86*01            [ 3] 2007 	stx	*(REGTEMP+1)
                                   2008 ;	  setupDPTR - off=0 remat=(null) savea=0
      0007D7 BA               [ 2] 2009 	tsx
      0007D8 BD 1E 01         [ 5] 2010 	lda	0x11e,x
      0007DB 85*00            [ 3] 2011 	sta	*(DPTR+0)
      0007DD BD 1F 01         [ 5] 2012 	lda	0x11f,x
      0007E0 85*01            [ 3] 2013 	sta	*(DPTR+1)
      0007E2 A5*00            [ 3] 2014 	lda	*(REGTEMP+0)
      0007E4 A6*01            [ 3] 2015 	ldx	*(REGTEMP+1)
      0007E6 91*00            [ 6] 2016 	sta	[DPTR],y
      0007E8 8A               [ 2] 2017 	txa
      0007E9 C8               [ 2] 2018 	iny
      0007EA 91*00            [ 6] 2019 	sta	[DPTR],y
                                   2020 ;	Raw cost for generated ic 302 : (27, 47.000000) count=0.000000
                                   2021 ;	../printf_large.c: 663: OUTPUT_CHAR('0', p);
                                   2022 ;	genIpush
      0007EC BA               [ 2] 2023 	tsx
      0007ED BD 54 01         [ 5] 2024 	lda	0x154,x
      0007F0 48               [ 3] 2025 	pha
      0007F1 BD 53 01         [ 5] 2026 	lda	0x153,x
      0007F4 48               [ 3] 2027 	pha
                                   2028 ;	Raw cost for generated ic 303 : (9, 16.000000) count=0.000000
                                   2029 ;	Raw cost for generated ic 304 : (0, 0.000000) count=0.000000
                                   2030 ;	genPcall
      0007F5 BD 4F 01         [ 5] 2031 	lda	0x14f,x
      0007F8 85*00            [ 3] 2032 	sta	*(REGTEMP+0)
      0007FA BD 50 01         [ 5] 2033 	lda	0x150,x
      0007FD 85*01            [ 3] 2034 	sta	*(REGTEMP+1)
                                   2035 ;	genSend
      0007FF A9 30            [ 2] 2036 	lda	#0x30
      000801 20r00r00         [ 6] 2037 	jsr	__sdcc_indirect_jsr
                                   2038 ;	  adjustStack : cycles stk:14  incdec:8  adc:18
      000804 BA               [ 2] 2039 	tsx
      000805 E8               [ 2] 2040 	inx
      000806 E8               [ 2] 2041 	inx
      000807 9A               [ 2] 2042 	txs
                                   2043 ;	Raw cost for generated ic 305 : (19, 30.000000) count=0.000000
                                   2044 ;	genPlus
                                   2045 ;	  genPlusInc
      000808 BD 38 01         [ 5] 2046 	lda	0x138,x
      00080B 18               [ 2] 2047 	clc
      00080C 69 01            [ 2] 2048 	adc	#0x01
      00080E 9D 1E 01         [ 5] 2049 	sta	0x11e,x
      000811 BD 39 01         [ 5] 2050 	lda	0x139,x
      000814 69 00            [ 2] 2051 	adc	#0x00
      000816 9D 1F 01         [ 5] 2052 	sta	0x11f,x
                                   2053 ;	Raw cost for generated ic 307 : (17, 24.000000) count=0.000000
                                   2054 ;	../printf_large.c: 664: OUTPUT_CHAR('x', p);
                                   2055 ;	genIpush
      000819 BD 54 01         [ 5] 2056 	lda	0x154,x
      00081C 48               [ 3] 2057 	pha
      00081D BD 53 01         [ 5] 2058 	lda	0x153,x
      000820 48               [ 3] 2059 	pha
                                   2060 ;	Raw cost for generated ic 309 : (8, 14.000000) count=0.000000
                                   2061 ;	Raw cost for generated ic 310 : (0, 0.000000) count=0.000000
                                   2062 ;	genPcall
      000821 BD 4F 01         [ 5] 2063 	lda	0x14f,x
      000824 85*00            [ 3] 2064 	sta	*(REGTEMP+0)
      000826 BD 50 01         [ 5] 2065 	lda	0x150,x
      000829 85*01            [ 3] 2066 	sta	*(REGTEMP+1)
                                   2067 ;	genSend
      00082B A9 78            [ 2] 2068 	lda	#0x78
      00082D 20r00r00         [ 6] 2069 	jsr	__sdcc_indirect_jsr
                                   2070 ;	  adjustStack : cycles stk:14  incdec:8  adc:18
      000830 BA               [ 2] 2071 	tsx
      000831 E8               [ 2] 2072 	inx
      000832 E8               [ 2] 2073 	inx
      000833 9A               [ 2] 2074 	txs
                                   2075 ;	Raw cost for generated ic 311 : (19, 30.000000) count=0.000000
                                   2076 ;	genPlus
                                   2077 ;	  genPlusInc
      000834 BD 1E 01         [ 5] 2078 	lda	0x11e,x
      000837 18               [ 2] 2079 	clc
      000838 69 01            [ 2] 2080 	adc	#0x01
      00083A 9D 1E 01         [ 5] 2081 	sta	0x11e,x
      00083D BD 1F 01         [ 5] 2082 	lda	0x11f,x
      000840 69 00            [ 2] 2083 	adc	#0x00
      000842 9D 1F 01         [ 5] 2084 	sta	0x11f,x
                                   2085 ;	Raw cost for generated ic 313 : (17, 24.000000) count=0.000000
                                   2086 ;	../printf_large.c: 665: OUTPUT_2DIGITS( value.byte[1] );
                                   2087 ;	genPointerGet
                                   2088 ;	  setupDPTR - off=1 remat=(null) savea=0
      000845 BD 32 01         [ 5] 2089 	lda	0x132,x
      000848 85*00            [ 3] 2090 	sta	*(DPTR+0)
      00084A BD 33 01         [ 5] 2091 	lda	0x133,x
      00084D 85*01            [ 3] 2092 	sta	*(DPTR+1)
      00084F A0 01            [ 2] 2093 	ldy	#0x01
      000851 B1*00            [ 6] 2094 	lda	[DPTR],y
      000853 A8               [ 2] 2095 	tay
                                   2096 ;	Raw cost for generated ic 318 : (15, 23.000000) count=0.000000
                                   2097 ;	genIpush
      000854 BD 54 01         [ 5] 2098 	lda	0x154,x
      000857 48               [ 3] 2099 	pha
      000858 BD 53 01         [ 5] 2100 	lda	0x153,x
      00085B 48               [ 3] 2101 	pha
                                   2102 ;	Raw cost for generated ic 319 : (8, 14.000000) count=0.000000
                                   2103 ;	genIpush
      00085C BD 50 01         [ 5] 2104 	lda	0x150,x
      00085F 48               [ 3] 2105 	pha
      000860 BD 4F 01         [ 5] 2106 	lda	0x14f,x
      000863 48               [ 3] 2107 	pha
                                   2108 ;	Raw cost for generated ic 320 : (8, 14.000000) count=0.000000
                                   2109 ;	Raw cost for generated ic 321 : (0, 0.000000) count=0.000000
                                   2110 ;	Raw cost for generated ic 322 : (0, 0.000000) count=0.000000
                                   2111 ;	genCall
                                   2112 ;	genSend
      000864 98               [ 2] 2113 	tya
      000865 85*00            [ 3] 2114 	sta	*(REGTEMP+0)
      000867 BD 46 01         [ 5] 2115 	lda	0x146,x
      00086A AA               [ 2] 2116 	tax
      00086B A5*00            [ 3] 2117 	lda	*(REGTEMP+0)
      00086D 20r34r00         [ 6] 2118 	jsr	_output_2digits
                                   2119 ;	  adjustStack : cycles stk:22  incdec:18  adc:24
      000870 86*00            [ 3] 2120 	stx	*(REGTEMP+0)
      000872 BA               [ 2] 2121 	tsx
      000873 E8               [ 2] 2122 	inx
      000874 E8               [ 2] 2123 	inx
      000875 E8               [ 2] 2124 	inx
      000876 E8               [ 2] 2125 	inx
      000877 9A               [ 2] 2126 	txs
                                   2127 ;	Raw cost for generated ic 323 : (22, 38.000000) count=0.000000
                                   2128 ;	genPlus
                                   2129 ;	  genPlusInc
      000878 BA               [ 2] 2130 	tsx
      000879 BD 1E 01         [ 5] 2131 	lda	0x11e,x
      00087C 18               [ 2] 2132 	clc
      00087D 69 02            [ 2] 2133 	adc	#0x02
      00087F 9D 1E 01         [ 5] 2134 	sta	0x11e,x
      000882 BD 1F 01         [ 5] 2135 	lda	0x11f,x
      000885 69 00            [ 2] 2136 	adc	#0x00
      000887 9D 1F 01         [ 5] 2137 	sta	0x11f,x
                                   2138 ;	Raw cost for generated ic 324 : (18, 26.000000) count=0.000000
                                   2139 ;	../printf_large.c: 666: OUTPUT_2DIGITS( value.byte[0] );
                                   2140 ;	genPointerGet
                                   2141 ;	  setupDPTR - off=0 remat=(null) savea=0
      00088A BD 34 01         [ 5] 2142 	lda	0x134,x
      00088D 85*00            [ 3] 2143 	sta	*(DPTR+0)
      00088F BD 35 01         [ 5] 2144 	lda	0x135,x
      000892 85*01            [ 3] 2145 	sta	*(DPTR+1)
      000894 A0 00            [ 2] 2146 	ldy	#0x00
      000896 B1*00            [ 6] 2147 	lda	[DPTR],y
      000898 A8               [ 2] 2148 	tay
                                   2149 ;	Raw cost for generated ic 329 : (15, 23.000000) count=0.000000
                                   2150 ;	genIpush
      000899 BD 54 01         [ 5] 2151 	lda	0x154,x
      00089C 48               [ 3] 2152 	pha
      00089D BD 53 01         [ 5] 2153 	lda	0x153,x
      0008A0 48               [ 3] 2154 	pha
                                   2155 ;	Raw cost for generated ic 330 : (8, 14.000000) count=0.000000
                                   2156 ;	genIpush
      0008A1 BD 50 01         [ 5] 2157 	lda	0x150,x
      0008A4 48               [ 3] 2158 	pha
      0008A5 BD 4F 01         [ 5] 2159 	lda	0x14f,x
      0008A8 48               [ 3] 2160 	pha
                                   2161 ;	Raw cost for generated ic 331 : (8, 14.000000) count=0.000000
                                   2162 ;	Raw cost for generated ic 332 : (0, 0.000000) count=0.000000
                                   2163 ;	Raw cost for generated ic 333 : (0, 0.000000) count=0.000000
                                   2164 ;	genCall
                                   2165 ;	genSend
      0008A9 98               [ 2] 2166 	tya
      0008AA 85*00            [ 3] 2167 	sta	*(REGTEMP+0)
      0008AC BD 46 01         [ 5] 2168 	lda	0x146,x
      0008AF AA               [ 2] 2169 	tax
      0008B0 A5*00            [ 3] 2170 	lda	*(REGTEMP+0)
      0008B2 20r34r00         [ 6] 2171 	jsr	_output_2digits
                                   2172 ;	  adjustStack : cycles stk:22  incdec:18  adc:24
      0008B5 86*00            [ 3] 2173 	stx	*(REGTEMP+0)
      0008B7 BA               [ 2] 2174 	tsx
      0008B8 E8               [ 2] 2175 	inx
      0008B9 E8               [ 2] 2176 	inx
      0008BA E8               [ 2] 2177 	inx
      0008BB E8               [ 2] 2178 	inx
      0008BC 9A               [ 2] 2179 	txs
                                   2180 ;	Raw cost for generated ic 334 : (22, 38.000000) count=0.000000
                                   2181 ;	genPlus
                                   2182 ;	  genPlusInc
      0008BD BA               [ 2] 2183 	tsx
      0008BE BD 1E 01         [ 5] 2184 	lda	0x11e,x
      0008C1 18               [ 2] 2185 	clc
      0008C2 69 02            [ 2] 2186 	adc	#0x02
      0008C4 9D 38 01         [ 5] 2187 	sta	0x138,x
      0008C7 BD 1F 01         [ 5] 2188 	lda	0x11f,x
      0008CA 69 00            [ 2] 2189 	adc	#0x00
      0008CC 9D 39 01         [ 5] 2190 	sta	0x139,x
                                   2191 ;	Raw cost for generated ic 335 : (18, 26.000000) count=0.000000
                                   2192 ;	../printf_large.c: 668: break;
                                   2193 ;	genGoto
      0008CF 4Cr4Cr09         [ 3] 2194 	jmp	00160$
                                   2195 ;	Raw cost for generated ic 337 : (3, 3.000000) count=0.000000
                                   2196 ;	../printf_large.c: 671: case 'I':
                                   2197 ;	genLabel
      0008D2                       2198 00154$:
                                   2199 ;	Raw cost for generated ic 339 : (0, 0.000000) count=0.010755
                                   2200 ;	../printf_large.c: 672: signed_argument = 1;
                                   2201 ;	genAssign
                                   2202 ;	genAssignLit
      0008D2 A9 01            [ 2] 2203 	lda	#0x01
      0008D4 BA               [ 2] 2204 	tsx
      0008D5 9D 4A 01         [ 5] 2205 	sta	0x14a,x
                                   2206 ;	Raw cost for generated ic 340 : (6, 9.000000) count=0.010755
                                   2207 ;	../printf_large.c: 673: radix = 10;
                                   2208 ;	genAssign
                                   2209 ;	genAssignLit
      0008D8 A9 0A            [ 2] 2210 	lda	#0x0a
      0008DA 9D 42 01         [ 5] 2211 	sta	0x142,x
                                   2212 ;	Raw cost for generated ic 341 : (5, 7.000000) count=0.010755
                                   2213 ;	../printf_large.c: 674: break;
                                   2214 ;	genGoto
      0008DD 4Cr4Cr09         [ 3] 2215 	jmp	00160$
                                   2216 ;	Raw cost for generated ic 342 : (3, 3.000000) count=0.010755
                                   2217 ;	../printf_large.c: 676: case 'O':
                                   2218 ;	genLabel
      0008E0                       2219 00155$:
                                   2220 ;	Raw cost for generated ic 343 : (0, 0.000000) count=0.000000
                                   2221 ;	../printf_large.c: 677: radix = 8;
                                   2222 ;	genAssign
                                   2223 ;	genAssignLit
      0008E0 A9 08            [ 2] 2224 	lda	#0x08
      0008E2 BA               [ 2] 2225 	tsx
      0008E3 9D 42 01         [ 5] 2226 	sta	0x142,x
                                   2227 ;	Raw cost for generated ic 344 : (6, 9.000000) count=0.000000
                                   2228 ;	../printf_large.c: 678: break;
                                   2229 ;	genGoto
      0008E6 4Cr4Cr09         [ 3] 2230 	jmp	00160$
                                   2231 ;	Raw cost for generated ic 345 : (3, 3.000000) count=0.000000
                                   2232 ;	../printf_large.c: 680: case 'U':
                                   2233 ;	genLabel
      0008E9                       2234 00156$:
                                   2235 ;	Raw cost for generated ic 346 : (0, 0.000000) count=0.000000
                                   2236 ;	../printf_large.c: 681: radix = 10;
                                   2237 ;	genAssign
                                   2238 ;	genAssignLit
      0008E9 A9 0A            [ 2] 2239 	lda	#0x0a
      0008EB BA               [ 2] 2240 	tsx
      0008EC 9D 42 01         [ 5] 2241 	sta	0x142,x
                                   2242 ;	Raw cost for generated ic 347 : (6, 9.000000) count=0.000000
                                   2243 ;	../printf_large.c: 682: break;
                                   2244 ;	genGoto
      0008EF 4Cr4Cr09         [ 3] 2245 	jmp	00160$
                                   2246 ;	Raw cost for generated ic 348 : (3, 3.000000) count=0.000000
                                   2247 ;	../printf_large.c: 684: case 'X':
                                   2248 ;	genLabel
      0008F2                       2249 00157$:
                                   2250 ;	Raw cost for generated ic 349 : (0, 0.000000) count=0.000000
                                   2251 ;	../printf_large.c: 685: radix = 16;
                                   2252 ;	genAssign
                                   2253 ;	genAssignLit
      0008F2 A9 10            [ 2] 2254 	lda	#0x10
      0008F4 BA               [ 2] 2255 	tsx
      0008F5 9D 42 01         [ 5] 2256 	sta	0x142,x
                                   2257 ;	Raw cost for generated ic 350 : (6, 9.000000) count=0.000000
                                   2258 ;	../printf_large.c: 686: break;
                                   2259 ;	genGoto
      0008F8 4Cr4Cr09         [ 3] 2260 	jmp	00160$
                                   2261 ;	Raw cost for generated ic 351 : (3, 3.000000) count=0.000000
                                   2262 ;	../printf_large.c: 688: case 'F':
                                   2263 ;	genLabel
      0008FB                       2264 00158$:
                                   2265 ;	Raw cost for generated ic 352 : (0, 0.000000) count=0.000000
                                   2266 ;	../printf_large.c: 689: float_argument=1;
                                   2267 ;	genAssign
                                   2268 ;	genAssignLit
      0008FB A9 01            [ 2] 2269 	lda	#0x01
      0008FD BA               [ 2] 2270 	tsx
      0008FE 9D 47 01         [ 5] 2271 	sta	0x147,x
                                   2272 ;	Raw cost for generated ic 353 : (6, 9.000000) count=0.000000
                                   2273 ;	../printf_large.c: 690: break;
                                   2274 ;	genGoto
      000901 4Cr4Cr09         [ 3] 2275 	jmp	00160$
                                   2276 ;	Raw cost for generated ic 354 : (3, 3.000000) count=0.000000
                                   2277 ;	../printf_large.c: 692: default:
                                   2278 ;	genLabel
      000904                       2279 00159$:
                                   2280 ;	Raw cost for generated ic 355 : (0, 0.000000) count=0.000000
                                   2281 ;	../printf_large.c: 694: OUTPUT_CHAR( c, p );
                                   2282 ;	genIpush
      000904 BA               [ 2] 2283 	tsx
      000905 BD 54 01         [ 5] 2284 	lda	0x154,x
      000908 48               [ 3] 2285 	pha
      000909 BD 53 01         [ 5] 2286 	lda	0x153,x
      00090C 48               [ 3] 2287 	pha
                                   2288 ;	Raw cost for generated ic 356 : (9, 16.000000) count=0.000000
                                   2289 ;	Raw cost for generated ic 357 : (0, 0.000000) count=0.000000
                                   2290 ;	genPcall
      00090D BD 4F 01         [ 5] 2291 	lda	0x14f,x
      000910 85*00            [ 3] 2292 	sta	*(REGTEMP+0)
      000912 BD 50 01         [ 5] 2293 	lda	0x150,x
      000915 85*01            [ 3] 2294 	sta	*(REGTEMP+1)
                                   2295 ;	genSend
      000917 98               [ 2] 2296 	tya
      000918 20r00r00         [ 6] 2297 	jsr	__sdcc_indirect_jsr
                                   2298 ;	  adjustStack : cycles stk:14  incdec:8  adc:18
      00091B BA               [ 2] 2299 	tsx
      00091C E8               [ 2] 2300 	inx
      00091D E8               [ 2] 2301 	inx
      00091E 9A               [ 2] 2302 	txs
                                   2303 ;	Raw cost for generated ic 358 : (18, 30.000000) count=0.000000
                                   2304 ;	genPlus
                                   2305 ;	  genPlusInc
      00091F BD 38 01         [ 5] 2306 	lda	0x138,x
      000922 18               [ 2] 2307 	clc
      000923 69 01            [ 2] 2308 	adc	#0x01
      000925 9D 38 01         [ 5] 2309 	sta	0x138,x
      000928 BD 39 01         [ 5] 2310 	lda	0x139,x
      00092B 69 00            [ 2] 2311 	adc	#0x00
      00092D 9D 39 01         [ 5] 2312 	sta	0x139,x
                                   2313 ;	Raw cost for generated ic 360 : (17, 24.000000) count=0.000000
                                   2314 ;	../printf_large.c: 877: return charsOutputted;
                                   2315 ;	genGoto
      000930 4Cr4Cr09         [ 3] 2316 	jmp	00160$
                                   2317 ;	Raw cost for generated ic 772 : (3, 3.000000) count=0.000000
                                   2318 ;	../printf_large.c: 696: }
                                   2319 ;	genLabel
      000933                       2320 00314$:
                                   2321 ;	Raw cost for generated ic 773 : (0, 0.000000) count=0.000000
                                   2322 ;	genAssign
                                   2323 ;	genCopy
      000933 BA               [ 2] 2324 	tsx
      000934 BD 45 01         [ 5] 2325 	lda	0x145,x
      000937 9D 39 01         [ 5] 2326 	sta	0x139,x
      00093A BD 44 01         [ 5] 2327 	lda	0x144,x
      00093D 9D 38 01         [ 5] 2328 	sta	0x138,x
                                   2329 ;	Raw cost for generated ic 774 : (13, 20.000000) count=0.000000
                                   2330 ;	genAssign
                                   2331 ;	genCopy
      000940 BD 1D 01         [ 5] 2332 	lda	0x11d,x
      000943 9D 41 01         [ 5] 2333 	sta	0x141,x
      000946 BD 1C 01         [ 5] 2334 	lda	0x11c,x
      000949 9D 40 01         [ 5] 2335 	sta	0x140,x
                                   2336 ;	Raw cost for generated ic 776 : (12, 18.000000) count=0.000000
                                   2337 ;	genLabel
      00094C                       2338 00160$:
                                   2339 ;	Raw cost for generated ic 363 : (0, 0.000000) count=0.021509
                                   2340 ;	../printf_large.c: 698: if (float_argument)
                                   2341 ;	genIfx
      00094C BA               [ 2] 2342 	tsx
      00094D BD 47 01         [ 5] 2343 	lda	0x147,x
                                   2344 ;	genIfxJump : z
      000950 D0 03            [ 4] 2345 	bne	00848$
      000952 4Cr73r0A         [ 3] 2346 	jmp	00226$
      000955                       2347 00848$:
                                   2348 ;	Raw cost for generated ic 364 : (9, 11.600000) count=0.021509
                                   2349 ;	../printf_large.c: 700: value.f = va_arg(ap, float);
                                   2350 ;	genCast
                                   2351 ;	genCopy
      000955 BD 31 01         [ 5] 2352 	lda	0x131,x
      000958 9D 1D 01         [ 5] 2353 	sta	0x11d,x
      00095B BD 30 01         [ 5] 2354 	lda	0x130,x
      00095E 9D 1C 01         [ 5] 2355 	sta	0x11c,x
                                   2356 ;	Raw cost for generated ic 368 : (12, 18.000000) count=0.016132
                                   2357 ;	genPlus
                                   2358 ;	  genPlusInc
      000961 BD 57 01         [ 5] 2359 	lda	0x157,x
      000964 A8               [ 2] 2360 	tay
      000965 BD 58 01         [ 5] 2361 	lda	0x158,x
      000968 AA               [ 2] 2362 	tax
      000969 98               [ 2] 2363 	tya
      00096A 18               [ 2] 2364 	clc
      00096B 69 04            [ 2] 2365 	adc	#0x04
      00096D 90 01            [ 4] 2366 	bcc	00849$
      00096F E8               [ 2] 2367 	inx
      000970                       2368 00849$:
                                   2369 ;	Raw cost for generated ic 369 : (15, 22.600000) count=0.016132
                                   2370 ;	genAssign
                                   2371 ;	genCopy
      000970 86*00            [ 3] 2372 	stx	*(REGTEMP+0)
      000972 85*01            [ 3] 2373 	sta	*(REGTEMP+1)
      000974 8A               [ 2] 2374 	txa
      000975 BA               [ 2] 2375 	tsx
      000976 9D 58 01         [ 5] 2376 	sta	0x158,x
      000979 A5*01            [ 3] 2377 	lda	*(REGTEMP+1)
      00097B 9D 57 01         [ 5] 2378 	sta	0x157,x
      00097E A6*00            [ 3] 2379 	ldx	*(REGTEMP+0)
                                   2380 ;	Raw cost for generated ic 370 : (16, 26.000000) count=0.016132
                                   2381 ;	genMinus
                                   2382 ;	  genMinusDec - size=2  icount=4
      000980 38               [ 2] 2383 	sec
      000981 E9 04            [ 2] 2384 	sbc	#0x04
      000983 B0 01            [ 4] 2385 	bcs	00850$
      000985 CA               [ 2] 2386 	dex
      000986                       2387 00850$:
                                   2388 ;	Raw cost for generated ic 371 : (6, 8.600000) count=0.016132
                                   2389 ;	genPointerGet
                                   2390 ;	  setupDPTR - off=0 remat=(null) savea=0
      000986 85*00            [ 3] 2391 	sta	*(DPTR+0)
      000988 86*01            [ 3] 2392 	stx	*(DPTR+1)
      00098A A0 00            [ 2] 2393 	ldy	#0x00
      00098C B1*00            [ 6] 2394 	lda	[DPTR],y
      00098E BA               [ 2] 2395 	tsx
      00098F 9D 18 01         [ 5] 2396 	sta	0x118,x
      000992 C8               [ 2] 2397 	iny
      000993 B1*00            [ 6] 2398 	lda	[DPTR],y
      000995 9D 19 01         [ 5] 2399 	sta	0x119,x
      000998 C8               [ 2] 2400 	iny
      000999 B1*00            [ 6] 2401 	lda	[DPTR],y
      00099B 9D 1A 01         [ 5] 2402 	sta	0x11a,x
      00099E C8               [ 2] 2403 	iny
      00099F B1*00            [ 6] 2404 	lda	[DPTR],y
      0009A1 9D 1B 01         [ 5] 2405 	sta	0x11b,x
                                   2406 ;	Raw cost for generated ic 373 : (30, 56.000000) count=0.016132
                                   2407 ;	genPointerSet
                                   2408 ;	  setupDPTR - off=0 remat=(null) savea=0
      0009A4 BD 1C 01         [ 5] 2409 	lda	0x11c,x
      0009A7 85*00            [ 3] 2410 	sta	*(DPTR+0)
      0009A9 BD 1D 01         [ 5] 2411 	lda	0x11d,x
      0009AC 85*01            [ 3] 2412 	sta	*(DPTR+1)
      0009AE BD 18 01         [ 5] 2413 	lda	0x118,x
      0009B1 A0 00            [ 2] 2414 	ldy	#0x00
      0009B3 91*00            [ 6] 2415 	sta	[DPTR],y
      0009B5 BD 19 01         [ 5] 2416 	lda	0x119,x
      0009B8 C8               [ 2] 2417 	iny
      0009B9 91*00            [ 6] 2418 	sta	[DPTR],y
      0009BB BD 1A 01         [ 5] 2419 	lda	0x11a,x
      0009BE C8               [ 2] 2420 	iny
      0009BF 91*00            [ 6] 2421 	sta	[DPTR],y
      0009C1 BD 1B 01         [ 5] 2422 	lda	0x11b,x
      0009C4 C8               [ 2] 2423 	iny
      0009C5 91*00            [ 6] 2424 	sta	[DPTR],y
                                   2425 ;	Raw cost for generated ic 374 : (35, 62.000000) count=0.016132
                                   2426 ;	../printf_large.c: 702: PTR="<NO FLOAT>";
                                   2427 ;	genCast
                                   2428 ;	genCopy
      0009C7 BD 31 01         [ 5] 2429 	lda	0x131,x
      0009CA 9D 19 01         [ 5] 2430 	sta	0x119,x
      0009CD BD 30 01         [ 5] 2431 	lda	0x130,x
      0009D0 9D 18 01         [ 5] 2432 	sta	0x118,x
                                   2433 ;	Raw cost for generated ic 376 : (12, 18.000000) count=0.016132
                                   2434 ;	skipping iCode since result will be rematerialized
                                   2435 ;	Raw cost for generated ic 378 : (0, 0.000000) count=0.016132
                                   2436 ;	genPointerSet
                                   2437 ;	  setupDPTR - off=0 remat=(null) savea=0
      0009D3 85*00            [ 3] 2438 	sta	*(DPTR+0)
      0009D5 BD 19 01         [ 5] 2439 	lda	0x119,x
      0009D8 85*01            [ 3] 2440 	sta	*(DPTR+1)
      0009DA A9r00            [ 2] 2441 	lda	#___str_0
      0009DC A0 00            [ 2] 2442 	ldy	#0x00
      0009DE 91*00            [ 6] 2443 	sta	[DPTR],y
      0009E0 A9s00            [ 2] 2444 	lda	#>___str_0
      0009E2 C8               [ 2] 2445 	iny
      0009E3 91*00            [ 6] 2446 	sta	[DPTR],y
                                   2447 ;	Raw cost for generated ic 379 : (18, 30.000000) count=0.016132
                                   2448 ;	../printf_large.c: 703: while (c=*PTR++)
                                   2449 ;	genAssign
                                   2450 ;	genCopy
      0009E5 BD 39 01         [ 5] 2451 	lda	0x139,x
      0009E8 9D 1D 01         [ 5] 2452 	sta	0x11d,x
      0009EB BD 38 01         [ 5] 2453 	lda	0x138,x
      0009EE 9D 1C 01         [ 5] 2454 	sta	0x11c,x
                                   2455 ;	Raw cost for generated ic 777 : (12, 18.000000) count=0.016132
                                   2456 ;	genLabel
      0009F1                       2457 00161$:
                                   2458 ;	Raw cost for generated ic 380 : (0, 0.000000) count=0.016132
                                   2459 ;	genPointerGet
                                   2460 ;	  setupDPTR - off=0 remat=(null) savea=0
      0009F1 BA               [ 2] 2461 	tsx
      0009F2 BD 18 01         [ 5] 2462 	lda	0x118,x
      0009F5 85*00            [ 3] 2463 	sta	*(DPTR+0)
      0009F7 BD 19 01         [ 5] 2464 	lda	0x119,x
      0009FA 85*01            [ 3] 2465 	sta	*(DPTR+1)
      0009FC A0 00            [ 2] 2466 	ldy	#0x00
      0009FE B1*00            [ 6] 2467 	lda	[DPTR],y
      000A00 9D 1E 01         [ 5] 2468 	sta	0x11e,x
      000A03 C8               [ 2] 2469 	iny
      000A04 B1*00            [ 6] 2470 	lda	[DPTR],y
      000A06 9D 1F 01         [ 5] 2471 	sta	0x11f,x
                                   2472 ;	Raw cost for generated ic 383 : (24, 40.000000) count=0.016132
                                   2473 ;	genPlus
                                   2474 ;	  genPlusInc
      000A09 BD 1E 01         [ 5] 2475 	lda	0x11e,x
      000A0C A8               [ 2] 2476 	tay
      000A0D BD 1F 01         [ 5] 2477 	lda	0x11f,x
      000A10 AA               [ 2] 2478 	tax
      000A11 98               [ 2] 2479 	tya
      000A12 18               [ 2] 2480 	clc
      000A13 69 01            [ 2] 2481 	adc	#0x01
      000A15 90 01            [ 4] 2482 	bcc	00851$
      000A17 E8               [ 2] 2483 	inx
      000A18                       2484 00851$:
                                   2485 ;	Raw cost for generated ic 385 : (15, 22.600000) count=0.016132
                                   2486 ;	genPointerSet
      000A18 85*00            [ 3] 2487 	sta	*(REGTEMP+0)
      000A1A 86*01            [ 3] 2488 	stx	*(REGTEMP+1)
                                   2489 ;	  setupDPTR - off=0 remat=(null) savea=0
      000A1C A5*00            [ 3] 2490 	lda	*(REGTEMP+0)
      000A1E A6*01            [ 3] 2491 	ldx	*(REGTEMP+1)
      000A20 A0 00            [ 2] 2492 	ldy	#0x00
      000A22 91*00            [ 6] 2493 	sta	[DPTR],y
      000A24 8A               [ 2] 2494 	txa
      000A25 C8               [ 2] 2495 	iny
      000A26 91*00            [ 6] 2496 	sta	[DPTR],y
                                   2497 ;	Raw cost for generated ic 386 : (18, 33.000000) count=0.016132
                                   2498 ;	genPointerGet
                                   2499 ;	  setupDPTR - off=0 remat=(null) savea=0
      000A28 BA               [ 2] 2500 	tsx
      000A29 BD 1E 01         [ 5] 2501 	lda	0x11e,x
      000A2C 85*00            [ 3] 2502 	sta	*(DPTR+0)
      000A2E BD 1F 01         [ 5] 2503 	lda	0x11f,x
      000A31 85*01            [ 3] 2504 	sta	*(DPTR+1)
      000A33 88               [ 2] 2505 	dey
      000A34 B1*00            [ 6] 2506 	lda	[DPTR],y
      000A36 A8               [ 2] 2507 	tay
                                   2508 ;	Raw cost for generated ic 387 : (15, 25.000000) count=0.016132
                                   2509 ;	genIfx
                                   2510 ;	genIfxJump : z
      000A37 D0 03            [ 4] 2511 	bne	00853$
      000A39 4Cr03r02         [ 3] 2512 	jmp	00231$
      000A3C                       2513 00853$:
                                   2514 ;	Raw cost for generated ic 389 : (5, 5.600000) count=0.016132
                                   2515 ;	../printf_large.c: 705: OUTPUT_CHAR (c, p);
                                   2516 ;	genIpush
      000A3C BD 54 01         [ 5] 2517 	lda	0x154,x
      000A3F 48               [ 3] 2518 	pha
      000A40 BD 53 01         [ 5] 2519 	lda	0x153,x
      000A43 48               [ 3] 2520 	pha
                                   2521 ;	Raw cost for generated ic 392 : (8, 14.000000) count=0.000000
                                   2522 ;	Raw cost for generated ic 393 : (0, 0.000000) count=0.000000
                                   2523 ;	genPcall
      000A44 BD 4F 01         [ 5] 2524 	lda	0x14f,x
      000A47 85*00            [ 3] 2525 	sta	*(REGTEMP+0)
      000A49 BD 50 01         [ 5] 2526 	lda	0x150,x
      000A4C 85*01            [ 3] 2527 	sta	*(REGTEMP+1)
                                   2528 ;	genSend
      000A4E 98               [ 2] 2529 	tya
      000A4F 20r00r00         [ 6] 2530 	jsr	__sdcc_indirect_jsr
                                   2531 ;	  adjustStack : cycles stk:14  incdec:8  adc:18
      000A52 BA               [ 2] 2532 	tsx
      000A53 E8               [ 2] 2533 	inx
      000A54 E8               [ 2] 2534 	inx
      000A55 9A               [ 2] 2535 	txs
                                   2536 ;	Raw cost for generated ic 394 : (18, 30.000000) count=0.000000
                                   2537 ;	genPlus
                                   2538 ;	  genPlusInc
      000A56 BD 1C 01         [ 5] 2539 	lda	0x11c,x
      000A59 18               [ 2] 2540 	clc
      000A5A 69 01            [ 2] 2541 	adc	#0x01
      000A5C 9D 1C 01         [ 5] 2542 	sta	0x11c,x
      000A5F BD 1D 01         [ 5] 2543 	lda	0x11d,x
      000A62 69 00            [ 2] 2544 	adc	#0x00
      000A64 9D 1D 01         [ 5] 2545 	sta	0x11d,x
                                   2546 ;	Raw cost for generated ic 396 : (17, 24.000000) count=0.000000
                                   2547 ;	genAssign
                                   2548 ;	genCopy
      000A67 9D 39 01         [ 5] 2549 	sta	0x139,x
      000A6A BD 1C 01         [ 5] 2550 	lda	0x11c,x
      000A6D 9D 38 01         [ 5] 2551 	sta	0x138,x
                                   2552 ;	Raw cost for generated ic 397 : (9, 14.000000) count=0.000000
                                   2553 ;	genGoto
      000A70 4CrF1r09         [ 3] 2554 	jmp	00161$
                                   2555 ;	Raw cost for generated ic 398 : (3, 3.000000) count=0.000000
                                   2556 ;	genLabel
      000A73                       2557 00226$:
                                   2558 ;	Raw cost for generated ic 401 : (0, 0.000000) count=0.000000
                                   2559 ;	../printf_large.c: 723: else if (radix != 0)
                                   2560 ;	genIfx
      000A73 BA               [ 2] 2561 	tsx
      000A74 BD 42 01         [ 5] 2562 	lda	0x142,x
                                   2563 ;	genIfxJump : z
      000A77 D0 03            [ 4] 2564 	bne	00855$
      000A79 4Cr03r02         [ 3] 2565 	jmp	00231$
      000A7C                       2566 00855$:
                                   2567 ;	Raw cost for generated ic 402 : (9, 11.600000) count=0.000000
                                   2568 ;	../printf_large.c: 728: unsigned char MEM_SPACE_BUF_PP *pstore = &store[5];
                                   2569 ;	genCast
                                   2570 ;	genCopy
      000A7C BD 2F 01         [ 5] 2571 	lda	0x12f,x
      000A7F 9D 19 01         [ 5] 2572 	sta	0x119,x
      000A82 BD 2E 01         [ 5] 2573 	lda	0x12e,x
      000A85 9D 18 01         [ 5] 2574 	sta	0x118,x
                                   2575 ;	Raw cost for generated ic 407 : (12, 18.000000) count=0.000000
                                   2576 ;	../printf_large.c: 731: if (char_argument)
                                   2577 ;	genIfx
      000A88 BD 49 01         [ 5] 2578 	lda	0x149,x
                                   2579 ;	genIfxJump : z
      000A8B D0 03            [ 4] 2580 	bne	00857$
      000A8D 4Cr45r0B         [ 3] 2581 	jmp	00172$
      000A90                       2582 00857$:
                                   2583 ;	Raw cost for generated ic 409 : (8, 9.600000) count=0.000000
                                   2584 ;	../printf_large.c: 733: value.l = va_arg(ap, char);
                                   2585 ;	genCast
                                   2586 ;	genCopy
      000A90 BD 2B 01         [ 5] 2587 	lda	0x12b,x
      000A93 9D 1D 01         [ 5] 2588 	sta	0x11d,x
      000A96 BD 2A 01         [ 5] 2589 	lda	0x12a,x
      000A99 9D 1C 01         [ 5] 2590 	sta	0x11c,x
                                   2591 ;	Raw cost for generated ic 413 : (12, 18.000000) count=0.000000
                                   2592 ;	genPlus
                                   2593 ;	  genPlusInc
      000A9C BD 57 01         [ 5] 2594 	lda	0x157,x
      000A9F A8               [ 2] 2595 	tay
      000AA0 BD 58 01         [ 5] 2596 	lda	0x158,x
      000AA3 AA               [ 2] 2597 	tax
      000AA4 98               [ 2] 2598 	tya
      000AA5 18               [ 2] 2599 	clc
      000AA6 69 01            [ 2] 2600 	adc	#0x01
      000AA8 90 01            [ 4] 2601 	bcc	00858$
      000AAA E8               [ 2] 2602 	inx
      000AAB                       2603 00858$:
                                   2604 ;	Raw cost for generated ic 414 : (15, 22.600000) count=0.000000
                                   2605 ;	genAssign
                                   2606 ;	genCopy
      000AAB 86*00            [ 3] 2607 	stx	*(REGTEMP+0)
      000AAD 85*01            [ 3] 2608 	sta	*(REGTEMP+1)
      000AAF 8A               [ 2] 2609 	txa
      000AB0 BA               [ 2] 2610 	tsx
      000AB1 9D 58 01         [ 5] 2611 	sta	0x158,x
      000AB4 A5*01            [ 3] 2612 	lda	*(REGTEMP+1)
      000AB6 9D 57 01         [ 5] 2613 	sta	0x157,x
      000AB9 A6*00            [ 3] 2614 	ldx	*(REGTEMP+0)
                                   2615 ;	Raw cost for generated ic 415 : (16, 26.000000) count=0.000000
                                   2616 ;	genMinus
                                   2617 ;	  genMinusDec - size=2  icount=1
      000ABB 38               [ 2] 2618 	sec
      000ABC E9 01            [ 2] 2619 	sbc	#0x01
      000ABE B0 01            [ 4] 2620 	bcs	00859$
      000AC0 CA               [ 2] 2621 	dex
      000AC1                       2622 00859$:
                                   2623 ;	Raw cost for generated ic 416 : (6, 8.600000) count=0.000000
                                   2624 ;	genPointerGet
                                   2625 ;	  setupDPTR - off=0 remat=(null) savea=0
      000AC1 85*00            [ 3] 2626 	sta	*(DPTR+0)
      000AC3 86*01            [ 3] 2627 	stx	*(DPTR+1)
      000AC5 A0 00            [ 2] 2628 	ldy	#0x00
      000AC7 B1*00            [ 6] 2629 	lda	[DPTR],y
      000AC9 A8               [ 2] 2630 	tay
                                   2631 ;	Raw cost for generated ic 417 : (9, 15.000000) count=0.000000
                                   2632 ;	genCast
                                   2633 ;	genCopy
      000ACA A9 00            [ 2] 2634 	lda	#0x00
      000ACC BA               [ 2] 2635 	tsx
      000ACD 9D 17 01         [ 5] 2636 	sta	0x117,x
      000AD0 9D 16 01         [ 5] 2637 	sta	0x116,x
      000AD3 9D 15 01         [ 5] 2638 	sta	0x115,x
      000AD6 98               [ 2] 2639 	tya
      000AD7 9D 14 01         [ 5] 2640 	sta	0x114,x
                                   2641 ;	Raw cost for generated ic 418 : (16, 26.000000) count=0.000000
                                   2642 ;	genPointerSet
                                   2643 ;	  setupDPTR - off=0 remat=(null) savea=0
      000ADA BD 1C 01         [ 5] 2644 	lda	0x11c,x
      000ADD 85*00            [ 3] 2645 	sta	*(DPTR+0)
      000ADF BD 1D 01         [ 5] 2646 	lda	0x11d,x
      000AE2 85*01            [ 3] 2647 	sta	*(DPTR+1)
      000AE4 BD 14 01         [ 5] 2648 	lda	0x114,x
      000AE7 A0 00            [ 2] 2649 	ldy	#0x00
      000AE9 91*00            [ 6] 2650 	sta	[DPTR],y
      000AEB BD 15 01         [ 5] 2651 	lda	0x115,x
      000AEE C8               [ 2] 2652 	iny
      000AEF 91*00            [ 6] 2653 	sta	[DPTR],y
      000AF1 BD 16 01         [ 5] 2654 	lda	0x116,x
      000AF4 C8               [ 2] 2655 	iny
      000AF5 91*00            [ 6] 2656 	sta	[DPTR],y
      000AF7 BD 17 01         [ 5] 2657 	lda	0x117,x
      000AFA C8               [ 2] 2658 	iny
      000AFB 91*00            [ 6] 2659 	sta	[DPTR],y
                                   2660 ;	Raw cost for generated ic 419 : (35, 62.000000) count=0.000000
                                   2661 ;	../printf_large.c: 734: if (!signed_argument)
                                   2662 ;	genIfx
      000AFD BD 4A 01         [ 5] 2663 	lda	0x14a,x
                                   2664 ;	genIfxJump : z
      000B00 F0 03            [ 4] 2665 	beq	00861$
      000B02 4Cr7Er0C         [ 3] 2666 	jmp	00173$
      000B05                       2667 00861$:
                                   2668 ;	Raw cost for generated ic 420 : (8, 9.600000) count=0.000000
                                   2669 ;	../printf_large.c: 736: value.l &= 0xFF;
                                   2670 ;	genPointerGet
                                   2671 ;	  setupDPTR - off=0 remat=(null) savea=0
      000B05 A0 00            [ 2] 2672 	ldy	#0x00
      000B07 B1*00            [ 6] 2673 	lda	[DPTR],y
      000B09 9D 14 01         [ 5] 2674 	sta	0x114,x
      000B0C C8               [ 2] 2675 	iny
      000B0D B1*00            [ 6] 2676 	lda	[DPTR],y
      000B0F 9D 15 01         [ 5] 2677 	sta	0x115,x
      000B12 C8               [ 2] 2678 	iny
      000B13 B1*00            [ 6] 2679 	lda	[DPTR],y
      000B15 9D 16 01         [ 5] 2680 	sta	0x116,x
      000B18 C8               [ 2] 2681 	iny
      000B19 B1*00            [ 6] 2682 	lda	[DPTR],y
      000B1B 9D 17 01         [ 5] 2683 	sta	0x117,x
                                   2684 ;	Raw cost for generated ic 427 : (25, 48.000000) count=0.000000
                                   2685 ;	genAnd
      000B1E A9 00            [ 2] 2686 	lda	#0x00
      000B20 9D 15 01         [ 5] 2687 	sta	0x115,x
      000B23 9D 16 01         [ 5] 2688 	sta	0x116,x
      000B26 9D 17 01         [ 5] 2689 	sta	0x117,x
                                   2690 ;	Raw cost for generated ic 428 : (11, 17.000000) count=0.000000
                                   2691 ;	genPointerSet
                                   2692 ;	  setupDPTR - off=0 remat=(null) savea=0
      000B29 BD 14 01         [ 5] 2693 	lda	0x114,x
      000B2C A0 00            [ 2] 2694 	ldy	#0x00
      000B2E 91*00            [ 6] 2695 	sta	[DPTR],y
      000B30 BD 15 01         [ 5] 2696 	lda	0x115,x
      000B33 C8               [ 2] 2697 	iny
      000B34 91*00            [ 6] 2698 	sta	[DPTR],y
      000B36 BD 16 01         [ 5] 2699 	lda	0x116,x
      000B39 C8               [ 2] 2700 	iny
      000B3A 91*00            [ 6] 2701 	sta	[DPTR],y
      000B3C BD 17 01         [ 5] 2702 	lda	0x117,x
      000B3F C8               [ 2] 2703 	iny
      000B40 91*00            [ 6] 2704 	sta	[DPTR],y
                                   2705 ;	Raw cost for generated ic 429 : (25, 48.000000) count=0.000000
                                   2706 ;	genGoto
      000B42 4Cr7Er0C         [ 3] 2707 	jmp	00173$
                                   2708 ;	Raw cost for generated ic 431 : (3, 3.000000) count=0.000000
                                   2709 ;	genLabel
      000B45                       2710 00172$:
                                   2711 ;	Raw cost for generated ic 432 : (0, 0.000000) count=0.000000
                                   2712 ;	../printf_large.c: 739: else if (long_argument)
                                   2713 ;	genIfx
      000B45 BA               [ 2] 2714 	tsx
      000B46 BD 48 01         [ 5] 2715 	lda	0x148,x
                                   2716 ;	genIfxJump : z
      000B49 F0 75            [ 4] 2717 	beq	00169$
                                   2718 ;	Raw cost for generated ic 433 : (9, 11.600000) count=0.000000
                                   2719 ;	../printf_large.c: 741: value.l = va_arg(ap, long);
                                   2720 ;	genAddrOf
      000B4B 8A               [ 2] 2721 	txa
      000B4C 18               [ 2] 2722 	clc
      000B4D 69 07            [ 2] 2723 	adc	#0x07
      000B4F 9D 14 01         [ 5] 2724 	sta	0x114,x
      000B52 A9 01            [ 2] 2725 	lda	#0x01
      000B54 9D 15 01         [ 5] 2726 	sta	0x115,x
                                   2727 ;	Raw cost for generated ic 436 : (12, 18.000000) count=0.000000
                                   2728 ;	genPlus
                                   2729 ;	  genPlusInc
      000B57 BD 57 01         [ 5] 2730 	lda	0x157,x
      000B5A A8               [ 2] 2731 	tay
      000B5B BD 58 01         [ 5] 2732 	lda	0x158,x
      000B5E AA               [ 2] 2733 	tax
      000B5F 98               [ 2] 2734 	tya
      000B60 18               [ 2] 2735 	clc
      000B61 69 04            [ 2] 2736 	adc	#0x04
      000B63 90 01            [ 4] 2737 	bcc	00864$
      000B65 E8               [ 2] 2738 	inx
      000B66                       2739 00864$:
                                   2740 ;	Raw cost for generated ic 438 : (15, 22.600000) count=0.000000
                                   2741 ;	genAssign
                                   2742 ;	genCopy
      000B66 86*00            [ 3] 2743 	stx	*(REGTEMP+0)
      000B68 85*01            [ 3] 2744 	sta	*(REGTEMP+1)
      000B6A 8A               [ 2] 2745 	txa
      000B6B BA               [ 2] 2746 	tsx
      000B6C 9D 58 01         [ 5] 2747 	sta	0x158,x
      000B6F A5*01            [ 3] 2748 	lda	*(REGTEMP+1)
      000B71 9D 57 01         [ 5] 2749 	sta	0x157,x
      000B74 A6*00            [ 3] 2750 	ldx	*(REGTEMP+0)
                                   2751 ;	Raw cost for generated ic 439 : (16, 26.000000) count=0.000000
                                   2752 ;	genMinus
                                   2753 ;	  genMinusDec - size=2  icount=4
      000B76 38               [ 2] 2754 	sec
      000B77 E9 04            [ 2] 2755 	sbc	#0x04
      000B79 B0 01            [ 4] 2756 	bcs	00865$
      000B7B CA               [ 2] 2757 	dex
      000B7C                       2758 00865$:
                                   2759 ;	Raw cost for generated ic 440 : (6, 8.600000) count=0.000000
                                   2760 ;	genPointerGet
                                   2761 ;	  setupDPTR - off=0 remat=(null) savea=0
      000B7C 85*00            [ 3] 2762 	sta	*(DPTR+0)
      000B7E 86*01            [ 3] 2763 	stx	*(DPTR+1)
      000B80 A0 00            [ 2] 2764 	ldy	#0x00
      000B82 B1*00            [ 6] 2765 	lda	[DPTR],y
      000B84 BA               [ 2] 2766 	tsx
      000B85 9D 10 01         [ 5] 2767 	sta	0x110,x
      000B88 C8               [ 2] 2768 	iny
      000B89 B1*00            [ 6] 2769 	lda	[DPTR],y
      000B8B 9D 11 01         [ 5] 2770 	sta	0x111,x
      000B8E C8               [ 2] 2771 	iny
      000B8F B1*00            [ 6] 2772 	lda	[DPTR],y
      000B91 9D 12 01         [ 5] 2773 	sta	0x112,x
      000B94 C8               [ 2] 2774 	iny
      000B95 B1*00            [ 6] 2775 	lda	[DPTR],y
      000B97 9D 13 01         [ 5] 2776 	sta	0x113,x
                                   2777 ;	Raw cost for generated ic 442 : (30, 56.000000) count=0.000000
                                   2778 ;	genPointerSet
                                   2779 ;	  setupDPTR - off=0 remat=(null) savea=0
      000B9A BD 14 01         [ 5] 2780 	lda	0x114,x
      000B9D 85*00            [ 3] 2781 	sta	*(DPTR+0)
      000B9F BD 15 01         [ 5] 2782 	lda	0x115,x
      000BA2 85*01            [ 3] 2783 	sta	*(DPTR+1)
      000BA4 BD 10 01         [ 5] 2784 	lda	0x110,x
      000BA7 A0 00            [ 2] 2785 	ldy	#0x00
      000BA9 91*00            [ 6] 2786 	sta	[DPTR],y
      000BAB BD 11 01         [ 5] 2787 	lda	0x111,x
      000BAE C8               [ 2] 2788 	iny
      000BAF 91*00            [ 6] 2789 	sta	[DPTR],y
      000BB1 BD 12 01         [ 5] 2790 	lda	0x112,x
      000BB4 C8               [ 2] 2791 	iny
      000BB5 91*00            [ 6] 2792 	sta	[DPTR],y
      000BB7 BD 13 01         [ 5] 2793 	lda	0x113,x
      000BBA C8               [ 2] 2794 	iny
      000BBB 91*00            [ 6] 2795 	sta	[DPTR],y
                                   2796 ;	Raw cost for generated ic 443 : (35, 62.000000) count=0.000000
                                   2797 ;	genGoto
      000BBD 4Cr7Er0C         [ 3] 2798 	jmp	00173$
                                   2799 ;	Raw cost for generated ic 444 : (3, 3.000000) count=0.000000
                                   2800 ;	genLabel
      000BC0                       2801 00169$:
                                   2802 ;	Raw cost for generated ic 445 : (0, 0.000000) count=0.000000
                                   2803 ;	../printf_large.c: 745: value.l = va_arg(ap, int);
                                   2804 ;	genCast
                                   2805 ;	genCopy
      000BC0 BA               [ 2] 2806 	tsx
      000BC1 BD 2D 01         [ 5] 2807 	lda	0x12d,x
      000BC4 9D 11 01         [ 5] 2808 	sta	0x111,x
      000BC7 BD 2C 01         [ 5] 2809 	lda	0x12c,x
      000BCA 9D 10 01         [ 5] 2810 	sta	0x110,x
                                   2811 ;	Raw cost for generated ic 447 : (13, 20.000000) count=0.000000
                                   2812 ;	genPlus
                                   2813 ;	  genPlusInc
      000BCD BD 57 01         [ 5] 2814 	lda	0x157,x
      000BD0 A8               [ 2] 2815 	tay
      000BD1 BD 58 01         [ 5] 2816 	lda	0x158,x
      000BD4 AA               [ 2] 2817 	tax
      000BD5 98               [ 2] 2818 	tya
      000BD6 18               [ 2] 2819 	clc
      000BD7 69 02            [ 2] 2820 	adc	#0x02
      000BD9 90 01            [ 4] 2821 	bcc	00866$
      000BDB E8               [ 2] 2822 	inx
      000BDC                       2823 00866$:
                                   2824 ;	Raw cost for generated ic 448 : (15, 22.600000) count=0.000000
                                   2825 ;	genAssign
                                   2826 ;	genCopy
      000BDC 86*00            [ 3] 2827 	stx	*(REGTEMP+0)
      000BDE 85*01            [ 3] 2828 	sta	*(REGTEMP+1)
      000BE0 8A               [ 2] 2829 	txa
      000BE1 BA               [ 2] 2830 	tsx
      000BE2 9D 58 01         [ 5] 2831 	sta	0x158,x
      000BE5 A5*01            [ 3] 2832 	lda	*(REGTEMP+1)
      000BE7 9D 57 01         [ 5] 2833 	sta	0x157,x
      000BEA A6*00            [ 3] 2834 	ldx	*(REGTEMP+0)
                                   2835 ;	Raw cost for generated ic 449 : (16, 26.000000) count=0.000000
                                   2836 ;	genMinus
                                   2837 ;	  genMinusDec - size=2  icount=2
      000BEC 38               [ 2] 2838 	sec
      000BED E9 02            [ 2] 2839 	sbc	#0x02
      000BEF B0 01            [ 4] 2840 	bcs	00867$
      000BF1 CA               [ 2] 2841 	dex
      000BF2                       2842 00867$:
                                   2843 ;	Raw cost for generated ic 450 : (6, 8.600000) count=0.000000
                                   2844 ;	genPointerGet
                                   2845 ;	  setupDPTR - off=0 remat=(null) savea=0
      000BF2 85*00            [ 3] 2846 	sta	*(DPTR+0)
      000BF4 86*01            [ 3] 2847 	stx	*(DPTR+1)
      000BF6 A0 00            [ 2] 2848 	ldy	#0x00
      000BF8 B1*00            [ 6] 2849 	lda	[DPTR],y
      000BFA BA               [ 2] 2850 	tsx
      000BFB 9D 14 01         [ 5] 2851 	sta	0x114,x
      000BFE C8               [ 2] 2852 	iny
      000BFF B1*00            [ 6] 2853 	lda	[DPTR],y
      000C01 9D 15 01         [ 5] 2854 	sta	0x115,x
                                   2855 ;	Raw cost for generated ic 452 : (18, 32.000000) count=0.000000
                                   2856 ;	genCast
      000C04 BD 14 01         [ 5] 2857 	lda	0x114,x
      000C07 9D 14 01         [ 5] 2858 	sta	0x114,x
      000C0A BD 15 01         [ 5] 2859 	lda	0x115,x
      000C0D 9D 15 01         [ 5] 2860 	sta	0x115,x
      000C10 0A               [ 2] 2861 	asl	a
      000C11 A9 00            [ 2] 2862 	lda	#0x00
      000C13 69 FF            [ 2] 2863 	adc	#0xff
      000C15 49 FF            [ 2] 2864 	eor	#0xff
      000C17 9D 16 01         [ 5] 2865 	sta	0x116,x
      000C1A 9D 17 01         [ 5] 2866 	sta	0x117,x
                                   2867 ;	Raw cost for generated ic 453 : (25, 36.000000) count=0.000000
                                   2868 ;	genPointerSet
                                   2869 ;	  setupDPTR - off=0 remat=(null) savea=0
      000C1D BD 10 01         [ 5] 2870 	lda	0x110,x
      000C20 85*00            [ 3] 2871 	sta	*(DPTR+0)
      000C22 BD 11 01         [ 5] 2872 	lda	0x111,x
      000C25 85*01            [ 3] 2873 	sta	*(DPTR+1)
      000C27 BD 14 01         [ 5] 2874 	lda	0x114,x
      000C2A 88               [ 2] 2875 	dey
      000C2B 91*00            [ 6] 2876 	sta	[DPTR],y
      000C2D BD 15 01         [ 5] 2877 	lda	0x115,x
      000C30 C8               [ 2] 2878 	iny
      000C31 91*00            [ 6] 2879 	sta	[DPTR],y
      000C33 BD 16 01         [ 5] 2880 	lda	0x116,x
      000C36 C8               [ 2] 2881 	iny
      000C37 91*00            [ 6] 2882 	sta	[DPTR],y
      000C39 BD 17 01         [ 5] 2883 	lda	0x117,x
      000C3C C8               [ 2] 2884 	iny
      000C3D 91*00            [ 6] 2885 	sta	[DPTR],y
                                   2886 ;	Raw cost for generated ic 454 : (34, 62.000000) count=0.000000
                                   2887 ;	../printf_large.c: 746: if (!signed_argument)
                                   2888 ;	genIfx
      000C3F BD 4A 01         [ 5] 2889 	lda	0x14a,x
                                   2890 ;	genIfxJump : z
      000C42 D0 3A            [ 4] 2891 	bne	00173$
                                   2892 ;	Raw cost for generated ic 455 : (8, 9.600000) count=0.000000
                                   2893 ;	../printf_large.c: 748: value.l &= 0xFFFF;
                                   2894 ;	genPointerGet
                                   2895 ;	  setupDPTR - off=0 remat=(null) savea=0
      000C44 A0 00            [ 2] 2896 	ldy	#0x00
      000C46 B1*00            [ 6] 2897 	lda	[DPTR],y
      000C48 9D 14 01         [ 5] 2898 	sta	0x114,x
      000C4B C8               [ 2] 2899 	iny
      000C4C B1*00            [ 6] 2900 	lda	[DPTR],y
      000C4E 9D 15 01         [ 5] 2901 	sta	0x115,x
      000C51 C8               [ 2] 2902 	iny
      000C52 B1*00            [ 6] 2903 	lda	[DPTR],y
      000C54 9D 16 01         [ 5] 2904 	sta	0x116,x
      000C57 C8               [ 2] 2905 	iny
      000C58 B1*00            [ 6] 2906 	lda	[DPTR],y
      000C5A 9D 17 01         [ 5] 2907 	sta	0x117,x
                                   2908 ;	Raw cost for generated ic 462 : (25, 48.000000) count=0.000000
                                   2909 ;	genAnd
      000C5D A9 00            [ 2] 2910 	lda	#0x00
      000C5F 9D 16 01         [ 5] 2911 	sta	0x116,x
      000C62 9D 17 01         [ 5] 2912 	sta	0x117,x
                                   2913 ;	Raw cost for generated ic 463 : (8, 12.000000) count=0.000000
                                   2914 ;	genPointerSet
                                   2915 ;	  setupDPTR - off=0 remat=(null) savea=0
      000C65 BD 14 01         [ 5] 2916 	lda	0x114,x
      000C68 A0 00            [ 2] 2917 	ldy	#0x00
      000C6A 91*00            [ 6] 2918 	sta	[DPTR],y
      000C6C BD 15 01         [ 5] 2919 	lda	0x115,x
      000C6F C8               [ 2] 2920 	iny
      000C70 91*00            [ 6] 2921 	sta	[DPTR],y
      000C72 BD 16 01         [ 5] 2922 	lda	0x116,x
      000C75 C8               [ 2] 2923 	iny
      000C76 91*00            [ 6] 2924 	sta	[DPTR],y
      000C78 BD 17 01         [ 5] 2925 	lda	0x117,x
      000C7B C8               [ 2] 2926 	iny
      000C7C 91*00            [ 6] 2927 	sta	[DPTR],y
                                   2928 ;	Raw cost for generated ic 464 : (25, 48.000000) count=0.000000
                                   2929 ;	genLabel
      000C7E                       2930 00173$:
                                   2931 ;	Raw cost for generated ic 467 : (0, 0.000000) count=0.000000
                                   2932 ;	../printf_large.c: 752: if ( signed_argument )
                                   2933 ;	genIfx
      000C7E BA               [ 2] 2934 	tsx
      000C7F BD 4A 01         [ 5] 2935 	lda	0x14a,x
                                   2936 ;	genIfxJump : z
      000C82 D0 03            [ 4] 2937 	bne	00871$
      000C84 4Cr1Ar0D         [ 3] 2938 	jmp	00178$
      000C87                       2939 00871$:
                                   2940 ;	Raw cost for generated ic 468 : (9, 11.600000) count=0.000000
                                   2941 ;	../printf_large.c: 754: if (value.l < 0)
                                   2942 ;	genCast
                                   2943 ;	genCopy
      000C87 BD 29 01         [ 5] 2944 	lda	0x129,x
      000C8A 9D 11 01         [ 5] 2945 	sta	0x111,x
      000C8D BD 28 01         [ 5] 2946 	lda	0x128,x
      000C90 9D 10 01         [ 5] 2947 	sta	0x110,x
                                   2948 ;	Raw cost for generated ic 472 : (12, 18.000000) count=0.000000
                                   2949 ;	genPointerGet
                                   2950 ;	  setupDPTR - off=0 remat=(null) savea=0
      000C93 85*00            [ 3] 2951 	sta	*(DPTR+0)
      000C95 BD 11 01         [ 5] 2952 	lda	0x111,x
      000C98 85*01            [ 3] 2953 	sta	*(DPTR+1)
      000C9A A0 00            [ 2] 2954 	ldy	#0x00
      000C9C B1*00            [ 6] 2955 	lda	[DPTR],y
      000C9E 9D 14 01         [ 5] 2956 	sta	0x114,x
      000CA1 C8               [ 2] 2957 	iny
      000CA2 B1*00            [ 6] 2958 	lda	[DPTR],y
      000CA4 9D 15 01         [ 5] 2959 	sta	0x115,x
      000CA7 C8               [ 2] 2960 	iny
      000CA8 B1*00            [ 6] 2961 	lda	[DPTR],y
      000CAA 9D 16 01         [ 5] 2962 	sta	0x116,x
      000CAD C8               [ 2] 2963 	iny
      000CAE B1*00            [ 6] 2964 	lda	[DPTR],y
      000CB0 9D 17 01         [ 5] 2965 	sta	0x117,x
                                   2966 ;	Raw cost for generated ic 473 : (32, 58.000000) count=0.000000
                                   2967 ;	genCmp
      000CB3 38               [ 2] 2968 	sec
      000CB4 E9 00            [ 2] 2969 	sbc	#0x00
      000CB6 50 04            [ 4] 2970 	bvc	00873$
      000CB8 10 04            [ 4] 2971 	bpl	00872$
      000CBA 30 58            [ 4] 2972 	bmi	00175$
      000CBC                       2973 00873$:
      000CBC 10 56            [ 4] 2974 	bpl	00175$
      000CBE                       2975 00872$:
                                   2976 ;	Raw cost for generated ic 474 : (14, 17.400000) count=0.000000
                                   2977 ;	skipping generated iCode
                                   2978 ;	Raw cost for generated ic 475 : (0, 0.000000) count=0.000000
                                   2979 ;	../printf_large.c: 755: value.l = -value.l;
                                   2980 ;	genPointerGet
                                   2981 ;	  setupDPTR - off=0 remat=(null) savea=0
      000CBE A0 00            [ 2] 2982 	ldy	#0x00
      000CC0 B1*00            [ 6] 2983 	lda	[DPTR],y
      000CC2 9D 14 01         [ 5] 2984 	sta	0x114,x
      000CC5 C8               [ 2] 2985 	iny
      000CC6 B1*00            [ 6] 2986 	lda	[DPTR],y
      000CC8 9D 15 01         [ 5] 2987 	sta	0x115,x
      000CCB C8               [ 2] 2988 	iny
      000CCC B1*00            [ 6] 2989 	lda	[DPTR],y
      000CCE 9D 16 01         [ 5] 2990 	sta	0x116,x
      000CD1 C8               [ 2] 2991 	iny
      000CD2 B1*00            [ 6] 2992 	lda	[DPTR],y
      000CD4 9D 17 01         [ 5] 2993 	sta	0x117,x
                                   2994 ;	Raw cost for generated ic 482 : (25, 48.000000) count=0.000000
                                   2995 ;	genUminus
      000CD7 A9 00            [ 2] 2996 	lda	#0x00
      000CD9 38               [ 2] 2997 	sec
      000CDA FD 14 01         [ 5] 2998 	sbc	0x114,x
      000CDD 9D 14 01         [ 5] 2999 	sta	0x114,x
      000CE0 A9 00            [ 2] 3000 	lda	#0x00
      000CE2 FD 15 01         [ 5] 3001 	sbc	0x115,x
      000CE5 9D 15 01         [ 5] 3002 	sta	0x115,x
      000CE8 A9 00            [ 2] 3003 	lda	#0x00
      000CEA FD 16 01         [ 5] 3004 	sbc	0x116,x
      000CED 9D 16 01         [ 5] 3005 	sta	0x116,x
      000CF0 A9 00            [ 2] 3006 	lda	#0x00
      000CF2 FD 17 01         [ 5] 3007 	sbc	0x117,x
      000CF5 9D 17 01         [ 5] 3008 	sta	0x117,x
                                   3009 ;	Raw cost for generated ic 483 : (33, 46.000000) count=0.000000
                                   3010 ;	genPointerSet
                                   3011 ;	  setupDPTR - off=0 remat=(null) savea=0
      000CF8 BD 14 01         [ 5] 3012 	lda	0x114,x
      000CFB A0 00            [ 2] 3013 	ldy	#0x00
      000CFD 91*00            [ 6] 3014 	sta	[DPTR],y
      000CFF BD 15 01         [ 5] 3015 	lda	0x115,x
      000D02 C8               [ 2] 3016 	iny
      000D03 91*00            [ 6] 3017 	sta	[DPTR],y
      000D05 BD 16 01         [ 5] 3018 	lda	0x116,x
      000D08 C8               [ 2] 3019 	iny
      000D09 91*00            [ 6] 3020 	sta	[DPTR],y
      000D0B BD 17 01         [ 5] 3021 	lda	0x117,x
      000D0E C8               [ 2] 3022 	iny
      000D0F 91*00            [ 6] 3023 	sta	[DPTR],y
                                   3024 ;	Raw cost for generated ic 484 : (25, 48.000000) count=0.000000
                                   3025 ;	genGoto
      000D11 4Cr1Ar0D         [ 3] 3026 	jmp	00178$
                                   3027 ;	Raw cost for generated ic 485 : (3, 3.000000) count=0.000000
                                   3028 ;	genLabel
      000D14                       3029 00175$:
                                   3030 ;	Raw cost for generated ic 486 : (0, 0.000000) count=0.000000
                                   3031 ;	../printf_large.c: 757: signed_argument = 0;
                                   3032 ;	genAssign
                                   3033 ;	genAssignLit
      000D14 A9 00            [ 2] 3034 	lda	#0x00
      000D16 BA               [ 2] 3035 	tsx
      000D17 9D 4A 01         [ 5] 3036 	sta	0x14a,x
                                   3037 ;	Raw cost for generated ic 487 : (6, 9.000000) count=0.000000
                                   3038 ;	genLabel
      000D1A                       3039 00178$:
                                   3040 ;	Raw cost for generated ic 489 : (0, 0.000000) count=0.000000
                                   3041 ;	../printf_large.c: 761: lsd = 1;
                                   3042 ;	genAssign
                                   3043 ;	genAssignLit
      000D1A A9 01            [ 2] 3044 	lda	#0x01
      000D1C BA               [ 2] 3045 	tsx
      000D1D 9D 43 01         [ 5] 3046 	sta	0x143,x
                                   3047 ;	Raw cost for generated ic 491 : (6, 9.000000) count=0.000000
                                   3048 ;	../printf_large.c: 763: do {
                                   3049 ;	genAssign
                                   3050 ;	genCopy
      000D20 BD 19 01         [ 5] 3051 	lda	0x119,x
      000D23 9D 11 01         [ 5] 3052 	sta	0x111,x
      000D26 BD 18 01         [ 5] 3053 	lda	0x118,x
      000D29 9D 10 01         [ 5] 3054 	sta	0x110,x
                                   3055 ;	Raw cost for generated ic 778 : (12, 18.000000) count=0.000000
                                   3056 ;	genAssign
                                   3057 ;	genAssignLit
      000D2C A9 00            [ 2] 3058 	lda	#0x00
      000D2E 9D 14 01         [ 5] 3059 	sta	0x114,x
      000D31 9D 15 01         [ 5] 3060 	sta	0x115,x
                                   3061 ;	Raw cost for generated ic 781 : (8, 12.000000) count=0.000000
                                   3062 ;	genLabel
      000D34                       3063 00182$:
                                   3064 ;	Raw cost for generated ic 492 : (0, 0.000000) count=0.000000
                                   3065 ;	../printf_large.c: 764: value.byte[4] = 0;
                                   3066 ;	genAssign
                                   3067 ;	genCopy
      000D34 BA               [ 2] 3068 	tsx
      000D35 BD 27 01         [ 5] 3069 	lda	0x127,x
      000D38 9D 19 01         [ 5] 3070 	sta	0x119,x
      000D3B BD 26 01         [ 5] 3071 	lda	0x126,x
      000D3E 9D 18 01         [ 5] 3072 	sta	0x118,x
                                   3073 ;	Raw cost for generated ic 495 : (13, 20.000000) count=0.000000
                                   3074 ;	genPointerSet
                                   3075 ;	  setupDPTR - off=4 remat=(null) savea=0
      000D41 85*00            [ 3] 3076 	sta	*(DPTR+0)
      000D43 BD 19 01         [ 5] 3077 	lda	0x119,x
      000D46 85*01            [ 3] 3078 	sta	*(DPTR+1)
      000D48 A9 00            [ 2] 3079 	lda	#0x00
      000D4A A0 04            [ 2] 3080 	ldy	#0x04
      000D4C 91*00            [ 6] 3081 	sta	[DPTR],y
                                   3082 ;	Raw cost for generated ic 496 : (13, 20.000000) count=0.000000
                                   3083 ;	../printf_large.c: 766: calculate_digit(&value, radix);
                                   3084 ;	genCast
                                   3085 ;	genCopy
      000D4E BD 27 01         [ 5] 3086 	lda	0x127,x
      000D51 9D 1D 01         [ 5] 3087 	sta	0x11d,x
      000D54 BD 26 01         [ 5] 3088 	lda	0x126,x
      000D57 9D 1C 01         [ 5] 3089 	sta	0x11c,x
                                   3090 ;	Raw cost for generated ic 498 : (12, 18.000000) count=0.000000
                                   3091 ;	genIpush
      000D5A BD 42 01         [ 5] 3092 	lda	0x142,x
      000D5D 48               [ 3] 3093 	pha
                                   3094 ;	Raw cost for generated ic 499 : (4, 7.000000) count=0.000000
                                   3095 ;	Raw cost for generated ic 500 : (0, 0.000000) count=0.000000
                                   3096 ;	genCall
                                   3097 ;	genSend
      000D5E BD 1C 01         [ 5] 3098 	lda	0x11c,x
      000D61 A8               [ 2] 3099 	tay
      000D62 BD 1D 01         [ 5] 3100 	lda	0x11d,x
      000D65 AA               [ 2] 3101 	tax
      000D66 98               [ 2] 3102 	tya
      000D67 20rA2r00         [ 6] 3103 	jsr	_calculate_digit
                                   3104 ;	  adjustStack : cycles stk:10  incdec:12  adc:24
      000D6A 85*00            [ 3] 3105 	sta	*(REGTEMP+0)
      000D6C 68               [ 4] 3106 	pla
                                   3107 ;	Raw cost for generated ic 501 : (17, 30.000000) count=0.000000
                                   3108 ;	../printf_large.c: 770: if (!lsd)
                                   3109 ;	genIfx
      000D6D BA               [ 2] 3110 	tsx 
      000D6E BD 43 01         [ 5] 3111 	lda	0x143,x
                                   3112 ;	genIfxJump : z
      000D71 D0 4C            [ 4] 3113 	bne	00180$
                                   3114 ;	Raw cost for generated ic 502 : (9, 11.600000) count=0.000000
                                   3115 ;	../printf_large.c: 772: *pstore = (value.byte[4] << 4) | (value.byte[4] >> 4) | *pstore;
                                   3116 ;	genPointerGet
                                   3117 ;	  setupDPTR - off=4 remat=(null) savea=0
      000D73 BD 18 01         [ 5] 3118 	lda	0x118,x
      000D76 85*00            [ 3] 3119 	sta	*(DPTR+0)
      000D78 BD 19 01         [ 5] 3120 	lda	0x119,x
      000D7B 85*01            [ 3] 3121 	sta	*(DPTR+1)
      000D7D A0 04            [ 2] 3122 	ldy	#0x04
      000D7F B1*00            [ 6] 3123 	lda	[DPTR],y
                                   3124 ;	Raw cost for generated ic 509 : (14, 21.000000) count=0.000000
                                   3125 ;	genLeftShift
                                   3126 ;	genLeftShiftLiteral
                                   3127 ;	  genlsh8 - shift=4
      000D81 0A               [ 2] 3128 	asl	a
      000D82 0A               [ 2] 3129 	asl	a
      000D83 0A               [ 2] 3130 	asl	a
      000D84 0A               [ 2] 3131 	asl	a
      000D85 AA               [ 2] 3132 	tax
                                   3133 ;	Raw cost for generated ic 510 : (5, 10.000000) count=0.000000
                                   3134 ;	genPointerGet
      000D86 86*00            [ 3] 3135 	stx	*(REGTEMP+0)
                                   3136 ;	  setupDPTR - off=4 remat=(null) savea=0
      000D88 B1*00            [ 6] 3137 	lda	[DPTR],y
      000D8A A6*00            [ 3] 3138 	ldx	*(REGTEMP+0)
                                   3139 ;	Raw cost for generated ic 514 : (6, 11.000000) count=0.000000
                                   3140 ;	genRightShift
                                   3141 ;	genRightShiftLiteral
                                   3142 ;	  genrsh8 - shift=4
      000D8C 4A               [ 2] 3143 	lsr	a
      000D8D 4A               [ 2] 3144 	lsr	a
      000D8E 4A               [ 2] 3145 	lsr	a
      000D8F 4A               [ 2] 3146 	lsr	a
                                   3147 ;	Raw cost for generated ic 515 : (4, 8.000000) count=0.000000
                                   3148 ;	genOr
      000D90 86*00            [ 3] 3149 	stx	*(REGTEMP+0)
      000D92 05*00            [ 3] 3150 	ora	*(REGTEMP+0)
      000D94 BA               [ 2] 3151 	tsx
      000D95 9D 1C 01         [ 5] 3152 	sta	0x11c,x
                                   3153 ;	Raw cost for generated ic 516 : (8, 13.000000) count=0.000000
                                   3154 ;	genPointerGet
                                   3155 ;	  setupDPTR - off=0 remat=(null) savea=0
      000D98 BD 10 01         [ 5] 3156 	lda	0x110,x
      000D9B 85*00            [ 3] 3157 	sta	*(DPTR+0)
      000D9D BD 11 01         [ 5] 3158 	lda	0x111,x
      000DA0 85*01            [ 3] 3159 	sta	*(DPTR+1)
      000DA2 A0 00            [ 2] 3160 	ldy	#0x00
      000DA4 B1*00            [ 6] 3161 	lda	[DPTR],y
                                   3162 ;	Raw cost for generated ic 518 : (14, 21.000000) count=0.000000
                                   3163 ;	genOr
      000DA6 1D 1C 01         [ 5] 3164 	ora	0x11c,x
                                   3165 ;	Raw cost for generated ic 519 : (3, 4.000000) count=0.000000
                                   3166 ;	genPointerSet
                                   3167 ;	  setupDPTR - off=0 remat=(null) savea=0
      000DA9 91*00            [ 6] 3168 	sta	[DPTR],y
                                   3169 ;	Raw cost for generated ic 520 : (2, 6.000000) count=0.000000
                                   3170 ;	../printf_large.c: 773: pstore--;
                                   3171 ;	genMinus
                                   3172 ;	  genMinusDec - size=2  icount=1
      000DAB BD 10 01         [ 5] 3173 	lda	0x110,x
      000DAE 38               [ 2] 3174 	sec
      000DAF E9 01            [ 2] 3175 	sbc	#0x01
      000DB1 9D 10 01         [ 5] 3176 	sta	0x110,x
      000DB4 BD 11 01         [ 5] 3177 	lda	0x111,x
      000DB7 E9 00            [ 2] 3178 	sbc	#0x00
      000DB9 9D 11 01         [ 5] 3179 	sta	0x111,x
                                   3180 ;	Raw cost for generated ic 522 : (17, 24.000000) count=0.000000
                                   3181 ;	genGoto
      000DBC 4CrE5r0D         [ 3] 3182 	jmp	00181$
                                   3183 ;	Raw cost for generated ic 524 : (3, 3.000000) count=0.000000
                                   3184 ;	genLabel
      000DBF                       3185 00180$:
                                   3186 ;	Raw cost for generated ic 525 : (0, 0.000000) count=0.000000
                                   3187 ;	../printf_large.c: 777: *pstore = value.byte[4];
                                   3188 ;	genPointerGet
                                   3189 ;	  setupDPTR - off=4 remat=(null) savea=0
      000DBF BA               [ 2] 3190 	tsx
      000DC0 BD 18 01         [ 5] 3191 	lda	0x118,x
      000DC3 85*00            [ 3] 3192 	sta	*(DPTR+0)
      000DC5 BD 19 01         [ 5] 3193 	lda	0x119,x
      000DC8 85*01            [ 3] 3194 	sta	*(DPTR+1)
      000DCA A0 04            [ 2] 3195 	ldy	#0x04
      000DCC B1*00            [ 6] 3196 	lda	[DPTR],y
      000DCE AA               [ 2] 3197 	tax
                                   3198 ;	Raw cost for generated ic 530 : (16, 25.000000) count=0.000000
                                   3199 ;	genPointerSet
      000DCF 86*00            [ 3] 3200 	stx	*(REGTEMP+0)
                                   3201 ;	  setupDPTR - off=0 remat=(null) savea=0
      000DD1 BA               [ 2] 3202 	tsx
      000DD2 BD 10 01         [ 5] 3203 	lda	0x110,x
      000DD5 85*00            [ 3] 3204 	sta	*(DPTR+0)
      000DD7 BD 11 01         [ 5] 3205 	lda	0x111,x
      000DDA 85*01            [ 3] 3206 	sta	*(DPTR+1)
      000DDC A6*00            [ 3] 3207 	ldx	*(REGTEMP+0)
      000DDE 8A               [ 2] 3208 	txa
      000DDF A0 00            [ 2] 3209 	ldy	#0x00
      000DE1 91*00            [ 6] 3210 	sta	[DPTR],y
      000DE3 A6*00            [ 3] 3211 	ldx	*(REGTEMP+0)
                                   3212 ;	Raw cost for generated ic 531 : (22, 35.000000) count=0.000000
                                   3213 ;	genLabel
      000DE5                       3214 00181$:
                                   3215 ;	Raw cost for generated ic 532 : (0, 0.000000) count=0.000000
                                   3216 ;	../printf_large.c: 779: length++;
                                   3217 ;	genPlus
                                   3218 ;	  genPlusInc
      000DE5 BA               [ 2] 3219 	tsx
      000DE6 BD 14 01         [ 5] 3220 	lda	0x114,x
      000DE9 18               [ 2] 3221 	clc
      000DEA 69 01            [ 2] 3222 	adc	#0x01
      000DEC 9D 14 01         [ 5] 3223 	sta	0x114,x
      000DEF BD 15 01         [ 5] 3224 	lda	0x115,x
      000DF2 69 00            [ 2] 3225 	adc	#0x00
      000DF4 9D 15 01         [ 5] 3226 	sta	0x115,x
                                   3227 ;	Raw cost for generated ic 534 : (18, 26.000000) count=0.000000
                                   3228 ;	../printf_large.c: 780: lsd = !lsd;
                                   3229 ;	genNot
      000DF7 BD 43 01         [ 5] 3230 	lda	0x143,x
      000DFA 49 01            [ 2] 3231 	eor	#0x01
      000DFC 9D 43 01         [ 5] 3232 	sta	0x143,x
                                   3233 ;	Raw cost for generated ic 536 : (8, 11.000000) count=0.000000
                                   3234 ;	../printf_large.c: 781: } while( value.ul );
                                   3235 ;	genPointerGet
                                   3236 ;	  setupDPTR - off=0 remat=(null) savea=0
      000DFF BD 26 01         [ 5] 3237 	lda	0x126,x
      000E02 85*00            [ 3] 3238 	sta	*(DPTR+0)
      000E04 BD 27 01         [ 5] 3239 	lda	0x127,x
      000E07 85*01            [ 3] 3240 	sta	*(DPTR+1)
      000E09 A0 00            [ 2] 3241 	ldy	#0x00
      000E0B B1*00            [ 6] 3242 	lda	[DPTR],y
      000E0D 9D 0C 01         [ 5] 3243 	sta	0x10c,x
      000E10 C8               [ 2] 3244 	iny
      000E11 B1*00            [ 6] 3245 	lda	[DPTR],y
      000E13 9D 0D 01         [ 5] 3246 	sta	0x10d,x
      000E16 C8               [ 2] 3247 	iny
      000E17 B1*00            [ 6] 3248 	lda	[DPTR],y
      000E19 9D 0E 01         [ 5] 3249 	sta	0x10e,x
      000E1C C8               [ 2] 3250 	iny
      000E1D B1*00            [ 6] 3251 	lda	[DPTR],y
      000E1F 9D 0F 01         [ 5] 3252 	sta	0x10f,x
                                   3253 ;	Raw cost for generated ic 541 : (35, 62.000000) count=0.000000
                                   3254 ;	genIfx
      000E22 1D 0E 01         [ 5] 3255 	ora	0x10e,x
      000E25 1D 0D 01         [ 5] 3256 	ora	0x10d,x
      000E28 1D 0C 01         [ 5] 3257 	ora	0x10c,x
                                   3258 ;	genIfxJump : z
      000E2B F0 03            [ 4] 3259 	beq	00879$
      000E2D 4Cr34r0D         [ 3] 3260 	jmp	00182$
      000E30                       3261 00879$:
                                   3262 ;	Raw cost for generated ic 542 : (14, 17.600000) count=0.000000
                                   3263 ;	../printf_large.c: 783: if (width == 0)
                                   3264 ;	genAssign
                                   3265 ;	genCopy
      000E30 BD 11 01         [ 5] 3266 	lda	0x111,x
      000E33 9D 3B 01         [ 5] 3267 	sta	0x13b,x
      000E36 BD 10 01         [ 5] 3268 	lda	0x110,x
      000E39 9D 3A 01         [ 5] 3269 	sta	0x13a,x
                                   3270 ;	Raw cost for generated ic 780 : (12, 18.000000) count=0.000000
                                   3271 ;	genAssign
                                   3272 ;	genCopy
      000E3C BD 15 01         [ 5] 3273 	lda	0x115,x
      000E3F 9D 3D 01         [ 5] 3274 	sta	0x13d,x
      000E42 BD 14 01         [ 5] 3275 	lda	0x114,x
      000E45 9D 3C 01         [ 5] 3276 	sta	0x13c,x
                                   3277 ;	Raw cost for generated ic 782 : (12, 18.000000) count=0.000000
                                   3278 ;	genIfx
      000E48 BD 41 01         [ 5] 3279 	lda	0x141,x
      000E4B 1D 40 01         [ 5] 3280 	ora	0x140,x
                                   3281 ;	genIfxJump : z
      000E4E D0 0A            [ 4] 3282 	bne	00186$
                                   3283 ;	Raw cost for generated ic 545 : (11, 13.600000) count=0.000000
                                   3284 ;	../printf_large.c: 788: width = 1;
                                   3285 ;	genAssign
                                   3286 ;	genAssignLit
      000E50 A9 01            [ 2] 3287 	lda	#0x01
      000E52 9D 40 01         [ 5] 3288 	sta	0x140,x
      000E55 A9 00            [ 2] 3289 	lda	#0x00
      000E57 9D 41 01         [ 5] 3290 	sta	0x141,x
                                   3291 ;	Raw cost for generated ic 548 : (10, 14.000000) count=0.000000
                                   3292 ;	genLabel
      000E5A                       3293 00186$:
                                   3294 ;	Raw cost for generated ic 549 : (0, 0.000000) count=0.000000
                                   3295 ;	../printf_large.c: 792: if (!zero_padding && !left_justify)
                                   3296 ;	genIfx
      000E5A BA               [ 2] 3297 	tsx
      000E5B BD 4D 01         [ 5] 3298 	lda	0x14d,x
                                   3299 ;	genIfxJump : z
      000E5E F0 03            [ 4] 3300 	beq	00883$
      000E60 4CrFAr0E         [ 3] 3301 	jmp	00191$
      000E63                       3302 00883$:
                                   3303 ;	Raw cost for generated ic 550 : (9, 11.600000) count=0.000000
                                   3304 ;	genIfx
      000E63 BD 4E 01         [ 5] 3305 	lda	0x14e,x
                                   3306 ;	genIfxJump : z
      000E66 F0 03            [ 4] 3307 	beq	00885$
      000E68 4CrFAr0E         [ 3] 3308 	jmp	00191$
      000E6B                       3309 00885$:
                                   3310 ;	Raw cost for generated ic 553 : (8, 9.600000) count=0.000000
                                   3311 ;	../printf_large.c: 794: while ( width > (unsigned char) (length+1) )
                                   3312 ;	genAssign
                                   3313 ;	genCopy
      000E6B BD 39 01         [ 5] 3314 	lda	0x139,x
      000E6E 9D 0D 01         [ 5] 3315 	sta	0x10d,x
      000E71 BD 38 01         [ 5] 3316 	lda	0x138,x
      000E74 9D 0C 01         [ 5] 3317 	sta	0x10c,x
                                   3318 ;	Raw cost for generated ic 783 : (12, 18.000000) count=0.000000
                                   3319 ;	genAssign
                                   3320 ;	genCopy
      000E77 BD 41 01         [ 5] 3321 	lda	0x141,x
      000E7A 9D 11 01         [ 5] 3322 	sta	0x111,x
      000E7D BD 40 01         [ 5] 3323 	lda	0x140,x
      000E80 9D 10 01         [ 5] 3324 	sta	0x110,x
                                   3325 ;	Raw cost for generated ic 786 : (12, 18.000000) count=0.000000
                                   3326 ;	genLabel
      000E83                       3327 00187$:
                                   3328 ;	Raw cost for generated ic 556 : (0, 0.000000) count=0.000000
                                   3329 ;	genCast
                                   3330 ;	genCopy
      000E83 BA               [ 2] 3331 	tsx
      000E84 BD 3C 01         [ 5] 3332 	lda	0x13c,x
                                   3333 ;	Raw cost for generated ic 557 : (4, 6.000000) count=0.000000
                                   3334 ;	genCast
                                   3335 ;	genCopy
                                   3336 ;	Raw cost for generated ic 558 : (0, 0.000000) count=0.000000
                                   3337 ;	genPlus
                                   3338 ;	  genPlusInc
      000E87 18               [ 2] 3339 	clc
      000E88 69 01            [ 2] 3340 	adc	#0x01
                                   3341 ;	Raw cost for generated ic 559 : (3, 4.000000) count=0.000000
                                   3342 ;	genCast
                                   3343 ;	genCopy
                                   3344 ;	Raw cost for generated ic 560 : (0, 0.000000) count=0.000000
                                   3345 ;	genCast
      000E8A 9D 14 01         [ 5] 3346 	sta	0x114,x
      000E8D A9 00            [ 2] 3347 	lda	#0x00
      000E8F 9D 15 01         [ 5] 3348 	sta	0x115,x
                                   3349 ;	Raw cost for generated ic 561 : (8, 12.000000) count=0.000000
                                   3350 ;	genCmp
      000E92 BD 14 01         [ 5] 3351 	lda	0x114,x
      000E95 38               [ 2] 3352 	sec
      000E96 FD 10 01         [ 5] 3353 	sbc	0x110,x
      000E99 BD 15 01         [ 5] 3354 	lda	0x115,x
      000E9C FD 11 01         [ 5] 3355 	sbc	0x111,x
      000E9F B0 40            [ 4] 3356 	bcs	00316$
                                   3357 ;	Raw cost for generated ic 562 : (18, 23.600000) count=0.000000
                                   3358 ;	skipping generated iCode
                                   3359 ;	Raw cost for generated ic 563 : (0, 0.000000) count=0.000000
                                   3360 ;	../printf_large.c: 796: OUTPUT_CHAR( ' ', p );
                                   3361 ;	genIpush
      000EA1 BD 54 01         [ 5] 3362 	lda	0x154,x
      000EA4 48               [ 3] 3363 	pha
      000EA5 BD 53 01         [ 5] 3364 	lda	0x153,x
      000EA8 48               [ 3] 3365 	pha
                                   3366 ;	Raw cost for generated ic 566 : (8, 14.000000) count=0.000000
                                   3367 ;	Raw cost for generated ic 567 : (0, 0.000000) count=0.000000
                                   3368 ;	genPcall
      000EA9 BD 4F 01         [ 5] 3369 	lda	0x14f,x
      000EAC 85*00            [ 3] 3370 	sta	*(REGTEMP+0)
      000EAE BD 50 01         [ 5] 3371 	lda	0x150,x
      000EB1 85*01            [ 3] 3372 	sta	*(REGTEMP+1)
                                   3373 ;	genSend
      000EB3 A9 20            [ 2] 3374 	lda	#0x20
      000EB5 20r00r00         [ 6] 3375 	jsr	__sdcc_indirect_jsr
                                   3376 ;	  adjustStack : cycles stk:14  incdec:8  adc:18
      000EB8 BA               [ 2] 3377 	tsx
      000EB9 E8               [ 2] 3378 	inx
      000EBA E8               [ 2] 3379 	inx
      000EBB 9A               [ 2] 3380 	txs
                                   3381 ;	Raw cost for generated ic 568 : (19, 30.000000) count=0.000000
                                   3382 ;	genPlus
                                   3383 ;	  genPlusInc
      000EBC BD 0C 01         [ 5] 3384 	lda	0x10c,x
      000EBF 18               [ 2] 3385 	clc
      000EC0 69 01            [ 2] 3386 	adc	#0x01
      000EC2 9D 0C 01         [ 5] 3387 	sta	0x10c,x
      000EC5 BD 0D 01         [ 5] 3388 	lda	0x10d,x
      000EC8 69 00            [ 2] 3389 	adc	#0x00
      000ECA 9D 0D 01         [ 5] 3390 	sta	0x10d,x
                                   3391 ;	Raw cost for generated ic 570 : (17, 24.000000) count=0.000000
                                   3392 ;	../printf_large.c: 797: width--;
                                   3393 ;	genMinus
                                   3394 ;	  genMinusDec - size=2  icount=1
      000ECD BD 10 01         [ 5] 3395 	lda	0x110,x
      000ED0 38               [ 2] 3396 	sec
      000ED1 E9 01            [ 2] 3397 	sbc	#0x01
      000ED3 9D 10 01         [ 5] 3398 	sta	0x110,x
      000ED6 BD 11 01         [ 5] 3399 	lda	0x111,x
      000ED9 E9 00            [ 2] 3400 	sbc	#0x00
      000EDB 9D 11 01         [ 5] 3401 	sta	0x111,x
                                   3402 ;	Raw cost for generated ic 573 : (17, 24.000000) count=0.000000
                                   3403 ;	genGoto
      000EDE 4Cr83r0E         [ 3] 3404 	jmp	00187$
                                   3405 ;	Raw cost for generated ic 575 : (3, 3.000000) count=0.000000
                                   3406 ;	genLabel
      000EE1                       3407 00316$:
                                   3408 ;	Raw cost for generated ic 784 : (0, 0.000000) count=0.000000
                                   3409 ;	genAssign
                                   3410 ;	genCopy
      000EE1 BA               [ 2] 3411 	tsx
      000EE2 BD 0D 01         [ 5] 3412 	lda	0x10d,x
      000EE5 9D 39 01         [ 5] 3413 	sta	0x139,x
      000EE8 BD 0C 01         [ 5] 3414 	lda	0x10c,x
      000EEB 9D 38 01         [ 5] 3415 	sta	0x138,x
                                   3416 ;	Raw cost for generated ic 785 : (13, 20.000000) count=0.000000
                                   3417 ;	genAssign
                                   3418 ;	genCopy
      000EEE BD 11 01         [ 5] 3419 	lda	0x111,x
      000EF1 9D 41 01         [ 5] 3420 	sta	0x141,x
      000EF4 BD 10 01         [ 5] 3421 	lda	0x110,x
      000EF7 9D 40 01         [ 5] 3422 	sta	0x140,x
                                   3423 ;	Raw cost for generated ic 787 : (12, 18.000000) count=0.000000
                                   3424 ;	genLabel
      000EFA                       3425 00191$:
                                   3426 ;	Raw cost for generated ic 577 : (0, 0.000000) count=0.000000
                                   3427 ;	../printf_large.c: 801: if (signed_argument) // this now means the original value was negative
                                   3428 ;	genIfx
      000EFA BA               [ 2] 3429 	tsx
      000EFB BD 4A 01         [ 5] 3430 	lda	0x14a,x
                                   3431 ;	genIfxJump : z
      000EFE F0 40            [ 4] 3432 	beq	00201$
                                   3433 ;	Raw cost for generated ic 578 : (9, 11.600000) count=0.000000
                                   3434 ;	../printf_large.c: 803: OUTPUT_CHAR( '-', p );
                                   3435 ;	genIpush
      000F00 BD 54 01         [ 5] 3436 	lda	0x154,x
      000F03 48               [ 3] 3437 	pha
      000F04 BD 53 01         [ 5] 3438 	lda	0x153,x
      000F07 48               [ 3] 3439 	pha
                                   3440 ;	Raw cost for generated ic 581 : (8, 14.000000) count=0.000000
                                   3441 ;	Raw cost for generated ic 582 : (0, 0.000000) count=0.000000
                                   3442 ;	genPcall
      000F08 BD 4F 01         [ 5] 3443 	lda	0x14f,x
      000F0B 85*00            [ 3] 3444 	sta	*(REGTEMP+0)
      000F0D BD 50 01         [ 5] 3445 	lda	0x150,x
      000F10 85*01            [ 3] 3446 	sta	*(REGTEMP+1)
                                   3447 ;	genSend
      000F12 A9 2D            [ 2] 3448 	lda	#0x2d
      000F14 20r00r00         [ 6] 3449 	jsr	__sdcc_indirect_jsr
                                   3450 ;	  adjustStack : cycles stk:14  incdec:8  adc:18
      000F17 BA               [ 2] 3451 	tsx
      000F18 E8               [ 2] 3452 	inx
      000F19 E8               [ 2] 3453 	inx
      000F1A 9A               [ 2] 3454 	txs
                                   3455 ;	Raw cost for generated ic 583 : (19, 30.000000) count=0.000000
                                   3456 ;	genPlus
                                   3457 ;	  genPlusInc
      000F1B BD 38 01         [ 5] 3458 	lda	0x138,x
      000F1E 18               [ 2] 3459 	clc
      000F1F 69 01            [ 2] 3460 	adc	#0x01
      000F21 9D 38 01         [ 5] 3461 	sta	0x138,x
      000F24 BD 39 01         [ 5] 3462 	lda	0x139,x
      000F27 69 00            [ 2] 3463 	adc	#0x00
      000F29 9D 39 01         [ 5] 3464 	sta	0x139,x
                                   3465 ;	Raw cost for generated ic 585 : (17, 24.000000) count=0.000000
                                   3466 ;	../printf_large.c: 805: width--;
                                   3467 ;	genMinus
                                   3468 ;	  genMinusDec - size=2  icount=1
      000F2C BD 40 01         [ 5] 3469 	lda	0x140,x
      000F2F 38               [ 2] 3470 	sec
      000F30 E9 01            [ 2] 3471 	sbc	#0x01
      000F32 9D 40 01         [ 5] 3472 	sta	0x140,x
      000F35 BD 41 01         [ 5] 3473 	lda	0x141,x
      000F38 E9 00            [ 2] 3474 	sbc	#0x00
      000F3A 9D 41 01         [ 5] 3475 	sta	0x141,x
                                   3476 ;	Raw cost for generated ic 588 : (17, 24.000000) count=0.000000
                                   3477 ;	genGoto
      000F3D 4CrD4r0F         [ 3] 3478 	jmp	00202$
                                   3479 ;	Raw cost for generated ic 590 : (3, 3.000000) count=0.000000
                                   3480 ;	genLabel
      000F40                       3481 00201$:
                                   3482 ;	Raw cost for generated ic 591 : (0, 0.000000) count=0.000000
                                   3483 ;	../printf_large.c: 807: else if (length != 0)
                                   3484 ;	genIfx
      000F40 BA               [ 2] 3485 	tsx
      000F41 BD 3D 01         [ 5] 3486 	lda	0x13d,x
      000F44 1D 3C 01         [ 5] 3487 	ora	0x13c,x
                                   3488 ;	genIfxJump : z
      000F47 D0 03            [ 4] 3489 	bne	00890$
      000F49 4CrD4r0F         [ 3] 3490 	jmp	00202$
      000F4C                       3491 00890$:
                                   3492 ;	Raw cost for generated ic 592 : (12, 15.600000) count=0.000000
                                   3493 ;	../printf_large.c: 810: if (prefix_sign)
                                   3494 ;	genIfx
      000F4C BD 4C 01         [ 5] 3495 	lda	0x14c,x
                                   3496 ;	genIfxJump : z
      000F4F F0 40            [ 4] 3497 	beq	00196$
                                   3498 ;	Raw cost for generated ic 595 : (8, 9.600000) count=0.000000
                                   3499 ;	../printf_large.c: 812: OUTPUT_CHAR( '+', p );
                                   3500 ;	genIpush
      000F51 BD 54 01         [ 5] 3501 	lda	0x154,x
      000F54 48               [ 3] 3502 	pha
      000F55 BD 53 01         [ 5] 3503 	lda	0x153,x
      000F58 48               [ 3] 3504 	pha
                                   3505 ;	Raw cost for generated ic 598 : (8, 14.000000) count=0.000000
                                   3506 ;	Raw cost for generated ic 599 : (0, 0.000000) count=0.000000
                                   3507 ;	genPcall
      000F59 BD 4F 01         [ 5] 3508 	lda	0x14f,x
      000F5C 85*00            [ 3] 3509 	sta	*(REGTEMP+0)
      000F5E BD 50 01         [ 5] 3510 	lda	0x150,x
      000F61 85*01            [ 3] 3511 	sta	*(REGTEMP+1)
                                   3512 ;	genSend
      000F63 A9 2B            [ 2] 3513 	lda	#0x2b
      000F65 20r00r00         [ 6] 3514 	jsr	__sdcc_indirect_jsr
                                   3515 ;	  adjustStack : cycles stk:14  incdec:8  adc:18
      000F68 BA               [ 2] 3516 	tsx
      000F69 E8               [ 2] 3517 	inx
      000F6A E8               [ 2] 3518 	inx
      000F6B 9A               [ 2] 3519 	txs
                                   3520 ;	Raw cost for generated ic 600 : (19, 30.000000) count=0.000000
                                   3521 ;	genPlus
                                   3522 ;	  genPlusInc
      000F6C BD 38 01         [ 5] 3523 	lda	0x138,x
      000F6F 18               [ 2] 3524 	clc
      000F70 69 01            [ 2] 3525 	adc	#0x01
      000F72 9D 38 01         [ 5] 3526 	sta	0x138,x
      000F75 BD 39 01         [ 5] 3527 	lda	0x139,x
      000F78 69 00            [ 2] 3528 	adc	#0x00
      000F7A 9D 39 01         [ 5] 3529 	sta	0x139,x
                                   3530 ;	Raw cost for generated ic 602 : (17, 24.000000) count=0.000000
                                   3531 ;	../printf_large.c: 814: width--;
                                   3532 ;	genMinus
                                   3533 ;	  genMinusDec - size=2  icount=1
      000F7D BD 40 01         [ 5] 3534 	lda	0x140,x
      000F80 38               [ 2] 3535 	sec
      000F81 E9 01            [ 2] 3536 	sbc	#0x01
      000F83 9D 40 01         [ 5] 3537 	sta	0x140,x
      000F86 BD 41 01         [ 5] 3538 	lda	0x141,x
      000F89 E9 00            [ 2] 3539 	sbc	#0x00
      000F8B 9D 41 01         [ 5] 3540 	sta	0x141,x
                                   3541 ;	Raw cost for generated ic 605 : (17, 24.000000) count=0.000000
                                   3542 ;	genGoto
      000F8E 4CrD4r0F         [ 3] 3543 	jmp	00202$
                                   3544 ;	Raw cost for generated ic 607 : (3, 3.000000) count=0.000000
                                   3545 ;	genLabel
      000F91                       3546 00196$:
                                   3547 ;	Raw cost for generated ic 608 : (0, 0.000000) count=0.000000
                                   3548 ;	../printf_large.c: 816: else if (prefix_space)
                                   3549 ;	genIfx
      000F91 BA               [ 2] 3550 	tsx
      000F92 BD 4B 01         [ 5] 3551 	lda	0x14b,x
                                   3552 ;	genIfxJump : z
      000F95 F0 3D            [ 4] 3553 	beq	00202$
                                   3554 ;	Raw cost for generated ic 609 : (9, 11.600000) count=0.000000
                                   3555 ;	../printf_large.c: 818: OUTPUT_CHAR( ' ', p );
                                   3556 ;	genIpush
      000F97 BD 54 01         [ 5] 3557 	lda	0x154,x
      000F9A 48               [ 3] 3558 	pha
      000F9B BD 53 01         [ 5] 3559 	lda	0x153,x
      000F9E 48               [ 3] 3560 	pha
                                   3561 ;	Raw cost for generated ic 612 : (8, 14.000000) count=0.000000
                                   3562 ;	Raw cost for generated ic 613 : (0, 0.000000) count=0.000000
                                   3563 ;	genPcall
      000F9F BD 4F 01         [ 5] 3564 	lda	0x14f,x
      000FA2 85*00            [ 3] 3565 	sta	*(REGTEMP+0)
      000FA4 BD 50 01         [ 5] 3566 	lda	0x150,x
      000FA7 85*01            [ 3] 3567 	sta	*(REGTEMP+1)
                                   3568 ;	genSend
      000FA9 A9 20            [ 2] 3569 	lda	#0x20
      000FAB 20r00r00         [ 6] 3570 	jsr	__sdcc_indirect_jsr
                                   3571 ;	  adjustStack : cycles stk:14  incdec:8  adc:18
      000FAE BA               [ 2] 3572 	tsx
      000FAF E8               [ 2] 3573 	inx
      000FB0 E8               [ 2] 3574 	inx
      000FB1 9A               [ 2] 3575 	txs
                                   3576 ;	Raw cost for generated ic 614 : (19, 30.000000) count=0.000000
                                   3577 ;	genPlus
                                   3578 ;	  genPlusInc
      000FB2 BD 38 01         [ 5] 3579 	lda	0x138,x
      000FB5 18               [ 2] 3580 	clc
      000FB6 69 01            [ 2] 3581 	adc	#0x01
      000FB8 9D 38 01         [ 5] 3582 	sta	0x138,x
      000FBB BD 39 01         [ 5] 3583 	lda	0x139,x
      000FBE 69 00            [ 2] 3584 	adc	#0x00
      000FC0 9D 39 01         [ 5] 3585 	sta	0x139,x
                                   3586 ;	Raw cost for generated ic 616 : (17, 24.000000) count=0.000000
                                   3587 ;	../printf_large.c: 820: width--;
                                   3588 ;	genMinus
                                   3589 ;	  genMinusDec - size=2  icount=1
      000FC3 BD 40 01         [ 5] 3590 	lda	0x140,x
      000FC6 38               [ 2] 3591 	sec
      000FC7 E9 01            [ 2] 3592 	sbc	#0x01
      000FC9 9D 40 01         [ 5] 3593 	sta	0x140,x
      000FCC BD 41 01         [ 5] 3594 	lda	0x141,x
      000FCF E9 00            [ 2] 3595 	sbc	#0x00
      000FD1 9D 41 01         [ 5] 3596 	sta	0x141,x
                                   3597 ;	Raw cost for generated ic 619 : (17, 24.000000) count=0.000000
                                   3598 ;	genLabel
      000FD4                       3599 00202$:
                                   3600 ;	Raw cost for generated ic 624 : (0, 0.000000) count=0.000000
                                   3601 ;	../printf_large.c: 825: if (!left_justify)
                                   3602 ;	genIfx
      000FD4 BA               [ 2] 3603 	tsx
      000FD5 BD 4E 01         [ 5] 3604 	lda	0x14e,x
                                   3605 ;	genIfxJump : z
      000FD8 F0 03            [ 4] 3606 	beq	00896$
      000FDA 4Cr5Dr10         [ 3] 3607 	jmp	00210$
      000FDD                       3608 00896$:
                                   3609 ;	Raw cost for generated ic 625 : (9, 11.600000) count=0.000000
                                   3610 ;	../printf_large.c: 827: while ( width-- > length )
                                   3611 ;	genAssign
                                   3612 ;	genCopy
      000FDD BD 39 01         [ 5] 3613 	lda	0x139,x
      000FE0 9D 0D 01         [ 5] 3614 	sta	0x10d,x
      000FE3 BD 38 01         [ 5] 3615 	lda	0x138,x
      000FE6 9D 0C 01         [ 5] 3616 	sta	0x10c,x
                                   3617 ;	Raw cost for generated ic 788 : (12, 18.000000) count=0.000000
                                   3618 ;	genAssign
                                   3619 ;	genCopy
      000FE9 BD 41 01         [ 5] 3620 	lda	0x141,x
      000FEC 9D 11 01         [ 5] 3621 	sta	0x111,x
      000FEF BD 40 01         [ 5] 3622 	lda	0x140,x
      000FF2 9D 10 01         [ 5] 3623 	sta	0x110,x
                                   3624 ;	Raw cost for generated ic 792 : (12, 18.000000) count=0.000000
                                   3625 ;	genLabel
      000FF5                       3626 00203$:
                                   3627 ;	Raw cost for generated ic 628 : (0, 0.000000) count=0.000000
                                   3628 ;	genAssign
                                   3629 ;	genCopy
      000FF5 BA               [ 2] 3630 	tsx
      000FF6 BD 11 01         [ 5] 3631 	lda	0x111,x
      000FF9 9D 15 01         [ 5] 3632 	sta	0x115,x
      000FFC BD 10 01         [ 5] 3633 	lda	0x110,x
      000FFF 9D 14 01         [ 5] 3634 	sta	0x114,x
                                   3635 ;	Raw cost for generated ic 629 : (13, 20.000000) count=0.000000
                                   3636 ;	genMinus
                                   3637 ;	  genMinusDec - size=2  icount=1
      001002 BD 10 01         [ 5] 3638 	lda	0x110,x
      001005 38               [ 2] 3639 	sec
      001006 E9 01            [ 2] 3640 	sbc	#0x01
      001008 9D 10 01         [ 5] 3641 	sta	0x110,x
      00100B BD 11 01         [ 5] 3642 	lda	0x111,x
      00100E E9 00            [ 2] 3643 	sbc	#0x00
      001010 9D 11 01         [ 5] 3644 	sta	0x111,x
                                   3645 ;	Raw cost for generated ic 630 : (17, 24.000000) count=0.000000
                                   3646 ;	genCmp
      001013 BD 3C 01         [ 5] 3647 	lda	0x13c,x
      001016 38               [ 2] 3648 	sec
      001017 FD 14 01         [ 5] 3649 	sbc	0x114,x
      00101A BD 3D 01         [ 5] 3650 	lda	0x13d,x
      00101D FD 15 01         [ 5] 3651 	sbc	0x115,x
      001020 B0 6D            [ 4] 3652 	bcs	00317$
                                   3653 ;	Raw cost for generated ic 632 : (18, 23.600000) count=0.000000
                                   3654 ;	skipping generated iCode
                                   3655 ;	Raw cost for generated ic 633 : (0, 0.000000) count=0.000000
                                   3656 ;	../printf_large.c: 829: OUTPUT_CHAR( zero_padding ? '0' : ' ', p );
                                   3657 ;	genIfx
      001022 BD 4D 01         [ 5] 3658 	lda	0x14d,x
                                   3659 ;	genIfxJump : z
      001025 F0 05            [ 4] 3660 	beq	00236$
                                   3661 ;	Raw cost for generated ic 636 : (8, 9.600000) count=0.000000
                                   3662 ;	genAssign
                                   3663 ;	genCopy
      001027 A0 30            [ 2] 3664 	ldy	#0x30
                                   3665 ;	Raw cost for generated ic 637 : (2, 2.000000) count=0.000000
                                   3666 ;	genGoto
      001029 4Cr2Er10         [ 3] 3667 	jmp	00237$
                                   3668 ;	Raw cost for generated ic 638 : (3, 3.000000) count=0.000000
                                   3669 ;	genLabel
      00102C                       3670 00236$:
                                   3671 ;	Raw cost for generated ic 639 : (0, 0.000000) count=0.000000
                                   3672 ;	genAssign
                                   3673 ;	genCopy
      00102C A0 20            [ 2] 3674 	ldy	#0x20
                                   3675 ;	Raw cost for generated ic 640 : (2, 2.000000) count=0.000000
                                   3676 ;	genLabel
      00102E                       3677 00237$:
                                   3678 ;	Raw cost for generated ic 641 : (0, 0.000000) count=0.000000
                                   3679 ;	genCast
                                   3680 ;	genCopy
                                   3681 ;	Raw cost for generated ic 642 : (0, 0.000000) count=0.000000
                                   3682 ;	genIpush
      00102E BA               [ 2] 3683 	tsx
      00102F BD 54 01         [ 5] 3684 	lda	0x154,x
      001032 48               [ 3] 3685 	pha
      001033 BD 53 01         [ 5] 3686 	lda	0x153,x
      001036 48               [ 3] 3687 	pha
                                   3688 ;	Raw cost for generated ic 643 : (9, 16.000000) count=0.000000
                                   3689 ;	Raw cost for generated ic 644 : (0, 0.000000) count=0.000000
                                   3690 ;	genPcall
      001037 BD 4F 01         [ 5] 3691 	lda	0x14f,x
      00103A 85*00            [ 3] 3692 	sta	*(REGTEMP+0)
      00103C BD 50 01         [ 5] 3693 	lda	0x150,x
      00103F 85*01            [ 3] 3694 	sta	*(REGTEMP+1)
                                   3695 ;	genSend
      001041 98               [ 2] 3696 	tya
      001042 20r00r00         [ 6] 3697 	jsr	__sdcc_indirect_jsr
                                   3698 ;	  adjustStack : cycles stk:14  incdec:8  adc:18
      001045 BA               [ 2] 3699 	tsx
      001046 E8               [ 2] 3700 	inx
      001047 E8               [ 2] 3701 	inx
      001048 9A               [ 2] 3702 	txs
                                   3703 ;	Raw cost for generated ic 645 : (18, 30.000000) count=0.000000
                                   3704 ;	genPlus
                                   3705 ;	  genPlusInc
      001049 BD 0C 01         [ 5] 3706 	lda	0x10c,x
      00104C 18               [ 2] 3707 	clc
      00104D 69 01            [ 2] 3708 	adc	#0x01
      00104F 9D 0C 01         [ 5] 3709 	sta	0x10c,x
      001052 BD 0D 01         [ 5] 3710 	lda	0x10d,x
      001055 69 00            [ 2] 3711 	adc	#0x00
      001057 9D 0D 01         [ 5] 3712 	sta	0x10d,x
                                   3713 ;	Raw cost for generated ic 647 : (17, 24.000000) count=0.000000
                                   3714 ;	genGoto
      00105A 4CrF5r0F         [ 3] 3715 	jmp	00203$
                                   3716 ;	Raw cost for generated ic 649 : (3, 3.000000) count=0.000000
                                   3717 ;	genLabel
      00105D                       3718 00210$:
                                   3719 ;	Raw cost for generated ic 652 : (0, 0.000000) count=0.000000
                                   3720 ;	../printf_large.c: 835: if (width > length)
                                   3721 ;	genCmp
      00105D BA               [ 2] 3722 	tsx
      00105E BD 3C 01         [ 5] 3723 	lda	0x13c,x
      001061 38               [ 2] 3724 	sec
      001062 FD 40 01         [ 5] 3725 	sbc	0x140,x
      001065 BD 3D 01         [ 5] 3726 	lda	0x13d,x
      001068 FD 41 01         [ 5] 3727 	sbc	0x141,x
      00106B B0 16            [ 4] 3728 	bcs	00207$
                                   3729 ;	Raw cost for generated ic 653 : (19, 25.600000) count=0.000000
                                   3730 ;	skipping generated iCode
                                   3731 ;	Raw cost for generated ic 654 : (0, 0.000000) count=0.000000
                                   3732 ;	../printf_large.c: 836: width -= length;
                                   3733 ;	genMinus
      00106D BD 40 01         [ 5] 3734 	lda	0x140,x
      001070 38               [ 2] 3735 	sec
      001071 FD 3C 01         [ 5] 3736 	sbc	0x13c,x
      001074 9D 40 01         [ 5] 3737 	sta	0x140,x
      001077 BD 41 01         [ 5] 3738 	lda	0x141,x
      00107A FD 3D 01         [ 5] 3739 	sbc	0x13d,x
      00107D 9D 41 01         [ 5] 3740 	sta	0x141,x
                                   3741 ;	Raw cost for generated ic 657 : (19, 28.000000) count=0.000000
                                   3742 ;	genGoto
      001080 4CrA8r10         [ 3] 3743 	jmp	00309$
                                   3744 ;	Raw cost for generated ic 659 : (3, 3.000000) count=0.000000
                                   3745 ;	genLabel
      001083                       3746 00207$:
                                   3747 ;	Raw cost for generated ic 660 : (0, 0.000000) count=0.000000
                                   3748 ;	../printf_large.c: 838: width = 0;
                                   3749 ;	genAssign
                                   3750 ;	genAssignLit
      001083 A9 00            [ 2] 3751 	lda	#0x00
      001085 BA               [ 2] 3752 	tsx
      001086 9D 40 01         [ 5] 3753 	sta	0x140,x
      001089 9D 41 01         [ 5] 3754 	sta	0x141,x
                                   3755 ;	Raw cost for generated ic 661 : (9, 14.000000) count=0.000000
                                   3756 ;	../printf_large.c: 877: return charsOutputted;
                                   3757 ;	genGoto
      00108C 4CrA8r10         [ 3] 3758 	jmp	00309$
                                   3759 ;	Raw cost for generated ic 789 : (3, 3.000000) count=0.000000
                                   3760 ;	../printf_large.c: 842: while( length-- )
                                   3761 ;	genLabel
      00108F                       3762 00317$:
                                   3763 ;	Raw cost for generated ic 790 : (0, 0.000000) count=0.000000
                                   3764 ;	genAssign
                                   3765 ;	genCopy
      00108F BA               [ 2] 3766 	tsx
      001090 BD 0D 01         [ 5] 3767 	lda	0x10d,x
      001093 9D 39 01         [ 5] 3768 	sta	0x139,x
      001096 BD 0C 01         [ 5] 3769 	lda	0x10c,x
      001099 9D 38 01         [ 5] 3770 	sta	0x138,x
                                   3771 ;	Raw cost for generated ic 791 : (13, 20.000000) count=0.000000
                                   3772 ;	genAssign
                                   3773 ;	genCopy
      00109C BD 11 01         [ 5] 3774 	lda	0x111,x
      00109F 9D 41 01         [ 5] 3775 	sta	0x141,x
      0010A2 BD 10 01         [ 5] 3776 	lda	0x110,x
      0010A5 9D 40 01         [ 5] 3777 	sta	0x140,x
                                   3778 ;	Raw cost for generated ic 793 : (12, 18.000000) count=0.000000
                                   3779 ;	genLabel
      0010A8                       3780 00309$:
                                   3781 ;	Raw cost for generated ic 756 : (0, 0.000000) count=0.000000
                                   3782 ;	genAssign
                                   3783 ;	genCopy
      0010A8 BA               [ 2] 3784 	tsx
      0010A9 BD 3B 01         [ 5] 3785 	lda	0x13b,x
      0010AC 9D 0D 01         [ 5] 3786 	sta	0x10d,x
      0010AF BD 3A 01         [ 5] 3787 	lda	0x13a,x
      0010B2 9D 0C 01         [ 5] 3788 	sta	0x10c,x
                                   3789 ;	Raw cost for generated ic 794 : (13, 20.000000) count=0.000000
                                   3790 ;	genAssign
                                   3791 ;	genCopy
      0010B5 BD 39 01         [ 5] 3792 	lda	0x139,x
      0010B8 9D 11 01         [ 5] 3793 	sta	0x111,x
      0010BB BD 38 01         [ 5] 3794 	lda	0x138,x
      0010BE 9D 10 01         [ 5] 3795 	sta	0x110,x
                                   3796 ;	Raw cost for generated ic 797 : (12, 18.000000) count=0.000000
                                   3797 ;	genAssign
                                   3798 ;	genCopy
      0010C1 BD 3D 01         [ 5] 3799 	lda	0x13d,x
      0010C4 9D 15 01         [ 5] 3800 	sta	0x115,x
      0010C7 BD 3C 01         [ 5] 3801 	lda	0x13c,x
      0010CA 9D 14 01         [ 5] 3802 	sta	0x114,x
                                   3803 ;	Raw cost for generated ic 799 : (12, 18.000000) count=0.000000
                                   3804 ;	genLabel
      0010CD                       3805 00215$:
                                   3806 ;	Raw cost for generated ic 664 : (0, 0.000000) count=0.000000
                                   3807 ;	genAssign
                                   3808 ;	genCopy
      0010CD BA               [ 2] 3809 	tsx
      0010CE BD 15 01         [ 5] 3810 	lda	0x115,x
      0010D1 9D 1D 01         [ 5] 3811 	sta	0x11d,x
      0010D4 BD 14 01         [ 5] 3812 	lda	0x114,x
      0010D7 9D 1C 01         [ 5] 3813 	sta	0x11c,x
                                   3814 ;	Raw cost for generated ic 665 : (13, 20.000000) count=0.000000
                                   3815 ;	genMinus
                                   3816 ;	  genMinusDec - size=2  icount=1
      0010DA BD 14 01         [ 5] 3817 	lda	0x114,x
      0010DD 38               [ 2] 3818 	sec
      0010DE E9 01            [ 2] 3819 	sbc	#0x01
      0010E0 9D 14 01         [ 5] 3820 	sta	0x114,x
      0010E3 BD 15 01         [ 5] 3821 	lda	0x115,x
      0010E6 E9 00            [ 2] 3822 	sbc	#0x00
      0010E8 9D 15 01         [ 5] 3823 	sta	0x115,x
                                   3824 ;	Raw cost for generated ic 666 : (17, 24.000000) count=0.000000
                                   3825 ;	genIfx
      0010EB BD 1D 01         [ 5] 3826 	lda	0x11d,x
      0010EE 1D 1C 01         [ 5] 3827 	ora	0x11c,x
                                   3828 ;	genIfxJump : z
      0010F1 D0 03            [ 4] 3829 	bne	00902$
      0010F3 4CrA5r11         [ 3] 3830 	jmp	00318$
      0010F6                       3831 00902$:
                                   3832 ;	Raw cost for generated ic 668 : (11, 13.600000) count=0.000000
                                   3833 ;	../printf_large.c: 844: lsd = !lsd;
                                   3834 ;	genNot
      0010F6 BD 43 01         [ 5] 3835 	lda	0x143,x
      0010F9 49 01            [ 2] 3836 	eor	#0x01
      0010FB 9D 43 01         [ 5] 3837 	sta	0x143,x
                                   3838 ;	Raw cost for generated ic 671 : (8, 11.000000) count=0.000000
                                   3839 ;	../printf_large.c: 845: if (!lsd)
                                   3840 ;	genIfx
                                   3841 ;	genIfxJump : z
      0010FE D0 37            [ 4] 3842 	bne	00213$
                                   3843 ;	Raw cost for generated ic 673 : (5, 5.600000) count=0.000000
                                   3844 ;	../printf_large.c: 847: pstore++;
                                   3845 ;	genPlus
                                   3846 ;	  genPlusInc
      001100 BD 0C 01         [ 5] 3847 	lda	0x10c,x
      001103 18               [ 2] 3848 	clc
      001104 69 01            [ 2] 3849 	adc	#0x01
      001106 9D 0C 01         [ 5] 3850 	sta	0x10c,x
      001109 BD 0D 01         [ 5] 3851 	lda	0x10d,x
      00110C 69 00            [ 2] 3852 	adc	#0x00
      00110E 9D 0D 01         [ 5] 3853 	sta	0x10d,x
                                   3854 ;	Raw cost for generated ic 677 : (17, 24.000000) count=0.000000
                                   3855 ;	../printf_large.c: 848: value.byte[4] = *pstore >> 4;
                                   3856 ;	genPointerGet
                                   3857 ;	  setupDPTR - off=0 remat=(null) savea=0
      001111 85*01            [ 3] 3858 	sta	*(DPTR+1)
      001113 BD 0C 01         [ 5] 3859 	lda	0x10c,x
      001116 85*00            [ 3] 3860 	sta	*(DPTR+0)
      001118 A0 00            [ 2] 3861 	ldy	#0x00
      00111A B1*00            [ 6] 3862 	lda	[DPTR],y
                                   3863 ;	Raw cost for generated ic 683 : (12, 19.000000) count=0.000000
                                   3864 ;	genRightShift
                                   3865 ;	genRightShiftLiteral
                                   3866 ;	  genrsh8 - shift=4
      00111C AA               [ 2] 3867 	tax
      00111D 4A               [ 2] 3868 	lsr	a
      00111E 4A               [ 2] 3869 	lsr	a
      00111F 4A               [ 2] 3870 	lsr	a
      001120 4A               [ 2] 3871 	lsr	a
                                   3872 ;	Raw cost for generated ic 684 : (5, 10.000000) count=0.000000
                                   3873 ;	genPointerSet
      001121 85*00            [ 3] 3874 	sta	*(REGTEMP+0)
                                   3875 ;	  setupDPTR - off=4 remat=(null) savea=0
      001123 BA               [ 2] 3876 	tsx
      001124 BD 18 01         [ 5] 3877 	lda	0x118,x
      001127 85*00            [ 3] 3878 	sta	*(DPTR+0)
      001129 BD 19 01         [ 5] 3879 	lda	0x119,x
      00112C 85*01            [ 3] 3880 	sta	*(DPTR+1)
      00112E A5*00            [ 3] 3881 	lda	*(REGTEMP+0)
      001130 A0 04            [ 2] 3882 	ldy	#0x04
      001132 91*00            [ 6] 3883 	sta	[DPTR],y
                                   3884 ;	Raw cost for generated ic 685 : (19, 30.000000) count=0.000000
                                   3885 ;	genGoto
      001134 4Cr5Cr11         [ 3] 3886 	jmp	00214$
                                   3887 ;	Raw cost for generated ic 686 : (3, 3.000000) count=0.000000
                                   3888 ;	genLabel
      001137                       3889 00213$:
                                   3890 ;	Raw cost for generated ic 687 : (0, 0.000000) count=0.000000
                                   3891 ;	../printf_large.c: 852: value.byte[4] = *pstore & 0x0F;
                                   3892 ;	genPointerGet
                                   3893 ;	  setupDPTR - off=0 remat=(null) savea=0
      001137 BA               [ 2] 3894 	tsx
      001138 BD 0C 01         [ 5] 3895 	lda	0x10c,x
      00113B 85*00            [ 3] 3896 	sta	*(DPTR+0)
      00113D BD 0D 01         [ 5] 3897 	lda	0x10d,x
      001140 85*01            [ 3] 3898 	sta	*(DPTR+1)
      001142 A0 00            [ 2] 3899 	ldy	#0x00
      001144 B1*00            [ 6] 3900 	lda	[DPTR],y
                                   3901 ;	Raw cost for generated ic 692 : (16, 25.000000) count=0.000000
                                   3902 ;	genAnd
      001146 AA               [ 2] 3903 	tax
      001147 29 0F            [ 2] 3904 	and	#0x0f
                                   3905 ;	Raw cost for generated ic 694 : (3, 4.000000) count=0.000000
                                   3906 ;	genPointerSet
      001149 85*00            [ 3] 3907 	sta	*(REGTEMP+0)
                                   3908 ;	  setupDPTR - off=4 remat=(null) savea=0
      00114B BA               [ 2] 3909 	tsx
      00114C BD 18 01         [ 5] 3910 	lda	0x118,x
      00114F 85*00            [ 3] 3911 	sta	*(DPTR+0)
      001151 BD 19 01         [ 5] 3912 	lda	0x119,x
      001154 85*01            [ 3] 3913 	sta	*(DPTR+1)
      001156 A5*00            [ 3] 3914 	lda	*(REGTEMP+0)
      001158 A0 04            [ 2] 3915 	ldy	#0x04
      00115A 91*00            [ 6] 3916 	sta	[DPTR],y
                                   3917 ;	Raw cost for generated ic 696 : (19, 30.000000) count=0.000000
                                   3918 ;	genLabel
      00115C                       3919 00214$:
                                   3920 ;	Raw cost for generated ic 697 : (0, 0.000000) count=0.000000
                                   3921 ;	../printf_large.c: 855: output_digit( value.byte[4], lower_case, output_char, p );
                                   3922 ;	genPointerGet
                                   3923 ;	  setupDPTR - off=4 remat=(null) savea=0
      00115C BA               [ 2] 3924 	tsx
      00115D BD 18 01         [ 5] 3925 	lda	0x118,x
      001160 85*00            [ 3] 3926 	sta	*(DPTR+0)
      001162 BD 19 01         [ 5] 3927 	lda	0x119,x
      001165 85*01            [ 3] 3928 	sta	*(DPTR+1)
      001167 A0 04            [ 2] 3929 	ldy	#0x04
      001169 B1*00            [ 6] 3930 	lda	[DPTR],y
      00116B A8               [ 2] 3931 	tay
                                   3932 ;	Raw cost for generated ic 701 : (16, 25.000000) count=0.000000
                                   3933 ;	genIpush
      00116C BD 54 01         [ 5] 3934 	lda	0x154,x
      00116F 48               [ 3] 3935 	pha
      001170 BD 53 01         [ 5] 3936 	lda	0x153,x
      001173 48               [ 3] 3937 	pha
                                   3938 ;	Raw cost for generated ic 702 : (8, 14.000000) count=0.000000
                                   3939 ;	genIpush
      001174 BD 50 01         [ 5] 3940 	lda	0x150,x
      001177 48               [ 3] 3941 	pha
      001178 BD 4F 01         [ 5] 3942 	lda	0x14f,x
      00117B 48               [ 3] 3943 	pha
                                   3944 ;	Raw cost for generated ic 703 : (8, 14.000000) count=0.000000
                                   3945 ;	Raw cost for generated ic 704 : (0, 0.000000) count=0.000000
                                   3946 ;	Raw cost for generated ic 705 : (0, 0.000000) count=0.000000
                                   3947 ;	genCall
                                   3948 ;	genSend
      00117C 98               [ 2] 3949 	tya
      00117D 85*00            [ 3] 3950 	sta	*(REGTEMP+0)
      00117F BD 46 01         [ 5] 3951 	lda	0x146,x
      001182 AA               [ 2] 3952 	tax
      001183 A5*00            [ 3] 3953 	lda	*(REGTEMP+0)
      001185 20r00r00         [ 6] 3954 	jsr	_output_digit
                                   3955 ;	  adjustStack : cycles stk:22  incdec:18  adc:24
      001188 86*00            [ 3] 3956 	stx	*(REGTEMP+0)
      00118A BA               [ 2] 3957 	tsx
      00118B E8               [ 2] 3958 	inx
      00118C E8               [ 2] 3959 	inx
      00118D E8               [ 2] 3960 	inx
      00118E E8               [ 2] 3961 	inx
      00118F 9A               [ 2] 3962 	txs
                                   3963 ;	Raw cost for generated ic 706 : (22, 38.000000) count=0.000000
                                   3964 ;	../printf_large.c: 856: charsOutputted++;
                                   3965 ;	genPlus
                                   3966 ;	  genPlusInc
      001190 BA               [ 2] 3967 	tsx
      001191 BD 10 01         [ 5] 3968 	lda	0x110,x
      001194 18               [ 2] 3969 	clc
      001195 69 01            [ 2] 3970 	adc	#0x01
      001197 9D 10 01         [ 5] 3971 	sta	0x110,x
      00119A BD 11 01         [ 5] 3972 	lda	0x111,x
      00119D 69 00            [ 2] 3973 	adc	#0x00
      00119F 9D 11 01         [ 5] 3974 	sta	0x111,x
                                   3975 ;	Raw cost for generated ic 708 : (18, 26.000000) count=0.000000
                                   3976 ;	genGoto
      0011A2 4CrCDr10         [ 3] 3977 	jmp	00215$
                                   3978 ;	Raw cost for generated ic 710 : (3, 3.000000) count=0.000000
                                   3979 ;	genLabel
      0011A5                       3980 00318$:
                                   3981 ;	Raw cost for generated ic 795 : (0, 0.000000) count=0.000000
                                   3982 ;	genAssign
                                   3983 ;	genCopy
      0011A5 BA               [ 2] 3984 	tsx
      0011A6 BD 11 01         [ 5] 3985 	lda	0x111,x
      0011A9 9D 39 01         [ 5] 3986 	sta	0x139,x
      0011AC BD 10 01         [ 5] 3987 	lda	0x110,x
      0011AF 9D 38 01         [ 5] 3988 	sta	0x138,x
                                   3989 ;	Raw cost for generated ic 798 : (13, 20.000000) count=0.000000
                                   3990 ;	../printf_large.c: 861: if (left_justify)
                                   3991 ;	genIfx
      0011B2 BD 4E 01         [ 5] 3992 	lda	0x14e,x
                                   3993 ;	genIfxJump : z
      0011B5 D0 03            [ 4] 3994 	bne	00907$
      0011B7 4Cr03r02         [ 3] 3995 	jmp	00231$
      0011BA                       3996 00907$:
                                   3997 ;	Raw cost for generated ic 712 : (8, 9.600000) count=0.000000
                                   3998 ;	../printf_large.c: 863: while (width-- > 0)
                                   3999 ;	genAssign
                                   4000 ;	genCopy
      0011BA BD 11 01         [ 5] 4001 	lda	0x111,x
      0011BD 9D 45 01         [ 5] 4002 	sta	0x145,x
      0011C0 BD 10 01         [ 5] 4003 	lda	0x110,x
      0011C3 9D 44 01         [ 5] 4004 	sta	0x144,x
                                   4005 ;	Raw cost for generated ic 801 : (12, 18.000000) count=0.000000
                                   4006 ;	genAssign
                                   4007 ;	genCopy
      0011C6 BD 41 01         [ 5] 4008 	lda	0x141,x
      0011C9 9D 0D 01         [ 5] 4009 	sta	0x10d,x
      0011CC BD 40 01         [ 5] 4010 	lda	0x140,x
      0011CF 9D 0C 01         [ 5] 4011 	sta	0x10c,x
                                   4012 ;	Raw cost for generated ic 802 : (12, 18.000000) count=0.000000
                                   4013 ;	genLabel
      0011D2                       4014 00218$:
                                   4015 ;	Raw cost for generated ic 715 : (0, 0.000000) count=0.000000
                                   4016 ;	genAssign
                                   4017 ;	genCopy
      0011D2 BA               [ 2] 4018 	tsx
      0011D3 BD 0D 01         [ 5] 4019 	lda	0x10d,x
      0011D6 9D 11 01         [ 5] 4020 	sta	0x111,x
      0011D9 BD 0C 01         [ 5] 4021 	lda	0x10c,x
      0011DC 9D 10 01         [ 5] 4022 	sta	0x110,x
                                   4023 ;	Raw cost for generated ic 716 : (13, 20.000000) count=0.000000
                                   4024 ;	genMinus
                                   4025 ;	  genMinusDec - size=2  icount=1
      0011DF BD 0C 01         [ 5] 4026 	lda	0x10c,x
      0011E2 38               [ 2] 4027 	sec
      0011E3 E9 01            [ 2] 4028 	sbc	#0x01
      0011E5 9D 0C 01         [ 5] 4029 	sta	0x10c,x
      0011E8 BD 0D 01         [ 5] 4030 	lda	0x10d,x
      0011EB E9 00            [ 2] 4031 	sbc	#0x00
      0011ED 9D 0D 01         [ 5] 4032 	sta	0x10d,x
                                   4033 ;	Raw cost for generated ic 717 : (17, 24.000000) count=0.000000
                                   4034 ;	genIfx
      0011F0 BD 11 01         [ 5] 4035 	lda	0x111,x
      0011F3 1D 10 01         [ 5] 4036 	ora	0x110,x
                                   4037 ;	genIfxJump : z
      0011F6 D0 03            [ 4] 4038 	bne	00909$
      0011F8 4Cr03r02         [ 3] 4039 	jmp	00231$
      0011FB                       4040 00909$:
                                   4041 ;	Raw cost for generated ic 719 : (11, 13.600000) count=0.000000
                                   4042 ;	../printf_large.c: 865: OUTPUT_CHAR(' ', p);
                                   4043 ;	genIpush
      0011FB BD 54 01         [ 5] 4044 	lda	0x154,x
      0011FE 48               [ 3] 4045 	pha
      0011FF BD 53 01         [ 5] 4046 	lda	0x153,x
      001202 48               [ 3] 4047 	pha
                                   4048 ;	Raw cost for generated ic 722 : (8, 14.000000) count=0.000000
                                   4049 ;	Raw cost for generated ic 723 : (0, 0.000000) count=0.000000
                                   4050 ;	genPcall
      001203 BD 4F 01         [ 5] 4051 	lda	0x14f,x
      001206 85*00            [ 3] 4052 	sta	*(REGTEMP+0)
      001208 BD 50 01         [ 5] 4053 	lda	0x150,x
      00120B 85*01            [ 3] 4054 	sta	*(REGTEMP+1)
                                   4055 ;	genSend
      00120D A9 20            [ 2] 4056 	lda	#0x20
      00120F 20r00r00         [ 6] 4057 	jsr	__sdcc_indirect_jsr
                                   4058 ;	  adjustStack : cycles stk:14  incdec:8  adc:18
      001212 BA               [ 2] 4059 	tsx
      001213 E8               [ 2] 4060 	inx
      001214 E8               [ 2] 4061 	inx
      001215 9A               [ 2] 4062 	txs
                                   4063 ;	Raw cost for generated ic 724 : (19, 30.000000) count=0.000000
                                   4064 ;	genPlus
                                   4065 ;	  genPlusInc
      001216 BD 44 01         [ 5] 4066 	lda	0x144,x
      001219 18               [ 2] 4067 	clc
      00121A 69 01            [ 2] 4068 	adc	#0x01
      00121C 9D 44 01         [ 5] 4069 	sta	0x144,x
      00121F BD 45 01         [ 5] 4070 	lda	0x145,x
      001222 69 00            [ 2] 4071 	adc	#0x00
      001224 9D 45 01         [ 5] 4072 	sta	0x145,x
                                   4073 ;	Raw cost for generated ic 726 : (17, 24.000000) count=0.000000
                                   4074 ;	genAssign
                                   4075 ;	genCopy
      001227 9D 39 01         [ 5] 4076 	sta	0x139,x
      00122A BD 44 01         [ 5] 4077 	lda	0x144,x
      00122D 9D 38 01         [ 5] 4078 	sta	0x138,x
                                   4079 ;	Raw cost for generated ic 727 : (9, 14.000000) count=0.000000
                                   4080 ;	genGoto
      001230 4CrD2r11         [ 3] 4081 	jmp	00218$
                                   4082 ;	Raw cost for generated ic 728 : (3, 3.000000) count=0.000000
                                   4083 ;	genLabel
      001233                       4084 00229$:
                                   4085 ;	Raw cost for generated ic 734 : (0, 0.000000) count=0.740061
                                   4086 ;	../printf_large.c: 873: OUTPUT_CHAR( c, p );
                                   4087 ;	genIpush
      001233 86*00            [ 3] 4088 	stx	*(REGTEMP+0)
      001235 BA               [ 2] 4089 	tsx
      001236 BD 54 01         [ 5] 4090 	lda	0x154,x
      001239 08               [ 3] 4091 	php
      00123A A6*00            [ 3] 4092 	ldx	*(REGTEMP+0)
      00123C 28               [ 4] 4093 	plp
      00123D 48               [ 3] 4094 	pha
      00123E 86*00            [ 3] 4095 	stx	*(REGTEMP+0)
      001240 BA               [ 2] 4096 	tsx
      001241 BD 54 01         [ 5] 4097 	lda	0x154,x
      001244 08               [ 3] 4098 	php
      001245 A6*00            [ 3] 4099 	ldx	*(REGTEMP+0)
      001247 28               [ 4] 4100 	plp
      001248 48               [ 3] 4101 	pha
                                   4102 ;	Raw cost for generated ic 735 : (22, 44.000000) count=0.740061
                                   4103 ;	Raw cost for generated ic 736 : (0, 0.000000) count=0.740061
                                   4104 ;	genPcall
      001249 8A               [ 2] 4105 	txa
      00124A 48               [ 3] 4106 	pha
      00124B BA               [ 2] 4107 	tsx
      00124C BD 52 01         [ 5] 4108 	lda	0x152,x
      00124F 85*00            [ 3] 4109 	sta	*(REGTEMP+0)
      001251 BD 53 01         [ 5] 4110 	lda	0x153,x
      001254 85*01            [ 3] 4111 	sta	*(REGTEMP+1)
      001256 68               [ 4] 4112 	pla
                                   4113 ;	genSend
      001257 AA               [ 2] 4114 	tax
      001258 20r00r00         [ 6] 4115 	jsr	__sdcc_indirect_jsr
                                   4116 ;	  adjustStack : cycles stk:14  incdec:14  adc:24
      00125B 85*00            [ 3] 4117 	sta	*(REGTEMP+0)
      00125D 68               [ 4] 4118 	pla
      00125E 68               [ 4] 4119 	pla
                                   4120 ;	Raw cost for generated ic 737 : (25, 49.000000) count=0.740061
                                   4121 ;	genPlus
                                   4122 ;	  genPlusInc
      00125F BA               [ 2] 4123 	tsx 
      001260 BD 38 01         [ 5] 4124 	lda	0x138,x
      001263 18               [ 2] 4125 	clc
      001264 69 01            [ 2] 4126 	adc	#0x01
      001266 9D 38 01         [ 5] 4127 	sta	0x138,x
      001269 BD 39 01         [ 5] 4128 	lda	0x139,x
      00126C 69 00            [ 2] 4129 	adc	#0x00
      00126E 9D 39 01         [ 5] 4130 	sta	0x139,x
                                   4131 ;	Raw cost for generated ic 739 : (18, 26.000000) count=0.740061
                                   4132 ;	genGoto
      001271 4Cr03r02         [ 3] 4133 	jmp	00231$
                                   4134 ;	Raw cost for generated ic 742 : (3, 3.000000) count=0.740061
                                   4135 ;	genLabel
      001274                       4136 00233$:
                                   4137 ;	Raw cost for generated ic 743 : (0, 0.000000) count=0.977151
                                   4138 ;	../printf_large.c: 877: return charsOutputted;
                                   4139 ;	genRet
      001274 BA               [ 2] 4140 	tsx
      001275 BD 39 01         [ 5] 4141 	lda	0x139,x
      001278 85*00            [ 3] 4142 	sta	*(REGTEMP+0)
      00127A BD 38 01         [ 5] 4143 	lda	0x138,x
                                   4144 ;	Raw cost for generated ic 744 : (11, 16.000000) count=0.977151
                                   4145 ;	genLabel
                                   4146 ;	Raw cost for generated ic 745 : (0, 0.000000) count=0.977151
                                   4147 ;	../printf_large.c: 878: }
                                   4148 ;	genEndFunction
                                   4149 ;	  adjustStack : cycles stk:326  incdec:170  adc:24
      00127D A6*00            [ 3] 4150 	ldx	*(REGTEMP+0)
      00127F 85*01            [ 3] 4151 	sta	*(REGTEMP+1)
      001281 BA               [ 2] 4152 	tsx
      001282 8A               [ 2] 4153 	txa
      001283 18               [ 2] 4154 	clc
      001284 69 50            [ 2] 4155 	adc	#0x50
      001286 AA               [ 2] 4156 	tax
      001287 9A               [ 2] 4157 	txs
      001288 A5*01            [ 3] 4158 	lda	*(REGTEMP+1)
      00128A A6*00            [ 3] 4159 	ldx	*(REGTEMP+0)
      00128C 60               [ 6] 4160 	rts
                                   4161 ;	Raw cost for generated ic 746 : (16, 30.000000) count=0.977151
                                   4162 	.area CODE
                                   4163 	.area RODATA
                                   4164 	.area RODATA
      000000                       4165 ___str_0:
      000000 3C 4E 4F 20 46 4C 4F  4166 	.ascii "<NO FLOAT>"
             41 54 3E
      00000A 00                    4167 	.db 0x00
                                   4168 	.area CODE
                                   4169 	.area XINIT
                                   4170 	.area CABS    (ABS)
