                                      1 ;--------------------------------------------------------
                                      2 ; File Created by SDCC : free open source ISO C Compiler
                                      3 ; Version 4.5.10 #15691 (Linux)
                                      4 ;--------------------------------------------------------
                                      5 	.module stdc_store8
                                      6 	
                                      7 	.optsdcc -mmos6502
                                      8 
                                      9 ;--------------------------------------------------------
                                     10 ;  Ordering of segments for the linker.
                                     11 ;--------------------------------------------------------
                                     12 	.area ZP      (PAG)
                                     13 	.area OSEG    (PAG, OVR)
                                     14 	.area _CODE
                                     15 	.area GSINIT
                                     16 	.area GSFINAL
                                     17 	.area CODE
                                     18 	.area RODATA
                                     19 	.area XINIT
                                     20 	.area _DATA
                                     21 	.area DATA
                                     22 	.area BSS
                                     23 ;--------------------------------------------------------
                                     24 ; Public variables in this module
                                     25 ;--------------------------------------------------------
                                     26 	.globl ___memcpy
                                     27 	.globl _stdc_memreverse8
                                     28 	.globl _stdc_store8_leu8
                                     29 	.globl _stdc_store8_beu8
                                     30 	.globl _stdc_store8_leu_aligned8
                                     31 	.globl _stdc_store8_beu_aligned8
                                     32 	.globl _stdc_store8_les8
                                     33 	.globl _stdc_store8_bes8
                                     34 	.globl _stdc_store8_les_aligned8
                                     35 	.globl _stdc_store8_bes_aligned8
                                     36 	.globl _stdc_store8_leu16
                                     37 	.globl _stdc_store8_beu16
                                     38 	.globl _stdc_store8_leu_aligned16
                                     39 	.globl _stdc_store8_beu_aligned16
                                     40 	.globl _stdc_store8_les16
                                     41 	.globl _stdc_store8_bes16
                                     42 	.globl _stdc_store8_les_aligned16
                                     43 	.globl _stdc_store8_bes_aligned16
                                     44 	.globl _stdc_store8_leu32
                                     45 	.globl _stdc_store8_beu32
                                     46 	.globl _stdc_store8_leu_aligned32
                                     47 	.globl _stdc_store8_beu_aligned32
                                     48 	.globl _stdc_store8_les32
                                     49 	.globl _stdc_store8_bes32
                                     50 	.globl _stdc_store8_les_aligned32
                                     51 	.globl _stdc_store8_bes_aligned32
                                     52 	.globl _stdc_store8_leu64
                                     53 	.globl _stdc_store8_beu64
                                     54 	.globl _stdc_store8_leu_aligned64
                                     55 	.globl _stdc_store8_beu_aligned64
                                     56 	.globl _stdc_store8_les64
                                     57 	.globl _stdc_store8_bes64
                                     58 	.globl _stdc_store8_les_aligned64
                                     59 	.globl _stdc_store8_bes_aligned64
                                     60 ;--------------------------------------------------------
                                     61 ; ZP ram data
                                     62 ;--------------------------------------------------------
                                     63 	.area ZP      (PAG)
                                     64 ;--------------------------------------------------------
                                     65 ; overlayable items in ram
                                     66 ;--------------------------------------------------------
                                     67 ;--------------------------------------------------------
                                     68 ; uninitialized external ram data
                                     69 ;--------------------------------------------------------
                                     70 	.area BSS
                                     71 ;--------------------------------------------------------
                                     72 ; absolute external ram data
                                     73 ;--------------------------------------------------------
                                     74 	.area DABS    (ABS)
                                     75 ;--------------------------------------------------------
                                     76 ; initialized external ram data
                                     77 ;--------------------------------------------------------
                                     78 	.area DATA
                                     79 ;--------------------------------------------------------
                                     80 ; global & static initialisations
                                     81 ;--------------------------------------------------------
                                     82 	.area _CODE
                                     83 	.area GSINIT
                                     84 	.area GSFINAL
                                     85 	.area GSINIT
                                     86 ;--------------------------------------------------------
                                     87 ; Home
                                     88 ;--------------------------------------------------------
                                     89 	.area _CODE
                                     90 	.area _CODE
                                     91 ;--------------------------------------------------------
                                     92 ; code
                                     93 ;--------------------------------------------------------
                                     94 	.area CODE
                                     95 ;------------------------------------------------------------
                                     96 ;Allocation info for local variables in function 'stdc_store8_leu8'
                                     97 ;------------------------------------------------------------
                                     98 ;ptr           Allocated to stack - sp +8 +2 
                                     99 ;value         Allocated to stack - sp +5 +1 
                                    100 ;sloc0         Allocated to stack - sp +3 +2 
                                    101 ;sloc1         Allocated to stack - sp +1 +2 
                                    102 ;------------------------------------------------------------
                                    103 ;	./../../include/stdbit.h: 448: __STDC_STORE8(8)
                                    104 ;	genLabel
                                    105 ;	Raw cost for generated ic 0 : (0, 0.000000) count=1.000000
                                    106 ;	-----------------------------------------
                                    107 ;	 function stdc_store8_leu8
                                    108 ;	-----------------------------------------
                                    109 ;	Register assignment is optimal.
                                    110 ;	Stack space usage: 5 bytes.
      000000                        111 _stdc_store8_leu8:
                                    112 ;	genReceive: size=1
                                    113 ;	pushreg: ofs=0
      000000 48               [ 3]  114 	pha
                                    115 ;	  adjustStack : cycles stk:12  incdec:12  adc:12
      000001 48               [ 3]  116 	pha
      000002 48               [ 3]  117 	pha
      000003 48               [ 3]  118 	pha
      000004 48               [ 3]  119 	pha
                                    120 ;	Raw cost for generated ic 1 : (5, 15.000000) count=1.000000
                                    121 ;	skipping generated iCode
                                    122 ;	Raw cost for generated ic 2 : (0, 0.000000) count=1.000000
                                    123 ;	genAddrOf
      000005 BA               [ 2]  124 	tsx
      000006 8A               [ 2]  125 	txa
      000007 18               [ 2]  126 	clc
      000008 69 05            [ 2]  127 	adc	#0x05
      00000A 9D 03 01         [ 5]  128 	sta	0x103,x
      00000D A9 01            [ 2]  129 	lda	#0x01
      00000F 9D 04 01         [ 5]  130 	sta	0x104,x
                                    131 ;	Raw cost for generated ic 3 : (13, 20.000000) count=1.000000
                                    132 ;	genCast
                                    133 ;	genCopy
                                    134 ;	Raw cost for generated ic 4 : (0, 0.000000) count=1.000000
                                    135 ;	genCast
                                    136 ;	genCopy
      000012 BD 09 01         [ 5]  137 	lda	0x109,x
      000015 9D 02 01         [ 5]  138 	sta	0x102,x
      000018 BD 08 01         [ 5]  139 	lda	0x108,x
      00001B 9D 01 01         [ 5]  140 	sta	0x101,x
                                    141 ;	Raw cost for generated ic 5 : (12, 18.000000) count=1.000000
                                    142 ;	genIpush
      00001E A9 00            [ 2]  143 	lda	#0x00
      000020 48               [ 3]  144 	pha
      000021 A9 01            [ 2]  145 	lda	#0x01
      000023 48               [ 3]  146 	pha
                                    147 ;	Raw cost for generated ic 6 : (6, 10.000000) count=1.000000
                                    148 ;	genIpush
      000024 BD 04 01         [ 5]  149 	lda	0x104,x
      000027 48               [ 3]  150 	pha
      000028 BD 03 01         [ 5]  151 	lda	0x103,x
      00002B 48               [ 3]  152 	pha
                                    153 ;	Raw cost for generated ic 7 : (8, 14.000000) count=1.000000
                                    154 ;	Raw cost for generated ic 8 : (0, 0.000000) count=1.000000
                                    155 ;	genCall
                                    156 ;	genSend
      00002C BD 01 01         [ 5]  157 	lda	0x101,x
      00002F A8               [ 2]  158 	tay
      000030 BD 02 01         [ 5]  159 	lda	0x102,x
      000033 AA               [ 2]  160 	tax
      000034 98               [ 2]  161 	tya
      000035 20r00r00         [ 6]  162 	jsr	___memcpy
                                    163 ;	  adjustStack : cycles stk:22  incdec:18  adc:24
      000038 86*00            [ 3]  164 	stx	*(REGTEMP+0)
      00003A BA               [ 2]  165 	tsx
      00003B E8               [ 2]  166 	inx
      00003C E8               [ 2]  167 	inx
      00003D E8               [ 2]  168 	inx
      00003E E8               [ 2]  169 	inx
      00003F 9A               [ 2]  170 	txs
                                    171 ;	Raw cost for generated ic 9 : (22, 38.000000) count=1.000000
                                    172 ;	genLabel
                                    173 ;	Raw cost for generated ic 10 : (0, 0.000000) count=1.000000
                                    174 ;	genEndFunction
                                    175 ;	  adjustStack : cycles stk:26  incdec:20  adc:24
      000040 BA               [ 2]  176 	tsx
      000041 E8               [ 2]  177 	inx
      000042 E8               [ 2]  178 	inx
      000043 E8               [ 2]  179 	inx
      000044 E8               [ 2]  180 	inx
      000045 E8               [ 2]  181 	inx
      000046 9A               [ 2]  182 	txs
      000047 A6*00            [ 3]  183 	ldx	*(REGTEMP+0)
      000049 60               [ 6]  184 	rts
                                    185 ;	Raw cost for generated ic 11 : (12, 26.000000) count=1.000000
                                    186 ;------------------------------------------------------------
                                    187 ;Allocation info for local variables in function 'stdc_store8_beu8'
                                    188 ;------------------------------------------------------------
                                    189 ;ptr           Allocated to stack - sp +8 +2 
                                    190 ;value         Allocated to stack - sp +5 +1 
                                    191 ;sloc0         Allocated to stack - sp +3 +2 
                                    192 ;sloc1         Allocated to stack - sp +1 +2 
                                    193 ;------------------------------------------------------------
                                    194 ;	./../../include/stdbit.h: 448: __STDC_STORE8(16)
                                    195 ;	genLabel
                                    196 ;	Raw cost for generated ic 0 : (0, 0.000000) count=1.000000
                                    197 ;	-----------------------------------------
                                    198 ;	 function stdc_store8_beu8
                                    199 ;	-----------------------------------------
                                    200 ;	Register assignment is optimal.
                                    201 ;	Stack space usage: 5 bytes.
      00004A                        202 _stdc_store8_beu8:
                                    203 ;	genReceive: size=1
                                    204 ;	pushreg: ofs=0
      00004A 48               [ 3]  205 	pha
                                    206 ;	  adjustStack : cycles stk:12  incdec:12  adc:12
      00004B 48               [ 3]  207 	pha
      00004C 48               [ 3]  208 	pha
      00004D 48               [ 3]  209 	pha
      00004E 48               [ 3]  210 	pha
                                    211 ;	Raw cost for generated ic 1 : (5, 15.000000) count=1.000000
                                    212 ;	skipping generated iCode
                                    213 ;	Raw cost for generated ic 2 : (0, 0.000000) count=1.000000
                                    214 ;	genAddrOf
      00004F BA               [ 2]  215 	tsx
      000050 8A               [ 2]  216 	txa
      000051 18               [ 2]  217 	clc
      000052 69 05            [ 2]  218 	adc	#0x05
      000054 9D 03 01         [ 5]  219 	sta	0x103,x
      000057 A9 01            [ 2]  220 	lda	#0x01
      000059 9D 04 01         [ 5]  221 	sta	0x104,x
                                    222 ;	Raw cost for generated ic 3 : (13, 20.000000) count=1.000000
                                    223 ;	genCast
                                    224 ;	genCopy
                                    225 ;	Raw cost for generated ic 4 : (0, 0.000000) count=1.000000
                                    226 ;	genCast
                                    227 ;	genCopy
      00005C BD 09 01         [ 5]  228 	lda	0x109,x
      00005F 9D 02 01         [ 5]  229 	sta	0x102,x
      000062 BD 08 01         [ 5]  230 	lda	0x108,x
      000065 9D 01 01         [ 5]  231 	sta	0x101,x
                                    232 ;	Raw cost for generated ic 5 : (12, 18.000000) count=1.000000
                                    233 ;	genIpush
      000068 A9 00            [ 2]  234 	lda	#0x00
      00006A 48               [ 3]  235 	pha
      00006B A9 01            [ 2]  236 	lda	#0x01
      00006D 48               [ 3]  237 	pha
                                    238 ;	Raw cost for generated ic 6 : (6, 10.000000) count=1.000000
                                    239 ;	genIpush
      00006E BD 04 01         [ 5]  240 	lda	0x104,x
      000071 48               [ 3]  241 	pha
      000072 BD 03 01         [ 5]  242 	lda	0x103,x
      000075 48               [ 3]  243 	pha
                                    244 ;	Raw cost for generated ic 7 : (8, 14.000000) count=1.000000
                                    245 ;	Raw cost for generated ic 8 : (0, 0.000000) count=1.000000
                                    246 ;	genCall
                                    247 ;	genSend
      000076 BD 01 01         [ 5]  248 	lda	0x101,x
      000079 A8               [ 2]  249 	tay
      00007A BD 02 01         [ 5]  250 	lda	0x102,x
      00007D AA               [ 2]  251 	tax
      00007E 98               [ 2]  252 	tya
      00007F 20r00r00         [ 6]  253 	jsr	___memcpy
                                    254 ;	  adjustStack : cycles stk:22  incdec:18  adc:24
      000082 86*00            [ 3]  255 	stx	*(REGTEMP+0)
      000084 BA               [ 2]  256 	tsx
      000085 E8               [ 2]  257 	inx
      000086 E8               [ 2]  258 	inx
      000087 E8               [ 2]  259 	inx
      000088 E8               [ 2]  260 	inx
      000089 9A               [ 2]  261 	txs
                                    262 ;	Raw cost for generated ic 9 : (22, 38.000000) count=1.000000
                                    263 ;	genIpush
      00008A BA               [ 2]  264 	tsx
      00008B BD 09 01         [ 5]  265 	lda	0x109,x
      00008E 48               [ 3]  266 	pha
      00008F BD 08 01         [ 5]  267 	lda	0x108,x
      000092 48               [ 3]  268 	pha
                                    269 ;	Raw cost for generated ic 10 : (9, 16.000000) count=1.000000
                                    270 ;	Raw cost for generated ic 11 : (0, 0.000000) count=1.000000
                                    271 ;	genCall
                                    272 ;	genSend
      000093 A2 00            [ 2]  273 	ldx	#0x00
      000095 A9 01            [ 2]  274 	lda	#0x01
      000097 20r00r00         [ 6]  275 	jsr	_stdc_memreverse8
                                    276 ;	  adjustStack : cycles stk:14  incdec:14  adc:24
      00009A 85*00            [ 3]  277 	sta	*(REGTEMP+0)
      00009C 68               [ 4]  278 	pla
      00009D 68               [ 4]  279 	pla
      00009E A5*00            [ 3]  280 	lda	*(REGTEMP+0)
                                    281 ;	Raw cost for generated ic 12 : (13, 24.000000) count=1.000000
                                    282 ;	genLabel
                                    283 ;	Raw cost for generated ic 13 : (0, 0.000000) count=1.000000
                                    284 ;	genEndFunction
                                    285 ;	  adjustStack : cycles stk:26  incdec:20  adc:24
      0000A0 86*00            [ 3]  286 	stx	*(REGTEMP+0)
      0000A2 BA               [ 2]  287 	tsx
      0000A3 E8               [ 2]  288 	inx
      0000A4 E8               [ 2]  289 	inx
      0000A5 E8               [ 2]  290 	inx
      0000A6 E8               [ 2]  291 	inx
      0000A7 E8               [ 2]  292 	inx
      0000A8 9A               [ 2]  293 	txs
      0000A9 A6*00            [ 3]  294 	ldx	*(REGTEMP+0)
      0000AB 60               [ 6]  295 	rts
                                    296 ;	Raw cost for generated ic 14 : (12, 26.000000) count=1.000000
                                    297 ;------------------------------------------------------------
                                    298 ;Allocation info for local variables in function 'stdc_store8_leu_aligned8'
                                    299 ;------------------------------------------------------------
                                    300 ;ptr           Allocated to stack - sp +8 +2 
                                    301 ;value         Allocated to stack - sp +5 +1 
                                    302 ;sloc0         Allocated to stack - sp +3 +2 
                                    303 ;sloc1         Allocated to stack - sp +1 +2 
                                    304 ;------------------------------------------------------------
                                    305 ;	./../../include/stdbit.h: 448: __STDC_STORE8(8)
                                    306 ;	genLabel
                                    307 ;	Raw cost for generated ic 0 : (0, 0.000000) count=1.000000
                                    308 ;	-----------------------------------------
                                    309 ;	 function stdc_store8_leu_aligned8
                                    310 ;	-----------------------------------------
                                    311 ;	Register assignment is optimal.
                                    312 ;	Stack space usage: 5 bytes.
      0000AC                        313 _stdc_store8_leu_aligned8:
                                    314 ;	genReceive: size=1
                                    315 ;	pushreg: ofs=0
      0000AC 48               [ 3]  316 	pha
                                    317 ;	  adjustStack : cycles stk:12  incdec:12  adc:12
      0000AD 48               [ 3]  318 	pha
      0000AE 48               [ 3]  319 	pha
      0000AF 48               [ 3]  320 	pha
      0000B0 48               [ 3]  321 	pha
                                    322 ;	Raw cost for generated ic 1 : (5, 15.000000) count=1.000000
                                    323 ;	skipping generated iCode
                                    324 ;	Raw cost for generated ic 2 : (0, 0.000000) count=1.000000
                                    325 ;	genAddrOf
      0000B1 BA               [ 2]  326 	tsx
      0000B2 8A               [ 2]  327 	txa
      0000B3 18               [ 2]  328 	clc
      0000B4 69 05            [ 2]  329 	adc	#0x05
      0000B6 9D 03 01         [ 5]  330 	sta	0x103,x
      0000B9 A9 01            [ 2]  331 	lda	#0x01
      0000BB 9D 04 01         [ 5]  332 	sta	0x104,x
                                    333 ;	Raw cost for generated ic 3 : (13, 20.000000) count=1.000000
                                    334 ;	genCast
                                    335 ;	genCopy
                                    336 ;	Raw cost for generated ic 4 : (0, 0.000000) count=1.000000
                                    337 ;	genCast
                                    338 ;	genCopy
      0000BE BD 09 01         [ 5]  339 	lda	0x109,x
      0000C1 9D 02 01         [ 5]  340 	sta	0x102,x
      0000C4 BD 08 01         [ 5]  341 	lda	0x108,x
      0000C7 9D 01 01         [ 5]  342 	sta	0x101,x
                                    343 ;	Raw cost for generated ic 5 : (12, 18.000000) count=1.000000
                                    344 ;	genIpush
      0000CA A9 00            [ 2]  345 	lda	#0x00
      0000CC 48               [ 3]  346 	pha
      0000CD A9 01            [ 2]  347 	lda	#0x01
      0000CF 48               [ 3]  348 	pha
                                    349 ;	Raw cost for generated ic 6 : (6, 10.000000) count=1.000000
                                    350 ;	genIpush
      0000D0 BD 04 01         [ 5]  351 	lda	0x104,x
      0000D3 48               [ 3]  352 	pha
      0000D4 BD 03 01         [ 5]  353 	lda	0x103,x
      0000D7 48               [ 3]  354 	pha
                                    355 ;	Raw cost for generated ic 7 : (8, 14.000000) count=1.000000
                                    356 ;	Raw cost for generated ic 8 : (0, 0.000000) count=1.000000
                                    357 ;	genCall
                                    358 ;	genSend
      0000D8 BD 01 01         [ 5]  359 	lda	0x101,x
      0000DB A8               [ 2]  360 	tay
      0000DC BD 02 01         [ 5]  361 	lda	0x102,x
      0000DF AA               [ 2]  362 	tax
      0000E0 98               [ 2]  363 	tya
      0000E1 20r00r00         [ 6]  364 	jsr	___memcpy
                                    365 ;	  adjustStack : cycles stk:22  incdec:18  adc:24
      0000E4 86*00            [ 3]  366 	stx	*(REGTEMP+0)
      0000E6 BA               [ 2]  367 	tsx
      0000E7 E8               [ 2]  368 	inx
      0000E8 E8               [ 2]  369 	inx
      0000E9 E8               [ 2]  370 	inx
      0000EA E8               [ 2]  371 	inx
      0000EB 9A               [ 2]  372 	txs
                                    373 ;	Raw cost for generated ic 9 : (22, 38.000000) count=1.000000
                                    374 ;	genLabel
                                    375 ;	Raw cost for generated ic 10 : (0, 0.000000) count=1.000000
                                    376 ;	genEndFunction
                                    377 ;	  adjustStack : cycles stk:26  incdec:20  adc:24
      0000EC BA               [ 2]  378 	tsx
      0000ED E8               [ 2]  379 	inx
      0000EE E8               [ 2]  380 	inx
      0000EF E8               [ 2]  381 	inx
      0000F0 E8               [ 2]  382 	inx
      0000F1 E8               [ 2]  383 	inx
      0000F2 9A               [ 2]  384 	txs
      0000F3 A6*00            [ 3]  385 	ldx	*(REGTEMP+0)
      0000F5 60               [ 6]  386 	rts
                                    387 ;	Raw cost for generated ic 11 : (12, 26.000000) count=1.000000
                                    388 ;------------------------------------------------------------
                                    389 ;Allocation info for local variables in function 'stdc_store8_beu_aligned8'
                                    390 ;------------------------------------------------------------
                                    391 ;ptr           Allocated to stack - sp +8 +2 
                                    392 ;value         Allocated to stack - sp +5 +1 
                                    393 ;sloc0         Allocated to stack - sp +3 +2 
                                    394 ;sloc1         Allocated to stack - sp +1 +2 
                                    395 ;------------------------------------------------------------
                                    396 ;	./../../include/stdbit.h: 448: __STDC_STORE8(16)
                                    397 ;	genLabel
                                    398 ;	Raw cost for generated ic 0 : (0, 0.000000) count=1.000000
                                    399 ;	-----------------------------------------
                                    400 ;	 function stdc_store8_beu_aligned8
                                    401 ;	-----------------------------------------
                                    402 ;	Register assignment is optimal.
                                    403 ;	Stack space usage: 5 bytes.
      0000F6                        404 _stdc_store8_beu_aligned8:
                                    405 ;	genReceive: size=1
                                    406 ;	pushreg: ofs=0
      0000F6 48               [ 3]  407 	pha
                                    408 ;	  adjustStack : cycles stk:12  incdec:12  adc:12
      0000F7 48               [ 3]  409 	pha
      0000F8 48               [ 3]  410 	pha
      0000F9 48               [ 3]  411 	pha
      0000FA 48               [ 3]  412 	pha
                                    413 ;	Raw cost for generated ic 1 : (5, 15.000000) count=1.000000
                                    414 ;	skipping generated iCode
                                    415 ;	Raw cost for generated ic 2 : (0, 0.000000) count=1.000000
                                    416 ;	genAddrOf
      0000FB BA               [ 2]  417 	tsx
      0000FC 8A               [ 2]  418 	txa
      0000FD 18               [ 2]  419 	clc
      0000FE 69 05            [ 2]  420 	adc	#0x05
      000100 9D 03 01         [ 5]  421 	sta	0x103,x
      000103 A9 01            [ 2]  422 	lda	#0x01
      000105 9D 04 01         [ 5]  423 	sta	0x104,x
                                    424 ;	Raw cost for generated ic 3 : (13, 20.000000) count=1.000000
                                    425 ;	genCast
                                    426 ;	genCopy
                                    427 ;	Raw cost for generated ic 4 : (0, 0.000000) count=1.000000
                                    428 ;	genCast
                                    429 ;	genCopy
      000108 BD 09 01         [ 5]  430 	lda	0x109,x
      00010B 9D 02 01         [ 5]  431 	sta	0x102,x
      00010E BD 08 01         [ 5]  432 	lda	0x108,x
      000111 9D 01 01         [ 5]  433 	sta	0x101,x
                                    434 ;	Raw cost for generated ic 5 : (12, 18.000000) count=1.000000
                                    435 ;	genIpush
      000114 A9 00            [ 2]  436 	lda	#0x00
      000116 48               [ 3]  437 	pha
      000117 A9 01            [ 2]  438 	lda	#0x01
      000119 48               [ 3]  439 	pha
                                    440 ;	Raw cost for generated ic 6 : (6, 10.000000) count=1.000000
                                    441 ;	genIpush
      00011A BD 04 01         [ 5]  442 	lda	0x104,x
      00011D 48               [ 3]  443 	pha
      00011E BD 03 01         [ 5]  444 	lda	0x103,x
      000121 48               [ 3]  445 	pha
                                    446 ;	Raw cost for generated ic 7 : (8, 14.000000) count=1.000000
                                    447 ;	Raw cost for generated ic 8 : (0, 0.000000) count=1.000000
                                    448 ;	genCall
                                    449 ;	genSend
      000122 BD 01 01         [ 5]  450 	lda	0x101,x
      000125 A8               [ 2]  451 	tay
      000126 BD 02 01         [ 5]  452 	lda	0x102,x
      000129 AA               [ 2]  453 	tax
      00012A 98               [ 2]  454 	tya
      00012B 20r00r00         [ 6]  455 	jsr	___memcpy
                                    456 ;	  adjustStack : cycles stk:22  incdec:18  adc:24
      00012E 86*00            [ 3]  457 	stx	*(REGTEMP+0)
      000130 BA               [ 2]  458 	tsx
      000131 E8               [ 2]  459 	inx
      000132 E8               [ 2]  460 	inx
      000133 E8               [ 2]  461 	inx
      000134 E8               [ 2]  462 	inx
      000135 9A               [ 2]  463 	txs
                                    464 ;	Raw cost for generated ic 9 : (22, 38.000000) count=1.000000
                                    465 ;	genIpush
      000136 BA               [ 2]  466 	tsx
      000137 BD 09 01         [ 5]  467 	lda	0x109,x
      00013A 48               [ 3]  468 	pha
      00013B BD 08 01         [ 5]  469 	lda	0x108,x
      00013E 48               [ 3]  470 	pha
                                    471 ;	Raw cost for generated ic 10 : (9, 16.000000) count=1.000000
                                    472 ;	Raw cost for generated ic 11 : (0, 0.000000) count=1.000000
                                    473 ;	genCall
                                    474 ;	genSend
      00013F A2 00            [ 2]  475 	ldx	#0x00
      000141 A9 01            [ 2]  476 	lda	#0x01
      000143 20r00r00         [ 6]  477 	jsr	_stdc_memreverse8
                                    478 ;	  adjustStack : cycles stk:14  incdec:14  adc:24
      000146 85*00            [ 3]  479 	sta	*(REGTEMP+0)
      000148 68               [ 4]  480 	pla
      000149 68               [ 4]  481 	pla
      00014A A5*00            [ 3]  482 	lda	*(REGTEMP+0)
                                    483 ;	Raw cost for generated ic 12 : (13, 24.000000) count=1.000000
                                    484 ;	genLabel
                                    485 ;	Raw cost for generated ic 13 : (0, 0.000000) count=1.000000
                                    486 ;	genEndFunction
                                    487 ;	  adjustStack : cycles stk:26  incdec:20  adc:24
      00014C 86*00            [ 3]  488 	stx	*(REGTEMP+0)
      00014E BA               [ 2]  489 	tsx
      00014F E8               [ 2]  490 	inx
      000150 E8               [ 2]  491 	inx
      000151 E8               [ 2]  492 	inx
      000152 E8               [ 2]  493 	inx
      000153 E8               [ 2]  494 	inx
      000154 9A               [ 2]  495 	txs
      000155 A6*00            [ 3]  496 	ldx	*(REGTEMP+0)
      000157 60               [ 6]  497 	rts
                                    498 ;	Raw cost for generated ic 14 : (12, 26.000000) count=1.000000
                                    499 ;------------------------------------------------------------
                                    500 ;Allocation info for local variables in function 'stdc_store8_les8'
                                    501 ;------------------------------------------------------------
                                    502 ;ptr           Allocated to stack - sp +8 +2 
                                    503 ;value         Allocated to stack - sp +5 +1 
                                    504 ;sloc0         Allocated to stack - sp +3 +2 
                                    505 ;sloc1         Allocated to stack - sp +1 +2 
                                    506 ;------------------------------------------------------------
                                    507 ;	./../../include/stdbit.h: 448: __STDC_STORE8(8)
                                    508 ;	genLabel
                                    509 ;	Raw cost for generated ic 0 : (0, 0.000000) count=1.000000
                                    510 ;	-----------------------------------------
                                    511 ;	 function stdc_store8_les8
                                    512 ;	-----------------------------------------
                                    513 ;	Register assignment is optimal.
                                    514 ;	Stack space usage: 5 bytes.
      000158                        515 _stdc_store8_les8:
                                    516 ;	genReceive: size=1
                                    517 ;	pushreg: ofs=0
      000158 48               [ 3]  518 	pha
                                    519 ;	  adjustStack : cycles stk:12  incdec:12  adc:12
      000159 48               [ 3]  520 	pha
      00015A 48               [ 3]  521 	pha
      00015B 48               [ 3]  522 	pha
      00015C 48               [ 3]  523 	pha
                                    524 ;	Raw cost for generated ic 1 : (5, 15.000000) count=1.000000
                                    525 ;	skipping generated iCode
                                    526 ;	Raw cost for generated ic 2 : (0, 0.000000) count=1.000000
                                    527 ;	genAddrOf
      00015D BA               [ 2]  528 	tsx
      00015E 8A               [ 2]  529 	txa
      00015F 18               [ 2]  530 	clc
      000160 69 05            [ 2]  531 	adc	#0x05
      000162 9D 03 01         [ 5]  532 	sta	0x103,x
      000165 A9 01            [ 2]  533 	lda	#0x01
      000167 9D 04 01         [ 5]  534 	sta	0x104,x
                                    535 ;	Raw cost for generated ic 3 : (13, 20.000000) count=1.000000
                                    536 ;	genCast
                                    537 ;	genCopy
                                    538 ;	Raw cost for generated ic 4 : (0, 0.000000) count=1.000000
                                    539 ;	genCast
                                    540 ;	genCopy
      00016A BD 09 01         [ 5]  541 	lda	0x109,x
      00016D 9D 02 01         [ 5]  542 	sta	0x102,x
      000170 BD 08 01         [ 5]  543 	lda	0x108,x
      000173 9D 01 01         [ 5]  544 	sta	0x101,x
                                    545 ;	Raw cost for generated ic 5 : (12, 18.000000) count=1.000000
                                    546 ;	genIpush
      000176 A9 00            [ 2]  547 	lda	#0x00
      000178 48               [ 3]  548 	pha
      000179 A9 01            [ 2]  549 	lda	#0x01
      00017B 48               [ 3]  550 	pha
                                    551 ;	Raw cost for generated ic 6 : (6, 10.000000) count=1.000000
                                    552 ;	genIpush
      00017C BD 04 01         [ 5]  553 	lda	0x104,x
      00017F 48               [ 3]  554 	pha
      000180 BD 03 01         [ 5]  555 	lda	0x103,x
      000183 48               [ 3]  556 	pha
                                    557 ;	Raw cost for generated ic 7 : (8, 14.000000) count=1.000000
                                    558 ;	Raw cost for generated ic 8 : (0, 0.000000) count=1.000000
                                    559 ;	genCall
                                    560 ;	genSend
      000184 BD 01 01         [ 5]  561 	lda	0x101,x
      000187 A8               [ 2]  562 	tay
      000188 BD 02 01         [ 5]  563 	lda	0x102,x
      00018B AA               [ 2]  564 	tax
      00018C 98               [ 2]  565 	tya
      00018D 20r00r00         [ 6]  566 	jsr	___memcpy
                                    567 ;	  adjustStack : cycles stk:22  incdec:18  adc:24
      000190 86*00            [ 3]  568 	stx	*(REGTEMP+0)
      000192 BA               [ 2]  569 	tsx
      000193 E8               [ 2]  570 	inx
      000194 E8               [ 2]  571 	inx
      000195 E8               [ 2]  572 	inx
      000196 E8               [ 2]  573 	inx
      000197 9A               [ 2]  574 	txs
                                    575 ;	Raw cost for generated ic 9 : (22, 38.000000) count=1.000000
                                    576 ;	genLabel
                                    577 ;	Raw cost for generated ic 10 : (0, 0.000000) count=1.000000
                                    578 ;	genEndFunction
                                    579 ;	  adjustStack : cycles stk:26  incdec:20  adc:24
      000198 BA               [ 2]  580 	tsx
      000199 E8               [ 2]  581 	inx
      00019A E8               [ 2]  582 	inx
      00019B E8               [ 2]  583 	inx
      00019C E8               [ 2]  584 	inx
      00019D E8               [ 2]  585 	inx
      00019E 9A               [ 2]  586 	txs
      00019F A6*00            [ 3]  587 	ldx	*(REGTEMP+0)
      0001A1 60               [ 6]  588 	rts
                                    589 ;	Raw cost for generated ic 11 : (12, 26.000000) count=1.000000
                                    590 ;------------------------------------------------------------
                                    591 ;Allocation info for local variables in function 'stdc_store8_bes8'
                                    592 ;------------------------------------------------------------
                                    593 ;ptr           Allocated to stack - sp +8 +2 
                                    594 ;value         Allocated to stack - sp +5 +1 
                                    595 ;sloc0         Allocated to stack - sp +3 +2 
                                    596 ;sloc1         Allocated to stack - sp +1 +2 
                                    597 ;------------------------------------------------------------
                                    598 ;	./../../include/stdbit.h: 448: __STDC_STORE8(16)
                                    599 ;	genLabel
                                    600 ;	Raw cost for generated ic 0 : (0, 0.000000) count=1.000000
                                    601 ;	-----------------------------------------
                                    602 ;	 function stdc_store8_bes8
                                    603 ;	-----------------------------------------
                                    604 ;	Register assignment is optimal.
                                    605 ;	Stack space usage: 5 bytes.
      0001A2                        606 _stdc_store8_bes8:
                                    607 ;	genReceive: size=1
                                    608 ;	pushreg: ofs=0
      0001A2 48               [ 3]  609 	pha
                                    610 ;	  adjustStack : cycles stk:12  incdec:12  adc:12
      0001A3 48               [ 3]  611 	pha
      0001A4 48               [ 3]  612 	pha
      0001A5 48               [ 3]  613 	pha
      0001A6 48               [ 3]  614 	pha
                                    615 ;	Raw cost for generated ic 1 : (5, 15.000000) count=1.000000
                                    616 ;	skipping generated iCode
                                    617 ;	Raw cost for generated ic 2 : (0, 0.000000) count=1.000000
                                    618 ;	genAddrOf
      0001A7 BA               [ 2]  619 	tsx
      0001A8 8A               [ 2]  620 	txa
      0001A9 18               [ 2]  621 	clc
      0001AA 69 05            [ 2]  622 	adc	#0x05
      0001AC 9D 03 01         [ 5]  623 	sta	0x103,x
      0001AF A9 01            [ 2]  624 	lda	#0x01
      0001B1 9D 04 01         [ 5]  625 	sta	0x104,x
                                    626 ;	Raw cost for generated ic 3 : (13, 20.000000) count=1.000000
                                    627 ;	genCast
                                    628 ;	genCopy
                                    629 ;	Raw cost for generated ic 4 : (0, 0.000000) count=1.000000
                                    630 ;	genCast
                                    631 ;	genCopy
      0001B4 BD 09 01         [ 5]  632 	lda	0x109,x
      0001B7 9D 02 01         [ 5]  633 	sta	0x102,x
      0001BA BD 08 01         [ 5]  634 	lda	0x108,x
      0001BD 9D 01 01         [ 5]  635 	sta	0x101,x
                                    636 ;	Raw cost for generated ic 5 : (12, 18.000000) count=1.000000
                                    637 ;	genIpush
      0001C0 A9 00            [ 2]  638 	lda	#0x00
      0001C2 48               [ 3]  639 	pha
      0001C3 A9 01            [ 2]  640 	lda	#0x01
      0001C5 48               [ 3]  641 	pha
                                    642 ;	Raw cost for generated ic 6 : (6, 10.000000) count=1.000000
                                    643 ;	genIpush
      0001C6 BD 04 01         [ 5]  644 	lda	0x104,x
      0001C9 48               [ 3]  645 	pha
      0001CA BD 03 01         [ 5]  646 	lda	0x103,x
      0001CD 48               [ 3]  647 	pha
                                    648 ;	Raw cost for generated ic 7 : (8, 14.000000) count=1.000000
                                    649 ;	Raw cost for generated ic 8 : (0, 0.000000) count=1.000000
                                    650 ;	genCall
                                    651 ;	genSend
      0001CE BD 01 01         [ 5]  652 	lda	0x101,x
      0001D1 A8               [ 2]  653 	tay
      0001D2 BD 02 01         [ 5]  654 	lda	0x102,x
      0001D5 AA               [ 2]  655 	tax
      0001D6 98               [ 2]  656 	tya
      0001D7 20r00r00         [ 6]  657 	jsr	___memcpy
                                    658 ;	  adjustStack : cycles stk:22  incdec:18  adc:24
      0001DA 86*00            [ 3]  659 	stx	*(REGTEMP+0)
      0001DC BA               [ 2]  660 	tsx
      0001DD E8               [ 2]  661 	inx
      0001DE E8               [ 2]  662 	inx
      0001DF E8               [ 2]  663 	inx
      0001E0 E8               [ 2]  664 	inx
      0001E1 9A               [ 2]  665 	txs
                                    666 ;	Raw cost for generated ic 9 : (22, 38.000000) count=1.000000
                                    667 ;	genIpush
      0001E2 BA               [ 2]  668 	tsx
      0001E3 BD 09 01         [ 5]  669 	lda	0x109,x
      0001E6 48               [ 3]  670 	pha
      0001E7 BD 08 01         [ 5]  671 	lda	0x108,x
      0001EA 48               [ 3]  672 	pha
                                    673 ;	Raw cost for generated ic 10 : (9, 16.000000) count=1.000000
                                    674 ;	Raw cost for generated ic 11 : (0, 0.000000) count=1.000000
                                    675 ;	genCall
                                    676 ;	genSend
      0001EB A2 00            [ 2]  677 	ldx	#0x00
      0001ED A9 01            [ 2]  678 	lda	#0x01
      0001EF 20r00r00         [ 6]  679 	jsr	_stdc_memreverse8
                                    680 ;	  adjustStack : cycles stk:14  incdec:14  adc:24
      0001F2 85*00            [ 3]  681 	sta	*(REGTEMP+0)
      0001F4 68               [ 4]  682 	pla
      0001F5 68               [ 4]  683 	pla
      0001F6 A5*00            [ 3]  684 	lda	*(REGTEMP+0)
                                    685 ;	Raw cost for generated ic 12 : (13, 24.000000) count=1.000000
                                    686 ;	genLabel
                                    687 ;	Raw cost for generated ic 13 : (0, 0.000000) count=1.000000
                                    688 ;	genEndFunction
                                    689 ;	  adjustStack : cycles stk:26  incdec:20  adc:24
      0001F8 86*00            [ 3]  690 	stx	*(REGTEMP+0)
      0001FA BA               [ 2]  691 	tsx
      0001FB E8               [ 2]  692 	inx
      0001FC E8               [ 2]  693 	inx
      0001FD E8               [ 2]  694 	inx
      0001FE E8               [ 2]  695 	inx
      0001FF E8               [ 2]  696 	inx
      000200 9A               [ 2]  697 	txs
      000201 A6*00            [ 3]  698 	ldx	*(REGTEMP+0)
      000203 60               [ 6]  699 	rts
                                    700 ;	Raw cost for generated ic 14 : (12, 26.000000) count=1.000000
                                    701 ;------------------------------------------------------------
                                    702 ;Allocation info for local variables in function 'stdc_store8_les_aligned8'
                                    703 ;------------------------------------------------------------
                                    704 ;ptr           Allocated to stack - sp +8 +2 
                                    705 ;value         Allocated to stack - sp +5 +1 
                                    706 ;sloc0         Allocated to stack - sp +3 +2 
                                    707 ;sloc1         Allocated to stack - sp +1 +2 
                                    708 ;------------------------------------------------------------
                                    709 ;	./../../include/stdbit.h: 448: __STDC_STORE8(8)
                                    710 ;	genLabel
                                    711 ;	Raw cost for generated ic 0 : (0, 0.000000) count=1.000000
                                    712 ;	-----------------------------------------
                                    713 ;	 function stdc_store8_les_aligned8
                                    714 ;	-----------------------------------------
                                    715 ;	Register assignment is optimal.
                                    716 ;	Stack space usage: 5 bytes.
      000204                        717 _stdc_store8_les_aligned8:
                                    718 ;	genReceive: size=1
                                    719 ;	pushreg: ofs=0
      000204 48               [ 3]  720 	pha
                                    721 ;	  adjustStack : cycles stk:12  incdec:12  adc:12
      000205 48               [ 3]  722 	pha
      000206 48               [ 3]  723 	pha
      000207 48               [ 3]  724 	pha
      000208 48               [ 3]  725 	pha
                                    726 ;	Raw cost for generated ic 1 : (5, 15.000000) count=1.000000
                                    727 ;	skipping generated iCode
                                    728 ;	Raw cost for generated ic 2 : (0, 0.000000) count=1.000000
                                    729 ;	genAddrOf
      000209 BA               [ 2]  730 	tsx
      00020A 8A               [ 2]  731 	txa
      00020B 18               [ 2]  732 	clc
      00020C 69 05            [ 2]  733 	adc	#0x05
      00020E 9D 03 01         [ 5]  734 	sta	0x103,x
      000211 A9 01            [ 2]  735 	lda	#0x01
      000213 9D 04 01         [ 5]  736 	sta	0x104,x
                                    737 ;	Raw cost for generated ic 3 : (13, 20.000000) count=1.000000
                                    738 ;	genCast
                                    739 ;	genCopy
                                    740 ;	Raw cost for generated ic 4 : (0, 0.000000) count=1.000000
                                    741 ;	genCast
                                    742 ;	genCopy
      000216 BD 09 01         [ 5]  743 	lda	0x109,x
      000219 9D 02 01         [ 5]  744 	sta	0x102,x
      00021C BD 08 01         [ 5]  745 	lda	0x108,x
      00021F 9D 01 01         [ 5]  746 	sta	0x101,x
                                    747 ;	Raw cost for generated ic 5 : (12, 18.000000) count=1.000000
                                    748 ;	genIpush
      000222 A9 00            [ 2]  749 	lda	#0x00
      000224 48               [ 3]  750 	pha
      000225 A9 01            [ 2]  751 	lda	#0x01
      000227 48               [ 3]  752 	pha
                                    753 ;	Raw cost for generated ic 6 : (6, 10.000000) count=1.000000
                                    754 ;	genIpush
      000228 BD 04 01         [ 5]  755 	lda	0x104,x
      00022B 48               [ 3]  756 	pha
      00022C BD 03 01         [ 5]  757 	lda	0x103,x
      00022F 48               [ 3]  758 	pha
                                    759 ;	Raw cost for generated ic 7 : (8, 14.000000) count=1.000000
                                    760 ;	Raw cost for generated ic 8 : (0, 0.000000) count=1.000000
                                    761 ;	genCall
                                    762 ;	genSend
      000230 BD 01 01         [ 5]  763 	lda	0x101,x
      000233 A8               [ 2]  764 	tay
      000234 BD 02 01         [ 5]  765 	lda	0x102,x
      000237 AA               [ 2]  766 	tax
      000238 98               [ 2]  767 	tya
      000239 20r00r00         [ 6]  768 	jsr	___memcpy
                                    769 ;	  adjustStack : cycles stk:22  incdec:18  adc:24
      00023C 86*00            [ 3]  770 	stx	*(REGTEMP+0)
      00023E BA               [ 2]  771 	tsx
      00023F E8               [ 2]  772 	inx
      000240 E8               [ 2]  773 	inx
      000241 E8               [ 2]  774 	inx
      000242 E8               [ 2]  775 	inx
      000243 9A               [ 2]  776 	txs
                                    777 ;	Raw cost for generated ic 9 : (22, 38.000000) count=1.000000
                                    778 ;	genLabel
                                    779 ;	Raw cost for generated ic 10 : (0, 0.000000) count=1.000000
                                    780 ;	genEndFunction
                                    781 ;	  adjustStack : cycles stk:26  incdec:20  adc:24
      000244 BA               [ 2]  782 	tsx
      000245 E8               [ 2]  783 	inx
      000246 E8               [ 2]  784 	inx
      000247 E8               [ 2]  785 	inx
      000248 E8               [ 2]  786 	inx
      000249 E8               [ 2]  787 	inx
      00024A 9A               [ 2]  788 	txs
      00024B A6*00            [ 3]  789 	ldx	*(REGTEMP+0)
      00024D 60               [ 6]  790 	rts
                                    791 ;	Raw cost for generated ic 11 : (12, 26.000000) count=1.000000
                                    792 ;------------------------------------------------------------
                                    793 ;Allocation info for local variables in function 'stdc_store8_bes_aligned8'
                                    794 ;------------------------------------------------------------
                                    795 ;ptr           Allocated to stack - sp +8 +2 
                                    796 ;value         Allocated to stack - sp +5 +1 
                                    797 ;sloc0         Allocated to stack - sp +3 +2 
                                    798 ;sloc1         Allocated to stack - sp +1 +2 
                                    799 ;------------------------------------------------------------
                                    800 ;	./../../include/stdbit.h: 448: __STDC_STORE8(16)
                                    801 ;	genLabel
                                    802 ;	Raw cost for generated ic 0 : (0, 0.000000) count=1.000000
                                    803 ;	-----------------------------------------
                                    804 ;	 function stdc_store8_bes_aligned8
                                    805 ;	-----------------------------------------
                                    806 ;	Register assignment is optimal.
                                    807 ;	Stack space usage: 5 bytes.
      00024E                        808 _stdc_store8_bes_aligned8:
                                    809 ;	genReceive: size=1
                                    810 ;	pushreg: ofs=0
      00024E 48               [ 3]  811 	pha
                                    812 ;	  adjustStack : cycles stk:12  incdec:12  adc:12
      00024F 48               [ 3]  813 	pha
      000250 48               [ 3]  814 	pha
      000251 48               [ 3]  815 	pha
      000252 48               [ 3]  816 	pha
                                    817 ;	Raw cost for generated ic 1 : (5, 15.000000) count=1.000000
                                    818 ;	skipping generated iCode
                                    819 ;	Raw cost for generated ic 2 : (0, 0.000000) count=1.000000
                                    820 ;	genAddrOf
      000253 BA               [ 2]  821 	tsx
      000254 8A               [ 2]  822 	txa
      000255 18               [ 2]  823 	clc
      000256 69 05            [ 2]  824 	adc	#0x05
      000258 9D 03 01         [ 5]  825 	sta	0x103,x
      00025B A9 01            [ 2]  826 	lda	#0x01
      00025D 9D 04 01         [ 5]  827 	sta	0x104,x
                                    828 ;	Raw cost for generated ic 3 : (13, 20.000000) count=1.000000
                                    829 ;	genCast
                                    830 ;	genCopy
                                    831 ;	Raw cost for generated ic 4 : (0, 0.000000) count=1.000000
                                    832 ;	genCast
                                    833 ;	genCopy
      000260 BD 09 01         [ 5]  834 	lda	0x109,x
      000263 9D 02 01         [ 5]  835 	sta	0x102,x
      000266 BD 08 01         [ 5]  836 	lda	0x108,x
      000269 9D 01 01         [ 5]  837 	sta	0x101,x
                                    838 ;	Raw cost for generated ic 5 : (12, 18.000000) count=1.000000
                                    839 ;	genIpush
      00026C A9 00            [ 2]  840 	lda	#0x00
      00026E 48               [ 3]  841 	pha
      00026F A9 01            [ 2]  842 	lda	#0x01
      000271 48               [ 3]  843 	pha
                                    844 ;	Raw cost for generated ic 6 : (6, 10.000000) count=1.000000
                                    845 ;	genIpush
      000272 BD 04 01         [ 5]  846 	lda	0x104,x
      000275 48               [ 3]  847 	pha
      000276 BD 03 01         [ 5]  848 	lda	0x103,x
      000279 48               [ 3]  849 	pha
                                    850 ;	Raw cost for generated ic 7 : (8, 14.000000) count=1.000000
                                    851 ;	Raw cost for generated ic 8 : (0, 0.000000) count=1.000000
                                    852 ;	genCall
                                    853 ;	genSend
      00027A BD 01 01         [ 5]  854 	lda	0x101,x
      00027D A8               [ 2]  855 	tay
      00027E BD 02 01         [ 5]  856 	lda	0x102,x
      000281 AA               [ 2]  857 	tax
      000282 98               [ 2]  858 	tya
      000283 20r00r00         [ 6]  859 	jsr	___memcpy
                                    860 ;	  adjustStack : cycles stk:22  incdec:18  adc:24
      000286 86*00            [ 3]  861 	stx	*(REGTEMP+0)
      000288 BA               [ 2]  862 	tsx
      000289 E8               [ 2]  863 	inx
      00028A E8               [ 2]  864 	inx
      00028B E8               [ 2]  865 	inx
      00028C E8               [ 2]  866 	inx
      00028D 9A               [ 2]  867 	txs
                                    868 ;	Raw cost for generated ic 9 : (22, 38.000000) count=1.000000
                                    869 ;	genIpush
      00028E BA               [ 2]  870 	tsx
      00028F BD 09 01         [ 5]  871 	lda	0x109,x
      000292 48               [ 3]  872 	pha
      000293 BD 08 01         [ 5]  873 	lda	0x108,x
      000296 48               [ 3]  874 	pha
                                    875 ;	Raw cost for generated ic 10 : (9, 16.000000) count=1.000000
                                    876 ;	Raw cost for generated ic 11 : (0, 0.000000) count=1.000000
                                    877 ;	genCall
                                    878 ;	genSend
      000297 A2 00            [ 2]  879 	ldx	#0x00
      000299 A9 01            [ 2]  880 	lda	#0x01
      00029B 20r00r00         [ 6]  881 	jsr	_stdc_memreverse8
                                    882 ;	  adjustStack : cycles stk:14  incdec:14  adc:24
      00029E 85*00            [ 3]  883 	sta	*(REGTEMP+0)
      0002A0 68               [ 4]  884 	pla
      0002A1 68               [ 4]  885 	pla
      0002A2 A5*00            [ 3]  886 	lda	*(REGTEMP+0)
                                    887 ;	Raw cost for generated ic 12 : (13, 24.000000) count=1.000000
                                    888 ;	genLabel
                                    889 ;	Raw cost for generated ic 13 : (0, 0.000000) count=1.000000
                                    890 ;	genEndFunction
                                    891 ;	  adjustStack : cycles stk:26  incdec:20  adc:24
      0002A4 86*00            [ 3]  892 	stx	*(REGTEMP+0)
      0002A6 BA               [ 2]  893 	tsx
      0002A7 E8               [ 2]  894 	inx
      0002A8 E8               [ 2]  895 	inx
      0002A9 E8               [ 2]  896 	inx
      0002AA E8               [ 2]  897 	inx
      0002AB E8               [ 2]  898 	inx
      0002AC 9A               [ 2]  899 	txs
      0002AD A6*00            [ 3]  900 	ldx	*(REGTEMP+0)
      0002AF 60               [ 6]  901 	rts
                                    902 ;	Raw cost for generated ic 14 : (12, 26.000000) count=1.000000
                                    903 ;------------------------------------------------------------
                                    904 ;Allocation info for local variables in function 'stdc_store8_leu16'
                                    905 ;------------------------------------------------------------
                                    906 ;ptr           Allocated to stack - sp +9 +2 
                                    907 ;value         Allocated to stack - sp +5 +2 
                                    908 ;sloc0         Allocated to stack - sp +3 +2 
                                    909 ;sloc1         Allocated to stack - sp +1 +2 
                                    910 ;------------------------------------------------------------
                                    911 ;	./../../include/stdbit.h: 449: __STDC_STORE8(32)
                                    912 ;	genLabel
                                    913 ;	Raw cost for generated ic 0 : (0, 0.000000) count=1.000000
                                    914 ;	-----------------------------------------
                                    915 ;	 function stdc_store8_leu16
                                    916 ;	-----------------------------------------
                                    917 ;	Register assignment is optimal.
                                    918 ;	Stack space usage: 6 bytes.
      0002B0                        919 _stdc_store8_leu16:
                                    920 ;	genReceive: size=2
                                    921 ;	pushreg: ofs=1
      0002B0 85*00            [ 3]  922 	sta	*(REGTEMP+0)
      0002B2 8A               [ 2]  923 	txa
      0002B3 48               [ 3]  924 	pha
      0002B4 A5*00            [ 3]  925 	lda	*(REGTEMP+0)
                                    926 ;	pushreg: ofs=0
      0002B6 48               [ 3]  927 	pha
                                    928 ;	  adjustStack : cycles stk:12  incdec:12  adc:12
      0002B7 48               [ 3]  929 	pha
      0002B8 48               [ 3]  930 	pha
      0002B9 48               [ 3]  931 	pha
      0002BA 48               [ 3]  932 	pha
                                    933 ;	Raw cost for generated ic 1 : (11, 26.000000) count=1.000000
                                    934 ;	skipping generated iCode
                                    935 ;	Raw cost for generated ic 2 : (0, 0.000000) count=1.000000
                                    936 ;	genAddrOf
      0002BB BA               [ 2]  937 	tsx
      0002BC 8A               [ 2]  938 	txa
      0002BD 18               [ 2]  939 	clc
      0002BE 69 05            [ 2]  940 	adc	#0x05
      0002C0 9D 03 01         [ 5]  941 	sta	0x103,x
      0002C3 A9 01            [ 2]  942 	lda	#0x01
      0002C5 9D 04 01         [ 5]  943 	sta	0x104,x
                                    944 ;	Raw cost for generated ic 3 : (13, 20.000000) count=1.000000
                                    945 ;	genCast
                                    946 ;	genCopy
                                    947 ;	Raw cost for generated ic 4 : (0, 0.000000) count=1.000000
                                    948 ;	genCast
                                    949 ;	genCopy
      0002C8 BD 0A 01         [ 5]  950 	lda	0x10a,x
      0002CB 9D 02 01         [ 5]  951 	sta	0x102,x
      0002CE BD 09 01         [ 5]  952 	lda	0x109,x
      0002D1 9D 01 01         [ 5]  953 	sta	0x101,x
                                    954 ;	Raw cost for generated ic 5 : (12, 18.000000) count=1.000000
                                    955 ;	genIpush
      0002D4 A9 00            [ 2]  956 	lda	#0x00
      0002D6 48               [ 3]  957 	pha
      0002D7 A9 02            [ 2]  958 	lda	#0x02
      0002D9 48               [ 3]  959 	pha
                                    960 ;	Raw cost for generated ic 6 : (6, 10.000000) count=1.000000
                                    961 ;	genIpush
      0002DA BD 04 01         [ 5]  962 	lda	0x104,x
      0002DD 48               [ 3]  963 	pha
      0002DE BD 03 01         [ 5]  964 	lda	0x103,x
      0002E1 48               [ 3]  965 	pha
                                    966 ;	Raw cost for generated ic 7 : (8, 14.000000) count=1.000000
                                    967 ;	Raw cost for generated ic 8 : (0, 0.000000) count=1.000000
                                    968 ;	genCall
                                    969 ;	genSend
      0002E2 BD 01 01         [ 5]  970 	lda	0x101,x
      0002E5 A8               [ 2]  971 	tay
      0002E6 BD 02 01         [ 5]  972 	lda	0x102,x
      0002E9 AA               [ 2]  973 	tax
      0002EA 98               [ 2]  974 	tya
      0002EB 20r00r00         [ 6]  975 	jsr	___memcpy
                                    976 ;	  adjustStack : cycles stk:22  incdec:18  adc:24
      0002EE 86*00            [ 3]  977 	stx	*(REGTEMP+0)
      0002F0 BA               [ 2]  978 	tsx
      0002F1 E8               [ 2]  979 	inx
      0002F2 E8               [ 2]  980 	inx
      0002F3 E8               [ 2]  981 	inx
      0002F4 E8               [ 2]  982 	inx
      0002F5 9A               [ 2]  983 	txs
                                    984 ;	Raw cost for generated ic 9 : (22, 38.000000) count=1.000000
                                    985 ;	genLabel
                                    986 ;	Raw cost for generated ic 10 : (0, 0.000000) count=1.000000
                                    987 ;	genEndFunction
                                    988 ;	  adjustStack : cycles stk:30  incdec:22  adc:24
      0002F6 BA               [ 2]  989 	tsx
      0002F7 E8               [ 2]  990 	inx
      0002F8 E8               [ 2]  991 	inx
      0002F9 E8               [ 2]  992 	inx
      0002FA E8               [ 2]  993 	inx
      0002FB E8               [ 2]  994 	inx
      0002FC E8               [ 2]  995 	inx
      0002FD 9A               [ 2]  996 	txs
      0002FE A6*00            [ 3]  997 	ldx	*(REGTEMP+0)
      000300 60               [ 6]  998 	rts
                                    999 ;	Raw cost for generated ic 11 : (13, 28.000000) count=1.000000
                                   1000 ;------------------------------------------------------------
                                   1001 ;Allocation info for local variables in function 'stdc_store8_beu16'
                                   1002 ;------------------------------------------------------------
                                   1003 ;ptr           Allocated to stack - sp +9 +2 
                                   1004 ;value         Allocated to stack - sp +5 +2 
                                   1005 ;sloc0         Allocated to stack - sp +3 +2 
                                   1006 ;sloc1         Allocated to stack - sp +1 +2 
                                   1007 ;------------------------------------------------------------
                                   1008 ;	./../../include/stdbit.h: 449: __STDC_STORE8(16)
                                   1009 ;	genLabel
                                   1010 ;	Raw cost for generated ic 0 : (0, 0.000000) count=1.000000
                                   1011 ;	-----------------------------------------
                                   1012 ;	 function stdc_store8_beu16
                                   1013 ;	-----------------------------------------
                                   1014 ;	Register assignment is optimal.
                                   1015 ;	Stack space usage: 6 bytes.
      000301                       1016 _stdc_store8_beu16:
                                   1017 ;	genReceive: size=2
                                   1018 ;	pushreg: ofs=1
      000301 85*00            [ 3] 1019 	sta	*(REGTEMP+0)
      000303 8A               [ 2] 1020 	txa
      000304 48               [ 3] 1021 	pha
      000305 A5*00            [ 3] 1022 	lda	*(REGTEMP+0)
                                   1023 ;	pushreg: ofs=0
      000307 48               [ 3] 1024 	pha
                                   1025 ;	  adjustStack : cycles stk:12  incdec:12  adc:12
      000308 48               [ 3] 1026 	pha
      000309 48               [ 3] 1027 	pha
      00030A 48               [ 3] 1028 	pha
      00030B 48               [ 3] 1029 	pha
                                   1030 ;	Raw cost for generated ic 1 : (11, 26.000000) count=1.000000
                                   1031 ;	skipping generated iCode
                                   1032 ;	Raw cost for generated ic 2 : (0, 0.000000) count=1.000000
                                   1033 ;	genAddrOf
      00030C BA               [ 2] 1034 	tsx
      00030D 8A               [ 2] 1035 	txa
      00030E 18               [ 2] 1036 	clc
      00030F 69 05            [ 2] 1037 	adc	#0x05
      000311 9D 03 01         [ 5] 1038 	sta	0x103,x
      000314 A9 01            [ 2] 1039 	lda	#0x01
      000316 9D 04 01         [ 5] 1040 	sta	0x104,x
                                   1041 ;	Raw cost for generated ic 3 : (13, 20.000000) count=1.000000
                                   1042 ;	genCast
                                   1043 ;	genCopy
                                   1044 ;	Raw cost for generated ic 4 : (0, 0.000000) count=1.000000
                                   1045 ;	genCast
                                   1046 ;	genCopy
      000319 BD 0A 01         [ 5] 1047 	lda	0x10a,x
      00031C 9D 02 01         [ 5] 1048 	sta	0x102,x
      00031F BD 09 01         [ 5] 1049 	lda	0x109,x
      000322 9D 01 01         [ 5] 1050 	sta	0x101,x
                                   1051 ;	Raw cost for generated ic 5 : (12, 18.000000) count=1.000000
                                   1052 ;	genIpush
      000325 A9 00            [ 2] 1053 	lda	#0x00
      000327 48               [ 3] 1054 	pha
      000328 A9 02            [ 2] 1055 	lda	#0x02
      00032A 48               [ 3] 1056 	pha
                                   1057 ;	Raw cost for generated ic 6 : (6, 10.000000) count=1.000000
                                   1058 ;	genIpush
      00032B BD 04 01         [ 5] 1059 	lda	0x104,x
      00032E 48               [ 3] 1060 	pha
      00032F BD 03 01         [ 5] 1061 	lda	0x103,x
      000332 48               [ 3] 1062 	pha
                                   1063 ;	Raw cost for generated ic 7 : (8, 14.000000) count=1.000000
                                   1064 ;	Raw cost for generated ic 8 : (0, 0.000000) count=1.000000
                                   1065 ;	genCall
                                   1066 ;	genSend
      000333 BD 01 01         [ 5] 1067 	lda	0x101,x
      000336 A8               [ 2] 1068 	tay
      000337 BD 02 01         [ 5] 1069 	lda	0x102,x
      00033A AA               [ 2] 1070 	tax
      00033B 98               [ 2] 1071 	tya
      00033C 20r00r00         [ 6] 1072 	jsr	___memcpy
                                   1073 ;	  adjustStack : cycles stk:22  incdec:18  adc:24
      00033F 86*00            [ 3] 1074 	stx	*(REGTEMP+0)
      000341 BA               [ 2] 1075 	tsx
      000342 E8               [ 2] 1076 	inx
      000343 E8               [ 2] 1077 	inx
      000344 E8               [ 2] 1078 	inx
      000345 E8               [ 2] 1079 	inx
      000346 9A               [ 2] 1080 	txs
                                   1081 ;	Raw cost for generated ic 9 : (22, 38.000000) count=1.000000
                                   1082 ;	genIpush
      000347 BA               [ 2] 1083 	tsx
      000348 BD 0A 01         [ 5] 1084 	lda	0x10a,x
      00034B 48               [ 3] 1085 	pha
      00034C BD 09 01         [ 5] 1086 	lda	0x109,x
      00034F 48               [ 3] 1087 	pha
                                   1088 ;	Raw cost for generated ic 10 : (9, 16.000000) count=1.000000
                                   1089 ;	Raw cost for generated ic 11 : (0, 0.000000) count=1.000000
                                   1090 ;	genCall
                                   1091 ;	genSend
      000350 A2 00            [ 2] 1092 	ldx	#0x00
      000352 A9 02            [ 2] 1093 	lda	#0x02
      000354 20r00r00         [ 6] 1094 	jsr	_stdc_memreverse8
                                   1095 ;	  adjustStack : cycles stk:14  incdec:14  adc:24
      000357 85*00            [ 3] 1096 	sta	*(REGTEMP+0)
      000359 68               [ 4] 1097 	pla
      00035A 68               [ 4] 1098 	pla
      00035B A5*00            [ 3] 1099 	lda	*(REGTEMP+0)
                                   1100 ;	Raw cost for generated ic 12 : (13, 24.000000) count=1.000000
                                   1101 ;	genLabel
                                   1102 ;	Raw cost for generated ic 13 : (0, 0.000000) count=1.000000
                                   1103 ;	genEndFunction
                                   1104 ;	  adjustStack : cycles stk:30  incdec:22  adc:24
      00035D 86*00            [ 3] 1105 	stx	*(REGTEMP+0)
      00035F BA               [ 2] 1106 	tsx
      000360 E8               [ 2] 1107 	inx
      000361 E8               [ 2] 1108 	inx
      000362 E8               [ 2] 1109 	inx
      000363 E8               [ 2] 1110 	inx
      000364 E8               [ 2] 1111 	inx
      000365 E8               [ 2] 1112 	inx
      000366 9A               [ 2] 1113 	txs
      000367 A6*00            [ 3] 1114 	ldx	*(REGTEMP+0)
      000369 60               [ 6] 1115 	rts
                                   1116 ;	Raw cost for generated ic 14 : (13, 28.000000) count=1.000000
                                   1117 ;------------------------------------------------------------
                                   1118 ;Allocation info for local variables in function 'stdc_store8_leu_aligned16'
                                   1119 ;------------------------------------------------------------
                                   1120 ;ptr           Allocated to stack - sp +9 +2 
                                   1121 ;value         Allocated to stack - sp +5 +2 
                                   1122 ;sloc0         Allocated to stack - sp +3 +2 
                                   1123 ;sloc1         Allocated to stack - sp +1 +2 
                                   1124 ;------------------------------------------------------------
                                   1125 ;	./../../include/stdbit.h: 449: __STDC_STORE8(32)
                                   1126 ;	genLabel
                                   1127 ;	Raw cost for generated ic 0 : (0, 0.000000) count=1.000000
                                   1128 ;	-----------------------------------------
                                   1129 ;	 function stdc_store8_leu_aligned16
                                   1130 ;	-----------------------------------------
                                   1131 ;	Register assignment is optimal.
                                   1132 ;	Stack space usage: 6 bytes.
      00036A                       1133 _stdc_store8_leu_aligned16:
                                   1134 ;	genReceive: size=2
                                   1135 ;	pushreg: ofs=1
      00036A 85*00            [ 3] 1136 	sta	*(REGTEMP+0)
      00036C 8A               [ 2] 1137 	txa
      00036D 48               [ 3] 1138 	pha
      00036E A5*00            [ 3] 1139 	lda	*(REGTEMP+0)
                                   1140 ;	pushreg: ofs=0
      000370 48               [ 3] 1141 	pha
                                   1142 ;	  adjustStack : cycles stk:12  incdec:12  adc:12
      000371 48               [ 3] 1143 	pha
      000372 48               [ 3] 1144 	pha
      000373 48               [ 3] 1145 	pha
      000374 48               [ 3] 1146 	pha
                                   1147 ;	Raw cost for generated ic 1 : (11, 26.000000) count=1.000000
                                   1148 ;	skipping generated iCode
                                   1149 ;	Raw cost for generated ic 2 : (0, 0.000000) count=1.000000
                                   1150 ;	genAddrOf
      000375 BA               [ 2] 1151 	tsx
      000376 8A               [ 2] 1152 	txa
      000377 18               [ 2] 1153 	clc
      000378 69 05            [ 2] 1154 	adc	#0x05
      00037A 9D 03 01         [ 5] 1155 	sta	0x103,x
      00037D A9 01            [ 2] 1156 	lda	#0x01
      00037F 9D 04 01         [ 5] 1157 	sta	0x104,x
                                   1158 ;	Raw cost for generated ic 3 : (13, 20.000000) count=1.000000
                                   1159 ;	genCast
                                   1160 ;	genCopy
                                   1161 ;	Raw cost for generated ic 4 : (0, 0.000000) count=1.000000
                                   1162 ;	genCast
                                   1163 ;	genCopy
      000382 BD 0A 01         [ 5] 1164 	lda	0x10a,x
      000385 9D 02 01         [ 5] 1165 	sta	0x102,x
      000388 BD 09 01         [ 5] 1166 	lda	0x109,x
      00038B 9D 01 01         [ 5] 1167 	sta	0x101,x
                                   1168 ;	Raw cost for generated ic 5 : (12, 18.000000) count=1.000000
                                   1169 ;	genIpush
      00038E A9 00            [ 2] 1170 	lda	#0x00
      000390 48               [ 3] 1171 	pha
      000391 A9 02            [ 2] 1172 	lda	#0x02
      000393 48               [ 3] 1173 	pha
                                   1174 ;	Raw cost for generated ic 6 : (6, 10.000000) count=1.000000
                                   1175 ;	genIpush
      000394 BD 04 01         [ 5] 1176 	lda	0x104,x
      000397 48               [ 3] 1177 	pha
      000398 BD 03 01         [ 5] 1178 	lda	0x103,x
      00039B 48               [ 3] 1179 	pha
                                   1180 ;	Raw cost for generated ic 7 : (8, 14.000000) count=1.000000
                                   1181 ;	Raw cost for generated ic 8 : (0, 0.000000) count=1.000000
                                   1182 ;	genCall
                                   1183 ;	genSend
      00039C BD 01 01         [ 5] 1184 	lda	0x101,x
      00039F A8               [ 2] 1185 	tay
      0003A0 BD 02 01         [ 5] 1186 	lda	0x102,x
      0003A3 AA               [ 2] 1187 	tax
      0003A4 98               [ 2] 1188 	tya
      0003A5 20r00r00         [ 6] 1189 	jsr	___memcpy
                                   1190 ;	  adjustStack : cycles stk:22  incdec:18  adc:24
      0003A8 86*00            [ 3] 1191 	stx	*(REGTEMP+0)
      0003AA BA               [ 2] 1192 	tsx
      0003AB E8               [ 2] 1193 	inx
      0003AC E8               [ 2] 1194 	inx
      0003AD E8               [ 2] 1195 	inx
      0003AE E8               [ 2] 1196 	inx
      0003AF 9A               [ 2] 1197 	txs
                                   1198 ;	Raw cost for generated ic 9 : (22, 38.000000) count=1.000000
                                   1199 ;	genLabel
                                   1200 ;	Raw cost for generated ic 10 : (0, 0.000000) count=1.000000
                                   1201 ;	genEndFunction
                                   1202 ;	  adjustStack : cycles stk:30  incdec:22  adc:24
      0003B0 BA               [ 2] 1203 	tsx
      0003B1 E8               [ 2] 1204 	inx
      0003B2 E8               [ 2] 1205 	inx
      0003B3 E8               [ 2] 1206 	inx
      0003B4 E8               [ 2] 1207 	inx
      0003B5 E8               [ 2] 1208 	inx
      0003B6 E8               [ 2] 1209 	inx
      0003B7 9A               [ 2] 1210 	txs
      0003B8 A6*00            [ 3] 1211 	ldx	*(REGTEMP+0)
      0003BA 60               [ 6] 1212 	rts
                                   1213 ;	Raw cost for generated ic 11 : (13, 28.000000) count=1.000000
                                   1214 ;------------------------------------------------------------
                                   1215 ;Allocation info for local variables in function 'stdc_store8_beu_aligned16'
                                   1216 ;------------------------------------------------------------
                                   1217 ;ptr           Allocated to stack - sp +9 +2 
                                   1218 ;value         Allocated to stack - sp +5 +2 
                                   1219 ;sloc0         Allocated to stack - sp +3 +2 
                                   1220 ;sloc1         Allocated to stack - sp +1 +2 
                                   1221 ;------------------------------------------------------------
                                   1222 ;	./../../include/stdbit.h: 449: __STDC_STORE8(16)
                                   1223 ;	genLabel
                                   1224 ;	Raw cost for generated ic 0 : (0, 0.000000) count=1.000000
                                   1225 ;	-----------------------------------------
                                   1226 ;	 function stdc_store8_beu_aligned16
                                   1227 ;	-----------------------------------------
                                   1228 ;	Register assignment is optimal.
                                   1229 ;	Stack space usage: 6 bytes.
      0003BB                       1230 _stdc_store8_beu_aligned16:
                                   1231 ;	genReceive: size=2
                                   1232 ;	pushreg: ofs=1
      0003BB 85*00            [ 3] 1233 	sta	*(REGTEMP+0)
      0003BD 8A               [ 2] 1234 	txa
      0003BE 48               [ 3] 1235 	pha
      0003BF A5*00            [ 3] 1236 	lda	*(REGTEMP+0)
                                   1237 ;	pushreg: ofs=0
      0003C1 48               [ 3] 1238 	pha
                                   1239 ;	  adjustStack : cycles stk:12  incdec:12  adc:12
      0003C2 48               [ 3] 1240 	pha
      0003C3 48               [ 3] 1241 	pha
      0003C4 48               [ 3] 1242 	pha
      0003C5 48               [ 3] 1243 	pha
                                   1244 ;	Raw cost for generated ic 1 : (11, 26.000000) count=1.000000
                                   1245 ;	skipping generated iCode
                                   1246 ;	Raw cost for generated ic 2 : (0, 0.000000) count=1.000000
                                   1247 ;	genAddrOf
      0003C6 BA               [ 2] 1248 	tsx
      0003C7 8A               [ 2] 1249 	txa
      0003C8 18               [ 2] 1250 	clc
      0003C9 69 05            [ 2] 1251 	adc	#0x05
      0003CB 9D 03 01         [ 5] 1252 	sta	0x103,x
      0003CE A9 01            [ 2] 1253 	lda	#0x01
      0003D0 9D 04 01         [ 5] 1254 	sta	0x104,x
                                   1255 ;	Raw cost for generated ic 3 : (13, 20.000000) count=1.000000
                                   1256 ;	genCast
                                   1257 ;	genCopy
                                   1258 ;	Raw cost for generated ic 4 : (0, 0.000000) count=1.000000
                                   1259 ;	genCast
                                   1260 ;	genCopy
      0003D3 BD 0A 01         [ 5] 1261 	lda	0x10a,x
      0003D6 9D 02 01         [ 5] 1262 	sta	0x102,x
      0003D9 BD 09 01         [ 5] 1263 	lda	0x109,x
      0003DC 9D 01 01         [ 5] 1264 	sta	0x101,x
                                   1265 ;	Raw cost for generated ic 5 : (12, 18.000000) count=1.000000
                                   1266 ;	genIpush
      0003DF A9 00            [ 2] 1267 	lda	#0x00
      0003E1 48               [ 3] 1268 	pha
      0003E2 A9 02            [ 2] 1269 	lda	#0x02
      0003E4 48               [ 3] 1270 	pha
                                   1271 ;	Raw cost for generated ic 6 : (6, 10.000000) count=1.000000
                                   1272 ;	genIpush
      0003E5 BD 04 01         [ 5] 1273 	lda	0x104,x
      0003E8 48               [ 3] 1274 	pha
      0003E9 BD 03 01         [ 5] 1275 	lda	0x103,x
      0003EC 48               [ 3] 1276 	pha
                                   1277 ;	Raw cost for generated ic 7 : (8, 14.000000) count=1.000000
                                   1278 ;	Raw cost for generated ic 8 : (0, 0.000000) count=1.000000
                                   1279 ;	genCall
                                   1280 ;	genSend
      0003ED BD 01 01         [ 5] 1281 	lda	0x101,x
      0003F0 A8               [ 2] 1282 	tay
      0003F1 BD 02 01         [ 5] 1283 	lda	0x102,x
      0003F4 AA               [ 2] 1284 	tax
      0003F5 98               [ 2] 1285 	tya
      0003F6 20r00r00         [ 6] 1286 	jsr	___memcpy
                                   1287 ;	  adjustStack : cycles stk:22  incdec:18  adc:24
      0003F9 86*00            [ 3] 1288 	stx	*(REGTEMP+0)
      0003FB BA               [ 2] 1289 	tsx
      0003FC E8               [ 2] 1290 	inx
      0003FD E8               [ 2] 1291 	inx
      0003FE E8               [ 2] 1292 	inx
      0003FF E8               [ 2] 1293 	inx
      000400 9A               [ 2] 1294 	txs
                                   1295 ;	Raw cost for generated ic 9 : (22, 38.000000) count=1.000000
                                   1296 ;	genIpush
      000401 BA               [ 2] 1297 	tsx
      000402 BD 0A 01         [ 5] 1298 	lda	0x10a,x
      000405 48               [ 3] 1299 	pha
      000406 BD 09 01         [ 5] 1300 	lda	0x109,x
      000409 48               [ 3] 1301 	pha
                                   1302 ;	Raw cost for generated ic 10 : (9, 16.000000) count=1.000000
                                   1303 ;	Raw cost for generated ic 11 : (0, 0.000000) count=1.000000
                                   1304 ;	genCall
                                   1305 ;	genSend
      00040A A2 00            [ 2] 1306 	ldx	#0x00
      00040C A9 02            [ 2] 1307 	lda	#0x02
      00040E 20r00r00         [ 6] 1308 	jsr	_stdc_memreverse8
                                   1309 ;	  adjustStack : cycles stk:14  incdec:14  adc:24
      000411 85*00            [ 3] 1310 	sta	*(REGTEMP+0)
      000413 68               [ 4] 1311 	pla
      000414 68               [ 4] 1312 	pla
      000415 A5*00            [ 3] 1313 	lda	*(REGTEMP+0)
                                   1314 ;	Raw cost for generated ic 12 : (13, 24.000000) count=1.000000
                                   1315 ;	genLabel
                                   1316 ;	Raw cost for generated ic 13 : (0, 0.000000) count=1.000000
                                   1317 ;	genEndFunction
                                   1318 ;	  adjustStack : cycles stk:30  incdec:22  adc:24
      000417 86*00            [ 3] 1319 	stx	*(REGTEMP+0)
      000419 BA               [ 2] 1320 	tsx
      00041A E8               [ 2] 1321 	inx
      00041B E8               [ 2] 1322 	inx
      00041C E8               [ 2] 1323 	inx
      00041D E8               [ 2] 1324 	inx
      00041E E8               [ 2] 1325 	inx
      00041F E8               [ 2] 1326 	inx
      000420 9A               [ 2] 1327 	txs
      000421 A6*00            [ 3] 1328 	ldx	*(REGTEMP+0)
      000423 60               [ 6] 1329 	rts
                                   1330 ;	Raw cost for generated ic 14 : (13, 28.000000) count=1.000000
                                   1331 ;------------------------------------------------------------
                                   1332 ;Allocation info for local variables in function 'stdc_store8_les16'
                                   1333 ;------------------------------------------------------------
                                   1334 ;ptr           Allocated to stack - sp +9 +2 
                                   1335 ;value         Allocated to stack - sp +5 +2 
                                   1336 ;sloc0         Allocated to stack - sp +3 +2 
                                   1337 ;sloc1         Allocated to stack - sp +1 +2 
                                   1338 ;------------------------------------------------------------
                                   1339 ;	./../../include/stdbit.h: 449: __STDC_STORE8(32)
                                   1340 ;	genLabel
                                   1341 ;	Raw cost for generated ic 0 : (0, 0.000000) count=1.000000
                                   1342 ;	-----------------------------------------
                                   1343 ;	 function stdc_store8_les16
                                   1344 ;	-----------------------------------------
                                   1345 ;	Register assignment is optimal.
                                   1346 ;	Stack space usage: 6 bytes.
      000424                       1347 _stdc_store8_les16:
                                   1348 ;	genReceive: size=2
                                   1349 ;	pushreg: ofs=1
      000424 85*00            [ 3] 1350 	sta	*(REGTEMP+0)
      000426 8A               [ 2] 1351 	txa
      000427 48               [ 3] 1352 	pha
      000428 A5*00            [ 3] 1353 	lda	*(REGTEMP+0)
                                   1354 ;	pushreg: ofs=0
      00042A 48               [ 3] 1355 	pha
                                   1356 ;	  adjustStack : cycles stk:12  incdec:12  adc:12
      00042B 48               [ 3] 1357 	pha
      00042C 48               [ 3] 1358 	pha
      00042D 48               [ 3] 1359 	pha
      00042E 48               [ 3] 1360 	pha
                                   1361 ;	Raw cost for generated ic 1 : (11, 26.000000) count=1.000000
                                   1362 ;	skipping generated iCode
                                   1363 ;	Raw cost for generated ic 2 : (0, 0.000000) count=1.000000
                                   1364 ;	genAddrOf
      00042F BA               [ 2] 1365 	tsx
      000430 8A               [ 2] 1366 	txa
      000431 18               [ 2] 1367 	clc
      000432 69 05            [ 2] 1368 	adc	#0x05
      000434 9D 03 01         [ 5] 1369 	sta	0x103,x
      000437 A9 01            [ 2] 1370 	lda	#0x01
      000439 9D 04 01         [ 5] 1371 	sta	0x104,x
                                   1372 ;	Raw cost for generated ic 3 : (13, 20.000000) count=1.000000
                                   1373 ;	genCast
                                   1374 ;	genCopy
                                   1375 ;	Raw cost for generated ic 4 : (0, 0.000000) count=1.000000
                                   1376 ;	genCast
                                   1377 ;	genCopy
      00043C BD 0A 01         [ 5] 1378 	lda	0x10a,x
      00043F 9D 02 01         [ 5] 1379 	sta	0x102,x
      000442 BD 09 01         [ 5] 1380 	lda	0x109,x
      000445 9D 01 01         [ 5] 1381 	sta	0x101,x
                                   1382 ;	Raw cost for generated ic 5 : (12, 18.000000) count=1.000000
                                   1383 ;	genIpush
      000448 A9 00            [ 2] 1384 	lda	#0x00
      00044A 48               [ 3] 1385 	pha
      00044B A9 02            [ 2] 1386 	lda	#0x02
      00044D 48               [ 3] 1387 	pha
                                   1388 ;	Raw cost for generated ic 6 : (6, 10.000000) count=1.000000
                                   1389 ;	genIpush
      00044E BD 04 01         [ 5] 1390 	lda	0x104,x
      000451 48               [ 3] 1391 	pha
      000452 BD 03 01         [ 5] 1392 	lda	0x103,x
      000455 48               [ 3] 1393 	pha
                                   1394 ;	Raw cost for generated ic 7 : (8, 14.000000) count=1.000000
                                   1395 ;	Raw cost for generated ic 8 : (0, 0.000000) count=1.000000
                                   1396 ;	genCall
                                   1397 ;	genSend
      000456 BD 01 01         [ 5] 1398 	lda	0x101,x
      000459 A8               [ 2] 1399 	tay
      00045A BD 02 01         [ 5] 1400 	lda	0x102,x
      00045D AA               [ 2] 1401 	tax
      00045E 98               [ 2] 1402 	tya
      00045F 20r00r00         [ 6] 1403 	jsr	___memcpy
                                   1404 ;	  adjustStack : cycles stk:22  incdec:18  adc:24
      000462 86*00            [ 3] 1405 	stx	*(REGTEMP+0)
      000464 BA               [ 2] 1406 	tsx
      000465 E8               [ 2] 1407 	inx
      000466 E8               [ 2] 1408 	inx
      000467 E8               [ 2] 1409 	inx
      000468 E8               [ 2] 1410 	inx
      000469 9A               [ 2] 1411 	txs
                                   1412 ;	Raw cost for generated ic 9 : (22, 38.000000) count=1.000000
                                   1413 ;	genLabel
                                   1414 ;	Raw cost for generated ic 10 : (0, 0.000000) count=1.000000
                                   1415 ;	genEndFunction
                                   1416 ;	  adjustStack : cycles stk:30  incdec:22  adc:24
      00046A BA               [ 2] 1417 	tsx
      00046B E8               [ 2] 1418 	inx
      00046C E8               [ 2] 1419 	inx
      00046D E8               [ 2] 1420 	inx
      00046E E8               [ 2] 1421 	inx
      00046F E8               [ 2] 1422 	inx
      000470 E8               [ 2] 1423 	inx
      000471 9A               [ 2] 1424 	txs
      000472 A6*00            [ 3] 1425 	ldx	*(REGTEMP+0)
      000474 60               [ 6] 1426 	rts
                                   1427 ;	Raw cost for generated ic 11 : (13, 28.000000) count=1.000000
                                   1428 ;------------------------------------------------------------
                                   1429 ;Allocation info for local variables in function 'stdc_store8_bes16'
                                   1430 ;------------------------------------------------------------
                                   1431 ;ptr           Allocated to stack - sp +9 +2 
                                   1432 ;value         Allocated to stack - sp +5 +2 
                                   1433 ;sloc0         Allocated to stack - sp +3 +2 
                                   1434 ;sloc1         Allocated to stack - sp +1 +2 
                                   1435 ;------------------------------------------------------------
                                   1436 ;	./../../include/stdbit.h: 449: __STDC_STORE8(16)
                                   1437 ;	genLabel
                                   1438 ;	Raw cost for generated ic 0 : (0, 0.000000) count=1.000000
                                   1439 ;	-----------------------------------------
                                   1440 ;	 function stdc_store8_bes16
                                   1441 ;	-----------------------------------------
                                   1442 ;	Register assignment is optimal.
                                   1443 ;	Stack space usage: 6 bytes.
      000475                       1444 _stdc_store8_bes16:
                                   1445 ;	genReceive: size=2
                                   1446 ;	pushreg: ofs=1
      000475 85*00            [ 3] 1447 	sta	*(REGTEMP+0)
      000477 8A               [ 2] 1448 	txa
      000478 48               [ 3] 1449 	pha
      000479 A5*00            [ 3] 1450 	lda	*(REGTEMP+0)
                                   1451 ;	pushreg: ofs=0
      00047B 48               [ 3] 1452 	pha
                                   1453 ;	  adjustStack : cycles stk:12  incdec:12  adc:12
      00047C 48               [ 3] 1454 	pha
      00047D 48               [ 3] 1455 	pha
      00047E 48               [ 3] 1456 	pha
      00047F 48               [ 3] 1457 	pha
                                   1458 ;	Raw cost for generated ic 1 : (11, 26.000000) count=1.000000
                                   1459 ;	skipping generated iCode
                                   1460 ;	Raw cost for generated ic 2 : (0, 0.000000) count=1.000000
                                   1461 ;	genAddrOf
      000480 BA               [ 2] 1462 	tsx
      000481 8A               [ 2] 1463 	txa
      000482 18               [ 2] 1464 	clc
      000483 69 05            [ 2] 1465 	adc	#0x05
      000485 9D 03 01         [ 5] 1466 	sta	0x103,x
      000488 A9 01            [ 2] 1467 	lda	#0x01
      00048A 9D 04 01         [ 5] 1468 	sta	0x104,x
                                   1469 ;	Raw cost for generated ic 3 : (13, 20.000000) count=1.000000
                                   1470 ;	genCast
                                   1471 ;	genCopy
                                   1472 ;	Raw cost for generated ic 4 : (0, 0.000000) count=1.000000
                                   1473 ;	genCast
                                   1474 ;	genCopy
      00048D BD 0A 01         [ 5] 1475 	lda	0x10a,x
      000490 9D 02 01         [ 5] 1476 	sta	0x102,x
      000493 BD 09 01         [ 5] 1477 	lda	0x109,x
      000496 9D 01 01         [ 5] 1478 	sta	0x101,x
                                   1479 ;	Raw cost for generated ic 5 : (12, 18.000000) count=1.000000
                                   1480 ;	genIpush
      000499 A9 00            [ 2] 1481 	lda	#0x00
      00049B 48               [ 3] 1482 	pha
      00049C A9 02            [ 2] 1483 	lda	#0x02
      00049E 48               [ 3] 1484 	pha
                                   1485 ;	Raw cost for generated ic 6 : (6, 10.000000) count=1.000000
                                   1486 ;	genIpush
      00049F BD 04 01         [ 5] 1487 	lda	0x104,x
      0004A2 48               [ 3] 1488 	pha
      0004A3 BD 03 01         [ 5] 1489 	lda	0x103,x
      0004A6 48               [ 3] 1490 	pha
                                   1491 ;	Raw cost for generated ic 7 : (8, 14.000000) count=1.000000
                                   1492 ;	Raw cost for generated ic 8 : (0, 0.000000) count=1.000000
                                   1493 ;	genCall
                                   1494 ;	genSend
      0004A7 BD 01 01         [ 5] 1495 	lda	0x101,x
      0004AA A8               [ 2] 1496 	tay
      0004AB BD 02 01         [ 5] 1497 	lda	0x102,x
      0004AE AA               [ 2] 1498 	tax
      0004AF 98               [ 2] 1499 	tya
      0004B0 20r00r00         [ 6] 1500 	jsr	___memcpy
                                   1501 ;	  adjustStack : cycles stk:22  incdec:18  adc:24
      0004B3 86*00            [ 3] 1502 	stx	*(REGTEMP+0)
      0004B5 BA               [ 2] 1503 	tsx
      0004B6 E8               [ 2] 1504 	inx
      0004B7 E8               [ 2] 1505 	inx
      0004B8 E8               [ 2] 1506 	inx
      0004B9 E8               [ 2] 1507 	inx
      0004BA 9A               [ 2] 1508 	txs
                                   1509 ;	Raw cost for generated ic 9 : (22, 38.000000) count=1.000000
                                   1510 ;	genIpush
      0004BB BA               [ 2] 1511 	tsx
      0004BC BD 0A 01         [ 5] 1512 	lda	0x10a,x
      0004BF 48               [ 3] 1513 	pha
      0004C0 BD 09 01         [ 5] 1514 	lda	0x109,x
      0004C3 48               [ 3] 1515 	pha
                                   1516 ;	Raw cost for generated ic 10 : (9, 16.000000) count=1.000000
                                   1517 ;	Raw cost for generated ic 11 : (0, 0.000000) count=1.000000
                                   1518 ;	genCall
                                   1519 ;	genSend
      0004C4 A2 00            [ 2] 1520 	ldx	#0x00
      0004C6 A9 02            [ 2] 1521 	lda	#0x02
      0004C8 20r00r00         [ 6] 1522 	jsr	_stdc_memreverse8
                                   1523 ;	  adjustStack : cycles stk:14  incdec:14  adc:24
      0004CB 85*00            [ 3] 1524 	sta	*(REGTEMP+0)
      0004CD 68               [ 4] 1525 	pla
      0004CE 68               [ 4] 1526 	pla
      0004CF A5*00            [ 3] 1527 	lda	*(REGTEMP+0)
                                   1528 ;	Raw cost for generated ic 12 : (13, 24.000000) count=1.000000
                                   1529 ;	genLabel
                                   1530 ;	Raw cost for generated ic 13 : (0, 0.000000) count=1.000000
                                   1531 ;	genEndFunction
                                   1532 ;	  adjustStack : cycles stk:30  incdec:22  adc:24
      0004D1 86*00            [ 3] 1533 	stx	*(REGTEMP+0)
      0004D3 BA               [ 2] 1534 	tsx
      0004D4 E8               [ 2] 1535 	inx
      0004D5 E8               [ 2] 1536 	inx
      0004D6 E8               [ 2] 1537 	inx
      0004D7 E8               [ 2] 1538 	inx
      0004D8 E8               [ 2] 1539 	inx
      0004D9 E8               [ 2] 1540 	inx
      0004DA 9A               [ 2] 1541 	txs
      0004DB A6*00            [ 3] 1542 	ldx	*(REGTEMP+0)
      0004DD 60               [ 6] 1543 	rts
                                   1544 ;	Raw cost for generated ic 14 : (13, 28.000000) count=1.000000
                                   1545 ;------------------------------------------------------------
                                   1546 ;Allocation info for local variables in function 'stdc_store8_les_aligned16'
                                   1547 ;------------------------------------------------------------
                                   1548 ;ptr           Allocated to stack - sp +9 +2 
                                   1549 ;value         Allocated to stack - sp +5 +2 
                                   1550 ;sloc0         Allocated to stack - sp +3 +2 
                                   1551 ;sloc1         Allocated to stack - sp +1 +2 
                                   1552 ;------------------------------------------------------------
                                   1553 ;	./../../include/stdbit.h: 449: __STDC_STORE8(32)
                                   1554 ;	genLabel
                                   1555 ;	Raw cost for generated ic 0 : (0, 0.000000) count=1.000000
                                   1556 ;	-----------------------------------------
                                   1557 ;	 function stdc_store8_les_aligned16
                                   1558 ;	-----------------------------------------
                                   1559 ;	Register assignment is optimal.
                                   1560 ;	Stack space usage: 6 bytes.
      0004DE                       1561 _stdc_store8_les_aligned16:
                                   1562 ;	genReceive: size=2
                                   1563 ;	pushreg: ofs=1
      0004DE 85*00            [ 3] 1564 	sta	*(REGTEMP+0)
      0004E0 8A               [ 2] 1565 	txa
      0004E1 48               [ 3] 1566 	pha
      0004E2 A5*00            [ 3] 1567 	lda	*(REGTEMP+0)
                                   1568 ;	pushreg: ofs=0
      0004E4 48               [ 3] 1569 	pha
                                   1570 ;	  adjustStack : cycles stk:12  incdec:12  adc:12
      0004E5 48               [ 3] 1571 	pha
      0004E6 48               [ 3] 1572 	pha
      0004E7 48               [ 3] 1573 	pha
      0004E8 48               [ 3] 1574 	pha
                                   1575 ;	Raw cost for generated ic 1 : (11, 26.000000) count=1.000000
                                   1576 ;	skipping generated iCode
                                   1577 ;	Raw cost for generated ic 2 : (0, 0.000000) count=1.000000
                                   1578 ;	genAddrOf
      0004E9 BA               [ 2] 1579 	tsx
      0004EA 8A               [ 2] 1580 	txa
      0004EB 18               [ 2] 1581 	clc
      0004EC 69 05            [ 2] 1582 	adc	#0x05
      0004EE 9D 03 01         [ 5] 1583 	sta	0x103,x
      0004F1 A9 01            [ 2] 1584 	lda	#0x01
      0004F3 9D 04 01         [ 5] 1585 	sta	0x104,x
                                   1586 ;	Raw cost for generated ic 3 : (13, 20.000000) count=1.000000
                                   1587 ;	genCast
                                   1588 ;	genCopy
                                   1589 ;	Raw cost for generated ic 4 : (0, 0.000000) count=1.000000
                                   1590 ;	genCast
                                   1591 ;	genCopy
      0004F6 BD 0A 01         [ 5] 1592 	lda	0x10a,x
      0004F9 9D 02 01         [ 5] 1593 	sta	0x102,x
      0004FC BD 09 01         [ 5] 1594 	lda	0x109,x
      0004FF 9D 01 01         [ 5] 1595 	sta	0x101,x
                                   1596 ;	Raw cost for generated ic 5 : (12, 18.000000) count=1.000000
                                   1597 ;	genIpush
      000502 A9 00            [ 2] 1598 	lda	#0x00
      000504 48               [ 3] 1599 	pha
      000505 A9 02            [ 2] 1600 	lda	#0x02
      000507 48               [ 3] 1601 	pha
                                   1602 ;	Raw cost for generated ic 6 : (6, 10.000000) count=1.000000
                                   1603 ;	genIpush
      000508 BD 04 01         [ 5] 1604 	lda	0x104,x
      00050B 48               [ 3] 1605 	pha
      00050C BD 03 01         [ 5] 1606 	lda	0x103,x
      00050F 48               [ 3] 1607 	pha
                                   1608 ;	Raw cost for generated ic 7 : (8, 14.000000) count=1.000000
                                   1609 ;	Raw cost for generated ic 8 : (0, 0.000000) count=1.000000
                                   1610 ;	genCall
                                   1611 ;	genSend
      000510 BD 01 01         [ 5] 1612 	lda	0x101,x
      000513 A8               [ 2] 1613 	tay
      000514 BD 02 01         [ 5] 1614 	lda	0x102,x
      000517 AA               [ 2] 1615 	tax
      000518 98               [ 2] 1616 	tya
      000519 20r00r00         [ 6] 1617 	jsr	___memcpy
                                   1618 ;	  adjustStack : cycles stk:22  incdec:18  adc:24
      00051C 86*00            [ 3] 1619 	stx	*(REGTEMP+0)
      00051E BA               [ 2] 1620 	tsx
      00051F E8               [ 2] 1621 	inx
      000520 E8               [ 2] 1622 	inx
      000521 E8               [ 2] 1623 	inx
      000522 E8               [ 2] 1624 	inx
      000523 9A               [ 2] 1625 	txs
                                   1626 ;	Raw cost for generated ic 9 : (22, 38.000000) count=1.000000
                                   1627 ;	genLabel
                                   1628 ;	Raw cost for generated ic 10 : (0, 0.000000) count=1.000000
                                   1629 ;	genEndFunction
                                   1630 ;	  adjustStack : cycles stk:30  incdec:22  adc:24
      000524 BA               [ 2] 1631 	tsx
      000525 E8               [ 2] 1632 	inx
      000526 E8               [ 2] 1633 	inx
      000527 E8               [ 2] 1634 	inx
      000528 E8               [ 2] 1635 	inx
      000529 E8               [ 2] 1636 	inx
      00052A E8               [ 2] 1637 	inx
      00052B 9A               [ 2] 1638 	txs
      00052C A6*00            [ 3] 1639 	ldx	*(REGTEMP+0)
      00052E 60               [ 6] 1640 	rts
                                   1641 ;	Raw cost for generated ic 11 : (13, 28.000000) count=1.000000
                                   1642 ;------------------------------------------------------------
                                   1643 ;Allocation info for local variables in function 'stdc_store8_bes_aligned16'
                                   1644 ;------------------------------------------------------------
                                   1645 ;ptr           Allocated to stack - sp +9 +2 
                                   1646 ;value         Allocated to stack - sp +5 +2 
                                   1647 ;sloc0         Allocated to stack - sp +3 +2 
                                   1648 ;sloc1         Allocated to stack - sp +1 +2 
                                   1649 ;------------------------------------------------------------
                                   1650 ;	./../../include/stdbit.h: 449: __STDC_STORE8(16)
                                   1651 ;	genLabel
                                   1652 ;	Raw cost for generated ic 0 : (0, 0.000000) count=1.000000
                                   1653 ;	-----------------------------------------
                                   1654 ;	 function stdc_store8_bes_aligned16
                                   1655 ;	-----------------------------------------
                                   1656 ;	Register assignment is optimal.
                                   1657 ;	Stack space usage: 6 bytes.
      00052F                       1658 _stdc_store8_bes_aligned16:
                                   1659 ;	genReceive: size=2
                                   1660 ;	pushreg: ofs=1
      00052F 85*00            [ 3] 1661 	sta	*(REGTEMP+0)
      000531 8A               [ 2] 1662 	txa
      000532 48               [ 3] 1663 	pha
      000533 A5*00            [ 3] 1664 	lda	*(REGTEMP+0)
                                   1665 ;	pushreg: ofs=0
      000535 48               [ 3] 1666 	pha
                                   1667 ;	  adjustStack : cycles stk:12  incdec:12  adc:12
      000536 48               [ 3] 1668 	pha
      000537 48               [ 3] 1669 	pha
      000538 48               [ 3] 1670 	pha
      000539 48               [ 3] 1671 	pha
                                   1672 ;	Raw cost for generated ic 1 : (11, 26.000000) count=1.000000
                                   1673 ;	skipping generated iCode
                                   1674 ;	Raw cost for generated ic 2 : (0, 0.000000) count=1.000000
                                   1675 ;	genAddrOf
      00053A BA               [ 2] 1676 	tsx
      00053B 8A               [ 2] 1677 	txa
      00053C 18               [ 2] 1678 	clc
      00053D 69 05            [ 2] 1679 	adc	#0x05
      00053F 9D 03 01         [ 5] 1680 	sta	0x103,x
      000542 A9 01            [ 2] 1681 	lda	#0x01
      000544 9D 04 01         [ 5] 1682 	sta	0x104,x
                                   1683 ;	Raw cost for generated ic 3 : (13, 20.000000) count=1.000000
                                   1684 ;	genCast
                                   1685 ;	genCopy
                                   1686 ;	Raw cost for generated ic 4 : (0, 0.000000) count=1.000000
                                   1687 ;	genCast
                                   1688 ;	genCopy
      000547 BD 0A 01         [ 5] 1689 	lda	0x10a,x
      00054A 9D 02 01         [ 5] 1690 	sta	0x102,x
      00054D BD 09 01         [ 5] 1691 	lda	0x109,x
      000550 9D 01 01         [ 5] 1692 	sta	0x101,x
                                   1693 ;	Raw cost for generated ic 5 : (12, 18.000000) count=1.000000
                                   1694 ;	genIpush
      000553 A9 00            [ 2] 1695 	lda	#0x00
      000555 48               [ 3] 1696 	pha
      000556 A9 02            [ 2] 1697 	lda	#0x02
      000558 48               [ 3] 1698 	pha
                                   1699 ;	Raw cost for generated ic 6 : (6, 10.000000) count=1.000000
                                   1700 ;	genIpush
      000559 BD 04 01         [ 5] 1701 	lda	0x104,x
      00055C 48               [ 3] 1702 	pha
      00055D BD 03 01         [ 5] 1703 	lda	0x103,x
      000560 48               [ 3] 1704 	pha
                                   1705 ;	Raw cost for generated ic 7 : (8, 14.000000) count=1.000000
                                   1706 ;	Raw cost for generated ic 8 : (0, 0.000000) count=1.000000
                                   1707 ;	genCall
                                   1708 ;	genSend
      000561 BD 01 01         [ 5] 1709 	lda	0x101,x
      000564 A8               [ 2] 1710 	tay
      000565 BD 02 01         [ 5] 1711 	lda	0x102,x
      000568 AA               [ 2] 1712 	tax
      000569 98               [ 2] 1713 	tya
      00056A 20r00r00         [ 6] 1714 	jsr	___memcpy
                                   1715 ;	  adjustStack : cycles stk:22  incdec:18  adc:24
      00056D 86*00            [ 3] 1716 	stx	*(REGTEMP+0)
      00056F BA               [ 2] 1717 	tsx
      000570 E8               [ 2] 1718 	inx
      000571 E8               [ 2] 1719 	inx
      000572 E8               [ 2] 1720 	inx
      000573 E8               [ 2] 1721 	inx
      000574 9A               [ 2] 1722 	txs
                                   1723 ;	Raw cost for generated ic 9 : (22, 38.000000) count=1.000000
                                   1724 ;	genIpush
      000575 BA               [ 2] 1725 	tsx
      000576 BD 0A 01         [ 5] 1726 	lda	0x10a,x
      000579 48               [ 3] 1727 	pha
      00057A BD 09 01         [ 5] 1728 	lda	0x109,x
      00057D 48               [ 3] 1729 	pha
                                   1730 ;	Raw cost for generated ic 10 : (9, 16.000000) count=1.000000
                                   1731 ;	Raw cost for generated ic 11 : (0, 0.000000) count=1.000000
                                   1732 ;	genCall
                                   1733 ;	genSend
      00057E A2 00            [ 2] 1734 	ldx	#0x00
      000580 A9 02            [ 2] 1735 	lda	#0x02
      000582 20r00r00         [ 6] 1736 	jsr	_stdc_memreverse8
                                   1737 ;	  adjustStack : cycles stk:14  incdec:14  adc:24
      000585 85*00            [ 3] 1738 	sta	*(REGTEMP+0)
      000587 68               [ 4] 1739 	pla
      000588 68               [ 4] 1740 	pla
      000589 A5*00            [ 3] 1741 	lda	*(REGTEMP+0)
                                   1742 ;	Raw cost for generated ic 12 : (13, 24.000000) count=1.000000
                                   1743 ;	genLabel
                                   1744 ;	Raw cost for generated ic 13 : (0, 0.000000) count=1.000000
                                   1745 ;	genEndFunction
                                   1746 ;	  adjustStack : cycles stk:30  incdec:22  adc:24
      00058B 86*00            [ 3] 1747 	stx	*(REGTEMP+0)
      00058D BA               [ 2] 1748 	tsx
      00058E E8               [ 2] 1749 	inx
      00058F E8               [ 2] 1750 	inx
      000590 E8               [ 2] 1751 	inx
      000591 E8               [ 2] 1752 	inx
      000592 E8               [ 2] 1753 	inx
      000593 E8               [ 2] 1754 	inx
      000594 9A               [ 2] 1755 	txs
      000595 A6*00            [ 3] 1756 	ldx	*(REGTEMP+0)
      000597 60               [ 6] 1757 	rts
                                   1758 ;	Raw cost for generated ic 14 : (13, 28.000000) count=1.000000
                                   1759 ;------------------------------------------------------------
                                   1760 ;Allocation info for local variables in function 'stdc_store8_leu32'
                                   1761 ;------------------------------------------------------------
                                   1762 ;value         Allocated to stack - sp +7 +4 
                                   1763 ;ptr           Allocated to stack - sp +11 +2 
                                   1764 ;sloc0         Allocated to stack - sp +3 +2 
                                   1765 ;sloc1         Allocated to stack - sp +1 +2 
                                   1766 ;------------------------------------------------------------
                                   1767 ;	./../../include/stdbit.h: 450: __STDC_STORE8(32)
                                   1768 ;	genLabel
                                   1769 ;	Raw cost for generated ic 0 : (0, 0.000000) count=1.000000
                                   1770 ;	-----------------------------------------
                                   1771 ;	 function stdc_store8_leu32
                                   1772 ;	-----------------------------------------
                                   1773 ;	Register assignment is optimal.
                                   1774 ;	Stack space usage: 4 bytes.
      000598                       1775 _stdc_store8_leu32:
                                   1776 ;	  adjustStack : cycles stk:12  incdec:12  adc:12
      000598 48               [ 3] 1777 	pha
      000599 48               [ 3] 1778 	pha
      00059A 48               [ 3] 1779 	pha
      00059B 48               [ 3] 1780 	pha
                                   1781 ;	Raw cost for generated ic 1 : (4, 12.000000) count=1.000000
                                   1782 ;	genAddrOf
      00059C BA               [ 2] 1783 	tsx
      00059D 8A               [ 2] 1784 	txa
      00059E 18               [ 2] 1785 	clc
      00059F 69 07            [ 2] 1786 	adc	#0x07
      0005A1 9D 03 01         [ 5] 1787 	sta	0x103,x
      0005A4 A9 01            [ 2] 1788 	lda	#0x01
      0005A6 9D 04 01         [ 5] 1789 	sta	0x104,x
                                   1790 ;	Raw cost for generated ic 2 : (13, 20.000000) count=1.000000
                                   1791 ;	genCast
                                   1792 ;	genCopy
                                   1793 ;	Raw cost for generated ic 3 : (0, 0.000000) count=1.000000
                                   1794 ;	genCast
                                   1795 ;	genCopy
      0005A9 BD 0C 01         [ 5] 1796 	lda	0x10c,x
      0005AC 9D 02 01         [ 5] 1797 	sta	0x102,x
      0005AF BD 0B 01         [ 5] 1798 	lda	0x10b,x
      0005B2 9D 01 01         [ 5] 1799 	sta	0x101,x
                                   1800 ;	Raw cost for generated ic 4 : (12, 18.000000) count=1.000000
                                   1801 ;	genIpush
      0005B5 A9 00            [ 2] 1802 	lda	#0x00
      0005B7 48               [ 3] 1803 	pha
      0005B8 A9 04            [ 2] 1804 	lda	#0x04
      0005BA 48               [ 3] 1805 	pha
                                   1806 ;	Raw cost for generated ic 5 : (6, 10.000000) count=1.000000
                                   1807 ;	genIpush
      0005BB BD 04 01         [ 5] 1808 	lda	0x104,x
      0005BE 48               [ 3] 1809 	pha
      0005BF BD 03 01         [ 5] 1810 	lda	0x103,x
      0005C2 48               [ 3] 1811 	pha
                                   1812 ;	Raw cost for generated ic 6 : (8, 14.000000) count=1.000000
                                   1813 ;	Raw cost for generated ic 7 : (0, 0.000000) count=1.000000
                                   1814 ;	genCall
                                   1815 ;	genSend
      0005C3 BD 01 01         [ 5] 1816 	lda	0x101,x
      0005C6 A8               [ 2] 1817 	tay
      0005C7 BD 02 01         [ 5] 1818 	lda	0x102,x
      0005CA AA               [ 2] 1819 	tax
      0005CB 98               [ 2] 1820 	tya
      0005CC 20r00r00         [ 6] 1821 	jsr	___memcpy
                                   1822 ;	  adjustStack : cycles stk:22  incdec:18  adc:24
      0005CF 86*00            [ 3] 1823 	stx	*(REGTEMP+0)
      0005D1 BA               [ 2] 1824 	tsx
      0005D2 E8               [ 2] 1825 	inx
      0005D3 E8               [ 2] 1826 	inx
      0005D4 E8               [ 2] 1827 	inx
      0005D5 E8               [ 2] 1828 	inx
      0005D6 9A               [ 2] 1829 	txs
                                   1830 ;	Raw cost for generated ic 8 : (22, 38.000000) count=1.000000
                                   1831 ;	genLabel
                                   1832 ;	Raw cost for generated ic 9 : (0, 0.000000) count=1.000000
                                   1833 ;	genEndFunction
                                   1834 ;	  adjustStack : cycles stk:22  incdec:18  adc:24
      0005D7 BA               [ 2] 1835 	tsx
      0005D8 E8               [ 2] 1836 	inx
      0005D9 E8               [ 2] 1837 	inx
      0005DA E8               [ 2] 1838 	inx
      0005DB E8               [ 2] 1839 	inx
      0005DC 9A               [ 2] 1840 	txs
      0005DD A6*00            [ 3] 1841 	ldx	*(REGTEMP+0)
      0005DF 60               [ 6] 1842 	rts
                                   1843 ;	Raw cost for generated ic 10 : (11, 24.000000) count=1.000000
                                   1844 ;------------------------------------------------------------
                                   1845 ;Allocation info for local variables in function 'stdc_store8_beu32'
                                   1846 ;------------------------------------------------------------
                                   1847 ;value         Allocated to stack - sp +7 +4 
                                   1848 ;ptr           Allocated to stack - sp +11 +2 
                                   1849 ;sloc0         Allocated to stack - sp +3 +2 
                                   1850 ;sloc1         Allocated to stack - sp +1 +2 
                                   1851 ;------------------------------------------------------------
                                   1852 ;	./../../include/stdbit.h: 450: __STDC_STORE8(64)
                                   1853 ;	genLabel
                                   1854 ;	Raw cost for generated ic 0 : (0, 0.000000) count=1.000000
                                   1855 ;	-----------------------------------------
                                   1856 ;	 function stdc_store8_beu32
                                   1857 ;	-----------------------------------------
                                   1858 ;	Register assignment is optimal.
                                   1859 ;	Stack space usage: 4 bytes.
      0005E0                       1860 _stdc_store8_beu32:
                                   1861 ;	  adjustStack : cycles stk:12  incdec:12  adc:12
      0005E0 48               [ 3] 1862 	pha
      0005E1 48               [ 3] 1863 	pha
      0005E2 48               [ 3] 1864 	pha
      0005E3 48               [ 3] 1865 	pha
                                   1866 ;	Raw cost for generated ic 1 : (4, 12.000000) count=1.000000
                                   1867 ;	genAddrOf
      0005E4 BA               [ 2] 1868 	tsx
      0005E5 8A               [ 2] 1869 	txa
      0005E6 18               [ 2] 1870 	clc
      0005E7 69 07            [ 2] 1871 	adc	#0x07
      0005E9 9D 03 01         [ 5] 1872 	sta	0x103,x
      0005EC A9 01            [ 2] 1873 	lda	#0x01
      0005EE 9D 04 01         [ 5] 1874 	sta	0x104,x
                                   1875 ;	Raw cost for generated ic 2 : (13, 20.000000) count=1.000000
                                   1876 ;	genCast
                                   1877 ;	genCopy
                                   1878 ;	Raw cost for generated ic 3 : (0, 0.000000) count=1.000000
                                   1879 ;	genCast
                                   1880 ;	genCopy
      0005F1 BD 0C 01         [ 5] 1881 	lda	0x10c,x
      0005F4 9D 02 01         [ 5] 1882 	sta	0x102,x
      0005F7 BD 0B 01         [ 5] 1883 	lda	0x10b,x
      0005FA 9D 01 01         [ 5] 1884 	sta	0x101,x
                                   1885 ;	Raw cost for generated ic 4 : (12, 18.000000) count=1.000000
                                   1886 ;	genIpush
      0005FD A9 00            [ 2] 1887 	lda	#0x00
      0005FF 48               [ 3] 1888 	pha
      000600 A9 04            [ 2] 1889 	lda	#0x04
      000602 48               [ 3] 1890 	pha
                                   1891 ;	Raw cost for generated ic 5 : (6, 10.000000) count=1.000000
                                   1892 ;	genIpush
      000603 BD 04 01         [ 5] 1893 	lda	0x104,x
      000606 48               [ 3] 1894 	pha
      000607 BD 03 01         [ 5] 1895 	lda	0x103,x
      00060A 48               [ 3] 1896 	pha
                                   1897 ;	Raw cost for generated ic 6 : (8, 14.000000) count=1.000000
                                   1898 ;	Raw cost for generated ic 7 : (0, 0.000000) count=1.000000
                                   1899 ;	genCall
                                   1900 ;	genSend
      00060B BD 01 01         [ 5] 1901 	lda	0x101,x
      00060E A8               [ 2] 1902 	tay
      00060F BD 02 01         [ 5] 1903 	lda	0x102,x
      000612 AA               [ 2] 1904 	tax
      000613 98               [ 2] 1905 	tya
      000614 20r00r00         [ 6] 1906 	jsr	___memcpy
                                   1907 ;	  adjustStack : cycles stk:22  incdec:18  adc:24
      000617 86*00            [ 3] 1908 	stx	*(REGTEMP+0)
      000619 BA               [ 2] 1909 	tsx
      00061A E8               [ 2] 1910 	inx
      00061B E8               [ 2] 1911 	inx
      00061C E8               [ 2] 1912 	inx
      00061D E8               [ 2] 1913 	inx
      00061E 9A               [ 2] 1914 	txs
                                   1915 ;	Raw cost for generated ic 8 : (22, 38.000000) count=1.000000
                                   1916 ;	genIpush
      00061F BA               [ 2] 1917 	tsx
      000620 BD 0C 01         [ 5] 1918 	lda	0x10c,x
      000623 48               [ 3] 1919 	pha
      000624 BD 0B 01         [ 5] 1920 	lda	0x10b,x
      000627 48               [ 3] 1921 	pha
                                   1922 ;	Raw cost for generated ic 9 : (9, 16.000000) count=1.000000
                                   1923 ;	Raw cost for generated ic 10 : (0, 0.000000) count=1.000000
                                   1924 ;	genCall
                                   1925 ;	genSend
      000628 A2 00            [ 2] 1926 	ldx	#0x00
      00062A A9 04            [ 2] 1927 	lda	#0x04
      00062C 20r00r00         [ 6] 1928 	jsr	_stdc_memreverse8
                                   1929 ;	  adjustStack : cycles stk:14  incdec:14  adc:24
      00062F 85*00            [ 3] 1930 	sta	*(REGTEMP+0)
      000631 68               [ 4] 1931 	pla
      000632 68               [ 4] 1932 	pla
      000633 A5*00            [ 3] 1933 	lda	*(REGTEMP+0)
                                   1934 ;	Raw cost for generated ic 11 : (13, 24.000000) count=1.000000
                                   1935 ;	genLabel
                                   1936 ;	Raw cost for generated ic 12 : (0, 0.000000) count=1.000000
                                   1937 ;	genEndFunction
                                   1938 ;	  adjustStack : cycles stk:22  incdec:18  adc:24
      000635 86*00            [ 3] 1939 	stx	*(REGTEMP+0)
      000637 BA               [ 2] 1940 	tsx
      000638 E8               [ 2] 1941 	inx
      000639 E8               [ 2] 1942 	inx
      00063A E8               [ 2] 1943 	inx
      00063B E8               [ 2] 1944 	inx
      00063C 9A               [ 2] 1945 	txs
      00063D A6*00            [ 3] 1946 	ldx	*(REGTEMP+0)
      00063F 60               [ 6] 1947 	rts
                                   1948 ;	Raw cost for generated ic 13 : (11, 24.000000) count=1.000000
                                   1949 ;------------------------------------------------------------
                                   1950 ;Allocation info for local variables in function 'stdc_store8_leu_aligned32'
                                   1951 ;------------------------------------------------------------
                                   1952 ;value         Allocated to stack - sp +7 +4 
                                   1953 ;ptr           Allocated to stack - sp +11 +2 
                                   1954 ;sloc0         Allocated to stack - sp +3 +2 
                                   1955 ;sloc1         Allocated to stack - sp +1 +2 
                                   1956 ;------------------------------------------------------------
                                   1957 ;	./../../include/stdbit.h: 450: __STDC_STORE8(32)
                                   1958 ;	genLabel
                                   1959 ;	Raw cost for generated ic 0 : (0, 0.000000) count=1.000000
                                   1960 ;	-----------------------------------------
                                   1961 ;	 function stdc_store8_leu_aligned32
                                   1962 ;	-----------------------------------------
                                   1963 ;	Register assignment is optimal.
                                   1964 ;	Stack space usage: 4 bytes.
      000640                       1965 _stdc_store8_leu_aligned32:
                                   1966 ;	  adjustStack : cycles stk:12  incdec:12  adc:12
      000640 48               [ 3] 1967 	pha
      000641 48               [ 3] 1968 	pha
      000642 48               [ 3] 1969 	pha
      000643 48               [ 3] 1970 	pha
                                   1971 ;	Raw cost for generated ic 1 : (4, 12.000000) count=1.000000
                                   1972 ;	genAddrOf
      000644 BA               [ 2] 1973 	tsx
      000645 8A               [ 2] 1974 	txa
      000646 18               [ 2] 1975 	clc
      000647 69 07            [ 2] 1976 	adc	#0x07
      000649 9D 03 01         [ 5] 1977 	sta	0x103,x
      00064C A9 01            [ 2] 1978 	lda	#0x01
      00064E 9D 04 01         [ 5] 1979 	sta	0x104,x
                                   1980 ;	Raw cost for generated ic 2 : (13, 20.000000) count=1.000000
                                   1981 ;	genCast
                                   1982 ;	genCopy
                                   1983 ;	Raw cost for generated ic 3 : (0, 0.000000) count=1.000000
                                   1984 ;	genCast
                                   1985 ;	genCopy
      000651 BD 0C 01         [ 5] 1986 	lda	0x10c,x
      000654 9D 02 01         [ 5] 1987 	sta	0x102,x
      000657 BD 0B 01         [ 5] 1988 	lda	0x10b,x
      00065A 9D 01 01         [ 5] 1989 	sta	0x101,x
                                   1990 ;	Raw cost for generated ic 4 : (12, 18.000000) count=1.000000
                                   1991 ;	genIpush
      00065D A9 00            [ 2] 1992 	lda	#0x00
      00065F 48               [ 3] 1993 	pha
      000660 A9 04            [ 2] 1994 	lda	#0x04
      000662 48               [ 3] 1995 	pha
                                   1996 ;	Raw cost for generated ic 5 : (6, 10.000000) count=1.000000
                                   1997 ;	genIpush
      000663 BD 04 01         [ 5] 1998 	lda	0x104,x
      000666 48               [ 3] 1999 	pha
      000667 BD 03 01         [ 5] 2000 	lda	0x103,x
      00066A 48               [ 3] 2001 	pha
                                   2002 ;	Raw cost for generated ic 6 : (8, 14.000000) count=1.000000
                                   2003 ;	Raw cost for generated ic 7 : (0, 0.000000) count=1.000000
                                   2004 ;	genCall
                                   2005 ;	genSend
      00066B BD 01 01         [ 5] 2006 	lda	0x101,x
      00066E A8               [ 2] 2007 	tay
      00066F BD 02 01         [ 5] 2008 	lda	0x102,x
      000672 AA               [ 2] 2009 	tax
      000673 98               [ 2] 2010 	tya
      000674 20r00r00         [ 6] 2011 	jsr	___memcpy
                                   2012 ;	  adjustStack : cycles stk:22  incdec:18  adc:24
      000677 86*00            [ 3] 2013 	stx	*(REGTEMP+0)
      000679 BA               [ 2] 2014 	tsx
      00067A E8               [ 2] 2015 	inx
      00067B E8               [ 2] 2016 	inx
      00067C E8               [ 2] 2017 	inx
      00067D E8               [ 2] 2018 	inx
      00067E 9A               [ 2] 2019 	txs
                                   2020 ;	Raw cost for generated ic 8 : (22, 38.000000) count=1.000000
                                   2021 ;	genLabel
                                   2022 ;	Raw cost for generated ic 9 : (0, 0.000000) count=1.000000
                                   2023 ;	genEndFunction
                                   2024 ;	  adjustStack : cycles stk:22  incdec:18  adc:24
      00067F BA               [ 2] 2025 	tsx
      000680 E8               [ 2] 2026 	inx
      000681 E8               [ 2] 2027 	inx
      000682 E8               [ 2] 2028 	inx
      000683 E8               [ 2] 2029 	inx
      000684 9A               [ 2] 2030 	txs
      000685 A6*00            [ 3] 2031 	ldx	*(REGTEMP+0)
      000687 60               [ 6] 2032 	rts
                                   2033 ;	Raw cost for generated ic 10 : (11, 24.000000) count=1.000000
                                   2034 ;------------------------------------------------------------
                                   2035 ;Allocation info for local variables in function 'stdc_store8_beu_aligned32'
                                   2036 ;------------------------------------------------------------
                                   2037 ;value         Allocated to stack - sp +7 +4 
                                   2038 ;ptr           Allocated to stack - sp +11 +2 
                                   2039 ;sloc0         Allocated to stack - sp +3 +2 
                                   2040 ;sloc1         Allocated to stack - sp +1 +2 
                                   2041 ;------------------------------------------------------------
                                   2042 ;	./../../include/stdbit.h: 450: __STDC_STORE8(64)
                                   2043 ;	genLabel
                                   2044 ;	Raw cost for generated ic 0 : (0, 0.000000) count=1.000000
                                   2045 ;	-----------------------------------------
                                   2046 ;	 function stdc_store8_beu_aligned32
                                   2047 ;	-----------------------------------------
                                   2048 ;	Register assignment is optimal.
                                   2049 ;	Stack space usage: 4 bytes.
      000688                       2050 _stdc_store8_beu_aligned32:
                                   2051 ;	  adjustStack : cycles stk:12  incdec:12  adc:12
      000688 48               [ 3] 2052 	pha
      000689 48               [ 3] 2053 	pha
      00068A 48               [ 3] 2054 	pha
      00068B 48               [ 3] 2055 	pha
                                   2056 ;	Raw cost for generated ic 1 : (4, 12.000000) count=1.000000
                                   2057 ;	genAddrOf
      00068C BA               [ 2] 2058 	tsx
      00068D 8A               [ 2] 2059 	txa
      00068E 18               [ 2] 2060 	clc
      00068F 69 07            [ 2] 2061 	adc	#0x07
      000691 9D 03 01         [ 5] 2062 	sta	0x103,x
      000694 A9 01            [ 2] 2063 	lda	#0x01
      000696 9D 04 01         [ 5] 2064 	sta	0x104,x
                                   2065 ;	Raw cost for generated ic 2 : (13, 20.000000) count=1.000000
                                   2066 ;	genCast
                                   2067 ;	genCopy
                                   2068 ;	Raw cost for generated ic 3 : (0, 0.000000) count=1.000000
                                   2069 ;	genCast
                                   2070 ;	genCopy
      000699 BD 0C 01         [ 5] 2071 	lda	0x10c,x
      00069C 9D 02 01         [ 5] 2072 	sta	0x102,x
      00069F BD 0B 01         [ 5] 2073 	lda	0x10b,x
      0006A2 9D 01 01         [ 5] 2074 	sta	0x101,x
                                   2075 ;	Raw cost for generated ic 4 : (12, 18.000000) count=1.000000
                                   2076 ;	genIpush
      0006A5 A9 00            [ 2] 2077 	lda	#0x00
      0006A7 48               [ 3] 2078 	pha
      0006A8 A9 04            [ 2] 2079 	lda	#0x04
      0006AA 48               [ 3] 2080 	pha
                                   2081 ;	Raw cost for generated ic 5 : (6, 10.000000) count=1.000000
                                   2082 ;	genIpush
      0006AB BD 04 01         [ 5] 2083 	lda	0x104,x
      0006AE 48               [ 3] 2084 	pha
      0006AF BD 03 01         [ 5] 2085 	lda	0x103,x
      0006B2 48               [ 3] 2086 	pha
                                   2087 ;	Raw cost for generated ic 6 : (8, 14.000000) count=1.000000
                                   2088 ;	Raw cost for generated ic 7 : (0, 0.000000) count=1.000000
                                   2089 ;	genCall
                                   2090 ;	genSend
      0006B3 BD 01 01         [ 5] 2091 	lda	0x101,x
      0006B6 A8               [ 2] 2092 	tay
      0006B7 BD 02 01         [ 5] 2093 	lda	0x102,x
      0006BA AA               [ 2] 2094 	tax
      0006BB 98               [ 2] 2095 	tya
      0006BC 20r00r00         [ 6] 2096 	jsr	___memcpy
                                   2097 ;	  adjustStack : cycles stk:22  incdec:18  adc:24
      0006BF 86*00            [ 3] 2098 	stx	*(REGTEMP+0)
      0006C1 BA               [ 2] 2099 	tsx
      0006C2 E8               [ 2] 2100 	inx
      0006C3 E8               [ 2] 2101 	inx
      0006C4 E8               [ 2] 2102 	inx
      0006C5 E8               [ 2] 2103 	inx
      0006C6 9A               [ 2] 2104 	txs
                                   2105 ;	Raw cost for generated ic 8 : (22, 38.000000) count=1.000000
                                   2106 ;	genIpush
      0006C7 BA               [ 2] 2107 	tsx
      0006C8 BD 0C 01         [ 5] 2108 	lda	0x10c,x
      0006CB 48               [ 3] 2109 	pha
      0006CC BD 0B 01         [ 5] 2110 	lda	0x10b,x
      0006CF 48               [ 3] 2111 	pha
                                   2112 ;	Raw cost for generated ic 9 : (9, 16.000000) count=1.000000
                                   2113 ;	Raw cost for generated ic 10 : (0, 0.000000) count=1.000000
                                   2114 ;	genCall
                                   2115 ;	genSend
      0006D0 A2 00            [ 2] 2116 	ldx	#0x00
      0006D2 A9 04            [ 2] 2117 	lda	#0x04
      0006D4 20r00r00         [ 6] 2118 	jsr	_stdc_memreverse8
                                   2119 ;	  adjustStack : cycles stk:14  incdec:14  adc:24
      0006D7 85*00            [ 3] 2120 	sta	*(REGTEMP+0)
      0006D9 68               [ 4] 2121 	pla
      0006DA 68               [ 4] 2122 	pla
      0006DB A5*00            [ 3] 2123 	lda	*(REGTEMP+0)
                                   2124 ;	Raw cost for generated ic 11 : (13, 24.000000) count=1.000000
                                   2125 ;	genLabel
                                   2126 ;	Raw cost for generated ic 12 : (0, 0.000000) count=1.000000
                                   2127 ;	genEndFunction
                                   2128 ;	  adjustStack : cycles stk:22  incdec:18  adc:24
      0006DD 86*00            [ 3] 2129 	stx	*(REGTEMP+0)
      0006DF BA               [ 2] 2130 	tsx
      0006E0 E8               [ 2] 2131 	inx
      0006E1 E8               [ 2] 2132 	inx
      0006E2 E8               [ 2] 2133 	inx
      0006E3 E8               [ 2] 2134 	inx
      0006E4 9A               [ 2] 2135 	txs
      0006E5 A6*00            [ 3] 2136 	ldx	*(REGTEMP+0)
      0006E7 60               [ 6] 2137 	rts
                                   2138 ;	Raw cost for generated ic 13 : (11, 24.000000) count=1.000000
                                   2139 ;------------------------------------------------------------
                                   2140 ;Allocation info for local variables in function 'stdc_store8_les32'
                                   2141 ;------------------------------------------------------------
                                   2142 ;value         Allocated to stack - sp +7 +4 
                                   2143 ;ptr           Allocated to stack - sp +11 +2 
                                   2144 ;sloc0         Allocated to stack - sp +3 +2 
                                   2145 ;sloc1         Allocated to stack - sp +1 +2 
                                   2146 ;------------------------------------------------------------
                                   2147 ;	./../../include/stdbit.h: 450: __STDC_STORE8(32)
                                   2148 ;	genLabel
                                   2149 ;	Raw cost for generated ic 0 : (0, 0.000000) count=1.000000
                                   2150 ;	-----------------------------------------
                                   2151 ;	 function stdc_store8_les32
                                   2152 ;	-----------------------------------------
                                   2153 ;	Register assignment is optimal.
                                   2154 ;	Stack space usage: 4 bytes.
      0006E8                       2155 _stdc_store8_les32:
                                   2156 ;	  adjustStack : cycles stk:12  incdec:12  adc:12
      0006E8 48               [ 3] 2157 	pha
      0006E9 48               [ 3] 2158 	pha
      0006EA 48               [ 3] 2159 	pha
      0006EB 48               [ 3] 2160 	pha
                                   2161 ;	Raw cost for generated ic 1 : (4, 12.000000) count=1.000000
                                   2162 ;	genAddrOf
      0006EC BA               [ 2] 2163 	tsx
      0006ED 8A               [ 2] 2164 	txa
      0006EE 18               [ 2] 2165 	clc
      0006EF 69 07            [ 2] 2166 	adc	#0x07
      0006F1 9D 03 01         [ 5] 2167 	sta	0x103,x
      0006F4 A9 01            [ 2] 2168 	lda	#0x01
      0006F6 9D 04 01         [ 5] 2169 	sta	0x104,x
                                   2170 ;	Raw cost for generated ic 2 : (13, 20.000000) count=1.000000
                                   2171 ;	genCast
                                   2172 ;	genCopy
                                   2173 ;	Raw cost for generated ic 3 : (0, 0.000000) count=1.000000
                                   2174 ;	genCast
                                   2175 ;	genCopy
      0006F9 BD 0C 01         [ 5] 2176 	lda	0x10c,x
      0006FC 9D 02 01         [ 5] 2177 	sta	0x102,x
      0006FF BD 0B 01         [ 5] 2178 	lda	0x10b,x
      000702 9D 01 01         [ 5] 2179 	sta	0x101,x
                                   2180 ;	Raw cost for generated ic 4 : (12, 18.000000) count=1.000000
                                   2181 ;	genIpush
      000705 A9 00            [ 2] 2182 	lda	#0x00
      000707 48               [ 3] 2183 	pha
      000708 A9 04            [ 2] 2184 	lda	#0x04
      00070A 48               [ 3] 2185 	pha
                                   2186 ;	Raw cost for generated ic 5 : (6, 10.000000) count=1.000000
                                   2187 ;	genIpush
      00070B BD 04 01         [ 5] 2188 	lda	0x104,x
      00070E 48               [ 3] 2189 	pha
      00070F BD 03 01         [ 5] 2190 	lda	0x103,x
      000712 48               [ 3] 2191 	pha
                                   2192 ;	Raw cost for generated ic 6 : (8, 14.000000) count=1.000000
                                   2193 ;	Raw cost for generated ic 7 : (0, 0.000000) count=1.000000
                                   2194 ;	genCall
                                   2195 ;	genSend
      000713 BD 01 01         [ 5] 2196 	lda	0x101,x
      000716 A8               [ 2] 2197 	tay
      000717 BD 02 01         [ 5] 2198 	lda	0x102,x
      00071A AA               [ 2] 2199 	tax
      00071B 98               [ 2] 2200 	tya
      00071C 20r00r00         [ 6] 2201 	jsr	___memcpy
                                   2202 ;	  adjustStack : cycles stk:22  incdec:18  adc:24
      00071F 86*00            [ 3] 2203 	stx	*(REGTEMP+0)
      000721 BA               [ 2] 2204 	tsx
      000722 E8               [ 2] 2205 	inx
      000723 E8               [ 2] 2206 	inx
      000724 E8               [ 2] 2207 	inx
      000725 E8               [ 2] 2208 	inx
      000726 9A               [ 2] 2209 	txs
                                   2210 ;	Raw cost for generated ic 8 : (22, 38.000000) count=1.000000
                                   2211 ;	genLabel
                                   2212 ;	Raw cost for generated ic 9 : (0, 0.000000) count=1.000000
                                   2213 ;	genEndFunction
                                   2214 ;	  adjustStack : cycles stk:22  incdec:18  adc:24
      000727 BA               [ 2] 2215 	tsx
      000728 E8               [ 2] 2216 	inx
      000729 E8               [ 2] 2217 	inx
      00072A E8               [ 2] 2218 	inx
      00072B E8               [ 2] 2219 	inx
      00072C 9A               [ 2] 2220 	txs
      00072D A6*00            [ 3] 2221 	ldx	*(REGTEMP+0)
      00072F 60               [ 6] 2222 	rts
                                   2223 ;	Raw cost for generated ic 10 : (11, 24.000000) count=1.000000
                                   2224 ;------------------------------------------------------------
                                   2225 ;Allocation info for local variables in function 'stdc_store8_bes32'
                                   2226 ;------------------------------------------------------------
                                   2227 ;value         Allocated to stack - sp +7 +4 
                                   2228 ;ptr           Allocated to stack - sp +11 +2 
                                   2229 ;sloc0         Allocated to stack - sp +3 +2 
                                   2230 ;sloc1         Allocated to stack - sp +1 +2 
                                   2231 ;------------------------------------------------------------
                                   2232 ;	./../../include/stdbit.h: 450: __STDC_STORE8(64)
                                   2233 ;	genLabel
                                   2234 ;	Raw cost for generated ic 0 : (0, 0.000000) count=1.000000
                                   2235 ;	-----------------------------------------
                                   2236 ;	 function stdc_store8_bes32
                                   2237 ;	-----------------------------------------
                                   2238 ;	Register assignment is optimal.
                                   2239 ;	Stack space usage: 4 bytes.
      000730                       2240 _stdc_store8_bes32:
                                   2241 ;	  adjustStack : cycles stk:12  incdec:12  adc:12
      000730 48               [ 3] 2242 	pha
      000731 48               [ 3] 2243 	pha
      000732 48               [ 3] 2244 	pha
      000733 48               [ 3] 2245 	pha
                                   2246 ;	Raw cost for generated ic 1 : (4, 12.000000) count=1.000000
                                   2247 ;	genAddrOf
      000734 BA               [ 2] 2248 	tsx
      000735 8A               [ 2] 2249 	txa
      000736 18               [ 2] 2250 	clc
      000737 69 07            [ 2] 2251 	adc	#0x07
      000739 9D 03 01         [ 5] 2252 	sta	0x103,x
      00073C A9 01            [ 2] 2253 	lda	#0x01
      00073E 9D 04 01         [ 5] 2254 	sta	0x104,x
                                   2255 ;	Raw cost for generated ic 2 : (13, 20.000000) count=1.000000
                                   2256 ;	genCast
                                   2257 ;	genCopy
                                   2258 ;	Raw cost for generated ic 3 : (0, 0.000000) count=1.000000
                                   2259 ;	genCast
                                   2260 ;	genCopy
      000741 BD 0C 01         [ 5] 2261 	lda	0x10c,x
      000744 9D 02 01         [ 5] 2262 	sta	0x102,x
      000747 BD 0B 01         [ 5] 2263 	lda	0x10b,x
      00074A 9D 01 01         [ 5] 2264 	sta	0x101,x
                                   2265 ;	Raw cost for generated ic 4 : (12, 18.000000) count=1.000000
                                   2266 ;	genIpush
      00074D A9 00            [ 2] 2267 	lda	#0x00
      00074F 48               [ 3] 2268 	pha
      000750 A9 04            [ 2] 2269 	lda	#0x04
      000752 48               [ 3] 2270 	pha
                                   2271 ;	Raw cost for generated ic 5 : (6, 10.000000) count=1.000000
                                   2272 ;	genIpush
      000753 BD 04 01         [ 5] 2273 	lda	0x104,x
      000756 48               [ 3] 2274 	pha
      000757 BD 03 01         [ 5] 2275 	lda	0x103,x
      00075A 48               [ 3] 2276 	pha
                                   2277 ;	Raw cost for generated ic 6 : (8, 14.000000) count=1.000000
                                   2278 ;	Raw cost for generated ic 7 : (0, 0.000000) count=1.000000
                                   2279 ;	genCall
                                   2280 ;	genSend
      00075B BD 01 01         [ 5] 2281 	lda	0x101,x
      00075E A8               [ 2] 2282 	tay
      00075F BD 02 01         [ 5] 2283 	lda	0x102,x
      000762 AA               [ 2] 2284 	tax
      000763 98               [ 2] 2285 	tya
      000764 20r00r00         [ 6] 2286 	jsr	___memcpy
                                   2287 ;	  adjustStack : cycles stk:22  incdec:18  adc:24
      000767 86*00            [ 3] 2288 	stx	*(REGTEMP+0)
      000769 BA               [ 2] 2289 	tsx
      00076A E8               [ 2] 2290 	inx
      00076B E8               [ 2] 2291 	inx
      00076C E8               [ 2] 2292 	inx
      00076D E8               [ 2] 2293 	inx
      00076E 9A               [ 2] 2294 	txs
                                   2295 ;	Raw cost for generated ic 8 : (22, 38.000000) count=1.000000
                                   2296 ;	genIpush
      00076F BA               [ 2] 2297 	tsx
      000770 BD 0C 01         [ 5] 2298 	lda	0x10c,x
      000773 48               [ 3] 2299 	pha
      000774 BD 0B 01         [ 5] 2300 	lda	0x10b,x
      000777 48               [ 3] 2301 	pha
                                   2302 ;	Raw cost for generated ic 9 : (9, 16.000000) count=1.000000
                                   2303 ;	Raw cost for generated ic 10 : (0, 0.000000) count=1.000000
                                   2304 ;	genCall
                                   2305 ;	genSend
      000778 A2 00            [ 2] 2306 	ldx	#0x00
      00077A A9 04            [ 2] 2307 	lda	#0x04
      00077C 20r00r00         [ 6] 2308 	jsr	_stdc_memreverse8
                                   2309 ;	  adjustStack : cycles stk:14  incdec:14  adc:24
      00077F 85*00            [ 3] 2310 	sta	*(REGTEMP+0)
      000781 68               [ 4] 2311 	pla
      000782 68               [ 4] 2312 	pla
      000783 A5*00            [ 3] 2313 	lda	*(REGTEMP+0)
                                   2314 ;	Raw cost for generated ic 11 : (13, 24.000000) count=1.000000
                                   2315 ;	genLabel
                                   2316 ;	Raw cost for generated ic 12 : (0, 0.000000) count=1.000000
                                   2317 ;	genEndFunction
                                   2318 ;	  adjustStack : cycles stk:22  incdec:18  adc:24
      000785 86*00            [ 3] 2319 	stx	*(REGTEMP+0)
      000787 BA               [ 2] 2320 	tsx
      000788 E8               [ 2] 2321 	inx
      000789 E8               [ 2] 2322 	inx
      00078A E8               [ 2] 2323 	inx
      00078B E8               [ 2] 2324 	inx
      00078C 9A               [ 2] 2325 	txs
      00078D A6*00            [ 3] 2326 	ldx	*(REGTEMP+0)
      00078F 60               [ 6] 2327 	rts
                                   2328 ;	Raw cost for generated ic 13 : (11, 24.000000) count=1.000000
                                   2329 ;------------------------------------------------------------
                                   2330 ;Allocation info for local variables in function 'stdc_store8_les_aligned32'
                                   2331 ;------------------------------------------------------------
                                   2332 ;value         Allocated to stack - sp +7 +4 
                                   2333 ;ptr           Allocated to stack - sp +11 +2 
                                   2334 ;sloc0         Allocated to stack - sp +3 +2 
                                   2335 ;sloc1         Allocated to stack - sp +1 +2 
                                   2336 ;------------------------------------------------------------
                                   2337 ;	./../../include/stdbit.h: 450: __STDC_STORE8(32)
                                   2338 ;	genLabel
                                   2339 ;	Raw cost for generated ic 0 : (0, 0.000000) count=1.000000
                                   2340 ;	-----------------------------------------
                                   2341 ;	 function stdc_store8_les_aligned32
                                   2342 ;	-----------------------------------------
                                   2343 ;	Register assignment is optimal.
                                   2344 ;	Stack space usage: 4 bytes.
      000790                       2345 _stdc_store8_les_aligned32:
                                   2346 ;	  adjustStack : cycles stk:12  incdec:12  adc:12
      000790 48               [ 3] 2347 	pha
      000791 48               [ 3] 2348 	pha
      000792 48               [ 3] 2349 	pha
      000793 48               [ 3] 2350 	pha
                                   2351 ;	Raw cost for generated ic 1 : (4, 12.000000) count=1.000000
                                   2352 ;	genAddrOf
      000794 BA               [ 2] 2353 	tsx
      000795 8A               [ 2] 2354 	txa
      000796 18               [ 2] 2355 	clc
      000797 69 07            [ 2] 2356 	adc	#0x07
      000799 9D 03 01         [ 5] 2357 	sta	0x103,x
      00079C A9 01            [ 2] 2358 	lda	#0x01
      00079E 9D 04 01         [ 5] 2359 	sta	0x104,x
                                   2360 ;	Raw cost for generated ic 2 : (13, 20.000000) count=1.000000
                                   2361 ;	genCast
                                   2362 ;	genCopy
                                   2363 ;	Raw cost for generated ic 3 : (0, 0.000000) count=1.000000
                                   2364 ;	genCast
                                   2365 ;	genCopy
      0007A1 BD 0C 01         [ 5] 2366 	lda	0x10c,x
      0007A4 9D 02 01         [ 5] 2367 	sta	0x102,x
      0007A7 BD 0B 01         [ 5] 2368 	lda	0x10b,x
      0007AA 9D 01 01         [ 5] 2369 	sta	0x101,x
                                   2370 ;	Raw cost for generated ic 4 : (12, 18.000000) count=1.000000
                                   2371 ;	genIpush
      0007AD A9 00            [ 2] 2372 	lda	#0x00
      0007AF 48               [ 3] 2373 	pha
      0007B0 A9 04            [ 2] 2374 	lda	#0x04
      0007B2 48               [ 3] 2375 	pha
                                   2376 ;	Raw cost for generated ic 5 : (6, 10.000000) count=1.000000
                                   2377 ;	genIpush
      0007B3 BD 04 01         [ 5] 2378 	lda	0x104,x
      0007B6 48               [ 3] 2379 	pha
      0007B7 BD 03 01         [ 5] 2380 	lda	0x103,x
      0007BA 48               [ 3] 2381 	pha
                                   2382 ;	Raw cost for generated ic 6 : (8, 14.000000) count=1.000000
                                   2383 ;	Raw cost for generated ic 7 : (0, 0.000000) count=1.000000
                                   2384 ;	genCall
                                   2385 ;	genSend
      0007BB BD 01 01         [ 5] 2386 	lda	0x101,x
      0007BE A8               [ 2] 2387 	tay
      0007BF BD 02 01         [ 5] 2388 	lda	0x102,x
      0007C2 AA               [ 2] 2389 	tax
      0007C3 98               [ 2] 2390 	tya
      0007C4 20r00r00         [ 6] 2391 	jsr	___memcpy
                                   2392 ;	  adjustStack : cycles stk:22  incdec:18  adc:24
      0007C7 86*00            [ 3] 2393 	stx	*(REGTEMP+0)
      0007C9 BA               [ 2] 2394 	tsx
      0007CA E8               [ 2] 2395 	inx
      0007CB E8               [ 2] 2396 	inx
      0007CC E8               [ 2] 2397 	inx
      0007CD E8               [ 2] 2398 	inx
      0007CE 9A               [ 2] 2399 	txs
                                   2400 ;	Raw cost for generated ic 8 : (22, 38.000000) count=1.000000
                                   2401 ;	genLabel
                                   2402 ;	Raw cost for generated ic 9 : (0, 0.000000) count=1.000000
                                   2403 ;	genEndFunction
                                   2404 ;	  adjustStack : cycles stk:22  incdec:18  adc:24
      0007CF BA               [ 2] 2405 	tsx
      0007D0 E8               [ 2] 2406 	inx
      0007D1 E8               [ 2] 2407 	inx
      0007D2 E8               [ 2] 2408 	inx
      0007D3 E8               [ 2] 2409 	inx
      0007D4 9A               [ 2] 2410 	txs
      0007D5 A6*00            [ 3] 2411 	ldx	*(REGTEMP+0)
      0007D7 60               [ 6] 2412 	rts
                                   2413 ;	Raw cost for generated ic 10 : (11, 24.000000) count=1.000000
                                   2414 ;------------------------------------------------------------
                                   2415 ;Allocation info for local variables in function 'stdc_store8_bes_aligned32'
                                   2416 ;------------------------------------------------------------
                                   2417 ;value         Allocated to stack - sp +7 +4 
                                   2418 ;ptr           Allocated to stack - sp +11 +2 
                                   2419 ;sloc0         Allocated to stack - sp +3 +2 
                                   2420 ;sloc1         Allocated to stack - sp +1 +2 
                                   2421 ;------------------------------------------------------------
                                   2422 ;	./../../include/stdbit.h: 450: __STDC_STORE8(64)
                                   2423 ;	genLabel
                                   2424 ;	Raw cost for generated ic 0 : (0, 0.000000) count=1.000000
                                   2425 ;	-----------------------------------------
                                   2426 ;	 function stdc_store8_bes_aligned32
                                   2427 ;	-----------------------------------------
                                   2428 ;	Register assignment is optimal.
                                   2429 ;	Stack space usage: 4 bytes.
      0007D8                       2430 _stdc_store8_bes_aligned32:
                                   2431 ;	  adjustStack : cycles stk:12  incdec:12  adc:12
      0007D8 48               [ 3] 2432 	pha
      0007D9 48               [ 3] 2433 	pha
      0007DA 48               [ 3] 2434 	pha
      0007DB 48               [ 3] 2435 	pha
                                   2436 ;	Raw cost for generated ic 1 : (4, 12.000000) count=1.000000
                                   2437 ;	genAddrOf
      0007DC BA               [ 2] 2438 	tsx
      0007DD 8A               [ 2] 2439 	txa
      0007DE 18               [ 2] 2440 	clc
      0007DF 69 07            [ 2] 2441 	adc	#0x07
      0007E1 9D 03 01         [ 5] 2442 	sta	0x103,x
      0007E4 A9 01            [ 2] 2443 	lda	#0x01
      0007E6 9D 04 01         [ 5] 2444 	sta	0x104,x
                                   2445 ;	Raw cost for generated ic 2 : (13, 20.000000) count=1.000000
                                   2446 ;	genCast
                                   2447 ;	genCopy
                                   2448 ;	Raw cost for generated ic 3 : (0, 0.000000) count=1.000000
                                   2449 ;	genCast
                                   2450 ;	genCopy
      0007E9 BD 0C 01         [ 5] 2451 	lda	0x10c,x
      0007EC 9D 02 01         [ 5] 2452 	sta	0x102,x
      0007EF BD 0B 01         [ 5] 2453 	lda	0x10b,x
      0007F2 9D 01 01         [ 5] 2454 	sta	0x101,x
                                   2455 ;	Raw cost for generated ic 4 : (12, 18.000000) count=1.000000
                                   2456 ;	genIpush
      0007F5 A9 00            [ 2] 2457 	lda	#0x00
      0007F7 48               [ 3] 2458 	pha
      0007F8 A9 04            [ 2] 2459 	lda	#0x04
      0007FA 48               [ 3] 2460 	pha
                                   2461 ;	Raw cost for generated ic 5 : (6, 10.000000) count=1.000000
                                   2462 ;	genIpush
      0007FB BD 04 01         [ 5] 2463 	lda	0x104,x
      0007FE 48               [ 3] 2464 	pha
      0007FF BD 03 01         [ 5] 2465 	lda	0x103,x
      000802 48               [ 3] 2466 	pha
                                   2467 ;	Raw cost for generated ic 6 : (8, 14.000000) count=1.000000
                                   2468 ;	Raw cost for generated ic 7 : (0, 0.000000) count=1.000000
                                   2469 ;	genCall
                                   2470 ;	genSend
      000803 BD 01 01         [ 5] 2471 	lda	0x101,x
      000806 A8               [ 2] 2472 	tay
      000807 BD 02 01         [ 5] 2473 	lda	0x102,x
      00080A AA               [ 2] 2474 	tax
      00080B 98               [ 2] 2475 	tya
      00080C 20r00r00         [ 6] 2476 	jsr	___memcpy
                                   2477 ;	  adjustStack : cycles stk:22  incdec:18  adc:24
      00080F 86*00            [ 3] 2478 	stx	*(REGTEMP+0)
      000811 BA               [ 2] 2479 	tsx
      000812 E8               [ 2] 2480 	inx
      000813 E8               [ 2] 2481 	inx
      000814 E8               [ 2] 2482 	inx
      000815 E8               [ 2] 2483 	inx
      000816 9A               [ 2] 2484 	txs
                                   2485 ;	Raw cost for generated ic 8 : (22, 38.000000) count=1.000000
                                   2486 ;	genIpush
      000817 BA               [ 2] 2487 	tsx
      000818 BD 0C 01         [ 5] 2488 	lda	0x10c,x
      00081B 48               [ 3] 2489 	pha
      00081C BD 0B 01         [ 5] 2490 	lda	0x10b,x
      00081F 48               [ 3] 2491 	pha
                                   2492 ;	Raw cost for generated ic 9 : (9, 16.000000) count=1.000000
                                   2493 ;	Raw cost for generated ic 10 : (0, 0.000000) count=1.000000
                                   2494 ;	genCall
                                   2495 ;	genSend
      000820 A2 00            [ 2] 2496 	ldx	#0x00
      000822 A9 04            [ 2] 2497 	lda	#0x04
      000824 20r00r00         [ 6] 2498 	jsr	_stdc_memreverse8
                                   2499 ;	  adjustStack : cycles stk:14  incdec:14  adc:24
      000827 85*00            [ 3] 2500 	sta	*(REGTEMP+0)
      000829 68               [ 4] 2501 	pla
      00082A 68               [ 4] 2502 	pla
      00082B A5*00            [ 3] 2503 	lda	*(REGTEMP+0)
                                   2504 ;	Raw cost for generated ic 11 : (13, 24.000000) count=1.000000
                                   2505 ;	genLabel
                                   2506 ;	Raw cost for generated ic 12 : (0, 0.000000) count=1.000000
                                   2507 ;	genEndFunction
                                   2508 ;	  adjustStack : cycles stk:22  incdec:18  adc:24
      00082D 86*00            [ 3] 2509 	stx	*(REGTEMP+0)
      00082F BA               [ 2] 2510 	tsx
      000830 E8               [ 2] 2511 	inx
      000831 E8               [ 2] 2512 	inx
      000832 E8               [ 2] 2513 	inx
      000833 E8               [ 2] 2514 	inx
      000834 9A               [ 2] 2515 	txs
      000835 A6*00            [ 3] 2516 	ldx	*(REGTEMP+0)
      000837 60               [ 6] 2517 	rts
                                   2518 ;	Raw cost for generated ic 13 : (11, 24.000000) count=1.000000
                                   2519 ;------------------------------------------------------------
                                   2520 ;Allocation info for local variables in function 'stdc_store8_leu64'
                                   2521 ;------------------------------------------------------------
                                   2522 ;value         Allocated to stack - sp +7 +8 
                                   2523 ;ptr           Allocated to stack - sp +15 +2 
                                   2524 ;sloc0         Allocated to stack - sp +3 +2 
                                   2525 ;sloc1         Allocated to stack - sp +1 +2 
                                   2526 ;------------------------------------------------------------
                                   2527 ;	./../../include/stdbit.h: 451: 
                                   2528 ;	genLabel
                                   2529 ;	Raw cost for generated ic 0 : (0, 0.000000) count=1.000000
                                   2530 ;	-----------------------------------------
                                   2531 ;	 function stdc_store8_leu64
                                   2532 ;	-----------------------------------------
                                   2533 ;	Register assignment is optimal.
                                   2534 ;	Stack space usage: 4 bytes.
      000838                       2535 _stdc_store8_leu64:
                                   2536 ;	  adjustStack : cycles stk:12  incdec:12  adc:12
      000838 48               [ 3] 2537 	pha
      000839 48               [ 3] 2538 	pha
      00083A 48               [ 3] 2539 	pha
      00083B 48               [ 3] 2540 	pha
                                   2541 ;	Raw cost for generated ic 1 : (4, 12.000000) count=1.000000
                                   2542 ;	genAddrOf
      00083C BA               [ 2] 2543 	tsx
      00083D 8A               [ 2] 2544 	txa
      00083E 18               [ 2] 2545 	clc
      00083F 69 07            [ 2] 2546 	adc	#0x07
      000841 9D 03 01         [ 5] 2547 	sta	0x103,x
      000844 A9 01            [ 2] 2548 	lda	#0x01
      000846 9D 04 01         [ 5] 2549 	sta	0x104,x
                                   2550 ;	Raw cost for generated ic 2 : (13, 20.000000) count=1.000000
                                   2551 ;	genCast
                                   2552 ;	genCopy
                                   2553 ;	Raw cost for generated ic 3 : (0, 0.000000) count=1.000000
                                   2554 ;	genCast
                                   2555 ;	genCopy
      000849 BD 10 01         [ 5] 2556 	lda	0x110,x
      00084C 9D 02 01         [ 5] 2557 	sta	0x102,x
      00084F BD 0F 01         [ 5] 2558 	lda	0x10f,x
      000852 9D 01 01         [ 5] 2559 	sta	0x101,x
                                   2560 ;	Raw cost for generated ic 4 : (12, 18.000000) count=1.000000
                                   2561 ;	genIpush
      000855 A9 00            [ 2] 2562 	lda	#0x00
      000857 48               [ 3] 2563 	pha
      000858 A9 08            [ 2] 2564 	lda	#0x08
      00085A 48               [ 3] 2565 	pha
                                   2566 ;	Raw cost for generated ic 5 : (6, 10.000000) count=1.000000
                                   2567 ;	genIpush
      00085B BD 04 01         [ 5] 2568 	lda	0x104,x
      00085E 48               [ 3] 2569 	pha
      00085F BD 03 01         [ 5] 2570 	lda	0x103,x
      000862 48               [ 3] 2571 	pha
                                   2572 ;	Raw cost for generated ic 6 : (8, 14.000000) count=1.000000
                                   2573 ;	Raw cost for generated ic 7 : (0, 0.000000) count=1.000000
                                   2574 ;	genCall
                                   2575 ;	genSend
      000863 BD 01 01         [ 5] 2576 	lda	0x101,x
      000866 A8               [ 2] 2577 	tay
      000867 BD 02 01         [ 5] 2578 	lda	0x102,x
      00086A AA               [ 2] 2579 	tax
      00086B 98               [ 2] 2580 	tya
      00086C 20r00r00         [ 6] 2581 	jsr	___memcpy
                                   2582 ;	  adjustStack : cycles stk:22  incdec:18  adc:24
      00086F 86*00            [ 3] 2583 	stx	*(REGTEMP+0)
      000871 BA               [ 2] 2584 	tsx
      000872 E8               [ 2] 2585 	inx
      000873 E8               [ 2] 2586 	inx
      000874 E8               [ 2] 2587 	inx
      000875 E8               [ 2] 2588 	inx
      000876 9A               [ 2] 2589 	txs
                                   2590 ;	Raw cost for generated ic 8 : (22, 38.000000) count=1.000000
                                   2591 ;	genLabel
                                   2592 ;	Raw cost for generated ic 9 : (0, 0.000000) count=1.000000
                                   2593 ;	genEndFunction
                                   2594 ;	  adjustStack : cycles stk:22  incdec:18  adc:24
      000877 BA               [ 2] 2595 	tsx
      000878 E8               [ 2] 2596 	inx
      000879 E8               [ 2] 2597 	inx
      00087A E8               [ 2] 2598 	inx
      00087B E8               [ 2] 2599 	inx
      00087C 9A               [ 2] 2600 	txs
      00087D A6*00            [ 3] 2601 	ldx	*(REGTEMP+0)
      00087F 60               [ 6] 2602 	rts
                                   2603 ;	Raw cost for generated ic 10 : (11, 24.000000) count=1.000000
                                   2604 ;------------------------------------------------------------
                                   2605 ;Allocation info for local variables in function 'stdc_store8_beu64'
                                   2606 ;------------------------------------------------------------
                                   2607 ;value         Allocated to stack - sp +7 +8 
                                   2608 ;ptr           Allocated to stack - sp +15 +2 
                                   2609 ;sloc0         Allocated to stack - sp +3 +2 
                                   2610 ;sloc1         Allocated to stack - sp +1 +2 
                                   2611 ;------------------------------------------------------------
                                   2612 ;	./../../include/stdbit.h: 451: __STDC_STORE8(64)
                                   2613 ;	genLabel
                                   2614 ;	Raw cost for generated ic 0 : (0, 0.000000) count=1.000000
                                   2615 ;	-----------------------------------------
                                   2616 ;	 function stdc_store8_beu64
                                   2617 ;	-----------------------------------------
                                   2618 ;	Register assignment is optimal.
                                   2619 ;	Stack space usage: 4 bytes.
      000880                       2620 _stdc_store8_beu64:
                                   2621 ;	  adjustStack : cycles stk:12  incdec:12  adc:12
      000880 48               [ 3] 2622 	pha
      000881 48               [ 3] 2623 	pha
      000882 48               [ 3] 2624 	pha
      000883 48               [ 3] 2625 	pha
                                   2626 ;	Raw cost for generated ic 1 : (4, 12.000000) count=1.000000
                                   2627 ;	genAddrOf
      000884 BA               [ 2] 2628 	tsx
      000885 8A               [ 2] 2629 	txa
      000886 18               [ 2] 2630 	clc
      000887 69 07            [ 2] 2631 	adc	#0x07
      000889 9D 03 01         [ 5] 2632 	sta	0x103,x
      00088C A9 01            [ 2] 2633 	lda	#0x01
      00088E 9D 04 01         [ 5] 2634 	sta	0x104,x
                                   2635 ;	Raw cost for generated ic 2 : (13, 20.000000) count=1.000000
                                   2636 ;	genCast
                                   2637 ;	genCopy
                                   2638 ;	Raw cost for generated ic 3 : (0, 0.000000) count=1.000000
                                   2639 ;	genCast
                                   2640 ;	genCopy
      000891 BD 10 01         [ 5] 2641 	lda	0x110,x
      000894 9D 02 01         [ 5] 2642 	sta	0x102,x
      000897 BD 0F 01         [ 5] 2643 	lda	0x10f,x
      00089A 9D 01 01         [ 5] 2644 	sta	0x101,x
                                   2645 ;	Raw cost for generated ic 4 : (12, 18.000000) count=1.000000
                                   2646 ;	genIpush
      00089D A9 00            [ 2] 2647 	lda	#0x00
      00089F 48               [ 3] 2648 	pha
      0008A0 A9 08            [ 2] 2649 	lda	#0x08
      0008A2 48               [ 3] 2650 	pha
                                   2651 ;	Raw cost for generated ic 5 : (6, 10.000000) count=1.000000
                                   2652 ;	genIpush
      0008A3 BD 04 01         [ 5] 2653 	lda	0x104,x
      0008A6 48               [ 3] 2654 	pha
      0008A7 BD 03 01         [ 5] 2655 	lda	0x103,x
      0008AA 48               [ 3] 2656 	pha
                                   2657 ;	Raw cost for generated ic 6 : (8, 14.000000) count=1.000000
                                   2658 ;	Raw cost for generated ic 7 : (0, 0.000000) count=1.000000
                                   2659 ;	genCall
                                   2660 ;	genSend
      0008AB BD 01 01         [ 5] 2661 	lda	0x101,x
      0008AE A8               [ 2] 2662 	tay
      0008AF BD 02 01         [ 5] 2663 	lda	0x102,x
      0008B2 AA               [ 2] 2664 	tax
      0008B3 98               [ 2] 2665 	tya
      0008B4 20r00r00         [ 6] 2666 	jsr	___memcpy
                                   2667 ;	  adjustStack : cycles stk:22  incdec:18  adc:24
      0008B7 86*00            [ 3] 2668 	stx	*(REGTEMP+0)
      0008B9 BA               [ 2] 2669 	tsx
      0008BA E8               [ 2] 2670 	inx
      0008BB E8               [ 2] 2671 	inx
      0008BC E8               [ 2] 2672 	inx
      0008BD E8               [ 2] 2673 	inx
      0008BE 9A               [ 2] 2674 	txs
                                   2675 ;	Raw cost for generated ic 8 : (22, 38.000000) count=1.000000
                                   2676 ;	genIpush
      0008BF BA               [ 2] 2677 	tsx
      0008C0 BD 10 01         [ 5] 2678 	lda	0x110,x
      0008C3 48               [ 3] 2679 	pha
      0008C4 BD 0F 01         [ 5] 2680 	lda	0x10f,x
      0008C7 48               [ 3] 2681 	pha
                                   2682 ;	Raw cost for generated ic 9 : (9, 16.000000) count=1.000000
                                   2683 ;	Raw cost for generated ic 10 : (0, 0.000000) count=1.000000
                                   2684 ;	genCall
                                   2685 ;	genSend
      0008C8 A2 00            [ 2] 2686 	ldx	#0x00
      0008CA A9 08            [ 2] 2687 	lda	#0x08
      0008CC 20r00r00         [ 6] 2688 	jsr	_stdc_memreverse8
                                   2689 ;	  adjustStack : cycles stk:14  incdec:14  adc:24
      0008CF 85*00            [ 3] 2690 	sta	*(REGTEMP+0)
      0008D1 68               [ 4] 2691 	pla
      0008D2 68               [ 4] 2692 	pla
      0008D3 A5*00            [ 3] 2693 	lda	*(REGTEMP+0)
                                   2694 ;	Raw cost for generated ic 11 : (13, 24.000000) count=1.000000
                                   2695 ;	genLabel
                                   2696 ;	Raw cost for generated ic 12 : (0, 0.000000) count=1.000000
                                   2697 ;	genEndFunction
                                   2698 ;	  adjustStack : cycles stk:22  incdec:18  adc:24
      0008D5 86*00            [ 3] 2699 	stx	*(REGTEMP+0)
      0008D7 BA               [ 2] 2700 	tsx
      0008D8 E8               [ 2] 2701 	inx
      0008D9 E8               [ 2] 2702 	inx
      0008DA E8               [ 2] 2703 	inx
      0008DB E8               [ 2] 2704 	inx
      0008DC 9A               [ 2] 2705 	txs
      0008DD A6*00            [ 3] 2706 	ldx	*(REGTEMP+0)
      0008DF 60               [ 6] 2707 	rts
                                   2708 ;	Raw cost for generated ic 13 : (11, 24.000000) count=1.000000
                                   2709 ;------------------------------------------------------------
                                   2710 ;Allocation info for local variables in function 'stdc_store8_leu_aligned64'
                                   2711 ;------------------------------------------------------------
                                   2712 ;value         Allocated to stack - sp +7 +8 
                                   2713 ;ptr           Allocated to stack - sp +15 +2 
                                   2714 ;sloc0         Allocated to stack - sp +3 +2 
                                   2715 ;sloc1         Allocated to stack - sp +1 +2 
                                   2716 ;------------------------------------------------------------
                                   2717 ;	./../../include/stdbit.h: 451: 
                                   2718 ;	genLabel
                                   2719 ;	Raw cost for generated ic 0 : (0, 0.000000) count=1.000000
                                   2720 ;	-----------------------------------------
                                   2721 ;	 function stdc_store8_leu_aligned64
                                   2722 ;	-----------------------------------------
                                   2723 ;	Register assignment is optimal.
                                   2724 ;	Stack space usage: 4 bytes.
      0008E0                       2725 _stdc_store8_leu_aligned64:
                                   2726 ;	  adjustStack : cycles stk:12  incdec:12  adc:12
      0008E0 48               [ 3] 2727 	pha
      0008E1 48               [ 3] 2728 	pha
      0008E2 48               [ 3] 2729 	pha
      0008E3 48               [ 3] 2730 	pha
                                   2731 ;	Raw cost for generated ic 1 : (4, 12.000000) count=1.000000
                                   2732 ;	genAddrOf
      0008E4 BA               [ 2] 2733 	tsx
      0008E5 8A               [ 2] 2734 	txa
      0008E6 18               [ 2] 2735 	clc
      0008E7 69 07            [ 2] 2736 	adc	#0x07
      0008E9 9D 03 01         [ 5] 2737 	sta	0x103,x
      0008EC A9 01            [ 2] 2738 	lda	#0x01
      0008EE 9D 04 01         [ 5] 2739 	sta	0x104,x
                                   2740 ;	Raw cost for generated ic 2 : (13, 20.000000) count=1.000000
                                   2741 ;	genCast
                                   2742 ;	genCopy
                                   2743 ;	Raw cost for generated ic 3 : (0, 0.000000) count=1.000000
                                   2744 ;	genCast
                                   2745 ;	genCopy
      0008F1 BD 10 01         [ 5] 2746 	lda	0x110,x
      0008F4 9D 02 01         [ 5] 2747 	sta	0x102,x
      0008F7 BD 0F 01         [ 5] 2748 	lda	0x10f,x
      0008FA 9D 01 01         [ 5] 2749 	sta	0x101,x
                                   2750 ;	Raw cost for generated ic 4 : (12, 18.000000) count=1.000000
                                   2751 ;	genIpush
      0008FD A9 00            [ 2] 2752 	lda	#0x00
      0008FF 48               [ 3] 2753 	pha
      000900 A9 08            [ 2] 2754 	lda	#0x08
      000902 48               [ 3] 2755 	pha
                                   2756 ;	Raw cost for generated ic 5 : (6, 10.000000) count=1.000000
                                   2757 ;	genIpush
      000903 BD 04 01         [ 5] 2758 	lda	0x104,x
      000906 48               [ 3] 2759 	pha
      000907 BD 03 01         [ 5] 2760 	lda	0x103,x
      00090A 48               [ 3] 2761 	pha
                                   2762 ;	Raw cost for generated ic 6 : (8, 14.000000) count=1.000000
                                   2763 ;	Raw cost for generated ic 7 : (0, 0.000000) count=1.000000
                                   2764 ;	genCall
                                   2765 ;	genSend
      00090B BD 01 01         [ 5] 2766 	lda	0x101,x
      00090E A8               [ 2] 2767 	tay
      00090F BD 02 01         [ 5] 2768 	lda	0x102,x
      000912 AA               [ 2] 2769 	tax
      000913 98               [ 2] 2770 	tya
      000914 20r00r00         [ 6] 2771 	jsr	___memcpy
                                   2772 ;	  adjustStack : cycles stk:22  incdec:18  adc:24
      000917 86*00            [ 3] 2773 	stx	*(REGTEMP+0)
      000919 BA               [ 2] 2774 	tsx
      00091A E8               [ 2] 2775 	inx
      00091B E8               [ 2] 2776 	inx
      00091C E8               [ 2] 2777 	inx
      00091D E8               [ 2] 2778 	inx
      00091E 9A               [ 2] 2779 	txs
                                   2780 ;	Raw cost for generated ic 8 : (22, 38.000000) count=1.000000
                                   2781 ;	genLabel
                                   2782 ;	Raw cost for generated ic 9 : (0, 0.000000) count=1.000000
                                   2783 ;	genEndFunction
                                   2784 ;	  adjustStack : cycles stk:22  incdec:18  adc:24
      00091F BA               [ 2] 2785 	tsx
      000920 E8               [ 2] 2786 	inx
      000921 E8               [ 2] 2787 	inx
      000922 E8               [ 2] 2788 	inx
      000923 E8               [ 2] 2789 	inx
      000924 9A               [ 2] 2790 	txs
      000925 A6*00            [ 3] 2791 	ldx	*(REGTEMP+0)
      000927 60               [ 6] 2792 	rts
                                   2793 ;	Raw cost for generated ic 10 : (11, 24.000000) count=1.000000
                                   2794 ;------------------------------------------------------------
                                   2795 ;Allocation info for local variables in function 'stdc_store8_beu_aligned64'
                                   2796 ;------------------------------------------------------------
                                   2797 ;value         Allocated to stack - sp +7 +8 
                                   2798 ;ptr           Allocated to stack - sp +15 +2 
                                   2799 ;sloc0         Allocated to stack - sp +3 +2 
                                   2800 ;sloc1         Allocated to stack - sp +1 +2 
                                   2801 ;------------------------------------------------------------
                                   2802 ;	./../../include/stdbit.h: 451: __STDC_STORE8(64)
                                   2803 ;	genLabel
                                   2804 ;	Raw cost for generated ic 0 : (0, 0.000000) count=1.000000
                                   2805 ;	-----------------------------------------
                                   2806 ;	 function stdc_store8_beu_aligned64
                                   2807 ;	-----------------------------------------
                                   2808 ;	Register assignment is optimal.
                                   2809 ;	Stack space usage: 4 bytes.
      000928                       2810 _stdc_store8_beu_aligned64:
                                   2811 ;	  adjustStack : cycles stk:12  incdec:12  adc:12
      000928 48               [ 3] 2812 	pha
      000929 48               [ 3] 2813 	pha
      00092A 48               [ 3] 2814 	pha
      00092B 48               [ 3] 2815 	pha
                                   2816 ;	Raw cost for generated ic 1 : (4, 12.000000) count=1.000000
                                   2817 ;	genAddrOf
      00092C BA               [ 2] 2818 	tsx
      00092D 8A               [ 2] 2819 	txa
      00092E 18               [ 2] 2820 	clc
      00092F 69 07            [ 2] 2821 	adc	#0x07
      000931 9D 03 01         [ 5] 2822 	sta	0x103,x
      000934 A9 01            [ 2] 2823 	lda	#0x01
      000936 9D 04 01         [ 5] 2824 	sta	0x104,x
                                   2825 ;	Raw cost for generated ic 2 : (13, 20.000000) count=1.000000
                                   2826 ;	genCast
                                   2827 ;	genCopy
                                   2828 ;	Raw cost for generated ic 3 : (0, 0.000000) count=1.000000
                                   2829 ;	genCast
                                   2830 ;	genCopy
      000939 BD 10 01         [ 5] 2831 	lda	0x110,x
      00093C 9D 02 01         [ 5] 2832 	sta	0x102,x
      00093F BD 0F 01         [ 5] 2833 	lda	0x10f,x
      000942 9D 01 01         [ 5] 2834 	sta	0x101,x
                                   2835 ;	Raw cost for generated ic 4 : (12, 18.000000) count=1.000000
                                   2836 ;	genIpush
      000945 A9 00            [ 2] 2837 	lda	#0x00
      000947 48               [ 3] 2838 	pha
      000948 A9 08            [ 2] 2839 	lda	#0x08
      00094A 48               [ 3] 2840 	pha
                                   2841 ;	Raw cost for generated ic 5 : (6, 10.000000) count=1.000000
                                   2842 ;	genIpush
      00094B BD 04 01         [ 5] 2843 	lda	0x104,x
      00094E 48               [ 3] 2844 	pha
      00094F BD 03 01         [ 5] 2845 	lda	0x103,x
      000952 48               [ 3] 2846 	pha
                                   2847 ;	Raw cost for generated ic 6 : (8, 14.000000) count=1.000000
                                   2848 ;	Raw cost for generated ic 7 : (0, 0.000000) count=1.000000
                                   2849 ;	genCall
                                   2850 ;	genSend
      000953 BD 01 01         [ 5] 2851 	lda	0x101,x
      000956 A8               [ 2] 2852 	tay
      000957 BD 02 01         [ 5] 2853 	lda	0x102,x
      00095A AA               [ 2] 2854 	tax
      00095B 98               [ 2] 2855 	tya
      00095C 20r00r00         [ 6] 2856 	jsr	___memcpy
                                   2857 ;	  adjustStack : cycles stk:22  incdec:18  adc:24
      00095F 86*00            [ 3] 2858 	stx	*(REGTEMP+0)
      000961 BA               [ 2] 2859 	tsx
      000962 E8               [ 2] 2860 	inx
      000963 E8               [ 2] 2861 	inx
      000964 E8               [ 2] 2862 	inx
      000965 E8               [ 2] 2863 	inx
      000966 9A               [ 2] 2864 	txs
                                   2865 ;	Raw cost for generated ic 8 : (22, 38.000000) count=1.000000
                                   2866 ;	genIpush
      000967 BA               [ 2] 2867 	tsx
      000968 BD 10 01         [ 5] 2868 	lda	0x110,x
      00096B 48               [ 3] 2869 	pha
      00096C BD 0F 01         [ 5] 2870 	lda	0x10f,x
      00096F 48               [ 3] 2871 	pha
                                   2872 ;	Raw cost for generated ic 9 : (9, 16.000000) count=1.000000
                                   2873 ;	Raw cost for generated ic 10 : (0, 0.000000) count=1.000000
                                   2874 ;	genCall
                                   2875 ;	genSend
      000970 A2 00            [ 2] 2876 	ldx	#0x00
      000972 A9 08            [ 2] 2877 	lda	#0x08
      000974 20r00r00         [ 6] 2878 	jsr	_stdc_memreverse8
                                   2879 ;	  adjustStack : cycles stk:14  incdec:14  adc:24
      000977 85*00            [ 3] 2880 	sta	*(REGTEMP+0)
      000979 68               [ 4] 2881 	pla
      00097A 68               [ 4] 2882 	pla
      00097B A5*00            [ 3] 2883 	lda	*(REGTEMP+0)
                                   2884 ;	Raw cost for generated ic 11 : (13, 24.000000) count=1.000000
                                   2885 ;	genLabel
                                   2886 ;	Raw cost for generated ic 12 : (0, 0.000000) count=1.000000
                                   2887 ;	genEndFunction
                                   2888 ;	  adjustStack : cycles stk:22  incdec:18  adc:24
      00097D 86*00            [ 3] 2889 	stx	*(REGTEMP+0)
      00097F BA               [ 2] 2890 	tsx
      000980 E8               [ 2] 2891 	inx
      000981 E8               [ 2] 2892 	inx
      000982 E8               [ 2] 2893 	inx
      000983 E8               [ 2] 2894 	inx
      000984 9A               [ 2] 2895 	txs
      000985 A6*00            [ 3] 2896 	ldx	*(REGTEMP+0)
      000987 60               [ 6] 2897 	rts
                                   2898 ;	Raw cost for generated ic 13 : (11, 24.000000) count=1.000000
                                   2899 ;------------------------------------------------------------
                                   2900 ;Allocation info for local variables in function 'stdc_store8_les64'
                                   2901 ;------------------------------------------------------------
                                   2902 ;value         Allocated to stack - sp +7 +8 
                                   2903 ;ptr           Allocated to stack - sp +15 +2 
                                   2904 ;sloc0         Allocated to stack - sp +3 +2 
                                   2905 ;sloc1         Allocated to stack - sp +1 +2 
                                   2906 ;------------------------------------------------------------
                                   2907 ;	./../../include/stdbit.h: 451: 
                                   2908 ;	genLabel
                                   2909 ;	Raw cost for generated ic 0 : (0, 0.000000) count=1.000000
                                   2910 ;	-----------------------------------------
                                   2911 ;	 function stdc_store8_les64
                                   2912 ;	-----------------------------------------
                                   2913 ;	Register assignment is optimal.
                                   2914 ;	Stack space usage: 4 bytes.
      000988                       2915 _stdc_store8_les64:
                                   2916 ;	  adjustStack : cycles stk:12  incdec:12  adc:12
      000988 48               [ 3] 2917 	pha
      000989 48               [ 3] 2918 	pha
      00098A 48               [ 3] 2919 	pha
      00098B 48               [ 3] 2920 	pha
                                   2921 ;	Raw cost for generated ic 1 : (4, 12.000000) count=1.000000
                                   2922 ;	genAddrOf
      00098C BA               [ 2] 2923 	tsx
      00098D 8A               [ 2] 2924 	txa
      00098E 18               [ 2] 2925 	clc
      00098F 69 07            [ 2] 2926 	adc	#0x07
      000991 9D 03 01         [ 5] 2927 	sta	0x103,x
      000994 A9 01            [ 2] 2928 	lda	#0x01
      000996 9D 04 01         [ 5] 2929 	sta	0x104,x
                                   2930 ;	Raw cost for generated ic 2 : (13, 20.000000) count=1.000000
                                   2931 ;	genCast
                                   2932 ;	genCopy
                                   2933 ;	Raw cost for generated ic 3 : (0, 0.000000) count=1.000000
                                   2934 ;	genCast
                                   2935 ;	genCopy
      000999 BD 10 01         [ 5] 2936 	lda	0x110,x
      00099C 9D 02 01         [ 5] 2937 	sta	0x102,x
      00099F BD 0F 01         [ 5] 2938 	lda	0x10f,x
      0009A2 9D 01 01         [ 5] 2939 	sta	0x101,x
                                   2940 ;	Raw cost for generated ic 4 : (12, 18.000000) count=1.000000
                                   2941 ;	genIpush
      0009A5 A9 00            [ 2] 2942 	lda	#0x00
      0009A7 48               [ 3] 2943 	pha
      0009A8 A9 08            [ 2] 2944 	lda	#0x08
      0009AA 48               [ 3] 2945 	pha
                                   2946 ;	Raw cost for generated ic 5 : (6, 10.000000) count=1.000000
                                   2947 ;	genIpush
      0009AB BD 04 01         [ 5] 2948 	lda	0x104,x
      0009AE 48               [ 3] 2949 	pha
      0009AF BD 03 01         [ 5] 2950 	lda	0x103,x
      0009B2 48               [ 3] 2951 	pha
                                   2952 ;	Raw cost for generated ic 6 : (8, 14.000000) count=1.000000
                                   2953 ;	Raw cost for generated ic 7 : (0, 0.000000) count=1.000000
                                   2954 ;	genCall
                                   2955 ;	genSend
      0009B3 BD 01 01         [ 5] 2956 	lda	0x101,x
      0009B6 A8               [ 2] 2957 	tay
      0009B7 BD 02 01         [ 5] 2958 	lda	0x102,x
      0009BA AA               [ 2] 2959 	tax
      0009BB 98               [ 2] 2960 	tya
      0009BC 20r00r00         [ 6] 2961 	jsr	___memcpy
                                   2962 ;	  adjustStack : cycles stk:22  incdec:18  adc:24
      0009BF 86*00            [ 3] 2963 	stx	*(REGTEMP+0)
      0009C1 BA               [ 2] 2964 	tsx
      0009C2 E8               [ 2] 2965 	inx
      0009C3 E8               [ 2] 2966 	inx
      0009C4 E8               [ 2] 2967 	inx
      0009C5 E8               [ 2] 2968 	inx
      0009C6 9A               [ 2] 2969 	txs
                                   2970 ;	Raw cost for generated ic 8 : (22, 38.000000) count=1.000000
                                   2971 ;	genLabel
                                   2972 ;	Raw cost for generated ic 9 : (0, 0.000000) count=1.000000
                                   2973 ;	genEndFunction
                                   2974 ;	  adjustStack : cycles stk:22  incdec:18  adc:24
      0009C7 BA               [ 2] 2975 	tsx
      0009C8 E8               [ 2] 2976 	inx
      0009C9 E8               [ 2] 2977 	inx
      0009CA E8               [ 2] 2978 	inx
      0009CB E8               [ 2] 2979 	inx
      0009CC 9A               [ 2] 2980 	txs
      0009CD A6*00            [ 3] 2981 	ldx	*(REGTEMP+0)
      0009CF 60               [ 6] 2982 	rts
                                   2983 ;	Raw cost for generated ic 10 : (11, 24.000000) count=1.000000
                                   2984 ;------------------------------------------------------------
                                   2985 ;Allocation info for local variables in function 'stdc_store8_bes64'
                                   2986 ;------------------------------------------------------------
                                   2987 ;value         Allocated to stack - sp +7 +8 
                                   2988 ;ptr           Allocated to stack - sp +15 +2 
                                   2989 ;sloc0         Allocated to stack - sp +3 +2 
                                   2990 ;sloc1         Allocated to stack - sp +1 +2 
                                   2991 ;------------------------------------------------------------
                                   2992 ;	./../../include/stdbit.h: 451: __STDC_STORE8(64)
                                   2993 ;	genLabel
                                   2994 ;	Raw cost for generated ic 0 : (0, 0.000000) count=1.000000
                                   2995 ;	-----------------------------------------
                                   2996 ;	 function stdc_store8_bes64
                                   2997 ;	-----------------------------------------
                                   2998 ;	Register assignment is optimal.
                                   2999 ;	Stack space usage: 4 bytes.
      0009D0                       3000 _stdc_store8_bes64:
                                   3001 ;	  adjustStack : cycles stk:12  incdec:12  adc:12
      0009D0 48               [ 3] 3002 	pha
      0009D1 48               [ 3] 3003 	pha
      0009D2 48               [ 3] 3004 	pha
      0009D3 48               [ 3] 3005 	pha
                                   3006 ;	Raw cost for generated ic 1 : (4, 12.000000) count=1.000000
                                   3007 ;	genAddrOf
      0009D4 BA               [ 2] 3008 	tsx
      0009D5 8A               [ 2] 3009 	txa
      0009D6 18               [ 2] 3010 	clc
      0009D7 69 07            [ 2] 3011 	adc	#0x07
      0009D9 9D 03 01         [ 5] 3012 	sta	0x103,x
      0009DC A9 01            [ 2] 3013 	lda	#0x01
      0009DE 9D 04 01         [ 5] 3014 	sta	0x104,x
                                   3015 ;	Raw cost for generated ic 2 : (13, 20.000000) count=1.000000
                                   3016 ;	genCast
                                   3017 ;	genCopy
                                   3018 ;	Raw cost for generated ic 3 : (0, 0.000000) count=1.000000
                                   3019 ;	genCast
                                   3020 ;	genCopy
      0009E1 BD 10 01         [ 5] 3021 	lda	0x110,x
      0009E4 9D 02 01         [ 5] 3022 	sta	0x102,x
      0009E7 BD 0F 01         [ 5] 3023 	lda	0x10f,x
      0009EA 9D 01 01         [ 5] 3024 	sta	0x101,x
                                   3025 ;	Raw cost for generated ic 4 : (12, 18.000000) count=1.000000
                                   3026 ;	genIpush
      0009ED A9 00            [ 2] 3027 	lda	#0x00
      0009EF 48               [ 3] 3028 	pha
      0009F0 A9 08            [ 2] 3029 	lda	#0x08
      0009F2 48               [ 3] 3030 	pha
                                   3031 ;	Raw cost for generated ic 5 : (6, 10.000000) count=1.000000
                                   3032 ;	genIpush
      0009F3 BD 04 01         [ 5] 3033 	lda	0x104,x
      0009F6 48               [ 3] 3034 	pha
      0009F7 BD 03 01         [ 5] 3035 	lda	0x103,x
      0009FA 48               [ 3] 3036 	pha
                                   3037 ;	Raw cost for generated ic 6 : (8, 14.000000) count=1.000000
                                   3038 ;	Raw cost for generated ic 7 : (0, 0.000000) count=1.000000
                                   3039 ;	genCall
                                   3040 ;	genSend
      0009FB BD 01 01         [ 5] 3041 	lda	0x101,x
      0009FE A8               [ 2] 3042 	tay
      0009FF BD 02 01         [ 5] 3043 	lda	0x102,x
      000A02 AA               [ 2] 3044 	tax
      000A03 98               [ 2] 3045 	tya
      000A04 20r00r00         [ 6] 3046 	jsr	___memcpy
                                   3047 ;	  adjustStack : cycles stk:22  incdec:18  adc:24
      000A07 86*00            [ 3] 3048 	stx	*(REGTEMP+0)
      000A09 BA               [ 2] 3049 	tsx
      000A0A E8               [ 2] 3050 	inx
      000A0B E8               [ 2] 3051 	inx
      000A0C E8               [ 2] 3052 	inx
      000A0D E8               [ 2] 3053 	inx
      000A0E 9A               [ 2] 3054 	txs
                                   3055 ;	Raw cost for generated ic 8 : (22, 38.000000) count=1.000000
                                   3056 ;	genIpush
      000A0F BA               [ 2] 3057 	tsx
      000A10 BD 10 01         [ 5] 3058 	lda	0x110,x
      000A13 48               [ 3] 3059 	pha
      000A14 BD 0F 01         [ 5] 3060 	lda	0x10f,x
      000A17 48               [ 3] 3061 	pha
                                   3062 ;	Raw cost for generated ic 9 : (9, 16.000000) count=1.000000
                                   3063 ;	Raw cost for generated ic 10 : (0, 0.000000) count=1.000000
                                   3064 ;	genCall
                                   3065 ;	genSend
      000A18 A2 00            [ 2] 3066 	ldx	#0x00
      000A1A A9 08            [ 2] 3067 	lda	#0x08
      000A1C 20r00r00         [ 6] 3068 	jsr	_stdc_memreverse8
                                   3069 ;	  adjustStack : cycles stk:14  incdec:14  adc:24
      000A1F 85*00            [ 3] 3070 	sta	*(REGTEMP+0)
      000A21 68               [ 4] 3071 	pla
      000A22 68               [ 4] 3072 	pla
      000A23 A5*00            [ 3] 3073 	lda	*(REGTEMP+0)
                                   3074 ;	Raw cost for generated ic 11 : (13, 24.000000) count=1.000000
                                   3075 ;	genLabel
                                   3076 ;	Raw cost for generated ic 12 : (0, 0.000000) count=1.000000
                                   3077 ;	genEndFunction
                                   3078 ;	  adjustStack : cycles stk:22  incdec:18  adc:24
      000A25 86*00            [ 3] 3079 	stx	*(REGTEMP+0)
      000A27 BA               [ 2] 3080 	tsx
      000A28 E8               [ 2] 3081 	inx
      000A29 E8               [ 2] 3082 	inx
      000A2A E8               [ 2] 3083 	inx
      000A2B E8               [ 2] 3084 	inx
      000A2C 9A               [ 2] 3085 	txs
      000A2D A6*00            [ 3] 3086 	ldx	*(REGTEMP+0)
      000A2F 60               [ 6] 3087 	rts
                                   3088 ;	Raw cost for generated ic 13 : (11, 24.000000) count=1.000000
                                   3089 ;------------------------------------------------------------
                                   3090 ;Allocation info for local variables in function 'stdc_store8_les_aligned64'
                                   3091 ;------------------------------------------------------------
                                   3092 ;value         Allocated to stack - sp +7 +8 
                                   3093 ;ptr           Allocated to stack - sp +15 +2 
                                   3094 ;sloc0         Allocated to stack - sp +3 +2 
                                   3095 ;sloc1         Allocated to stack - sp +1 +2 
                                   3096 ;------------------------------------------------------------
                                   3097 ;	./../../include/stdbit.h: 451: 
                                   3098 ;	genLabel
                                   3099 ;	Raw cost for generated ic 0 : (0, 0.000000) count=1.000000
                                   3100 ;	-----------------------------------------
                                   3101 ;	 function stdc_store8_les_aligned64
                                   3102 ;	-----------------------------------------
                                   3103 ;	Register assignment is optimal.
                                   3104 ;	Stack space usage: 4 bytes.
      000A30                       3105 _stdc_store8_les_aligned64:
                                   3106 ;	  adjustStack : cycles stk:12  incdec:12  adc:12
      000A30 48               [ 3] 3107 	pha
      000A31 48               [ 3] 3108 	pha
      000A32 48               [ 3] 3109 	pha
      000A33 48               [ 3] 3110 	pha
                                   3111 ;	Raw cost for generated ic 1 : (4, 12.000000) count=1.000000
                                   3112 ;	genAddrOf
      000A34 BA               [ 2] 3113 	tsx
      000A35 8A               [ 2] 3114 	txa
      000A36 18               [ 2] 3115 	clc
      000A37 69 07            [ 2] 3116 	adc	#0x07
      000A39 9D 03 01         [ 5] 3117 	sta	0x103,x
      000A3C A9 01            [ 2] 3118 	lda	#0x01
      000A3E 9D 04 01         [ 5] 3119 	sta	0x104,x
                                   3120 ;	Raw cost for generated ic 2 : (13, 20.000000) count=1.000000
                                   3121 ;	genCast
                                   3122 ;	genCopy
                                   3123 ;	Raw cost for generated ic 3 : (0, 0.000000) count=1.000000
                                   3124 ;	genCast
                                   3125 ;	genCopy
      000A41 BD 10 01         [ 5] 3126 	lda	0x110,x
      000A44 9D 02 01         [ 5] 3127 	sta	0x102,x
      000A47 BD 0F 01         [ 5] 3128 	lda	0x10f,x
      000A4A 9D 01 01         [ 5] 3129 	sta	0x101,x
                                   3130 ;	Raw cost for generated ic 4 : (12, 18.000000) count=1.000000
                                   3131 ;	genIpush
      000A4D A9 00            [ 2] 3132 	lda	#0x00
      000A4F 48               [ 3] 3133 	pha
      000A50 A9 08            [ 2] 3134 	lda	#0x08
      000A52 48               [ 3] 3135 	pha
                                   3136 ;	Raw cost for generated ic 5 : (6, 10.000000) count=1.000000
                                   3137 ;	genIpush
      000A53 BD 04 01         [ 5] 3138 	lda	0x104,x
      000A56 48               [ 3] 3139 	pha
      000A57 BD 03 01         [ 5] 3140 	lda	0x103,x
      000A5A 48               [ 3] 3141 	pha
                                   3142 ;	Raw cost for generated ic 6 : (8, 14.000000) count=1.000000
                                   3143 ;	Raw cost for generated ic 7 : (0, 0.000000) count=1.000000
                                   3144 ;	genCall
                                   3145 ;	genSend
      000A5B BD 01 01         [ 5] 3146 	lda	0x101,x
      000A5E A8               [ 2] 3147 	tay
      000A5F BD 02 01         [ 5] 3148 	lda	0x102,x
      000A62 AA               [ 2] 3149 	tax
      000A63 98               [ 2] 3150 	tya
      000A64 20r00r00         [ 6] 3151 	jsr	___memcpy
                                   3152 ;	  adjustStack : cycles stk:22  incdec:18  adc:24
      000A67 86*00            [ 3] 3153 	stx	*(REGTEMP+0)
      000A69 BA               [ 2] 3154 	tsx
      000A6A E8               [ 2] 3155 	inx
      000A6B E8               [ 2] 3156 	inx
      000A6C E8               [ 2] 3157 	inx
      000A6D E8               [ 2] 3158 	inx
      000A6E 9A               [ 2] 3159 	txs
                                   3160 ;	Raw cost for generated ic 8 : (22, 38.000000) count=1.000000
                                   3161 ;	genLabel
                                   3162 ;	Raw cost for generated ic 9 : (0, 0.000000) count=1.000000
                                   3163 ;	genEndFunction
                                   3164 ;	  adjustStack : cycles stk:22  incdec:18  adc:24
      000A6F BA               [ 2] 3165 	tsx
      000A70 E8               [ 2] 3166 	inx
      000A71 E8               [ 2] 3167 	inx
      000A72 E8               [ 2] 3168 	inx
      000A73 E8               [ 2] 3169 	inx
      000A74 9A               [ 2] 3170 	txs
      000A75 A6*00            [ 3] 3171 	ldx	*(REGTEMP+0)
      000A77 60               [ 6] 3172 	rts
                                   3173 ;	Raw cost for generated ic 10 : (11, 24.000000) count=1.000000
                                   3174 ;------------------------------------------------------------
                                   3175 ;Allocation info for local variables in function 'stdc_store8_bes_aligned64'
                                   3176 ;------------------------------------------------------------
                                   3177 ;value         Allocated to stack - sp +7 +8 
                                   3178 ;ptr           Allocated to stack - sp +15 +2 
                                   3179 ;sloc0         Allocated to stack - sp +3 +2 
                                   3180 ;sloc1         Allocated to stack - sp +1 +2 
                                   3181 ;------------------------------------------------------------
                                   3182 ;	./../../include/stdbit.h: 451: __STDC_STORE8(64)
                                   3183 ;	genLabel
                                   3184 ;	Raw cost for generated ic 0 : (0, 0.000000) count=1.000000
                                   3185 ;	-----------------------------------------
                                   3186 ;	 function stdc_store8_bes_aligned64
                                   3187 ;	-----------------------------------------
                                   3188 ;	Register assignment is optimal.
                                   3189 ;	Stack space usage: 4 bytes.
      000A78                       3190 _stdc_store8_bes_aligned64:
                                   3191 ;	  adjustStack : cycles stk:12  incdec:12  adc:12
      000A78 48               [ 3] 3192 	pha
      000A79 48               [ 3] 3193 	pha
      000A7A 48               [ 3] 3194 	pha
      000A7B 48               [ 3] 3195 	pha
                                   3196 ;	Raw cost for generated ic 1 : (4, 12.000000) count=1.000000
                                   3197 ;	genAddrOf
      000A7C BA               [ 2] 3198 	tsx
      000A7D 8A               [ 2] 3199 	txa
      000A7E 18               [ 2] 3200 	clc
      000A7F 69 07            [ 2] 3201 	adc	#0x07
      000A81 9D 03 01         [ 5] 3202 	sta	0x103,x
      000A84 A9 01            [ 2] 3203 	lda	#0x01
      000A86 9D 04 01         [ 5] 3204 	sta	0x104,x
                                   3205 ;	Raw cost for generated ic 2 : (13, 20.000000) count=1.000000
                                   3206 ;	genCast
                                   3207 ;	genCopy
                                   3208 ;	Raw cost for generated ic 3 : (0, 0.000000) count=1.000000
                                   3209 ;	genCast
                                   3210 ;	genCopy
      000A89 BD 10 01         [ 5] 3211 	lda	0x110,x
      000A8C 9D 02 01         [ 5] 3212 	sta	0x102,x
      000A8F BD 0F 01         [ 5] 3213 	lda	0x10f,x
      000A92 9D 01 01         [ 5] 3214 	sta	0x101,x
                                   3215 ;	Raw cost for generated ic 4 : (12, 18.000000) count=1.000000
                                   3216 ;	genIpush
      000A95 A9 00            [ 2] 3217 	lda	#0x00
      000A97 48               [ 3] 3218 	pha
      000A98 A9 08            [ 2] 3219 	lda	#0x08
      000A9A 48               [ 3] 3220 	pha
                                   3221 ;	Raw cost for generated ic 5 : (6, 10.000000) count=1.000000
                                   3222 ;	genIpush
      000A9B BD 04 01         [ 5] 3223 	lda	0x104,x
      000A9E 48               [ 3] 3224 	pha
      000A9F BD 03 01         [ 5] 3225 	lda	0x103,x
      000AA2 48               [ 3] 3226 	pha
                                   3227 ;	Raw cost for generated ic 6 : (8, 14.000000) count=1.000000
                                   3228 ;	Raw cost for generated ic 7 : (0, 0.000000) count=1.000000
                                   3229 ;	genCall
                                   3230 ;	genSend
      000AA3 BD 01 01         [ 5] 3231 	lda	0x101,x
      000AA6 A8               [ 2] 3232 	tay
      000AA7 BD 02 01         [ 5] 3233 	lda	0x102,x
      000AAA AA               [ 2] 3234 	tax
      000AAB 98               [ 2] 3235 	tya
      000AAC 20r00r00         [ 6] 3236 	jsr	___memcpy
                                   3237 ;	  adjustStack : cycles stk:22  incdec:18  adc:24
      000AAF 86*00            [ 3] 3238 	stx	*(REGTEMP+0)
      000AB1 BA               [ 2] 3239 	tsx
      000AB2 E8               [ 2] 3240 	inx
      000AB3 E8               [ 2] 3241 	inx
      000AB4 E8               [ 2] 3242 	inx
      000AB5 E8               [ 2] 3243 	inx
      000AB6 9A               [ 2] 3244 	txs
                                   3245 ;	Raw cost for generated ic 8 : (22, 38.000000) count=1.000000
                                   3246 ;	genIpush
      000AB7 BA               [ 2] 3247 	tsx
      000AB8 BD 10 01         [ 5] 3248 	lda	0x110,x
      000ABB 48               [ 3] 3249 	pha
      000ABC BD 0F 01         [ 5] 3250 	lda	0x10f,x
      000ABF 48               [ 3] 3251 	pha
                                   3252 ;	Raw cost for generated ic 9 : (9, 16.000000) count=1.000000
                                   3253 ;	Raw cost for generated ic 10 : (0, 0.000000) count=1.000000
                                   3254 ;	genCall
                                   3255 ;	genSend
      000AC0 A2 00            [ 2] 3256 	ldx	#0x00
      000AC2 A9 08            [ 2] 3257 	lda	#0x08
      000AC4 20r00r00         [ 6] 3258 	jsr	_stdc_memreverse8
                                   3259 ;	  adjustStack : cycles stk:14  incdec:14  adc:24
      000AC7 85*00            [ 3] 3260 	sta	*(REGTEMP+0)
      000AC9 68               [ 4] 3261 	pla
      000ACA 68               [ 4] 3262 	pla
      000ACB A5*00            [ 3] 3263 	lda	*(REGTEMP+0)
                                   3264 ;	Raw cost for generated ic 11 : (13, 24.000000) count=1.000000
                                   3265 ;	genLabel
                                   3266 ;	Raw cost for generated ic 12 : (0, 0.000000) count=1.000000
                                   3267 ;	genEndFunction
                                   3268 ;	  adjustStack : cycles stk:22  incdec:18  adc:24
      000ACD 86*00            [ 3] 3269 	stx	*(REGTEMP+0)
      000ACF BA               [ 2] 3270 	tsx
      000AD0 E8               [ 2] 3271 	inx
      000AD1 E8               [ 2] 3272 	inx
      000AD2 E8               [ 2] 3273 	inx
      000AD3 E8               [ 2] 3274 	inx
      000AD4 9A               [ 2] 3275 	txs
      000AD5 A6*00            [ 3] 3276 	ldx	*(REGTEMP+0)
      000AD7 60               [ 6] 3277 	rts
                                   3278 ;	Raw cost for generated ic 13 : (11, 24.000000) count=1.000000
                                   3279 	.area CODE
                                   3280 	.area RODATA
                                   3281 	.area XINIT
                                   3282 	.area CABS    (ABS)
