                                      1 ;--------------------------------------------------------
                                      2 ; File Created by SDCC : free open source ISO C Compiler
                                      3 ; Version 4.5.10 #15691 (Linux)
                                      4 ;--------------------------------------------------------
                                      5 	.module __stdc_first_trailing_one
                                      6 	
                                      7 	.optsdcc -mmos6502
                                      8 
                                      9 ;--------------------------------------------------------
                                     10 ;  Ordering of segments for the linker.
                                     11 ;--------------------------------------------------------
                                     12 	.area ZP      (PAG)
                                     13 	.area OSEG    (PAG, OVR)
                                     14 	.area _CODE
                                     15 	.area GSINIT
                                     16 	.area GSFINAL
                                     17 	.area CODE
                                     18 	.area RODATA
                                     19 	.area XINIT
                                     20 	.area _DATA
                                     21 	.area DATA
                                     22 	.area BSS
                                     23 ;--------------------------------------------------------
                                     24 ; Public variables in this module
                                     25 ;--------------------------------------------------------
                                     26 	.globl ___stdc_first_trailing_one_PARM_1
                                     27 	.globl ___stdc_first_trailing_one
                                     28 ;--------------------------------------------------------
                                     29 ; ZP ram data
                                     30 ;--------------------------------------------------------
                                     31 	.area ZP      (PAG)
      000000                         32 ___stdc_first_trailing_one_sloc0_1_0:
      000000                         33 	.ds 8
                                     34 ;--------------------------------------------------------
                                     35 ; overlayable items in ram
                                     36 ;--------------------------------------------------------
                                     37 ;--------------------------------------------------------
                                     38 ; uninitialized external ram data
                                     39 ;--------------------------------------------------------
                                     40 	.area BSS
      000000                         41 ___stdc_first_trailing_one_PARM_1:
      000000                         42 	.ds 8
      000008                         43 ___stdc_first_trailing_one_i_20000_164:
      000008                         44 	.ds 1
                                     45 ;--------------------------------------------------------
                                     46 ; absolute external ram data
                                     47 ;--------------------------------------------------------
                                     48 	.area DABS    (ABS)
                                     49 ;--------------------------------------------------------
                                     50 ; initialized external ram data
                                     51 ;--------------------------------------------------------
                                     52 	.area DATA
                                     53 ;--------------------------------------------------------
                                     54 ; global & static initialisations
                                     55 ;--------------------------------------------------------
                                     56 	.area _CODE
                                     57 	.area GSINIT
                                     58 	.area GSFINAL
                                     59 	.area GSINIT
                                     60 ;--------------------------------------------------------
                                     61 ; Home
                                     62 ;--------------------------------------------------------
                                     63 	.area _CODE
                                     64 	.area _CODE
                                     65 ;--------------------------------------------------------
                                     66 ; code
                                     67 ;--------------------------------------------------------
                                     68 	.area CODE
                                     69 ;------------------------------------------------------------
                                     70 ;Allocation info for local variables in function '__stdc_first_trailing_one'
                                     71 ;------------------------------------------------------------
                                     72 ;sloc0         Allocated with name '___stdc_first_trailing_one_sloc0_1_0'
                                     73 ;value         Allocated with name '___stdc_first_trailing_one_PARM_1'
                                     74 ;i             Allocated with name '___stdc_first_trailing_one_i_20000_164'
                                     75 ;------------------------------------------------------------
                                     76 ;	../__stdc_first_trailing_one.c: 36: unsigned _BitInt(8) __stdc_first_trailing_one(unsigned long long value)
                                     77 ;	genLabel
                                     78 ;	Raw cost for generated ic 0 : (0, 0.000000) count=1.000000
                                     79 ;	-----------------------------------------
                                     80 ;	 function __stdc_first_trailing_one
                                     81 ;	-----------------------------------------
                                     82 ;	Register assignment is optimal.
                                     83 ;	Stack space usage: 0 bytes.
      000000                         84 ___stdc_first_trailing_one:
                                     85 ;	Raw cost for generated ic 1 : (0, 0.000000) count=1.000000
                                     86 ;	../__stdc_first_trailing_one.c: 38: for(uint_fast8_t i = 0; i < ULLONG_WIDTH; i++)
                                     87 ;	genAssign
                                     88 ;	genAssignLit
      000000 A0 00            [ 2]   89 	ldy	#0x00
      000002 8Cr08r00         [ 4]   90 	sty	___stdc_first_trailing_one_i_20000_164
                                     91 ;	Raw cost for generated ic 2 : (5, 6.000000) count=1.000000
                                     92 ;	genAssign
                                     93 ;	genCopy
      000005 A2 00            [ 2]   94 	ldx	#0x00
                                     95 ;	Raw cost for generated ic 29 : (2, 2.000000) count=1.000000
                                     96 ;	genLabel
      000007                         97 00105$:
                                     98 ;	Raw cost for generated ic 3 : (0, 0.000000) count=3.999993
                                     99 ;	genCmp
      000007 E0 40            [ 2]  100 	cpx	#0x40
      000009 90 03            [ 4]  101 	bcc	00127$
      00000B 4Cr94r00         [ 3]  102 	jmp	00103$
      00000E                        103 00127$:
                                    104 ;	Raw cost for generated ic 4 : (7, 7.600000) count=3.999993
                                    105 ;	skipping generated iCode
                                    106 ;	Raw cost for generated ic 5 : (0, 0.000000) count=3.999993
                                    107 ;	../__stdc_first_trailing_one.c: 39: if(value & (1ull << i))
                                    108 ;	genCast
                                    109 ;	genCopy
      00000E 8Er00r00         [ 4]  110 	stx	__slulonglong_PARM_2
                                    111 ;	Raw cost for generated ic 33 : (3, 4.000000) count=2.999995
                                    112 ;	genAssign
                                    113 ;	genAssignLit
      000011 A0 01            [ 2]  114 	ldy	#0x01
      000013 8Cr00r00         [ 4]  115 	sty	__slulonglong_PARM_1
      000016 88               [ 2]  116 	dey
      000017 8Cr01r00         [ 4]  117 	sty	(__slulonglong_PARM_1 + 1)
      00001A 8Cr02r00         [ 4]  118 	sty	(__slulonglong_PARM_1 + 2)
      00001D 8Cr03r00         [ 4]  119 	sty	(__slulonglong_PARM_1 + 3)
      000020 8Cr04r00         [ 4]  120 	sty	(__slulonglong_PARM_1 + 4)
      000023 8Cr05r00         [ 4]  121 	sty	(__slulonglong_PARM_1 + 5)
      000026 8Cr06r00         [ 4]  122 	sty	(__slulonglong_PARM_1 + 6)
      000029 8Cr07r00         [ 4]  123 	sty	(__slulonglong_PARM_1 + 7)
                                    124 ;	Raw cost for generated ic 34 : (27, 36.000000) count=2.999995
                                    125 ;	genCall
      00002C 8A               [ 2]  126 	txa
      00002D 48               [ 3]  127 	pha
      00002E 20r00r00         [ 6]  128 	jsr	__slulonglong
                                    129 ;	assignResultValue
      000031 85*00            [ 3]  130 	sta	*___stdc_first_trailing_one_sloc0_1_0
      000033 86*01            [ 3]  131 	stx	*(___stdc_first_trailing_one_sloc0_1_0 + 1)
      000035 A5*00            [ 3]  132 	lda	*___SDCC_m6502_ret2
      000037 85*02            [ 3]  133 	sta	*(___stdc_first_trailing_one_sloc0_1_0 + 2)
      000039 A5*00            [ 3]  134 	lda	*___SDCC_m6502_ret3
      00003B 85*03            [ 3]  135 	sta	*(___stdc_first_trailing_one_sloc0_1_0 + 3)
      00003D A5*00            [ 3]  136 	lda	*___SDCC_m6502_ret4
      00003F 85*04            [ 3]  137 	sta	*(___stdc_first_trailing_one_sloc0_1_0 + 4)
      000041 A5*00            [ 3]  138 	lda	*___SDCC_m6502_ret5
      000043 85*05            [ 3]  139 	sta	*(___stdc_first_trailing_one_sloc0_1_0 + 5)
      000045 A5*00            [ 3]  140 	lda	*___SDCC_m6502_ret6
      000047 85*06            [ 3]  141 	sta	*(___stdc_first_trailing_one_sloc0_1_0 + 6)
      000049 A5*00            [ 3]  142 	lda	*___SDCC_m6502_ret7
      00004B 85*07            [ 3]  143 	sta	*(___stdc_first_trailing_one_sloc0_1_0 + 7)
      00004D 68               [ 4]  144 	pla
      00004E AA               [ 2]  145 	tax
                                    146 ;	Raw cost for generated ic 36 : (38, 63.000000) count=2.999995
                                    147 ;	genAnd
      00004F ADr00r00         [ 4]  148 	lda	___stdc_first_trailing_one_PARM_1
      000052 25*00            [ 3]  149 	and	*___stdc_first_trailing_one_sloc0_1_0
      000054 D0 2F            [ 4]  150 	bne	00128$
      000056 ADr01r00         [ 4]  151 	lda	(___stdc_first_trailing_one_PARM_1 + 1)
      000059 25*01            [ 3]  152 	and	*(___stdc_first_trailing_one_sloc0_1_0 + 1)
      00005B D0 28            [ 4]  153 	bne	00128$
      00005D ADr02r00         [ 4]  154 	lda	(___stdc_first_trailing_one_PARM_1 + 2)
      000060 25*02            [ 3]  155 	and	*(___stdc_first_trailing_one_sloc0_1_0 + 2)
      000062 D0 21            [ 4]  156 	bne	00128$
      000064 ADr03r00         [ 4]  157 	lda	(___stdc_first_trailing_one_PARM_1 + 3)
      000067 25*03            [ 3]  158 	and	*(___stdc_first_trailing_one_sloc0_1_0 + 3)
      000069 D0 1A            [ 4]  159 	bne	00128$
      00006B ADr04r00         [ 4]  160 	lda	(___stdc_first_trailing_one_PARM_1 + 4)
      00006E 25*04            [ 3]  161 	and	*(___stdc_first_trailing_one_sloc0_1_0 + 4)
      000070 D0 13            [ 4]  162 	bne	00128$
      000072 ADr05r00         [ 4]  163 	lda	(___stdc_first_trailing_one_PARM_1 + 5)
      000075 25*05            [ 3]  164 	and	*(___stdc_first_trailing_one_sloc0_1_0 + 5)
      000077 D0 0C            [ 4]  165 	bne	00128$
      000079 ADr06r00         [ 4]  166 	lda	(___stdc_first_trailing_one_PARM_1 + 6)
      00007C 25*06            [ 3]  167 	and	*(___stdc_first_trailing_one_sloc0_1_0 + 6)
      00007E D0 05            [ 4]  168 	bne	00128$
      000080 ADr07r00         [ 4]  169 	lda	(___stdc_first_trailing_one_PARM_1 + 7)
      000083 25*07            [ 3]  170 	and	*(___stdc_first_trailing_one_sloc0_1_0 + 7)
      000085                        171 00128$:
                                    172 ;	genIfxJump : z
      000085 F0 06            [ 4]  173 	beq	00106$
                                    174 ;	Raw cost for generated ic 9 : (59, 79.799995) count=2.999995
                                    175 ;	skipping generated iCode
                                    176 ;	Raw cost for generated ic 10 : (0, 0.000000) count=2.999995
                                    177 ;	../__stdc_first_trailing_one.c: 40: return (i + 1);
                                    178 ;	genCast
                                    179 ;	genCopy
      000087 AEr08r00         [ 4]  180 	ldx	___stdc_first_trailing_one_i_20000_164
                                    181 ;	Raw cost for generated ic 28 : (3, 4.000000) count=2.249995
                                    182 ;	genPlus
                                    183 ;	  genPlusInc
      00008A E8               [ 2]  184 	inx
      00008B 8A               [ 2]  185 	txa
                                    186 ;	Raw cost for generated ic 14 : (2, 4.000000) count=2.249995
                                    187 ;	genRet
      00008C 60               [ 6]  188 	rts
                                    189 ;	Raw cost for generated ic 16 : (3, 3.000000) count=2.249995
                                    190 ;	genLabel
      00008D                        191 00106$:
                                    192 ;	Raw cost for generated ic 18 : (0, 0.000000) count=2.999993
                                    193 ;	../__stdc_first_trailing_one.c: 38: for(uint_fast8_t i = 0; i < ULLONG_WIDTH; i++)
                                    194 ;	genPlus
                                    195 ;	  genPlusInc
      00008D E8               [ 2]  196 	inx
                                    197 ;	Raw cost for generated ic 20 : (1, 2.000000) count=2.999993
                                    198 ;	genAssign
                                    199 ;	genCopy
      00008E 8Er08r00         [ 4]  200 	stx	___stdc_first_trailing_one_i_20000_164
                                    201 ;	Raw cost for generated ic 21 : (3, 4.000000) count=2.999993
                                    202 ;	genGoto
      000091 4Cr07r00         [ 3]  203 	jmp	00105$
                                    204 ;	Raw cost for generated ic 22 : (3, 3.000000) count=2.999993
                                    205 ;	genLabel
      000094                        206 00103$:
                                    207 ;	Raw cost for generated ic 23 : (0, 0.000000) count=0.999997
                                    208 ;	../__stdc_first_trailing_one.c: 41: return 0;
                                    209 ;	genRet
      000094 A9 00            [ 2]  210 	lda	#0x00
                                    211 ;	Raw cost for generated ic 24 : (2, 2.000000) count=0.999997
                                    212 ;	genLabel
                                    213 ;	Raw cost for generated ic 25 : (0, 0.000000) count=0.999997
                                    214 ;	../__stdc_first_trailing_one.c: 42: }
                                    215 ;	genEndFunction
      000096 60               [ 6]  216 	rts
                                    217 ;	Raw cost for generated ic 26 : (1, 6.000000) count=0.999997
                                    218 	.area CODE
                                    219 	.area RODATA
                                    220 	.area XINIT
                                    221 	.area CABS    (ABS)
