                                      1 ;--------------------------------------------------------
                                      2 ; File Created by SDCC : free open source ISO C Compiler
                                      3 ; Version 4.5.10 #15691 (Linux)
                                      4 ;--------------------------------------------------------
                                      5 	.module _divslonglong
                                      6 	
                                      7 	.optsdcc -mmos6502
                                      8 
                                      9 ;--------------------------------------------------------
                                     10 ;  Ordering of segments for the linker.
                                     11 ;--------------------------------------------------------
                                     12 	.area ZP      (PAG)
                                     13 	.area OSEG    (PAG, OVR)
                                     14 	.area _CODE
                                     15 	.area GSINIT
                                     16 	.area GSFINAL
                                     17 	.area CODE
                                     18 	.area RODATA
                                     19 	.area XINIT
                                     20 	.area _DATA
                                     21 	.area DATA
                                     22 	.area BSS
                                     23 ;--------------------------------------------------------
                                     24 ; Public variables in this module
                                     25 ;--------------------------------------------------------
                                     26 	.globl __divslonglong_PARM_2
                                     27 	.globl __divslonglong_PARM_1
                                     28 	.globl __divslonglong
                                     29 ;--------------------------------------------------------
                                     30 ; ZP ram data
                                     31 ;--------------------------------------------------------
                                     32 	.area ZP      (PAG)
      000000                         33 __divslonglong_sloc0_1_0:
      000000                         34 	.ds 8
      000008                         35 __divslonglong_sloc1_1_0:
      000008                         36 	.ds 1
      000009                         37 __divslonglong_sloc2_1_0:
      000009                         38 	.ds 8
                                     39 ;--------------------------------------------------------
                                     40 ; overlayable items in ram
                                     41 ;--------------------------------------------------------
                                     42 ;--------------------------------------------------------
                                     43 ; uninitialized external ram data
                                     44 ;--------------------------------------------------------
                                     45 	.area BSS
      000000                         46 __divslonglong_PARM_1:
      000000                         47 	.ds 8
      000008                         48 __divslonglong_PARM_2:
      000008                         49 	.ds 8
      000010                         50 __divslonglong_denominatorneg_10000_2:
      000010                         51 	.ds 1
                                     52 ;--------------------------------------------------------
                                     53 ; absolute external ram data
                                     54 ;--------------------------------------------------------
                                     55 	.area DABS    (ABS)
                                     56 ;--------------------------------------------------------
                                     57 ; initialized external ram data
                                     58 ;--------------------------------------------------------
                                     59 	.area DATA
                                     60 ;--------------------------------------------------------
                                     61 ; global & static initialisations
                                     62 ;--------------------------------------------------------
                                     63 	.area _CODE
                                     64 	.area GSINIT
                                     65 	.area GSFINAL
                                     66 	.area GSINIT
                                     67 ;--------------------------------------------------------
                                     68 ; Home
                                     69 ;--------------------------------------------------------
                                     70 	.area _CODE
                                     71 	.area _CODE
                                     72 ;--------------------------------------------------------
                                     73 ; code
                                     74 ;--------------------------------------------------------
                                     75 	.area CODE
                                     76 ;------------------------------------------------------------
                                     77 ;Allocation info for local variables in function '_divslonglong'
                                     78 ;------------------------------------------------------------
                                     79 ;sloc0         Allocated with name '__divslonglong_sloc0_1_0'
                                     80 ;sloc1         Allocated with name '__divslonglong_sloc1_1_0'
                                     81 ;sloc2         Allocated with name '__divslonglong_sloc2_1_0'
                                     82 ;numerator     Allocated with name '__divslonglong_PARM_1'
                                     83 ;denominator   Allocated with name '__divslonglong_PARM_2'
                                     84 ;numeratorneg  Allocated to registers x 
                                     85 ;denominatorneg Allocated with name '__divslonglong_denominatorneg_10000_2'
                                     86 ;d             Allocated with name '__divslonglong_d_10000_2'
                                     87 ;------------------------------------------------------------
                                     88 ;	../_divslonglong.c: 36: _divslonglong (long long numerator, long long denominator) __SDCC_NONBANKED
                                     89 ;	genLabel
                                     90 ;	Raw cost for generated ic 0 : (0, 0.000000) count=1.000000
                                     91 ;	-----------------------------------------
                                     92 ;	 function _divslonglong
                                     93 ;	-----------------------------------------
                                     94 ;	Register assignment is optimal.
                                     95 ;	Stack space usage: 0 bytes.
      000000                         96 __divslonglong:
                                     97 ;	Raw cost for generated ic 1 : (0, 0.000000) count=1.000000
                                     98 ;	../_divslonglong.c: 38: bool numeratorneg = (numerator < 0);
                                     99 ;	genCmp
      000000 2Cr07r00         [ 4]  100 	bit	(__divslonglong_PARM_1 + 7)
      000003 30 05            [ 4]  101 	bmi	00127$
      000005 A9 00            [ 2]  102 	lda	#0x00
      000007 4Cr0Cr00         [ 3]  103 	jmp	00128$
      00000A                        104 00127$:
      00000A A9 01            [ 2]  105 	lda	#0x01
      00000C                        106 00128$:
      00000C AA               [ 2]  107 	tax
                                    108 ;	Raw cost for generated ic 2 : (13, 15.600000) count=1.000000
                                    109 ;	../_divslonglong.c: 39: bool denominatorneg = (denominator < 0);
                                    110 ;	genCmp
      00000D 2Cr0Fr00         [ 4]  111 	bit	(__divslonglong_PARM_2 + 7)
      000010 30 05            [ 4]  112 	bmi	00129$
      000012 A9 00            [ 2]  113 	lda	#0x00
      000014 4Cr19r00         [ 3]  114 	jmp	00130$
      000017                        115 00129$:
      000017 A9 01            [ 2]  116 	lda	#0x01
      000019                        117 00130$:
      000019 8Dr10r00         [ 4]  118 	sta	__divslonglong_denominatorneg_10000_2
                                    119 ;	Raw cost for generated ic 4 : (15, 17.600000) count=1.000000
                                    120 ;	../_divslonglong.c: 42: if (numeratorneg)
                                    121 ;	genIfx
      00001C E0 00            [ 2]  122 	cpx	#0x00
                                    123 ;	genIfxJump : z
      00001E F0 41            [ 4]  124 	beq	00102$
                                    125 ;	Raw cost for generated ic 6 : (7, 7.600000) count=1.000000
                                    126 ;	../_divslonglong.c: 43: numerator = -numerator;
                                    127 ;	genUminus
      000020 A9 00            [ 2]  128 	lda	#0x00
      000022 38               [ 2]  129 	sec
      000023 EDr00r00         [ 4]  130 	sbc	__divslonglong_PARM_1
      000026 8Dr00r00         [ 4]  131 	sta	__divslonglong_PARM_1
      000029 A9 00            [ 2]  132 	lda	#0x00
      00002B EDr01r00         [ 4]  133 	sbc	(__divslonglong_PARM_1 + 1)
      00002E 8Dr01r00         [ 4]  134 	sta	(__divslonglong_PARM_1 + 1)
      000031 A9 00            [ 2]  135 	lda	#0x00
      000033 EDr02r00         [ 4]  136 	sbc	(__divslonglong_PARM_1 + 2)
      000036 8Dr02r00         [ 4]  137 	sta	(__divslonglong_PARM_1 + 2)
      000039 A9 00            [ 2]  138 	lda	#0x00
      00003B EDr03r00         [ 4]  139 	sbc	(__divslonglong_PARM_1 + 3)
      00003E 8Dr03r00         [ 4]  140 	sta	(__divslonglong_PARM_1 + 3)
      000041 A9 00            [ 2]  141 	lda	#0x00
      000043 EDr04r00         [ 4]  142 	sbc	(__divslonglong_PARM_1 + 4)
      000046 8Dr04r00         [ 4]  143 	sta	(__divslonglong_PARM_1 + 4)
      000049 A9 00            [ 2]  144 	lda	#0x00
      00004B EDr05r00         [ 4]  145 	sbc	(__divslonglong_PARM_1 + 5)
      00004E 8Dr05r00         [ 4]  146 	sta	(__divslonglong_PARM_1 + 5)
      000051 A9 00            [ 2]  147 	lda	#0x00
      000053 EDr06r00         [ 4]  148 	sbc	(__divslonglong_PARM_1 + 6)
      000056 8Dr06r00         [ 4]  149 	sta	(__divslonglong_PARM_1 + 6)
      000059 A9 00            [ 2]  150 	lda	#0x00
      00005B EDr07r00         [ 4]  151 	sbc	(__divslonglong_PARM_1 + 7)
      00005E 8Dr07r00         [ 4]  152 	sta	(__divslonglong_PARM_1 + 7)
                                    153 ;	Raw cost for generated ic 9 : (65, 82.000000) count=0.750000
                                    154 ;	genLabel
      000061                        155 00102$:
                                    156 ;	Raw cost for generated ic 11 : (0, 0.000000) count=1.000000
                                    157 ;	../_divslonglong.c: 44: if (denominatorneg)
                                    158 ;	genIfx
      000061 ADr10r00         [ 4]  159 	lda	__divslonglong_denominatorneg_10000_2
                                    160 ;	genIfxJump : z
      000064 F0 41            [ 4]  161 	beq	00104$
                                    162 ;	Raw cost for generated ic 12 : (8, 9.600000) count=1.000000
                                    163 ;	../_divslonglong.c: 45: denominator = -denominator;
                                    164 ;	genUminus
      000066 A9 00            [ 2]  165 	lda	#0x00
      000068 38               [ 2]  166 	sec
      000069 EDr08r00         [ 4]  167 	sbc	__divslonglong_PARM_2
      00006C 8Dr08r00         [ 4]  168 	sta	__divslonglong_PARM_2
      00006F A9 00            [ 2]  169 	lda	#0x00
      000071 EDr09r00         [ 4]  170 	sbc	(__divslonglong_PARM_2 + 1)
      000074 8Dr09r00         [ 4]  171 	sta	(__divslonglong_PARM_2 + 1)
      000077 A9 00            [ 2]  172 	lda	#0x00
      000079 EDr0Ar00         [ 4]  173 	sbc	(__divslonglong_PARM_2 + 2)
      00007C 8Dr0Ar00         [ 4]  174 	sta	(__divslonglong_PARM_2 + 2)
      00007F A9 00            [ 2]  175 	lda	#0x00
      000081 EDr0Br00         [ 4]  176 	sbc	(__divslonglong_PARM_2 + 3)
      000084 8Dr0Br00         [ 4]  177 	sta	(__divslonglong_PARM_2 + 3)
      000087 A9 00            [ 2]  178 	lda	#0x00
      000089 EDr0Cr00         [ 4]  179 	sbc	(__divslonglong_PARM_2 + 4)
      00008C 8Dr0Cr00         [ 4]  180 	sta	(__divslonglong_PARM_2 + 4)
      00008F A9 00            [ 2]  181 	lda	#0x00
      000091 EDr0Dr00         [ 4]  182 	sbc	(__divslonglong_PARM_2 + 5)
      000094 8Dr0Dr00         [ 4]  183 	sta	(__divslonglong_PARM_2 + 5)
      000097 A9 00            [ 2]  184 	lda	#0x00
      000099 EDr0Er00         [ 4]  185 	sbc	(__divslonglong_PARM_2 + 6)
      00009C 8Dr0Er00         [ 4]  186 	sta	(__divslonglong_PARM_2 + 6)
      00009F A9 00            [ 2]  187 	lda	#0x00
      0000A1 EDr0Fr00         [ 4]  188 	sbc	(__divslonglong_PARM_2 + 7)
      0000A4 8Dr0Fr00         [ 4]  189 	sta	(__divslonglong_PARM_2 + 7)
                                    190 ;	Raw cost for generated ic 15 : (65, 82.000000) count=0.750000
                                    191 ;	genLabel
      0000A7                        192 00104$:
                                    193 ;	Raw cost for generated ic 17 : (0, 0.000000) count=1.000000
                                    194 ;	../_divslonglong.c: 47: d = (unsigned long long)numerator / (unsigned long long)denominator;
                                    195 ;	genCast
                                    196 ;	genCopy
      0000A7 ADr07r00         [ 4]  197 	lda	(__divslonglong_PARM_1 + 7)
      0000AA 8Dr07r00         [ 4]  198 	sta	(__divulonglong_PARM_1 + 7)
      0000AD ADr06r00         [ 4]  199 	lda	(__divslonglong_PARM_1 + 6)
      0000B0 8Dr06r00         [ 4]  200 	sta	(__divulonglong_PARM_1 + 6)
      0000B3 ADr05r00         [ 4]  201 	lda	(__divslonglong_PARM_1 + 5)
      0000B6 8Dr05r00         [ 4]  202 	sta	(__divulonglong_PARM_1 + 5)
      0000B9 ADr04r00         [ 4]  203 	lda	(__divslonglong_PARM_1 + 4)
      0000BC 8Dr04r00         [ 4]  204 	sta	(__divulonglong_PARM_1 + 4)
      0000BF ADr03r00         [ 4]  205 	lda	(__divslonglong_PARM_1 + 3)
      0000C2 8Dr03r00         [ 4]  206 	sta	(__divulonglong_PARM_1 + 3)
      0000C5 ADr02r00         [ 4]  207 	lda	(__divslonglong_PARM_1 + 2)
      0000C8 8Dr02r00         [ 4]  208 	sta	(__divulonglong_PARM_1 + 2)
      0000CB ADr01r00         [ 4]  209 	lda	(__divslonglong_PARM_1 + 1)
      0000CE 8Dr01r00         [ 4]  210 	sta	(__divulonglong_PARM_1 + 1)
      0000D1 ADr00r00         [ 4]  211 	lda	__divslonglong_PARM_1
      0000D4 8Dr00r00         [ 4]  212 	sta	__divulonglong_PARM_1
                                    213 ;	Raw cost for generated ic 18 : (48, 64.000000) count=1.000000
                                    214 ;	genCast
                                    215 ;	genCopy
      0000D7 ADr0Fr00         [ 4]  216 	lda	(__divslonglong_PARM_2 + 7)
      0000DA 8Dr07r00         [ 4]  217 	sta	(__divulonglong_PARM_2 + 7)
      0000DD ADr0Er00         [ 4]  218 	lda	(__divslonglong_PARM_2 + 6)
      0000E0 8Dr06r00         [ 4]  219 	sta	(__divulonglong_PARM_2 + 6)
      0000E3 ADr0Dr00         [ 4]  220 	lda	(__divslonglong_PARM_2 + 5)
      0000E6 8Dr05r00         [ 4]  221 	sta	(__divulonglong_PARM_2 + 5)
      0000E9 ADr0Cr00         [ 4]  222 	lda	(__divslonglong_PARM_2 + 4)
      0000EC 8Dr04r00         [ 4]  223 	sta	(__divulonglong_PARM_2 + 4)
      0000EF ADr0Br00         [ 4]  224 	lda	(__divslonglong_PARM_2 + 3)
      0000F2 8Dr03r00         [ 4]  225 	sta	(__divulonglong_PARM_2 + 3)
      0000F5 ADr0Ar00         [ 4]  226 	lda	(__divslonglong_PARM_2 + 2)
      0000F8 8Dr02r00         [ 4]  227 	sta	(__divulonglong_PARM_2 + 2)
      0000FB ADr09r00         [ 4]  228 	lda	(__divslonglong_PARM_2 + 1)
      0000FE 8Dr01r00         [ 4]  229 	sta	(__divulonglong_PARM_2 + 1)
      000101 ADr08r00         [ 4]  230 	lda	__divslonglong_PARM_2
      000104 8Dr00r00         [ 4]  231 	sta	__divulonglong_PARM_2
                                    232 ;	Raw cost for generated ic 19 : (48, 64.000000) count=1.000000
                                    233 ;	../_divslonglong.c: 49: return ((numeratorneg ^ denominatorneg) ? -d : d);
                                    234 ;	genCall
      000107 8A               [ 2]  235 	txa
      000108 48               [ 3]  236 	pha
      000109 20r00r00         [ 6]  237 	jsr	__divulonglong
                                    238 ;	assignResultValue
      00010C 85*00            [ 3]  239 	sta	*__divslonglong_sloc0_1_0
      00010E 86*01            [ 3]  240 	stx	*(__divslonglong_sloc0_1_0 + 1)
      000110 A5*00            [ 3]  241 	lda	*___SDCC_m6502_ret2
      000112 85*02            [ 3]  242 	sta	*(__divslonglong_sloc0_1_0 + 2)
      000114 A5*00            [ 3]  243 	lda	*___SDCC_m6502_ret3
      000116 85*03            [ 3]  244 	sta	*(__divslonglong_sloc0_1_0 + 3)
      000118 A5*00            [ 3]  245 	lda	*___SDCC_m6502_ret4
      00011A 85*04            [ 3]  246 	sta	*(__divslonglong_sloc0_1_0 + 4)
      00011C A5*00            [ 3]  247 	lda	*___SDCC_m6502_ret5
      00011E 85*05            [ 3]  248 	sta	*(__divslonglong_sloc0_1_0 + 5)
      000120 A5*00            [ 3]  249 	lda	*___SDCC_m6502_ret6
      000122 85*06            [ 3]  250 	sta	*(__divslonglong_sloc0_1_0 + 6)
      000124 A5*00            [ 3]  251 	lda	*___SDCC_m6502_ret7
      000126 85*07            [ 3]  252 	sta	*(__divslonglong_sloc0_1_0 + 7)
      000128 68               [ 4]  253 	pla
                                    254 ;	Raw cost for generated ic 35 : (38, 63.000000) count=1.000000
                                    255 ;	genXor
      000129 AA               [ 2]  256 	tax
      00012A 4Dr10r00         [ 4]  257 	eor	__divslonglong_denominatorneg_10000_2
                                    258 ;	genIfxJump : z
      00012D F0 34            [ 4]  259 	beq	00107$
                                    260 ;	Raw cost for generated ic 22 : (9, 11.600000) count=1.000000
                                    261 ;	skipping generated iCode
                                    262 ;	Raw cost for generated ic 23 : (0, 0.000000) count=1.000000
                                    263 ;	genUminus
      00012F A9 00            [ 2]  264 	lda	#0x00
      000131 38               [ 2]  265 	sec
      000132 E5*00            [ 3]  266 	sbc	*__divslonglong_sloc0_1_0
      000134 85*09            [ 3]  267 	sta	*__divslonglong_sloc2_1_0
      000136 A9 00            [ 2]  268 	lda	#0x00
      000138 E5*01            [ 3]  269 	sbc	*(__divslonglong_sloc0_1_0 + 1)
      00013A 85*0A            [ 3]  270 	sta	*(__divslonglong_sloc2_1_0 + 1)
      00013C A9 00            [ 2]  271 	lda	#0x00
      00013E E5*02            [ 3]  272 	sbc	*(__divslonglong_sloc0_1_0 + 2)
      000140 85*0B            [ 3]  273 	sta	*(__divslonglong_sloc2_1_0 + 2)
      000142 A9 00            [ 2]  274 	lda	#0x00
      000144 E5*03            [ 3]  275 	sbc	*(__divslonglong_sloc0_1_0 + 3)
      000146 85*0C            [ 3]  276 	sta	*(__divslonglong_sloc2_1_0 + 3)
      000148 A9 00            [ 2]  277 	lda	#0x00
      00014A E5*04            [ 3]  278 	sbc	*(__divslonglong_sloc0_1_0 + 4)
      00014C 85*0D            [ 3]  279 	sta	*(__divslonglong_sloc2_1_0 + 4)
      00014E A9 00            [ 2]  280 	lda	#0x00
      000150 E5*05            [ 3]  281 	sbc	*(__divslonglong_sloc0_1_0 + 5)
      000152 85*0E            [ 3]  282 	sta	*(__divslonglong_sloc2_1_0 + 5)
      000154 A9 00            [ 2]  283 	lda	#0x00
      000156 E5*06            [ 3]  284 	sbc	*(__divslonglong_sloc0_1_0 + 6)
      000158 85*0F            [ 3]  285 	sta	*(__divslonglong_sloc2_1_0 + 6)
      00015A A9 00            [ 2]  286 	lda	#0x00
      00015C E5*07            [ 3]  287 	sbc	*(__divslonglong_sloc0_1_0 + 7)
      00015E 85*10            [ 3]  288 	sta	*(__divslonglong_sloc2_1_0 + 7)
                                    289 ;	Raw cost for generated ic 24 : (49, 66.000000) count=0.750000
                                    290 ;	genGoto
      000160 4Cr83r01         [ 3]  291 	jmp	00108$
                                    292 ;	Raw cost for generated ic 26 : (3, 3.000000) count=0.750000
                                    293 ;	genLabel
      000163                        294 00107$:
                                    295 ;	Raw cost for generated ic 27 : (0, 0.000000) count=0.250000
                                    296 ;	genAssign
                                    297 ;	genCopy
      000163 A5*07            [ 3]  298 	lda	*(__divslonglong_sloc0_1_0 + 7)
      000165 85*10            [ 3]  299 	sta	*(__divslonglong_sloc2_1_0 + 7)
      000167 A5*06            [ 3]  300 	lda	*(__divslonglong_sloc0_1_0 + 6)
      000169 85*0F            [ 3]  301 	sta	*(__divslonglong_sloc2_1_0 + 6)
      00016B A5*05            [ 3]  302 	lda	*(__divslonglong_sloc0_1_0 + 5)
      00016D 85*0E            [ 3]  303 	sta	*(__divslonglong_sloc2_1_0 + 5)
      00016F A5*04            [ 3]  304 	lda	*(__divslonglong_sloc0_1_0 + 4)
      000171 85*0D            [ 3]  305 	sta	*(__divslonglong_sloc2_1_0 + 4)
      000173 A5*03            [ 3]  306 	lda	*(__divslonglong_sloc0_1_0 + 3)
      000175 85*0C            [ 3]  307 	sta	*(__divslonglong_sloc2_1_0 + 3)
      000177 A5*02            [ 3]  308 	lda	*(__divslonglong_sloc0_1_0 + 2)
      000179 85*0B            [ 3]  309 	sta	*(__divslonglong_sloc2_1_0 + 2)
      00017B A5*01            [ 3]  310 	lda	*(__divslonglong_sloc0_1_0 + 1)
      00017D 85*0A            [ 3]  311 	sta	*(__divslonglong_sloc2_1_0 + 1)
      00017F A5*00            [ 3]  312 	lda	*__divslonglong_sloc0_1_0
      000181 85*09            [ 3]  313 	sta	*__divslonglong_sloc2_1_0
                                    314 ;	Raw cost for generated ic 28 : (32, 48.000000) count=0.250000
                                    315 ;	genLabel
      000183                        316 00108$:
                                    317 ;	Raw cost for generated ic 29 : (0, 0.000000) count=1.000000
                                    318 ;	genRet
      000183 A5*10            [ 3]  319 	lda	*(__divslonglong_sloc2_1_0 + 7)
      000185 85*00            [ 3]  320 	sta	*___SDCC_m6502_ret7
      000187 A5*0F            [ 3]  321 	lda	*(__divslonglong_sloc2_1_0 + 6)
      000189 85*00            [ 3]  322 	sta	*___SDCC_m6502_ret6
      00018B A5*0E            [ 3]  323 	lda	*(__divslonglong_sloc2_1_0 + 5)
      00018D 85*00            [ 3]  324 	sta	*___SDCC_m6502_ret5
      00018F A5*0D            [ 3]  325 	lda	*(__divslonglong_sloc2_1_0 + 4)
      000191 85*00            [ 3]  326 	sta	*___SDCC_m6502_ret4
      000193 A5*0C            [ 3]  327 	lda	*(__divslonglong_sloc2_1_0 + 3)
      000195 85*00            [ 3]  328 	sta	*___SDCC_m6502_ret3
      000197 A5*0B            [ 3]  329 	lda	*(__divslonglong_sloc2_1_0 + 2)
      000199 85*00            [ 3]  330 	sta	*___SDCC_m6502_ret2
      00019B A6*0A            [ 3]  331 	ldx	*(__divslonglong_sloc2_1_0 + 1)
      00019D A5*09            [ 3]  332 	lda	*__divslonglong_sloc2_1_0
                                    333 ;	Raw cost for generated ic 30 : (28, 42.000000) count=1.000000
                                    334 ;	genLabel
                                    335 ;	Raw cost for generated ic 31 : (0, 0.000000) count=1.000000
                                    336 ;	../_divslonglong.c: 50: }
                                    337 ;	genEndFunction
      00019F 60               [ 6]  338 	rts
                                    339 ;	Raw cost for generated ic 32 : (1, 6.000000) count=1.000000
                                    340 	.area CODE
                                    341 	.area RODATA
                                    342 	.area XINIT
                                    343 	.area CABS    (ABS)
