                                      1 ;--------------------------------------------------------
                                      2 ; File Created by SDCC : free open source ISO C Compiler
                                      3 ; Version 4.5.10 #15691 (Linux)
                                      4 ;--------------------------------------------------------
                                      5 	.module _fs2ulonglong
                                      6 	
                                      7 	.optsdcc -mmos6502
                                      8 
                                      9 ;--------------------------------------------------------
                                     10 ;  Ordering of segments for the linker.
                                     11 ;--------------------------------------------------------
                                     12 	.area ZP      (PAG)
                                     13 	.area OSEG    (PAG, OVR)
                                     14 	.area _CODE
                                     15 	.area GSINIT
                                     16 	.area GSFINAL
                                     17 	.area CODE
                                     18 	.area RODATA
                                     19 	.area XINIT
                                     20 	.area _DATA
                                     21 	.area DATA
                                     22 	.area BSS
                                     23 ;--------------------------------------------------------
                                     24 ; Public variables in this module
                                     25 ;--------------------------------------------------------
                                     26 	.globl ___fs2ulonglong_PARM_1
                                     27 	.globl ___fs2ulonglong
                                     28 ;--------------------------------------------------------
                                     29 ; ZP ram data
                                     30 ;--------------------------------------------------------
                                     31 	.area ZP      (PAG)
      000000                         32 ___fs2ulonglong_sloc0_1_0:
      000000                         33 	.ds 4
      000004                         34 ___fs2ulonglong_sloc1_1_0:
      000004                         35 	.ds 8
                                     36 ;--------------------------------------------------------
                                     37 ; overlayable items in ram
                                     38 ;--------------------------------------------------------
                                     39 ;--------------------------------------------------------
                                     40 ; uninitialized external ram data
                                     41 ;--------------------------------------------------------
                                     42 	.area BSS
      000000                         43 ___fs2ulonglong_PARM_1:
      000000                         44 	.ds 4
      000004                         45 ___fs2ulonglong_fl1_10000_21:
      000004                         46 	.ds 4
      000008                         47 ___fs2ulonglong_exp_10000_21:
      000008                         48 	.ds 2
      00000A                         49 ___fs2ulonglong_l_10000_21:
      00000A                         50 	.ds 8
                                     51 ;--------------------------------------------------------
                                     52 ; absolute external ram data
                                     53 ;--------------------------------------------------------
                                     54 	.area DABS    (ABS)
                                     55 ;--------------------------------------------------------
                                     56 ; initialized external ram data
                                     57 ;--------------------------------------------------------
                                     58 	.area DATA
                                     59 ;--------------------------------------------------------
                                     60 ; global & static initialisations
                                     61 ;--------------------------------------------------------
                                     62 	.area _CODE
                                     63 	.area GSINIT
                                     64 	.area GSFINAL
                                     65 	.area GSINIT
                                     66 ;--------------------------------------------------------
                                     67 ; Home
                                     68 ;--------------------------------------------------------
                                     69 	.area _CODE
                                     70 	.area _CODE
                                     71 ;--------------------------------------------------------
                                     72 ; code
                                     73 ;--------------------------------------------------------
                                     74 	.area CODE
                                     75 ;------------------------------------------------------------
                                     76 ;Allocation info for local variables in function '__fs2ulonglong'
                                     77 ;------------------------------------------------------------
                                     78 ;sloc0         Allocated with name '___fs2ulonglong_sloc0_1_0'
                                     79 ;sloc1         Allocated with name '___fs2ulonglong_sloc1_1_0'
                                     80 ;a1            Allocated with name '___fs2ulonglong_PARM_1'
                                     81 ;fl1           Allocated with name '___fs2ulonglong_fl1_10000_21'
                                     82 ;exp           Allocated with name '___fs2ulonglong_exp_10000_21'
                                     83 ;l             Allocated with name '___fs2ulonglong_l_10000_21'
                                     84 ;------------------------------------------------------------
                                     85 ;	../_fs2ulonglong.c: 60: unsigned long long __fs2ulonglong (float a1) __SDCC_FLOAT_NONBANKED
                                     86 ;	genLabel
                                     87 ;	Raw cost for generated ic 0 : (0, 0.000000) count=1.000000
                                     88 ;	-----------------------------------------
                                     89 ;	 function __fs2ulonglong
                                     90 ;	-----------------------------------------
                                     91 ;	Register assignment is optimal.
                                     92 ;	Stack space usage: 0 bytes.
      000000                         93 ___fs2ulonglong:
                                     94 ;	Raw cost for generated ic 1 : (0, 0.000000) count=1.000000
                                     95 ;	../_fs2ulonglong.c: 66: fl1.f = a1;
                                     96 ;	skipping iCode since result will be rematerialized
                                     97 ;	Raw cost for generated ic 2 : (0, 0.000000) count=1.000000
                                     98 ;	genPointerSet
                                     99 ;	genDataPointerSet
      000000 ADr03r00         [ 4]  100 	lda	(___fs2ulonglong_PARM_1 + 3)
      000003 8Dr07r00         [ 4]  101 	sta	(___fs2ulonglong_fl1_10000_21 + 3)
      000006 ADr02r00         [ 4]  102 	lda	(___fs2ulonglong_PARM_1 + 2)
      000009 8Dr06r00         [ 4]  103 	sta	(___fs2ulonglong_fl1_10000_21 + 2)
      00000C ADr01r00         [ 4]  104 	lda	(___fs2ulonglong_PARM_1 + 1)
      00000F 8Dr05r00         [ 4]  105 	sta	(___fs2ulonglong_fl1_10000_21 + 1)
      000012 ADr00r00         [ 4]  106 	lda	___fs2ulonglong_PARM_1
      000015 8Dr04r00         [ 4]  107 	sta	___fs2ulonglong_fl1_10000_21
                                    108 ;	Raw cost for generated ic 4 : (24, 32.000000) count=1.000000
                                    109 ;	../_fs2ulonglong.c: 68: if (!fl1.l || SIGN(fl1.l))
                                    110 ;	skipping iCode since result will be rematerialized
                                    111 ;	Raw cost for generated ic 5 : (0, 0.000000) count=1.000000
                                    112 ;	genPointerGet
                                    113 ;	genDataPointerGet
      000018 ADr07r00         [ 4]  114 	lda	(___fs2ulonglong_fl1_10000_21 + 3)
      00001B 85*03            [ 3]  115 	sta	*(___fs2ulonglong_sloc0_1_0 + 3)
      00001D ADr06r00         [ 4]  116 	lda	(___fs2ulonglong_fl1_10000_21 + 2)
      000020 85*02            [ 3]  117 	sta	*(___fs2ulonglong_sloc0_1_0 + 2)
      000022 ADr05r00         [ 4]  118 	lda	(___fs2ulonglong_fl1_10000_21 + 1)
      000025 85*01            [ 3]  119 	sta	*(___fs2ulonglong_sloc0_1_0 + 1)
      000027 ADr04r00         [ 4]  120 	lda	___fs2ulonglong_fl1_10000_21
      00002A 85*00            [ 3]  121 	sta	*___fs2ulonglong_sloc0_1_0
                                    122 ;	Raw cost for generated ic 7 : (20, 28.000000) count=1.000000
                                    123 ;	genIfx
      00002C A5*03            [ 3]  124 	lda	*(___fs2ulonglong_sloc0_1_0 + 3)
      00002E 05*02            [ 3]  125 	ora	*(___fs2ulonglong_sloc0_1_0 + 2)
      000030 05*01            [ 3]  126 	ora	*(___fs2ulonglong_sloc0_1_0 + 1)
      000032 05*00            [ 3]  127 	ora	*___fs2ulonglong_sloc0_1_0
                                    128 ;	genIfxJump : z
      000034 F0 26            [ 4]  129 	beq	00101$
                                    130 ;	Raw cost for generated ic 8 : (13, 17.600000) count=1.000000
                                    131 ;	skipping iCode since result will be rematerialized
                                    132 ;	Raw cost for generated ic 11 : (0, 0.000000) count=0.750000
                                    133 ;	genPointerGet
                                    134 ;	genDataPointerGet
      000036 ADr07r00         [ 4]  135 	lda	(___fs2ulonglong_fl1_10000_21 + 3)
      000039 85*03            [ 3]  136 	sta	*(___fs2ulonglong_sloc0_1_0 + 3)
      00003B ADr06r00         [ 4]  137 	lda	(___fs2ulonglong_fl1_10000_21 + 2)
      00003E 85*02            [ 3]  138 	sta	*(___fs2ulonglong_sloc0_1_0 + 2)
      000040 ADr05r00         [ 4]  139 	lda	(___fs2ulonglong_fl1_10000_21 + 1)
      000043 85*01            [ 3]  140 	sta	*(___fs2ulonglong_sloc0_1_0 + 1)
      000045 ADr04r00         [ 4]  141 	lda	___fs2ulonglong_fl1_10000_21
      000048 85*00            [ 3]  142 	sta	*___fs2ulonglong_sloc0_1_0
                                    143 ;	Raw cost for generated ic 13 : (20, 28.000000) count=0.750000
                                    144 ;	genCast
                                    145 ;	genCopy
                                    146 ;	Raw cost for generated ic 14 : (0, 0.000000) count=0.750000
                                    147 ;	genRightShift
                                    148 ;	genRightShiftLiteral
                                    149 ;	  genrsh32 - shift=31
      00004A A5*03            [ 3]  150 	lda	*(___fs2ulonglong_sloc0_1_0 + 3)
      00004C 0A               [ 2]  151 	asl	a
      00004D A9 00            [ 2]  152 	lda	#0x00
      00004F 85*03            [ 3]  153 	sta	*(___fs2ulonglong_sloc0_1_0 + 3)
      000051 85*02            [ 3]  154 	sta	*(___fs2ulonglong_sloc0_1_0 + 2)
      000053 85*01            [ 3]  155 	sta	*(___fs2ulonglong_sloc0_1_0 + 1)
      000055 2A               [ 2]  156 	rol	a
      000056 85*00            [ 3]  157 	sta	*___fs2ulonglong_sloc0_1_0
                                    158 ;	Raw cost for generated ic 15 : (14, 21.000000) count=0.750000
                                    159 ;	genAnd
      000058 29 01            [ 2]  160 	and	#0x01
                                    161 ;	genIfxJump : z
      00005A F0 10            [ 4]  162 	beq	00102$
                                    163 ;	Raw cost for generated ic 16 : (9, 10.200000) count=0.750000
                                    164 ;	skipping generated iCode
                                    165 ;	Raw cost for generated ic 17 : (0, 0.000000) count=0.750000
                                    166 ;	genLabel
      00005C                        167 00101$:
                                    168 ;	Raw cost for generated ic 19 : (0, 0.000000) count=0.812500
                                    169 ;	../_fs2ulonglong.c: 69: return (0);
                                    170 ;	genRet
      00005C A9 00            [ 2]  171 	lda	#0x00
      00005E AA               [ 2]  172 	tax
      00005F 85*00            [ 3]  173 	sta	*___SDCC_m6502_ret2
      000061 85*00            [ 3]  174 	sta	*___SDCC_m6502_ret3
      000063 85*00            [ 3]  175 	sta	*___SDCC_m6502_ret4
      000065 85*00            [ 3]  176 	sta	*___SDCC_m6502_ret5
      000067 85*00            [ 3]  177 	sta	*___SDCC_m6502_ret6
      000069 85*00            [ 3]  178 	sta	*___SDCC_m6502_ret7
      00006B 60               [ 6]  179 	rts
                                    180 ;	Raw cost for generated ic 20 : (18, 25.000000) count=0.812500
                                    181 ;	genLabel
      00006C                        182 00102$:
                                    183 ;	Raw cost for generated ic 21 : (0, 0.000000) count=1.000000
                                    184 ;	../_fs2ulonglong.c: 71: exp = EXP (fl1.l) - EXCESS - 24;
                                    185 ;	skipping iCode since result will be rematerialized
                                    186 ;	Raw cost for generated ic 22 : (0, 0.000000) count=1.000000
                                    187 ;	genPointerGet
                                    188 ;	genDataPointerGet
      00006C ADr07r00         [ 4]  189 	lda	(___fs2ulonglong_fl1_10000_21 + 3)
      00006F 85*03            [ 3]  190 	sta	*(___fs2ulonglong_sloc0_1_0 + 3)
      000071 ADr06r00         [ 4]  191 	lda	(___fs2ulonglong_fl1_10000_21 + 2)
      000074 85*02            [ 3]  192 	sta	*(___fs2ulonglong_sloc0_1_0 + 2)
      000076 ADr05r00         [ 4]  193 	lda	(___fs2ulonglong_fl1_10000_21 + 1)
      000079 85*01            [ 3]  194 	sta	*(___fs2ulonglong_sloc0_1_0 + 1)
      00007B ADr04r00         [ 4]  195 	lda	___fs2ulonglong_fl1_10000_21
      00007E 85*00            [ 3]  196 	sta	*___fs2ulonglong_sloc0_1_0
                                    197 ;	Raw cost for generated ic 24 : (20, 28.000000) count=1.000000
                                    198 ;	genCast
                                    199 ;	genCopy
                                    200 ;	Raw cost for generated ic 25 : (0, 0.000000) count=1.000000
                                    201 ;	genRightShift
                                    202 ;	genRightShiftLiteral
                                    203 ;	  genrsh32 - shift=23
      000080 A5*02            [ 3]  204 	lda	*(___fs2ulonglong_sloc0_1_0 + 2)
      000082 2A               [ 2]  205 	rol	a
      000083 A5*03            [ 3]  206 	lda	*(___fs2ulonglong_sloc0_1_0 + 3)
      000085 2A               [ 2]  207 	rol	a
      000086 85*00            [ 3]  208 	sta	*___fs2ulonglong_sloc0_1_0
      000088 A9 00            [ 2]  209 	lda	#0x00
      00008A 85*02            [ 3]  210 	sta	*(___fs2ulonglong_sloc0_1_0 + 2)
      00008C 85*03            [ 3]  211 	sta	*(___fs2ulonglong_sloc0_1_0 + 3)
      00008E 2A               [ 2]  212 	rol	a
      00008F 85*01            [ 3]  213 	sta	*(___fs2ulonglong_sloc0_1_0 + 1)
                                    214 ;	Raw cost for generated ic 26 : (17, 26.000000) count=1.000000
                                    215 ;	genCast
                                    216 ;	genCopy
                                    217 ;	Raw cost for generated ic 61 : (3, 5.000000) count=1.000000
                                    218 ;	genAnd
      000091 A5*00            [ 3]  219 	lda *___fs2ulonglong_sloc0_1_0
      000093 A2 00            [ 2]  220 	ldx #0x00
                                    221 ;	Raw cost for generated ic 27 : (2, 2.000000) count=1.000000
                                    222 ;	genMinus
                                    223 ;	  genMinusDec - size=2  icount=150
      000095 38               [ 2]  224 	sec
      000096 E9 96            [ 2]  225 	sbc	#0x96
      000098 8Dr08r00         [ 4]  226 	sta	___fs2ulonglong_exp_10000_21
      00009B 8A               [ 2]  227 	txa
      00009C E9 00            [ 2]  228 	sbc	#0x00
      00009E 8Dr09r00         [ 4]  229 	sta	(___fs2ulonglong_exp_10000_21 + 1)
                                    230 ;	Raw cost for generated ic 28 : (12, 16.000000) count=1.000000
                                    231 ;	../_fs2ulonglong.c: 72: l = MANT (fl1.l);
                                    232 ;	skipping iCode since result will be rematerialized
                                    233 ;	Raw cost for generated ic 31 : (0, 0.000000) count=1.000000
                                    234 ;	genPointerGet
                                    235 ;	genDataPointerGet
      0000A1 ADr07r00         [ 4]  236 	lda	(___fs2ulonglong_fl1_10000_21 + 3)
      0000A4 85*03            [ 3]  237 	sta	*(___fs2ulonglong_sloc0_1_0 + 3)
      0000A6 ADr06r00         [ 4]  238 	lda	(___fs2ulonglong_fl1_10000_21 + 2)
      0000A9 85*02            [ 3]  239 	sta	*(___fs2ulonglong_sloc0_1_0 + 2)
      0000AB ADr05r00         [ 4]  240 	lda	(___fs2ulonglong_fl1_10000_21 + 1)
      0000AE 85*01            [ 3]  241 	sta	*(___fs2ulonglong_sloc0_1_0 + 1)
      0000B0 ADr04r00         [ 4]  242 	lda	___fs2ulonglong_fl1_10000_21
      0000B3 85*00            [ 3]  243 	sta	*___fs2ulonglong_sloc0_1_0
                                    244 ;	Raw cost for generated ic 33 : (20, 28.000000) count=1.000000
                                    245 ;	genAnd
      0000B5 86*03            [ 3]  246 	stx	*(___fs2ulonglong_sloc0_1_0 + 3)
                                    247 ;	Raw cost for generated ic 34 : (2, 3.000000) count=1.000000
                                    248 ;	genOr
      0000B7 A5*02            [ 3]  249 	lda	*(___fs2ulonglong_sloc0_1_0 + 2)
      0000B9 09 80            [ 2]  250 	ora	#0x80
      0000BB 85*02            [ 3]  251 	sta	*(___fs2ulonglong_sloc0_1_0 + 2)
                                    252 ;	Raw cost for generated ic 35 : (6, 8.000000) count=1.000000
                                    253 ;	genCast
      0000BD A5*00            [ 3]  254 	lda	*___fs2ulonglong_sloc0_1_0
      0000BF 85*04            [ 3]  255 	sta	*___fs2ulonglong_sloc1_1_0
      0000C1 A5*01            [ 3]  256 	lda	*(___fs2ulonglong_sloc0_1_0 + 1)
      0000C3 85*05            [ 3]  257 	sta	*(___fs2ulonglong_sloc1_1_0 + 1)
      0000C5 A5*02            [ 3]  258 	lda	*(___fs2ulonglong_sloc0_1_0 + 2)
      0000C7 85*06            [ 3]  259 	sta	*(___fs2ulonglong_sloc1_1_0 + 2)
      0000C9 A5*03            [ 3]  260 	lda	*(___fs2ulonglong_sloc0_1_0 + 3)
      0000CB 85*07            [ 3]  261 	sta	*(___fs2ulonglong_sloc1_1_0 + 3)
      0000CD 0A               [ 2]  262 	asl	a
      0000CE 8A               [ 2]  263 	txa
      0000CF 69 FF            [ 2]  264 	adc	#0xff
      0000D1 49 FF            [ 2]  265 	eor	#0xff
      0000D3 85*08            [ 3]  266 	sta	*(___fs2ulonglong_sloc1_1_0 + 4)
      0000D5 85*09            [ 3]  267 	sta	*(___fs2ulonglong_sloc1_1_0 + 5)
      0000D7 85*0A            [ 3]  268 	sta	*(___fs2ulonglong_sloc1_1_0 + 6)
      0000D9 85*0B            [ 3]  269 	sta	*(___fs2ulonglong_sloc1_1_0 + 7)
                                    270 ;	Raw cost for generated ic 36 : (30, 44.000000) count=1.000000
                                    271 ;	../_fs2ulonglong.c: 74: if (exp > 8)
                                    272 ;	genCmp
      0000DB A9 08            [ 2]  273 	lda	#0x08
      0000DD 38               [ 2]  274 	sec
      0000DE EDr08r00         [ 4]  275 	sbc	___fs2ulonglong_exp_10000_21
      0000E1 8A               [ 2]  276 	txa
      0000E2 EDr09r00         [ 4]  277 	sbc	(___fs2ulonglong_exp_10000_21 + 1)
      0000E5 50 04            [ 4]  278 	bvc	00134$
      0000E7 10 04            [ 4]  279 	bpl	00133$
      0000E9 30 14            [ 4]  280 	bmi	00105$
      0000EB                        281 00134$:
      0000EB 10 12            [ 4]  282 	bpl	00105$
      0000ED                        283 00133$:
                                    284 ;	Raw cost for generated ic 38 : (21, 27.400002) count=1.000000
                                    285 ;	skipping generated iCode
                                    286 ;	Raw cost for generated ic 39 : (0, 0.000000) count=1.000000
                                    287 ;	../_fs2ulonglong.c: 75: return 0xfffffffful;
                                    288 ;	genRet
      0000ED A9 FF            [ 2]  289 	lda	#0xff
      0000EF AA               [ 2]  290 	tax
      0000F0 85*00            [ 3]  291 	sta	*___SDCC_m6502_ret2
      0000F2 85*00            [ 3]  292 	sta	*___SDCC_m6502_ret3
      0000F4 A0 00            [ 2]  293 	ldy	#0x00
      0000F6 84*00            [ 3]  294 	sty	*___SDCC_m6502_ret4
      0000F8 84*00            [ 3]  295 	sty	*___SDCC_m6502_ret5
      0000FA 84*00            [ 3]  296 	sty	*___SDCC_m6502_ret6
      0000FC 84*00            [ 3]  297 	sty	*___SDCC_m6502_ret7
      0000FE 60               [ 6]  298 	rts
                                    299 ;	Raw cost for generated ic 42 : (20, 27.000000) count=0.750000
                                    300 ;	genLabel
      0000FF                        301 00105$:
                                    302 ;	Raw cost for generated ic 43 : (0, 0.000000) count=1.000000
                                    303 ;	../_fs2ulonglong.c: 77: if (exp < 0)
                                    304 ;	genCmp
      0000FF 2Cr09r00         [ 4]  305 	bit	(___fs2ulonglong_exp_10000_21 + 1)
      000102 10 5D            [ 4]  306 	bpl	00107$
                                    307 ;	Raw cost for generated ic 44 : (8, 9.600000) count=1.000000
                                    308 ;	skipping generated iCode
                                    309 ;	Raw cost for generated ic 45 : (0, 0.000000) count=1.000000
                                    310 ;	../_fs2ulonglong.c: 78: l >>= -exp;
                                    311 ;	genCast
                                    312 ;	genCopy
      000104 ADr08r00         [ 4]  313 	lda	___fs2ulonglong_exp_10000_21
                                    314 ;	Raw cost for generated ic 60 : (3, 4.000000) count=0.750000
                                    315 ;	genUminus
      000107 49 FF            [ 2]  316 	eor	#0xff
      000109 18               [ 2]  317 	clc
      00010A 69 01            [ 2]  318 	adc	#0x01
                                    319 ;	Raw cost for generated ic 48 : (5, 6.000000) count=0.750000
                                    320 ;	genCast
                                    321 ;	genCopy
      00010C 8Dr00r00         [ 4]  322 	sta	__srulonglong_PARM_2
                                    323 ;	Raw cost for generated ic 62 : (3, 4.000000) count=0.750000
                                    324 ;	genAssign
                                    325 ;	genCopy
      00010F A5*0B            [ 3]  326 	lda	*(___fs2ulonglong_sloc1_1_0 + 7)
      000111 8Dr07r00         [ 4]  327 	sta	(__srulonglong_PARM_1 + 7)
      000114 A5*0A            [ 3]  328 	lda	*(___fs2ulonglong_sloc1_1_0 + 6)
      000116 8Dr06r00         [ 4]  329 	sta	(__srulonglong_PARM_1 + 6)
      000119 A5*09            [ 3]  330 	lda	*(___fs2ulonglong_sloc1_1_0 + 5)
      00011B 8Dr05r00         [ 4]  331 	sta	(__srulonglong_PARM_1 + 5)
      00011E A5*08            [ 3]  332 	lda	*(___fs2ulonglong_sloc1_1_0 + 4)
      000120 8Dr04r00         [ 4]  333 	sta	(__srulonglong_PARM_1 + 4)
      000123 A5*07            [ 3]  334 	lda	*(___fs2ulonglong_sloc1_1_0 + 3)
      000125 8Dr03r00         [ 4]  335 	sta	(__srulonglong_PARM_1 + 3)
      000128 A5*06            [ 3]  336 	lda	*(___fs2ulonglong_sloc1_1_0 + 2)
      00012A 8Dr02r00         [ 4]  337 	sta	(__srulonglong_PARM_1 + 2)
      00012D A5*05            [ 3]  338 	lda	*(___fs2ulonglong_sloc1_1_0 + 1)
      00012F 8Dr01r00         [ 4]  339 	sta	(__srulonglong_PARM_1 + 1)
      000132 A5*04            [ 3]  340 	lda	*___fs2ulonglong_sloc1_1_0
      000134 8Dr00r00         [ 4]  341 	sta	__srulonglong_PARM_1
                                    342 ;	Raw cost for generated ic 63 : (40, 56.000000) count=0.750000
                                    343 ;	genCall
      000137 20r00r00         [ 6]  344 	jsr	__srulonglong
                                    345 ;	assignResultValue
      00013A 8Dr0Ar00         [ 4]  346 	sta	___fs2ulonglong_l_10000_21
      00013D 8Er0Br00         [ 4]  347 	stx	(___fs2ulonglong_l_10000_21 + 1)
      000140 A5*00            [ 3]  348 	lda	*___SDCC_m6502_ret2
      000142 8Dr0Cr00         [ 4]  349 	sta	(___fs2ulonglong_l_10000_21 + 2)
      000145 A5*00            [ 3]  350 	lda	*___SDCC_m6502_ret3
      000147 8Dr0Dr00         [ 4]  351 	sta	(___fs2ulonglong_l_10000_21 + 3)
      00014A A5*00            [ 3]  352 	lda	*___SDCC_m6502_ret4
      00014C 8Dr0Er00         [ 4]  353 	sta	(___fs2ulonglong_l_10000_21 + 4)
      00014F A5*00            [ 3]  354 	lda	*___SDCC_m6502_ret5
      000151 8Dr0Fr00         [ 4]  355 	sta	(___fs2ulonglong_l_10000_21 + 5)
      000154 A5*00            [ 3]  356 	lda	*___SDCC_m6502_ret6
      000156 8Dr10r00         [ 4]  357 	sta	(___fs2ulonglong_l_10000_21 + 6)
      000159 A5*00            [ 3]  358 	lda	*___SDCC_m6502_ret7
      00015B 8Dr11r00         [ 4]  359 	sta	(___fs2ulonglong_l_10000_21 + 7)
                                    360 ;	Raw cost for generated ic 65 : (39, 56.000000) count=0.750000
                                    361 ;	genGoto
      00015E 4CrB6r01         [ 3]  362 	jmp	00108$
                                    363 ;	Raw cost for generated ic 51 : (3, 3.000000) count=0.750000
                                    364 ;	genLabel
      000161                        365 00107$:
                                    366 ;	Raw cost for generated ic 52 : (0, 0.000000) count=0.250000
                                    367 ;	../_fs2ulonglong.c: 80: l <<= exp;
                                    368 ;	genCast
                                    369 ;	genCopy
      000161 ADr08r00         [ 4]  370 	lda	___fs2ulonglong_exp_10000_21
      000164 8Dr00r00         [ 4]  371 	sta	__slulonglong_PARM_2
                                    372 ;	Raw cost for generated ic 66 : (6, 8.000000) count=0.250000
                                    373 ;	genAssign
                                    374 ;	genCopy
      000167 A5*0B            [ 3]  375 	lda	*(___fs2ulonglong_sloc1_1_0 + 7)
      000169 8Dr07r00         [ 4]  376 	sta	(__slulonglong_PARM_1 + 7)
      00016C A5*0A            [ 3]  377 	lda	*(___fs2ulonglong_sloc1_1_0 + 6)
      00016E 8Dr06r00         [ 4]  378 	sta	(__slulonglong_PARM_1 + 6)
      000171 A5*09            [ 3]  379 	lda	*(___fs2ulonglong_sloc1_1_0 + 5)
      000173 8Dr05r00         [ 4]  380 	sta	(__slulonglong_PARM_1 + 5)
      000176 A5*08            [ 3]  381 	lda	*(___fs2ulonglong_sloc1_1_0 + 4)
      000178 8Dr04r00         [ 4]  382 	sta	(__slulonglong_PARM_1 + 4)
      00017B A5*07            [ 3]  383 	lda	*(___fs2ulonglong_sloc1_1_0 + 3)
      00017D 8Dr03r00         [ 4]  384 	sta	(__slulonglong_PARM_1 + 3)
      000180 A5*06            [ 3]  385 	lda	*(___fs2ulonglong_sloc1_1_0 + 2)
      000182 8Dr02r00         [ 4]  386 	sta	(__slulonglong_PARM_1 + 2)
      000185 A5*05            [ 3]  387 	lda	*(___fs2ulonglong_sloc1_1_0 + 1)
      000187 8Dr01r00         [ 4]  388 	sta	(__slulonglong_PARM_1 + 1)
      00018A A5*04            [ 3]  389 	lda	*___fs2ulonglong_sloc1_1_0
      00018C 8Dr00r00         [ 4]  390 	sta	__slulonglong_PARM_1
                                    391 ;	Raw cost for generated ic 67 : (40, 56.000000) count=0.250000
                                    392 ;	genCall
      00018F 20r00r00         [ 6]  393 	jsr	__slulonglong
                                    394 ;	assignResultValue
      000192 8Dr0Ar00         [ 4]  395 	sta	___fs2ulonglong_l_10000_21
      000195 8Er0Br00         [ 4]  396 	stx	(___fs2ulonglong_l_10000_21 + 1)
      000198 A5*00            [ 3]  397 	lda	*___SDCC_m6502_ret2
      00019A 8Dr0Cr00         [ 4]  398 	sta	(___fs2ulonglong_l_10000_21 + 2)
      00019D A5*00            [ 3]  399 	lda	*___SDCC_m6502_ret3
      00019F 8Dr0Dr00         [ 4]  400 	sta	(___fs2ulonglong_l_10000_21 + 3)
      0001A2 A5*00            [ 3]  401 	lda	*___SDCC_m6502_ret4
      0001A4 8Dr0Er00         [ 4]  402 	sta	(___fs2ulonglong_l_10000_21 + 4)
      0001A7 A5*00            [ 3]  403 	lda	*___SDCC_m6502_ret5
      0001A9 8Dr0Fr00         [ 4]  404 	sta	(___fs2ulonglong_l_10000_21 + 5)
      0001AC A5*00            [ 3]  405 	lda	*___SDCC_m6502_ret6
      0001AE 8Dr10r00         [ 4]  406 	sta	(___fs2ulonglong_l_10000_21 + 6)
      0001B1 A5*00            [ 3]  407 	lda	*___SDCC_m6502_ret7
      0001B3 8Dr11r00         [ 4]  408 	sta	(___fs2ulonglong_l_10000_21 + 7)
                                    409 ;	Raw cost for generated ic 69 : (39, 56.000000) count=0.250000
                                    410 ;	genLabel
      0001B6                        411 00108$:
                                    412 ;	Raw cost for generated ic 55 : (0, 0.000000) count=1.000000
                                    413 ;	../_fs2ulonglong.c: 82: return l;
                                    414 ;	genRet
      0001B6 ADr11r00         [ 4]  415 	lda	(___fs2ulonglong_l_10000_21 + 7)
      0001B9 85*00            [ 3]  416 	sta	*___SDCC_m6502_ret7
      0001BB ADr10r00         [ 4]  417 	lda	(___fs2ulonglong_l_10000_21 + 6)
      0001BE 85*00            [ 3]  418 	sta	*___SDCC_m6502_ret6
      0001C0 ADr0Fr00         [ 4]  419 	lda	(___fs2ulonglong_l_10000_21 + 5)
      0001C3 85*00            [ 3]  420 	sta	*___SDCC_m6502_ret5
      0001C5 ADr0Er00         [ 4]  421 	lda	(___fs2ulonglong_l_10000_21 + 4)
      0001C8 85*00            [ 3]  422 	sta	*___SDCC_m6502_ret4
      0001CA ADr0Dr00         [ 4]  423 	lda	(___fs2ulonglong_l_10000_21 + 3)
      0001CD 85*00            [ 3]  424 	sta	*___SDCC_m6502_ret3
      0001CF ADr0Cr00         [ 4]  425 	lda	(___fs2ulonglong_l_10000_21 + 2)
      0001D2 85*00            [ 3]  426 	sta	*___SDCC_m6502_ret2
      0001D4 AEr0Br00         [ 4]  427 	ldx	(___fs2ulonglong_l_10000_21 + 1)
      0001D7 ADr0Ar00         [ 4]  428 	lda	___fs2ulonglong_l_10000_21
                                    429 ;	Raw cost for generated ic 56 : (36, 50.000000) count=1.000000
                                    430 ;	genLabel
                                    431 ;	Raw cost for generated ic 57 : (0, 0.000000) count=1.000000
                                    432 ;	../_fs2ulonglong.c: 83: }
                                    433 ;	genEndFunction
      0001DA 60               [ 6]  434 	rts
                                    435 ;	Raw cost for generated ic 58 : (1, 6.000000) count=1.000000
                                    436 	.area CODE
                                    437 	.area RODATA
                                    438 	.area XINIT
                                    439 	.area CABS    (ABS)
