                                      1 ;--------------------------------------------------------
                                      2 ; File Created by SDCC : free open source ISO C Compiler
                                      3 ; Version 4.5.10 #15691 (Linux)
                                      4 ;--------------------------------------------------------
                                      5 	.module _memmove
                                      6 	
                                      7 	.optsdcc -mmos6502
                                      8 
                                      9 ;--------------------------------------------------------
                                     10 ;  Ordering of segments for the linker.
                                     11 ;--------------------------------------------------------
                                     12 	.area ZP      (PAG)
                                     13 	.area OSEG    (PAG, OVR)
                                     14 	.area _CODE
                                     15 	.area GSINIT
                                     16 	.area GSFINAL
                                     17 	.area CODE
                                     18 	.area RODATA
                                     19 	.area XINIT
                                     20 	.area _DATA
                                     21 	.area DATA
                                     22 	.area BSS
                                     23 ;--------------------------------------------------------
                                     24 ; Public variables in this module
                                     25 ;--------------------------------------------------------
                                     26 	.globl _memmove_PARM_3
                                     27 	.globl _memmove_PARM_2
                                     28 	.globl _memmove
                                     29 ;--------------------------------------------------------
                                     30 ; ZP ram data
                                     31 ;--------------------------------------------------------
                                     32 	.area ZP      (PAG)
                                     33 ;--------------------------------------------------------
                                     34 ; overlayable items in ram
                                     35 ;--------------------------------------------------------
                                     36 	.area	OSEG    (PAG, OVR)
      000000                         37 _memmove_sloc0_1_0:
      000000                         38 	.ds 2
      000002                         39 _memmove_sloc1_1_0:
      000002                         40 	.ds 2
      000004                         41 _memmove_sloc2_1_0:
      000004                         42 	.ds 2
      000006                         43 _memmove_sloc3_1_0:
      000006                         44 	.ds 2
                                     45 ;--------------------------------------------------------
                                     46 ; uninitialized external ram data
                                     47 ;--------------------------------------------------------
                                     48 	.area BSS
      000000                         49 _memmove_PARM_2:
      000000                         50 	.ds 2
      000002                         51 _memmove_PARM_3:
      000002                         52 	.ds 2
      000004                         53 _memmove_dst_10000_27:
      000004                         54 	.ds 2
      000006                         55 _memmove_c_10000_28:
      000006                         56 	.ds 2
                                     57 ;--------------------------------------------------------
                                     58 ; absolute external ram data
                                     59 ;--------------------------------------------------------
                                     60 	.area DABS    (ABS)
                                     61 ;--------------------------------------------------------
                                     62 ; initialized external ram data
                                     63 ;--------------------------------------------------------
                                     64 	.area DATA
                                     65 ;--------------------------------------------------------
                                     66 ; global & static initialisations
                                     67 ;--------------------------------------------------------
                                     68 	.area _CODE
                                     69 	.area GSINIT
                                     70 	.area GSFINAL
                                     71 	.area GSINIT
                                     72 ;--------------------------------------------------------
                                     73 ; Home
                                     74 ;--------------------------------------------------------
                                     75 	.area _CODE
                                     76 	.area _CODE
                                     77 ;--------------------------------------------------------
                                     78 ; code
                                     79 ;--------------------------------------------------------
                                     80 	.area CODE
                                     81 ;------------------------------------------------------------
                                     82 ;Allocation info for local variables in function 'memmove'
                                     83 ;------------------------------------------------------------
                                     84 ;src           Allocated with name '_memmove_PARM_2'
                                     85 ;size          Allocated with name '_memmove_PARM_3'
                                     86 ;dst           Allocated with name '_memmove_dst_10000_27'
                                     87 ;c             Allocated with name '_memmove_c_10000_28'
                                     88 ;d             Allocated to registers 
                                     89 ;s             Allocated to registers a x 
                                     90 ;sloc0         Allocated with name '_memmove_sloc0_1_0'
                                     91 ;sloc1         Allocated with name '_memmove_sloc1_1_0'
                                     92 ;sloc2         Allocated with name '_memmove_sloc2_1_0'
                                     93 ;sloc3         Allocated with name '_memmove_sloc3_1_0'
                                     94 ;------------------------------------------------------------
                                     95 ;	../_memmove.c: 35: void *memmove (void *dst, const void *src, size_t size)
                                     96 ;	genLabel
                                     97 ;	Raw cost for generated ic 0 : (0, 0.000000) count=1.000000
                                     98 ;	-----------------------------------------
                                     99 ;	 function memmove
                                    100 ;	-----------------------------------------
                                    101 ;	Register assignment is optimal.
                                    102 ;	Stack space usage: 0 bytes.
      000000                        103 _memmove:
                                    104 ;	Raw cost for generated ic 1 : (0, 0.000000) count=1.000000
                                    105 ;	genReceive
      000000 8Dr04r00         [ 4]  106 	sta	_memmove_dst_10000_27
      000003 8Er05r00         [ 4]  107 	stx	(_memmove_dst_10000_27 + 1)
                                    108 ;	Raw cost for generated ic 2 : (6, 8.000000) count=1.000000
                                    109 ;	../_memmove.c: 37: size_t c = size;
                                    110 ;	genAssign
                                    111 ;	genCopy
      000006 ADr03r00         [ 4]  112 	lda	(_memmove_PARM_3 + 1)
      000009 8Dr07r00         [ 4]  113 	sta	(_memmove_c_10000_28 + 1)
      00000C ADr02r00         [ 4]  114 	lda	_memmove_PARM_3
      00000F 8Dr06r00         [ 4]  115 	sta	_memmove_c_10000_28
                                    116 ;	Raw cost for generated ic 3 : (12, 16.000000) count=1.000000
                                    117 ;	../_memmove.c: 38: if (c == 0 || dst == src)
                                    118 ;	genIfx
      000012 ADr07r00         [ 4]  119 	lda	(_memmove_c_10000_28 + 1)
      000015 0Dr06r00         [ 4]  120 	ora	_memmove_c_10000_28
                                    121 ;	genIfxJump : z
      000018 F0 0D            [ 4]  122 	beq	00101$
                                    123 ;	Raw cost for generated ic 4 : (11, 13.600000) count=1.000000
                                    124 ;	genCmpEQorNE
      00001A ADr04r00         [ 4]  125 	lda	_memmove_dst_10000_27
      00001D CDr00r00         [ 4]  126 	cmp	_memmove_PARM_2
      000020 D0 0C            [ 4]  127 	bne	00102$
      000022 ECr01r00         [ 4]  128 	cpx	(_memmove_PARM_2 + 1)
      000025 D0 07            [ 4]  129 	bne	00102$
                                    130 ;	Raw cost for generated ic 7 : (19, 23.200001) count=0.750000
                                    131 ;	skipping generated iCode
                                    132 ;	Raw cost for generated ic 8 : (0, 0.000000) count=0.750000
                                    133 ;	genLabel
      000027                        134 00101$:
                                    135 ;	Raw cost for generated ic 10 : (0, 0.000000) count=0.812500
                                    136 ;	../_memmove.c: 39: return dst;
                                    137 ;	genRet
      000027 AEr05r00         [ 4]  138 	ldx	(_memmove_dst_10000_27 + 1)
      00002A ADr04r00         [ 4]  139 	lda	_memmove_dst_10000_27
      00002D 60               [ 6]  140 	rts
                                    141 ;	Raw cost for generated ic 11 : (9, 11.000000) count=0.812500
                                    142 ;	genLabel
      00002E                        143 00102$:
                                    144 ;	Raw cost for generated ic 12 : (0, 0.000000) count=1.000000
                                    145 ;	../_memmove.c: 41: char *d = dst;
                                    146 ;	genCast
                                    147 ;	genCopy
      00002E ADr05r00         [ 4]  148 	lda	(_memmove_dst_10000_27 + 1)
      000031 85*01            [ 3]  149 	sta	*(_memmove_sloc0_1_0 + 1)
      000033 ADr04r00         [ 4]  150 	lda	_memmove_dst_10000_27
      000036 85*00            [ 3]  151 	sta	*_memmove_sloc0_1_0
                                    152 ;	Raw cost for generated ic 13 : (10, 14.000000) count=1.000000
                                    153 ;	../_memmove.c: 42: const char *s = src;
                                    154 ;	genCast
                                    155 ;	genCopy
      000038 AEr01r00         [ 4]  156 	ldx	(_memmove_PARM_2 + 1)
      00003B ADr00r00         [ 4]  157 	lda	_memmove_PARM_2
                                    158 ;	Raw cost for generated ic 15 : (6, 8.000000) count=1.000000
                                    159 ;	../_memmove.c: 43: if (s < d) {
                                    160 ;	genCmp
      00003E 85*00            [ 3]  161 	sta	*(REGTEMP+0)
      000040 38               [ 2]  162 	sec
      000041 E5*00            [ 3]  163 	sbc	*_memmove_sloc0_1_0
      000043 8A               [ 2]  164 	txa
      000044 E5*01            [ 3]  165 	sbc	*(_memmove_sloc0_1_0 + 1)
      000046 A5*00            [ 3]  166 	lda	*(REGTEMP+0)
      000048 B0 4F            [ 4]  167 	bcs	00119$
                                    168 ;	Raw cost for generated ic 17 : (15, 21.600000) count=1.000000
                                    169 ;	skipping generated iCode
                                    170 ;	Raw cost for generated ic 18 : (0, 0.000000) count=1.000000
                                    171 ;	../_memmove.c: 50: s += c;
                                    172 ;	genPlus
      00004A 18               [ 2]  173 	clc
      00004B 6Dr06r00         [ 4]  174 	adc	_memmove_c_10000_28
      00004E 48               [ 3]  175 	pha
      00004F 8A               [ 2]  176 	txa
      000050 6Dr07r00         [ 4]  177 	adc	(_memmove_c_10000_28 + 1)
      000053 AA               [ 2]  178 	tax
                                    179 ;	Raw cost for generated ic 21 : (11, 21.000000) count=0.750000
                                    180 ;	../_memmove.c: 51: d += c;
                                    181 ;	genPlus
      000054 A5*00            [ 3]  182 	lda	*_memmove_sloc0_1_0
      000056 18               [ 2]  183 	clc
      000057 6Dr06r00         [ 4]  184 	adc	_memmove_c_10000_28
      00005A 85*02            [ 3]  185 	sta	*_memmove_sloc1_1_0
      00005C A5*01            [ 3]  186 	lda	*(_memmove_sloc0_1_0 + 1)
      00005E 6Dr07r00         [ 4]  187 	adc	(_memmove_c_10000_28 + 1)
      000061 85*03            [ 3]  188 	sta	*(_memmove_sloc1_1_0 + 1)
      000063 68               [ 4]  189 	pla
                                    190 ;	Raw cost for generated ic 23 : (17, 29.000000) count=0.750000
                                    191 ;	../_memmove.c: 52: do {
                                    192 ;	genAssign
                                    193 ;	genCopy
      000064 85*04            [ 3]  194 	sta	*_memmove_sloc2_1_0
      000066 86*05            [ 3]  195 	stx	*(_memmove_sloc2_1_0 + 1)
                                    196 ;	Raw cost for generated ic 66 : (4, 6.000000) count=0.750000
                                    197 ;	genAssign
                                    198 ;	genCopy
      000068 ADr07r00         [ 4]  199 	lda	(_memmove_c_10000_28 + 1)
      00006B 85*07            [ 3]  200 	sta	*(_memmove_sloc3_1_0 + 1)
      00006D ADr06r00         [ 4]  201 	lda	_memmove_c_10000_28
      000070 85*06            [ 3]  202 	sta	*_memmove_sloc3_1_0
                                    203 ;	Raw cost for generated ic 68 : (10, 14.000000) count=0.750000
                                    204 ;	genLabel
      000072                        205 00104$:
                                    206 ;	Raw cost for generated ic 25 : (0, 0.000000) count=2.999997
                                    207 ;	../_memmove.c: 53: *--d = *--s;
                                    208 ;	genMinus
                                    209 ;	  genMinusDec - size=2  icount=1
      000072 A5*02            [ 3]  210 	lda	*_memmove_sloc1_1_0
      000074 D0 02            [ 4]  211 	bne	00158$
      000076 C6*03            [ 5]  212 	dec	*(_memmove_sloc1_1_0 + 1)
      000078                        213 00158$:
      000078 C6*02            [ 5]  214 	dec	*_memmove_sloc1_1_0
                                    215 ;	Raw cost for generated ic 26 : (8, 15.600000) count=2.999997
                                    216 ;	genMinus
                                    217 ;	  genMinusDec - size=2  icount=1
      00007A A5*04            [ 3]  218 	lda	*_memmove_sloc2_1_0
      00007C D0 02            [ 4]  219 	bne	00159$
      00007E C6*05            [ 5]  220 	dec	*(_memmove_sloc2_1_0 + 1)
      000080                        221 00159$:
      000080 C6*04            [ 5]  222 	dec	*_memmove_sloc2_1_0
                                    223 ;	Raw cost for generated ic 29 : (8, 15.600000) count=2.999997
                                    224 ;	genPointerGet
      000082 A0 00            [ 2]  225 	ldy	#0x00
      000084 B1*04            [ 6]  226 	lda	[*_memmove_sloc2_1_0],y
                                    227 ;	Raw cost for generated ic 32 : (4, 7.000000) count=2.999997
                                    228 ;	genPointerSet
      000086 91*02            [ 6]  229 	sta	[*_memmove_sloc1_1_0],y
                                    230 ;	Raw cost for generated ic 33 : (2, 6.000000) count=2.999997
                                    231 ;	../_memmove.c: 54: } while (--c);
                                    232 ;	genMinus
                                    233 ;	  genMinusDec - size=2  icount=1
      000088 A5*06            [ 3]  234 	lda	*_memmove_sloc3_1_0
      00008A D0 02            [ 4]  235 	bne	00160$
      00008C C6*07            [ 5]  236 	dec	*(_memmove_sloc3_1_0 + 1)
      00008E                        237 00160$:
      00008E C6*06            [ 5]  238 	dec	*_memmove_sloc3_1_0
                                    239 ;	Raw cost for generated ic 35 : (8, 15.600000) count=2.999997
                                    240 ;	genIfx
      000090 A5*07            [ 3]  241 	lda	*(_memmove_sloc3_1_0 + 1)
      000092 05*06            [ 3]  242 	ora	*_memmove_sloc3_1_0
                                    243 ;	genIfxJump : z
      000094 D0 DC            [ 4]  244 	bne	00104$
                                    245 ;	Raw cost for generated ic 37 : (9, 11.600000) count=2.999997
                                    246 ;	genGoto
      000096 4CrCFr00         [ 3]  247 	jmp	00112$
                                    248 ;	Raw cost for generated ic 40 : (3, 3.000000) count=0.749999
                                    249 ;	../_memmove.c: 59: do {
                                    250 ;	genLabel
      000099                        251 00119$:
                                    252 ;	Raw cost for generated ic 62 : (0, 0.000000) count=0.250000
                                    253 ;	genAssign
                                    254 ;	genCopy
      000099 85*06            [ 3]  255 	sta	*_memmove_sloc3_1_0
      00009B 86*07            [ 3]  256 	stx	*(_memmove_sloc3_1_0 + 1)
                                    257 ;	Raw cost for generated ic 70 : (4, 6.000000) count=0.250000
                                    258 ;	genAssign
                                    259 ;	genCopy
      00009D A5*01            [ 3]  260 	lda	*(_memmove_sloc0_1_0 + 1)
      00009F 85*05            [ 3]  261 	sta	*(_memmove_sloc2_1_0 + 1)
      0000A1 A5*00            [ 3]  262 	lda	*_memmove_sloc0_1_0
      0000A3 85*04            [ 3]  263 	sta	*_memmove_sloc2_1_0
                                    264 ;	Raw cost for generated ic 73 : (8, 12.000000) count=0.250000
                                    265 ;	genAssign
                                    266 ;	genCopy
      0000A5 ADr07r00         [ 4]  267 	lda	(_memmove_c_10000_28 + 1)
      0000A8 85*03            [ 3]  268 	sta	*(_memmove_sloc1_1_0 + 1)
      0000AA ADr06r00         [ 4]  269 	lda	_memmove_c_10000_28
      0000AD 85*02            [ 3]  270 	sta	*_memmove_sloc1_1_0
                                    271 ;	Raw cost for generated ic 75 : (10, 14.000000) count=0.250000
                                    272 ;	genLabel
      0000AF                        273 00107$:
                                    274 ;	Raw cost for generated ic 42 : (0, 0.000000) count=0.999968
                                    275 ;	../_memmove.c: 60: *d++ = *s++;
                                    276 ;	genPointerGet
      0000AF A0 00            [ 2]  277 	ldy	#0x00
      0000B1 B1*06            [ 6]  278 	lda	[*_memmove_sloc3_1_0],y
                                    279 ;	Raw cost for generated ic 49 : (4, 7.000000) count=0.999968
                                    280 ;	genPlus
                                    281 ;	  genPlusInc
      0000B3 E6*06            [ 5]  282 	inc	*_memmove_sloc3_1_0
      0000B5 D0 02            [ 4]  283 	bne	00163$
      0000B7 E6*07            [ 5]  284 	inc	*(_memmove_sloc3_1_0 + 1)
      0000B9                        285 00163$:
                                    286 ;	Raw cost for generated ic 47 : (6, 12.600000) count=0.999968
                                    287 ;	genPointerSet
      0000B9 91*04            [ 6]  288 	sta	[*_memmove_sloc2_1_0],y
                                    289 ;	Raw cost for generated ic 50 : (2, 6.000000) count=0.999968
                                    290 ;	genPlus
                                    291 ;	  genPlusInc
      0000BB E6*04            [ 5]  292 	inc	*_memmove_sloc2_1_0
      0000BD D0 02            [ 4]  293 	bne	00164$
      0000BF E6*05            [ 5]  294 	inc	*(_memmove_sloc2_1_0 + 1)
      0000C1                        295 00164$:
                                    296 ;	Raw cost for generated ic 44 : (6, 12.600000) count=0.999968
                                    297 ;	../_memmove.c: 61: } while (--c);
                                    298 ;	genMinus
                                    299 ;	  genMinusDec - size=2  icount=1
      0000C1 A5*02            [ 3]  300 	lda	*_memmove_sloc1_1_0
      0000C3 D0 02            [ 4]  301 	bne	00165$
      0000C5 C6*03            [ 5]  302 	dec	*(_memmove_sloc1_1_0 + 1)
      0000C7                        303 00165$:
      0000C7 C6*02            [ 5]  304 	dec	*_memmove_sloc1_1_0
                                    305 ;	Raw cost for generated ic 52 : (8, 15.600000) count=0.999968
                                    306 ;	genIfx
      0000C9 A5*03            [ 3]  307 	lda	*(_memmove_sloc1_1_0 + 1)
      0000CB 05*02            [ 3]  308 	ora	*_memmove_sloc1_1_0
                                    309 ;	genIfxJump : z
      0000CD D0 E0            [ 4]  310 	bne	00107$
                                    311 ;	Raw cost for generated ic 54 : (9, 11.600000) count=0.999968
                                    312 ;	genLabel
      0000CF                        313 00112$:
                                    314 ;	Raw cost for generated ic 57 : (0, 0.000000) count=0.999991
                                    315 ;	../_memmove.c: 65: return dst;
                                    316 ;	genRet
      0000CF AEr05r00         [ 4]  317 	ldx	(_memmove_dst_10000_27 + 1)
      0000D2 ADr04r00         [ 4]  318 	lda	_memmove_dst_10000_27
                                    319 ;	Raw cost for generated ic 58 : (6, 8.000000) count=0.999991
                                    320 ;	genLabel
                                    321 ;	Raw cost for generated ic 59 : (0, 0.000000) count=0.999991
                                    322 ;	../_memmove.c: 66: }
                                    323 ;	genEndFunction
      0000D5 60               [ 6]  324 	rts
                                    325 ;	Raw cost for generated ic 60 : (1, 6.000000) count=0.999991
                                    326 	.area CODE
                                    327 	.area RODATA
                                    328 	.area XINIT
                                    329 	.area CABS    (ABS)
