                                      1 ;--------------------------------------------------------
                                      2 ; File Created by SDCC : free open source ISO C Compiler
                                      3 ; Version 4.5.10 #15691 (Linux)
                                      4 ;--------------------------------------------------------
                                      5 	.module _mullonglong
                                      6 	
                                      7 	.optsdcc -mmos6502
                                      8 
                                      9 ;--------------------------------------------------------
                                     10 ;  Ordering of segments for the linker.
                                     11 ;--------------------------------------------------------
                                     12 	.area ZP      (PAG)
                                     13 	.area OSEG    (PAG, OVR)
                                     14 	.area _CODE
                                     15 	.area GSINIT
                                     16 	.area GSFINAL
                                     17 	.area CODE
                                     18 	.area RODATA
                                     19 	.area XINIT
                                     20 	.area _DATA
                                     21 	.area DATA
                                     22 	.area BSS
                                     23 ;--------------------------------------------------------
                                     24 ; Public variables in this module
                                     25 ;--------------------------------------------------------
                                     26 	.globl __mullonglong_PARM_2
                                     27 	.globl __mullonglong_PARM_1
                                     28 	.globl __mullonglong
                                     29 ;--------------------------------------------------------
                                     30 ; ZP ram data
                                     31 ;--------------------------------------------------------
                                     32 	.area ZP      (PAG)
      000000                         33 __mullonglong_sloc0_1_0:
      000000                         34 	.ds 1
      000001                         35 __mullonglong_sloc1_1_0:
      000001                         36 	.ds 8
      000009                         37 __mullonglong_sloc2_1_0:
      000009                         38 	.ds 2
      00000B                         39 __mullonglong_sloc3_1_0:
      00000B                         40 	.ds 8
                                     41 ;--------------------------------------------------------
                                     42 ; overlayable items in ram
                                     43 ;--------------------------------------------------------
                                     44 ;--------------------------------------------------------
                                     45 ; uninitialized external ram data
                                     46 ;--------------------------------------------------------
                                     47 	.area BSS
      000000                         48 __mullonglong_PARM_1:
      000000                         49 	.ds 8
      000008                         50 __mullonglong_PARM_2:
      000008                         51 	.ds 8
      000010                         52 __mullonglong_ret_10000_2:
      000010                         53 	.ds 8
      000018                         54 __mullonglong_l_30000_4:
      000018                         55 	.ds 1
                                     56 ;--------------------------------------------------------
                                     57 ; absolute external ram data
                                     58 ;--------------------------------------------------------
                                     59 	.area DABS    (ABS)
                                     60 ;--------------------------------------------------------
                                     61 ; initialized external ram data
                                     62 ;--------------------------------------------------------
                                     63 	.area DATA
                                     64 ;--------------------------------------------------------
                                     65 ; global & static initialisations
                                     66 ;--------------------------------------------------------
                                     67 	.area _CODE
                                     68 	.area GSINIT
                                     69 	.area GSFINAL
                                     70 	.area GSINIT
                                     71 ;--------------------------------------------------------
                                     72 ; Home
                                     73 ;--------------------------------------------------------
                                     74 	.area _CODE
                                     75 	.area _CODE
                                     76 ;--------------------------------------------------------
                                     77 ; code
                                     78 ;--------------------------------------------------------
                                     79 	.area CODE
                                     80 ;------------------------------------------------------------
                                     81 ;Allocation info for local variables in function '_mullonglong'
                                     82 ;------------------------------------------------------------
                                     83 ;sloc0         Allocated with name '__mullonglong_sloc0_1_0'
                                     84 ;sloc1         Allocated with name '__mullonglong_sloc1_1_0'
                                     85 ;sloc2         Allocated with name '__mullonglong_sloc2_1_0'
                                     86 ;sloc3         Allocated with name '__mullonglong_sloc3_1_0'
                                     87 ;ll            Allocated with name '__mullonglong_PARM_1'
                                     88 ;lr            Allocated with name '__mullonglong_PARM_2'
                                     89 ;ret           Allocated with name '__mullonglong_ret_10000_2'
                                     90 ;i             Allocated to registers 
                                     91 ;j             Allocated to registers 
                                     92 ;l             Allocated with name '__mullonglong_l_30000_4'
                                     93 ;r             Allocated to registers a 
                                     94 ;------------------------------------------------------------
                                     95 ;	../_mullonglong.c: 35: long long _mullonglong(long long ll, long long lr) __SDCC_NONBANKED
                                     96 ;	genLabel
                                     97 ;	Raw cost for generated ic 0 : (0, 0.000000) count=1.000000
                                     98 ;	-----------------------------------------
                                     99 ;	 function _mullonglong
                                    100 ;	-----------------------------------------
                                    101 ;	Register assignment is optimal.
                                    102 ;	Stack space usage: 0 bytes.
      000000                        103 __mullonglong:
                                    104 ;	Raw cost for generated ic 1 : (0, 0.000000) count=1.000000
                                    105 ;	../_mullonglong.c: 37: unsigned long long ret = 0ull;
                                    106 ;	genAssign
                                    107 ;	genAssignLit
      000000 A0 00            [ 2]  108 	ldy	#0x00
      000002 8Cr10r00         [ 4]  109 	sty	__mullonglong_ret_10000_2
      000005 8Cr11r00         [ 4]  110 	sty	(__mullonglong_ret_10000_2 + 1)
      000008 8Cr12r00         [ 4]  111 	sty	(__mullonglong_ret_10000_2 + 2)
      00000B 8Cr13r00         [ 4]  112 	sty	(__mullonglong_ret_10000_2 + 3)
      00000E 8Cr14r00         [ 4]  113 	sty	(__mullonglong_ret_10000_2 + 4)
      000011 8Cr15r00         [ 4]  114 	sty	(__mullonglong_ret_10000_2 + 5)
      000014 8Cr16r00         [ 4]  115 	sty	(__mullonglong_ret_10000_2 + 6)
      000017 8Cr17r00         [ 4]  116 	sty	(__mullonglong_ret_10000_2 + 7)
                                    117 ;	Raw cost for generated ic 2 : (26, 34.000000) count=1.000000
                                    118 ;	../_mullonglong.c: 40: for (i = 0; i < sizeof (long long); i++)
                                    119 ;	genAssign
                                    120 ;	genAssignLit
      00001A 84*00            [ 3]  121 	sty	*__mullonglong_sloc0_1_0
                                    122 ;	Raw cost for generated ic 61 : (2, 3.000000) count=1.000000
                                    123 ;	genLabel
      00001C                        124 00106$:
                                    125 ;	Raw cost for generated ic 4 : (0, 0.000000) count=3.969304
                                    126 ;	../_mullonglong.c: 42: unsigned char l = ll >> (i * 8);
                                    127 ;	genLeftShift
                                    128 ;	genLeftShiftLiteral
                                    129 ;	  genlsh8 - shift=3
      00001C A5*00            [ 3]  130 	lda	*__mullonglong_sloc0_1_0
      00001E 0A               [ 2]  131 	asl	a
      00001F 0A               [ 2]  132 	asl	a
      000020 0A               [ 2]  133 	asl	a
                                    134 ;	Raw cost for generated ic 6 : (5, 9.000000) count=3.969304
                                    135 ;	genCast
                                    136 ;	genCopy
      000021 8Dr00r00         [ 4]  137 	sta	__srslonglong_PARM_2
                                    138 ;	Raw cost for generated ic 70 : (3, 4.000000) count=3.969304
                                    139 ;	genAssign
                                    140 ;	genCopy
      000024 ADr07r00         [ 4]  141 	lda	(__mullonglong_PARM_1 + 7)
      000027 8Dr07r00         [ 4]  142 	sta	(__srslonglong_PARM_1 + 7)
      00002A ADr06r00         [ 4]  143 	lda	(__mullonglong_PARM_1 + 6)
      00002D 8Dr06r00         [ 4]  144 	sta	(__srslonglong_PARM_1 + 6)
      000030 ADr05r00         [ 4]  145 	lda	(__mullonglong_PARM_1 + 5)
      000033 8Dr05r00         [ 4]  146 	sta	(__srslonglong_PARM_1 + 5)
      000036 ADr04r00         [ 4]  147 	lda	(__mullonglong_PARM_1 + 4)
      000039 8Dr04r00         [ 4]  148 	sta	(__srslonglong_PARM_1 + 4)
      00003C ADr03r00         [ 4]  149 	lda	(__mullonglong_PARM_1 + 3)
      00003F 8Dr03r00         [ 4]  150 	sta	(__srslonglong_PARM_1 + 3)
      000042 ADr02r00         [ 4]  151 	lda	(__mullonglong_PARM_1 + 2)
      000045 8Dr02r00         [ 4]  152 	sta	(__srslonglong_PARM_1 + 2)
      000048 ADr01r00         [ 4]  153 	lda	(__mullonglong_PARM_1 + 1)
      00004B 8Dr01r00         [ 4]  154 	sta	(__srslonglong_PARM_1 + 1)
      00004E ADr00r00         [ 4]  155 	lda	__mullonglong_PARM_1
      000051 8Dr00r00         [ 4]  156 	sta	__srslonglong_PARM_1
                                    157 ;	Raw cost for generated ic 71 : (48, 64.000000) count=3.969304
                                    158 ;	genCall
      000054 20r00r00         [ 6]  159 	jsr	__srslonglong
                                    160 ;	assignResultValue
      000057 85*01            [ 3]  161 	sta	*__mullonglong_sloc1_1_0
      000059 86*02            [ 3]  162 	stx	*(__mullonglong_sloc1_1_0 + 1)
      00005B A5*00            [ 3]  163 	lda	*___SDCC_m6502_ret2
      00005D 85*03            [ 3]  164 	sta	*(__mullonglong_sloc1_1_0 + 2)
      00005F A5*00            [ 3]  165 	lda	*___SDCC_m6502_ret3
      000061 85*04            [ 3]  166 	sta	*(__mullonglong_sloc1_1_0 + 3)
      000063 A5*00            [ 3]  167 	lda	*___SDCC_m6502_ret4
      000065 85*05            [ 3]  168 	sta	*(__mullonglong_sloc1_1_0 + 4)
      000067 A5*00            [ 3]  169 	lda	*___SDCC_m6502_ret5
      000069 85*06            [ 3]  170 	sta	*(__mullonglong_sloc1_1_0 + 5)
      00006B A5*00            [ 3]  171 	lda	*___SDCC_m6502_ret6
      00006D 85*07            [ 3]  172 	sta	*(__mullonglong_sloc1_1_0 + 6)
      00006F A5*00            [ 3]  173 	lda	*___SDCC_m6502_ret7
      000071 85*08            [ 3]  174 	sta	*(__mullonglong_sloc1_1_0 + 7)
                                    175 ;	Raw cost for generated ic 73 : (31, 48.000000) count=3.969304
                                    176 ;	genCast
                                    177 ;	genCopy
      000073 A5*01            [ 3]  178 	lda	*__mullonglong_sloc1_1_0
      000075 8Dr18r00         [ 4]  179 	sta	__mullonglong_l_30000_4
                                    180 ;	Raw cost for generated ic 8 : (5, 7.000000) count=3.969304
                                    181 ;	../_mullonglong.c: 43: for(j = 0; (i + j) < sizeof (long long); j++)
                                    182 ;	genAssign
                                    183 ;	genAssignLit
      000078 A0 00            [ 2]  184 	ldy	#0x00
      00007A 84*01            [ 3]  185 	sty	*__mullonglong_sloc1_1_0
                                    186 ;	Raw cost for generated ic 58 : (4, 5.000000) count=3.969304
                                    187 ;	genLabel
      00007C                        188 00104$:
                                    189 ;	Raw cost for generated ic 11 : (0, 0.000000) count=15.846519
                                    190 ;	genCast
                                    191 ;	genCopy
      00007C A2 00            [ 2]  192 	ldx	#0x00
      00007E A5*00            [ 3]  193 	lda	*__mullonglong_sloc0_1_0
                                    194 ;	Raw cost for generated ic 12 : (4, 5.000000) count=15.846519
                                    195 ;	genCast
                                    196 ;	genCopy
      000080 86*0A            [ 3]  197 	stx	*(__mullonglong_sloc2_1_0 + 1)
      000082 A4*01            [ 3]  198 	ldy	*__mullonglong_sloc1_1_0
      000084 84*09            [ 3]  199 	sty	*__mullonglong_sloc2_1_0
                                    200 ;	Raw cost for generated ic 13 : (6, 9.000000) count=15.846519
                                    201 ;	genPlus
      000086 18               [ 2]  202 	clc
      000087 65*09            [ 3]  203 	adc	*__mullonglong_sloc2_1_0
      000089 48               [ 3]  204 	pha
      00008A 8A               [ 2]  205 	txa
      00008B 65*0A            [ 3]  206 	adc	*(__mullonglong_sloc2_1_0 + 1)
      00008D AA               [ 2]  207 	tax
      00008E 68               [ 4]  208 	pla
                                    209 ;	Raw cost for generated ic 14 : (9, 19.000000) count=15.846519
                                    210 ;	genCmp
      00008F 38               [ 2]  211 	sec
      000090 E9 08            [ 2]  212 	sbc	#0x08
      000092 8A               [ 2]  213 	txa
      000093 E9 00            [ 2]  214 	sbc	#0x00
      000095 50 04            [ 4]  215 	bvc	00137$
      000097 10 07            [ 4]  216 	bpl	00136$
      000099 30 02            [ 4]  217 	bmi	00138$
      00009B                        218 00137$:
      00009B 30 03            [ 4]  219 	bmi	00136$
      00009D                        220 00138$:
      00009D 4Cr89r01         [ 3]  221 	jmp	00107$
      0000A0                        222 00136$:
                                    223 ;	Raw cost for generated ic 15 : (17, 21.400002) count=15.846519
                                    224 ;	skipping generated iCode
                                    225 ;	Raw cost for generated ic 16 : (0, 0.000000) count=15.846519
                                    226 ;	../_mullonglong.c: 45: unsigned char r = lr >> (j * 8);
                                    227 ;	genLeftShift
                                    228 ;	genLeftShiftLiteral
                                    229 ;	  genlsh8 - shift=3
      0000A0 A5*01            [ 3]  230 	lda	*__mullonglong_sloc1_1_0
      0000A2 0A               [ 2]  231 	asl	a
      0000A3 0A               [ 2]  232 	asl	a
      0000A4 0A               [ 2]  233 	asl	a
                                    234 ;	Raw cost for generated ic 20 : (5, 9.000000) count=11.884890
                                    235 ;	genCast
                                    236 ;	genCopy
      0000A5 8Dr00r00         [ 4]  237 	sta	__srslonglong_PARM_2
                                    238 ;	Raw cost for generated ic 74 : (3, 4.000000) count=11.884890
                                    239 ;	genAssign
                                    240 ;	genCopy
      0000A8 ADr0Fr00         [ 4]  241 	lda	(__mullonglong_PARM_2 + 7)
      0000AB 8Dr07r00         [ 4]  242 	sta	(__srslonglong_PARM_1 + 7)
      0000AE ADr0Er00         [ 4]  243 	lda	(__mullonglong_PARM_2 + 6)
      0000B1 8Dr06r00         [ 4]  244 	sta	(__srslonglong_PARM_1 + 6)
      0000B4 ADr0Dr00         [ 4]  245 	lda	(__mullonglong_PARM_2 + 5)
      0000B7 8Dr05r00         [ 4]  246 	sta	(__srslonglong_PARM_1 + 5)
      0000BA ADr0Cr00         [ 4]  247 	lda	(__mullonglong_PARM_2 + 4)
      0000BD 8Dr04r00         [ 4]  248 	sta	(__srslonglong_PARM_1 + 4)
      0000C0 ADr0Br00         [ 4]  249 	lda	(__mullonglong_PARM_2 + 3)
      0000C3 8Dr03r00         [ 4]  250 	sta	(__srslonglong_PARM_1 + 3)
      0000C6 ADr0Ar00         [ 4]  251 	lda	(__mullonglong_PARM_2 + 2)
      0000C9 8Dr02r00         [ 4]  252 	sta	(__srslonglong_PARM_1 + 2)
      0000CC ADr09r00         [ 4]  253 	lda	(__mullonglong_PARM_2 + 1)
      0000CF 8Dr01r00         [ 4]  254 	sta	(__srslonglong_PARM_1 + 1)
      0000D2 ADr08r00         [ 4]  255 	lda	__mullonglong_PARM_2
      0000D5 8Dr00r00         [ 4]  256 	sta	__srslonglong_PARM_1
                                    257 ;	Raw cost for generated ic 75 : (48, 64.000000) count=11.884890
                                    258 ;	genCall
      0000D8 20r00r00         [ 6]  259 	jsr	__srslonglong
                                    260 ;	assignResultValue
      0000DB 85*0B            [ 3]  261 	sta	*__mullonglong_sloc3_1_0
      0000DD 86*0C            [ 3]  262 	stx	*(__mullonglong_sloc3_1_0 + 1)
      0000DF A5*00            [ 3]  263 	lda	*___SDCC_m6502_ret2
      0000E1 85*0D            [ 3]  264 	sta	*(__mullonglong_sloc3_1_0 + 2)
      0000E3 A5*00            [ 3]  265 	lda	*___SDCC_m6502_ret3
      0000E5 85*0E            [ 3]  266 	sta	*(__mullonglong_sloc3_1_0 + 3)
      0000E7 A5*00            [ 3]  267 	lda	*___SDCC_m6502_ret4
      0000E9 85*0F            [ 3]  268 	sta	*(__mullonglong_sloc3_1_0 + 4)
      0000EB A5*00            [ 3]  269 	lda	*___SDCC_m6502_ret5
      0000ED 85*10            [ 3]  270 	sta	*(__mullonglong_sloc3_1_0 + 5)
      0000EF A5*00            [ 3]  271 	lda	*___SDCC_m6502_ret6
      0000F1 85*11            [ 3]  272 	sta	*(__mullonglong_sloc3_1_0 + 6)
      0000F3 A5*00            [ 3]  273 	lda	*___SDCC_m6502_ret7
      0000F5 85*12            [ 3]  274 	sta	*(__mullonglong_sloc3_1_0 + 7)
                                    275 ;	Raw cost for generated ic 77 : (31, 48.000000) count=11.884890
                                    276 ;	genCast
                                    277 ;	genCopy
                                    278 ;	Raw cost for generated ic 22 : (2, 3.000000) count=11.884890
                                    279 ;	../_mullonglong.c: 46: ret += (unsigned long long)((unsigned short)(l * r)) << ((i + j) * 8);
                                    280 ;	Raw cost for generated ic 78 : (0, 0.000000) count=11.884890
                                    281 ;	Raw cost for generated ic 79 : (0, 0.000000) count=11.884890
                                    282 ;	genCall
                                    283 ;	genSend
      0000F7 A6*0B            [ 3]  284 	ldx	*__mullonglong_sloc3_1_0
      0000F9 ADr18r00         [ 4]  285 	lda	__mullonglong_l_30000_4
      0000FC 20r00r00         [ 6]  286 	jsr	__muluchar
                                    287 ;	assignResultValue
                                    288 ;	Raw cost for generated ic 80 : (7, 12.000000) count=11.884890
                                    289 ;	genCast
                                    290 ;	genCopy
                                    291 ;	Raw cost for generated ic 25 : (0, 0.000000) count=11.884890
                                    292 ;	genCast
                                    293 ;	genCopy
      0000FF A0 00            [ 2]  294 	ldy	#0x00
      000101 8Cr07r00         [ 4]  295 	sty	(__slulonglong_PARM_1 + 7)
      000104 8Cr06r00         [ 4]  296 	sty	(__slulonglong_PARM_1 + 6)
      000107 8Cr05r00         [ 4]  297 	sty	(__slulonglong_PARM_1 + 5)
      00010A 8Cr04r00         [ 4]  298 	sty	(__slulonglong_PARM_1 + 4)
      00010D 8Cr03r00         [ 4]  299 	sty	(__slulonglong_PARM_1 + 3)
      000110 8Cr02r00         [ 4]  300 	sty	(__slulonglong_PARM_1 + 2)
      000113 8Er01r00         [ 4]  301 	stx	(__slulonglong_PARM_1 + 1)
      000116 8Dr00r00         [ 4]  302 	sta	__slulonglong_PARM_1
                                    303 ;	Raw cost for generated ic 26 : (26, 34.000000) count=11.884890
                                    304 ;	genPlus
      000119 A5*00            [ 3]  305 	lda	*__mullonglong_sloc0_1_0
      00011B 18               [ 2]  306 	clc
      00011C 65*01            [ 3]  307 	adc	*__mullonglong_sloc1_1_0
                                    308 ;	Raw cost for generated ic 29 : (5, 8.000000) count=11.884890
                                    309 ;	genLeftShift
                                    310 ;	genLeftShiftLiteral
                                    311 ;	  genlsh8 - shift=3
      00011E 0A               [ 2]  312 	asl	a
      00011F 0A               [ 2]  313 	asl	a
      000120 0A               [ 2]  314 	asl	a
                                    315 ;	Raw cost for generated ic 30 : (3, 6.000000) count=11.884890
                                    316 ;	genCast
                                    317 ;	genCopy
      000121 8Dr00r00         [ 4]  318 	sta	__slulonglong_PARM_2
                                    319 ;	Raw cost for generated ic 81 : (3, 4.000000) count=11.884890
                                    320 ;	genCall
      000124 20r00r00         [ 6]  321 	jsr	__slulonglong
                                    322 ;	assignResultValue
      000127 85*0B            [ 3]  323 	sta	*__mullonglong_sloc3_1_0
      000129 86*0C            [ 3]  324 	stx	*(__mullonglong_sloc3_1_0 + 1)
      00012B A5*00            [ 3]  325 	lda	*___SDCC_m6502_ret2
      00012D 85*0D            [ 3]  326 	sta	*(__mullonglong_sloc3_1_0 + 2)
      00012F A5*00            [ 3]  327 	lda	*___SDCC_m6502_ret3
      000131 85*0E            [ 3]  328 	sta	*(__mullonglong_sloc3_1_0 + 3)
      000133 A5*00            [ 3]  329 	lda	*___SDCC_m6502_ret4
      000135 85*0F            [ 3]  330 	sta	*(__mullonglong_sloc3_1_0 + 4)
      000137 A5*00            [ 3]  331 	lda	*___SDCC_m6502_ret5
      000139 85*10            [ 3]  332 	sta	*(__mullonglong_sloc3_1_0 + 5)
      00013B A5*00            [ 3]  333 	lda	*___SDCC_m6502_ret6
      00013D 85*11            [ 3]  334 	sta	*(__mullonglong_sloc3_1_0 + 6)
      00013F A5*00            [ 3]  335 	lda	*___SDCC_m6502_ret7
      000141 85*12            [ 3]  336 	sta	*(__mullonglong_sloc3_1_0 + 7)
                                    337 ;	Raw cost for generated ic 84 : (31, 48.000000) count=11.884890
                                    338 ;	genPlus
      000143 ADr10r00         [ 4]  339 	lda	__mullonglong_ret_10000_2
      000146 18               [ 2]  340 	clc
      000147 65*0B            [ 3]  341 	adc	*__mullonglong_sloc3_1_0
      000149 8Dr10r00         [ 4]  342 	sta	__mullonglong_ret_10000_2
      00014C ADr11r00         [ 4]  343 	lda	(__mullonglong_ret_10000_2 + 1)
      00014F 65*0C            [ 3]  344 	adc	*(__mullonglong_sloc3_1_0 + 1)
      000151 8Dr11r00         [ 4]  345 	sta	(__mullonglong_ret_10000_2 + 1)
      000154 ADr12r00         [ 4]  346 	lda	(__mullonglong_ret_10000_2 + 2)
      000157 65*0D            [ 3]  347 	adc	*(__mullonglong_sloc3_1_0 + 2)
      000159 8Dr12r00         [ 4]  348 	sta	(__mullonglong_ret_10000_2 + 2)
      00015C ADr13r00         [ 4]  349 	lda	(__mullonglong_ret_10000_2 + 3)
      00015F 65*0E            [ 3]  350 	adc	*(__mullonglong_sloc3_1_0 + 3)
      000161 8Dr13r00         [ 4]  351 	sta	(__mullonglong_ret_10000_2 + 3)
      000164 ADr14r00         [ 4]  352 	lda	(__mullonglong_ret_10000_2 + 4)
      000167 65*0F            [ 3]  353 	adc	*(__mullonglong_sloc3_1_0 + 4)
      000169 8Dr14r00         [ 4]  354 	sta	(__mullonglong_ret_10000_2 + 4)
      00016C ADr15r00         [ 4]  355 	lda	(__mullonglong_ret_10000_2 + 5)
      00016F 65*10            [ 3]  356 	adc	*(__mullonglong_sloc3_1_0 + 5)
      000171 8Dr15r00         [ 4]  357 	sta	(__mullonglong_ret_10000_2 + 5)
      000174 ADr16r00         [ 4]  358 	lda	(__mullonglong_ret_10000_2 + 6)
      000177 65*11            [ 3]  359 	adc	*(__mullonglong_sloc3_1_0 + 6)
      000179 8Dr16r00         [ 4]  360 	sta	(__mullonglong_ret_10000_2 + 6)
      00017C ADr17r00         [ 4]  361 	lda	(__mullonglong_ret_10000_2 + 7)
      00017F 65*12            [ 3]  362 	adc	*(__mullonglong_sloc3_1_0 + 7)
      000181 8Dr17r00         [ 4]  363 	sta	(__mullonglong_ret_10000_2 + 7)
                                    364 ;	Raw cost for generated ic 32 : (65, 90.000000) count=11.884890
                                    365 ;	../_mullonglong.c: 43: for(j = 0; (i + j) < sizeof (long long); j++)
                                    366 ;	genPlus
                                    367 ;	  genPlusInc
      000184 E6*01            [ 5]  368 	inc	*__mullonglong_sloc1_1_0
                                    369 ;	Raw cost for generated ic 36 : (2, 5.000000) count=11.884890
                                    370 ;	genGoto
      000186 4Cr7Cr00         [ 3]  371 	jmp	00104$
                                    372 ;	Raw cost for generated ic 38 : (3, 3.000000) count=11.884890
                                    373 ;	genLabel
      000189                        374 00107$:
                                    375 ;	Raw cost for generated ic 40 : (0, 0.000000) count=3.961630
                                    376 ;	../_mullonglong.c: 40: for (i = 0; i < sizeof (long long); i++)
                                    377 ;	genPlus
                                    378 ;	  genPlusInc
      000189 E6*00            [ 5]  379 	inc	*__mullonglong_sloc0_1_0
                                    380 ;	Raw cost for generated ic 42 : (2, 5.000000) count=3.961630
                                    381 ;	genCmp
      00018B A5*00            [ 3]  382 	lda	*__mullonglong_sloc0_1_0
      00018D C9 08            [ 2]  383 	cmp	#0x08
      00018F B0 03            [ 4]  384 	bcs	00139$
      000191 4Cr1Cr00         [ 3]  385 	jmp	00106$
      000194                        386 00139$:
                                    387 ;	Raw cost for generated ic 44 : (9, 10.600000) count=3.961630
                                    388 ;	skipping generated iCode
                                    389 ;	Raw cost for generated ic 45 : (0, 0.000000) count=3.961630
                                    390 ;	../_mullonglong.c: 50: return(ret);
                                    391 ;	genRet
      000194 ADr17r00         [ 4]  392 	lda	(__mullonglong_ret_10000_2 + 7)
      000197 85*00            [ 3]  393 	sta	*___SDCC_m6502_ret7
      000199 ADr16r00         [ 4]  394 	lda	(__mullonglong_ret_10000_2 + 6)
      00019C 85*00            [ 3]  395 	sta	*___SDCC_m6502_ret6
      00019E ADr15r00         [ 4]  396 	lda	(__mullonglong_ret_10000_2 + 5)
      0001A1 85*00            [ 3]  397 	sta	*___SDCC_m6502_ret5
      0001A3 ADr14r00         [ 4]  398 	lda	(__mullonglong_ret_10000_2 + 4)
      0001A6 85*00            [ 3]  399 	sta	*___SDCC_m6502_ret4
      0001A8 ADr13r00         [ 4]  400 	lda	(__mullonglong_ret_10000_2 + 3)
      0001AB 85*00            [ 3]  401 	sta	*___SDCC_m6502_ret3
      0001AD ADr12r00         [ 4]  402 	lda	(__mullonglong_ret_10000_2 + 2)
      0001B0 85*00            [ 3]  403 	sta	*___SDCC_m6502_ret2
      0001B2 AEr11r00         [ 4]  404 	ldx	(__mullonglong_ret_10000_2 + 1)
      0001B5 ADr10r00         [ 4]  405 	lda	__mullonglong_ret_10000_2
                                    406 ;	Raw cost for generated ic 48 : (36, 50.000000) count=0.990407
                                    407 ;	genLabel
                                    408 ;	Raw cost for generated ic 49 : (0, 0.000000) count=0.990407
                                    409 ;	../_mullonglong.c: 51: }
                                    410 ;	genEndFunction
      0001B8 60               [ 6]  411 	rts
                                    412 ;	Raw cost for generated ic 50 : (1, 6.000000) count=0.990407
                                    413 	.area CODE
                                    414 	.area RODATA
                                    415 	.area XINIT
                                    416 	.area CABS    (ABS)
