                                      1 ;--------------------------------------------------------
                                      2 ; File Created by SDCC : free open source ISO C Compiler
                                      3 ; Version 4.5.10 #15691 (Linux)
                                      4 ;--------------------------------------------------------
                                      5 	.module _srslonglong
                                      6 	
                                      7 	.optsdcc -mmos6502
                                      8 
                                      9 ;--------------------------------------------------------
                                     10 ;  Ordering of segments for the linker.
                                     11 ;--------------------------------------------------------
                                     12 	.area ZP      (PAG)
                                     13 	.area OSEG    (PAG, OVR)
                                     14 	.area _CODE
                                     15 	.area GSINIT
                                     16 	.area GSFINAL
                                     17 	.area CODE
                                     18 	.area RODATA
                                     19 	.area XINIT
                                     20 	.area _DATA
                                     21 	.area DATA
                                     22 	.area BSS
                                     23 ;--------------------------------------------------------
                                     24 ; Public variables in this module
                                     25 ;--------------------------------------------------------
                                     26 	.globl __srslonglong_PARM_2
                                     27 	.globl __srslonglong_PARM_1
                                     28 	.globl __srslonglong
                                     29 ;--------------------------------------------------------
                                     30 ; ZP ram data
                                     31 ;--------------------------------------------------------
                                     32 	.area ZP      (PAG)
                                     33 ;--------------------------------------------------------
                                     34 ; overlayable items in ram
                                     35 ;--------------------------------------------------------
                                     36 	.area	OSEG    (PAG, OVR)
      000000                         37 __srslonglong_sloc0_1_0:
      000000                         38 	.ds 1
      000001                         39 __srslonglong_sloc1_1_0:
      000001                         40 	.ds 2
      000003                         41 __srslonglong_sloc2_1_0:
      000003                         42 	.ds 2
      000005                         43 __srslonglong_sloc3_1_0:
      000005                         44 	.ds 2
                                     45 ;--------------------------------------------------------
                                     46 ; uninitialized external ram data
                                     47 ;--------------------------------------------------------
                                     48 	.area BSS
      000000                         49 __srslonglong_PARM_1:
      000000                         50 	.ds 8
      000008                         51 __srslonglong_PARM_2:
      000008                         52 	.ds 1
      000009                         53 __srslonglong_t1_10000_2:
      000009                         54 	.ds 1
      00000A                         55 __srslonglong_sign_10000_2:
      00000A                         56 	.ds 1
      00000B                         57 __srslonglong_zb_10000_2:
      00000B                         58 	.ds 1
                                     59 ;--------------------------------------------------------
                                     60 ; absolute external ram data
                                     61 ;--------------------------------------------------------
                                     62 	.area DABS    (ABS)
                                     63 ;--------------------------------------------------------
                                     64 ; initialized external ram data
                                     65 ;--------------------------------------------------------
                                     66 	.area DATA
                                     67 ;--------------------------------------------------------
                                     68 ; global & static initialisations
                                     69 ;--------------------------------------------------------
                                     70 	.area _CODE
                                     71 	.area GSINIT
                                     72 	.area GSFINAL
                                     73 	.area GSINIT
                                     74 ;--------------------------------------------------------
                                     75 ; Home
                                     76 ;--------------------------------------------------------
                                     77 	.area _CODE
                                     78 	.area _CODE
                                     79 ;--------------------------------------------------------
                                     80 ; code
                                     81 ;--------------------------------------------------------
                                     82 	.area CODE
                                     83 ;------------------------------------------------------------
                                     84 ;Allocation info for local variables in function '_srslonglong'
                                     85 ;------------------------------------------------------------
                                     86 ;l             Allocated with name '__srslonglong_PARM_1'
                                     87 ;s             Allocated with name '__srslonglong_PARM_2'
                                     88 ;b             Allocated to registers 
                                     89 ;shift         Allocated to registers 
                                     90 ;t1            Allocated with name '__srslonglong_t1_10000_2'
                                     91 ;t2            Allocated to registers x 
                                     92 ;sign          Allocated with name '__srslonglong_sign_10000_2'
                                     93 ;zb            Allocated with name '__srslonglong_zb_10000_2'
                                     94 ;i             Allocated to registers 
                                     95 ;sloc0         Allocated with name '__srslonglong_sloc0_1_0'
                                     96 ;sloc1         Allocated with name '__srslonglong_sloc1_1_0'
                                     97 ;sloc2         Allocated with name '__srslonglong_sloc2_1_0'
                                     98 ;sloc3         Allocated with name '__srslonglong_sloc3_1_0'
                                     99 ;------------------------------------------------------------
                                    100 ;	_srslonglong.c: 5: long long _srslonglong(long long l, char s)
                                    101 ;	genLabel
                                    102 ;	Raw cost for generated ic 0 : (0, 0.000000) count=1.000000
                                    103 ;	-----------------------------------------
                                    104 ;	 function _srslonglong
                                    105 ;	-----------------------------------------
                                    106 ;	Register assignment is optimal.
                                    107 ;	Stack space usage: 0 bytes.
      000000                        108 __srslonglong:
                                    109 ;	Raw cost for generated ic 1 : (0, 0.000000) count=1.000000
                                    110 ;	_srslonglong.c: 8: uint8_t *const b = (uint8_t *)(&l);
                                    111 ;	skipping iCode since result will be rematerialized
                                    112 ;	Raw cost for generated ic 2 : (0, 0.000000) count=1.000000
                                    113 ;	skipping iCode since result will be rematerialized
                                    114 ;	Raw cost for generated ic 4 : (0, 0.000000) count=1.000000
                                    115 ;	_srslonglong.c: 12: sign=b[7]&0x80;
                                    116 ;	skipping iCode since result will be rematerialized
                                    117 ;	Raw cost for generated ic 6 : (0, 0.000000) count=1.000000
                                    118 ;	genPointerGet
                                    119 ;	genDataPointerGet
      000000 ADr07r00         [ 4]  120 	lda	(__srslonglong_PARM_1 + 0x0007)
                                    121 ;	Raw cost for generated ic 7 : (3, 4.000000) count=1.000000
                                    122 ;	genAnd
      000003 29 80            [ 2]  123 	and	#0x80
      000005 8Dr0Ar00         [ 4]  124 	sta	__srslonglong_sign_10000_2
                                    125 ;	Raw cost for generated ic 9 : (5, 6.000000) count=1.000000
                                    126 ;	_srslonglong.c: 14: zb=s>>3;
                                    127 ;	genRightShift
                                    128 ;	genRightShiftLiteral
                                    129 ;	  genrsh8 - shift=3
      000008 ADr08r00         [ 4]  130 	lda	__srslonglong_PARM_2
      00000B 4A               [ 2]  131 	lsr	a
      00000C 4A               [ 2]  132 	lsr	a
      00000D 4A               [ 2]  133 	lsr	a
      00000E 8Dr0Br00         [ 4]  134 	sta	__srslonglong_zb_10000_2
                                    135 ;	Raw cost for generated ic 12 : (9, 14.000000) count=1.000000
                                    136 ;	_srslonglong.c: 15: if(zb) {
                                    137 ;	genIfx
                                    138 ;	genIfxJump : z
      000011 D0 03            [ 4]  139 	bne	00194$
      000013 4CrC1r00         [ 3]  140 	jmp	00104$
      000016                        141 00194$:
                                    142 ;	Raw cost for generated ic 14 : (5, 5.600000) count=1.000000
                                    143 ;	_srslonglong.c: 16: i=0;
                                    144 ;	genAssign
                                    145 ;	genAssignLit
      000016 A0 00            [ 2]  146 	ldy	#0x00
      000018 84*00            [ 3]  147 	sty	*__srslonglong_sloc0_1_0
                                    148 ;	Raw cost for generated ic 122 : (4, 5.000000) count=0.750000
                                    149 ;	genLabel
      00001A                        150 00110$:
                                    151 ;	Raw cost for generated ic 18 : (0, 0.000000) count=2.999995
                                    152 ;	_srslonglong.c: 17: for(;i<(8-zb);i++) {
                                    153 ;	genCast
      00001A ADr0Br00         [ 4]  154 	lda	__srslonglong_zb_10000_2
      00001D 85*01            [ 3]  155 	sta	*__srslonglong_sloc1_1_0
      00001F 0A               [ 2]  156 	asl	a
      000020 A9 00            [ 2]  157 	lda	#0x00
      000022 69 FF            [ 2]  158 	adc	#0xff
      000024 49 FF            [ 2]  159 	eor	#0xff
      000026 85*02            [ 3]  160 	sta	*(__srslonglong_sloc1_1_0 + 1)
                                    161 ;	Raw cost for generated ic 19 : (14, 18.000000) count=2.999995
                                    162 ;	genMinus
      000028 A9 08            [ 2]  163 	lda	#0x08
      00002A 38               [ 2]  164 	sec
      00002B E5*01            [ 3]  165 	sbc	*__srslonglong_sloc1_1_0
      00002D 85*03            [ 3]  166 	sta	*__srslonglong_sloc2_1_0
      00002F A9 00            [ 2]  167 	lda	#0x00
      000031 E5*02            [ 3]  168 	sbc	*(__srslonglong_sloc1_1_0 + 1)
      000033 85*04            [ 3]  169 	sta	*(__srslonglong_sloc2_1_0 + 1)
                                    170 ;	Raw cost for generated ic 20 : (13, 18.000000) count=2.999995
                                    171 ;	genCast
                                    172 ;	genCopy
      000035 A2 00            [ 2]  173 	ldx	#0x00
      000037 A5*00            [ 3]  174 	lda	*__srslonglong_sloc0_1_0
      000039 10 01            [ 4]  175 	bpl	00195$
      00003B CA               [ 2]  176 	dex
      00003C                        177 00195$:
                                    178 ;	Raw cost for generated ic 21 : (7, 9.600000) count=2.999995
                                    179 ;	genCmp
      00003C 85*00            [ 3]  180 	sta	*(REGTEMP+0)
      00003E 38               [ 2]  181 	sec
      00003F E5*03            [ 3]  182 	sbc	*__srslonglong_sloc2_1_0
      000041 8A               [ 2]  183 	txa
      000042 E5*04            [ 3]  184 	sbc	*(__srslonglong_sloc2_1_0 + 1)
      000044 08               [ 3]  185 	php
      000045 A5*00            [ 3]  186 	lda	*(REGTEMP+0)
      000047 28               [ 4]  187 	plp
      000048 50 04            [ 4]  188 	bvc	00197$
      00004A 10 04            [ 4]  189 	bpl	00196$
      00004C 30 35            [ 4]  190 	bmi	00129$
      00004E                        191 00197$:
      00004E 10 33            [ 4]  192 	bpl	00129$
      000050                        193 00196$:
                                    194 ;	Raw cost for generated ic 22 : (23, 36.400002) count=2.999995
                                    195 ;	skipping generated iCode
                                    196 ;	Raw cost for generated ic 23 : (0, 0.000000) count=2.999995
                                    197 ;	_srslonglong.c: 18: b[i]=b[zb+i];
                                    198 ;	genAssign
                                    199 ;	genCopy
      000050 85*03            [ 3]  200 	sta	*__srslonglong_sloc2_1_0
      000052 86*04            [ 3]  201 	stx	*(__srslonglong_sloc2_1_0 + 1)
                                    202 ;	Raw cost for generated ic 27 : (4, 6.000000) count=2.249995
                                    203 ;	genPlus
      000054 18               [ 2]  204 	clc
      000055 65*01            [ 3]  205 	adc	*__srslonglong_sloc1_1_0
      000057 48               [ 3]  206 	pha
      000058 8A               [ 2]  207 	txa
      000059 65*02            [ 3]  208 	adc	*(__srslonglong_sloc1_1_0 + 1)
      00005B AA               [ 2]  209 	tax
      00005C 68               [ 4]  210 	pla
                                    211 ;	Raw cost for generated ic 30 : (9, 19.000000) count=2.249995
                                    212 ;	genAssign
                                    213 ;	genCopy
                                    214 ;	Raw cost for generated ic 31 : (0, 0.000000) count=2.249995
                                    215 ;	genPointerGet
                                    216 ;	  setupDPTR - off=0 remat=__srslonglong_PARM_1 savea=0
      00005D 18               [ 2]  217 	clc
      00005E 69r00            [ 2]  218 	adc	#<(__srslonglong_PARM_1+0)
      000060 85*00            [ 3]  219 	sta	*(DPTR+0)
      000062 8A               [ 2]  220 	txa
      000063 69s00            [ 2]  221 	adc	#>(__srslonglong_PARM_1+0)
      000065 85*01            [ 3]  222 	sta	*(DPTR+1)
      000067 A0 00            [ 2]  223 	ldy	#0x00
      000069 B1*00            [ 6]  224 	lda	[DPTR],y
                                    225 ;	Raw cost for generated ic 32 : (14, 21.000000) count=2.249995
                                    226 ;	genPointerSet
      00006B 85*00            [ 3]  227 	sta	*(REGTEMP+0)
                                    228 ;	  setupDPTR - off=0 remat=__srslonglong_PARM_1 savea=0
      00006D 18               [ 2]  229 	clc
      00006E A5*03            [ 3]  230 	lda	*__srslonglong_sloc2_1_0
      000070 69r00            [ 2]  231 	adc	#<(__srslonglong_PARM_1+0)
      000072 85*00            [ 3]  232 	sta	*(DPTR+0)
      000074 A5*04            [ 3]  233 	lda	*(__srslonglong_sloc2_1_0 + 1)
      000076 69s00            [ 2]  234 	adc	#>(__srslonglong_PARM_1+0)
      000078 85*01            [ 3]  235 	sta	*(DPTR+1)
      00007A A5*00            [ 3]  236 	lda	*(REGTEMP+0)
      00007C 91*00            [ 6]  237 	sta	[DPTR],y
                                    238 ;	Raw cost for generated ic 33 : (19, 30.000000) count=2.249995
                                    239 ;	_srslonglong.c: 17: for(;i<(8-zb);i++) {
                                    240 ;	genPlus
                                    241 ;	  genPlusInc
      00007E E6*00            [ 5]  242 	inc	*__srslonglong_sloc0_1_0
                                    243 ;	Raw cost for generated ic 36 : (2, 5.000000) count=2.249995
                                    244 ;	genGoto
      000080 4Cr1Ar00         [ 3]  245 	jmp	00110$
                                    246 ;	Raw cost for generated ic 38 : (3, 3.000000) count=2.249995
                                    247 ;	genLabel
      000083                        248 00129$:
                                    249 ;	Raw cost for generated ic 116 : (0, 0.000000) count=0.749999
                                    250 ;	genAssign
                                    251 ;	genCopy
      000083 A4*00            [ 3]  252 	ldy	*__srslonglong_sloc0_1_0
                                    253 ;	Raw cost for generated ic 125 : (2, 3.000000) count=0.749999
                                    254 ;	genLabel
      000085                        255 00113$:
                                    256 ;	Raw cost for generated ic 40 : (0, 0.000000) count=2.999981
                                    257 ;	_srslonglong.c: 20: for(;i<8;i++)
                                    258 ;	genCmp
      000085 98               [ 2]  259 	tya
      000086 38               [ 2]  260 	sec
      000087 E9 08            [ 2]  261 	sbc	#0x08
      000089 50 04            [ 4]  262 	bvc	00200$
      00008B 10 04            [ 4]  263 	bpl	00199$
      00008D 30 32            [ 4]  264 	bmi	00104$
      00008F                        265 00200$:
      00008F 10 30            [ 4]  266 	bpl	00104$
      000091                        267 00199$:
                                    268 ;	Raw cost for generated ic 41 : (15, 19.400002) count=2.999981
                                    269 ;	skipping generated iCode
                                    270 ;	Raw cost for generated ic 42 : (0, 0.000000) count=2.999981
                                    271 ;	_srslonglong.c: 21: b[i]=sign?0xff:0x00;
                                    272 ;	genCast
                                    273 ;	genCopy
      000091 A2 00            [ 2]  274 	ldx	#0x00
      000093 98               [ 2]  275 	tya
      000094 10 01            [ 4]  276 	bpl	00202$
      000096 CA               [ 2]  277 	dex
      000097                        278 00202$:
                                    279 ;	Raw cost for generated ic 45 : (6, 8.600000) count=2.249983
                                    280 ;	genAssign
                                    281 ;	genCopy
      000097 85*03            [ 3]  282 	sta	*__srslonglong_sloc2_1_0
      000099 86*04            [ 3]  283 	stx	*(__srslonglong_sloc2_1_0 + 1)
                                    284 ;	Raw cost for generated ic 46 : (4, 6.000000) count=2.249983
                                    285 ;	genIfx
      00009B ADr0Ar00         [ 4]  286 	lda	__srslonglong_sign_10000_2
                                    287 ;	genIfxJump : z
      00009E F0 05            [ 4]  288 	beq	00120$
                                    289 ;	Raw cost for generated ic 47 : (8, 9.600000) count=2.249983
                                    290 ;	genAssign
                                    291 ;	genCopy
      0000A0 A2 FF            [ 2]  292 	ldx	#0xff
                                    293 ;	Raw cost for generated ic 48 : (2, 2.000000) count=1.687488
                                    294 ;	genGoto
      0000A2 4CrA7r00         [ 3]  295 	jmp	00121$
                                    296 ;	Raw cost for generated ic 49 : (3, 3.000000) count=1.687488
                                    297 ;	genLabel
      0000A5                        298 00120$:
                                    299 ;	Raw cost for generated ic 50 : (0, 0.000000) count=0.562495
                                    300 ;	genAssign
                                    301 ;	genCopy
      0000A5 A2 00            [ 2]  302 	ldx	#0x00
                                    303 ;	Raw cost for generated ic 51 : (2, 2.000000) count=0.562495
                                    304 ;	genLabel
      0000A7                        305 00121$:
                                    306 ;	Raw cost for generated ic 52 : (0, 0.000000) count=2.249983
                                    307 ;	genCast
                                    308 ;	genCopy
                                    309 ;	Raw cost for generated ic 53 : (0, 0.000000) count=2.249983
                                    310 ;	genPointerSet
      0000A7 84*00            [ 3]  311 	sty	*(REGTEMP+0)
                                    312 ;	  setupDPTR - off=0 remat=__srslonglong_PARM_1 savea=0
      0000A9 18               [ 2]  313 	clc
      0000AA A5*03            [ 3]  314 	lda	*__srslonglong_sloc2_1_0
      0000AC 69r00            [ 2]  315 	adc	#<(__srslonglong_PARM_1+0)
      0000AE 85*00            [ 3]  316 	sta	*(DPTR+0)
      0000B0 A5*04            [ 3]  317 	lda	*(__srslonglong_sloc2_1_0 + 1)
      0000B2 69s00            [ 2]  318 	adc	#>(__srslonglong_PARM_1+0)
      0000B4 85*01            [ 3]  319 	sta	*(DPTR+1)
      0000B6 8A               [ 2]  320 	txa
      0000B7 A0 00            [ 2]  321 	ldy	#0x00
      0000B9 91*00            [ 6]  322 	sta	[DPTR],y
      0000BB A4*00            [ 3]  323 	ldy	*(REGTEMP+0)
                                    324 ;	Raw cost for generated ic 54 : (22, 34.000000) count=2.249983
                                    325 ;	_srslonglong.c: 20: for(;i<8;i++)
                                    326 ;	genPlus
                                    327 ;	  genPlusInc
      0000BD C8               [ 2]  328 	iny
                                    329 ;	Raw cost for generated ic 57 : (1, 2.000000) count=2.249983
                                    330 ;	genGoto
      0000BE 4Cr85r00         [ 3]  331 	jmp	00113$
                                    332 ;	Raw cost for generated ic 59 : (3, 3.000000) count=2.249983
                                    333 ;	genLabel
      0000C1                        334 00104$:
                                    335 ;	Raw cost for generated ic 61 : (0, 0.000000) count=0.999994
                                    336 ;	_srslonglong.c: 24: shift=s&0x7;
                                    337 ;	genAnd
      0000C1 ADr08r00         [ 4]  338 	lda	__srslonglong_PARM_2
      0000C4 29 07            [ 2]  339 	and	#0x07
      0000C6 85*03            [ 3]  340 	sta	*__srslonglong_sloc2_1_0
                                    341 ;	Raw cost for generated ic 63 : (7, 9.000000) count=0.999994
                                    342 ;	_srslonglong.c: 25: while(shift--) {
                                    343 ;	genMinus
      0000C8 A9 07            [ 2]  344 	lda	#0x07
      0000CA 38               [ 2]  345 	sec
      0000CB EDr0Br00         [ 4]  346 	sbc	__srslonglong_zb_10000_2
      0000CE 85*01            [ 3]  347 	sta	*__srslonglong_sloc1_1_0
                                    348 ;	Raw cost for generated ic 74 : (8, 11.000000) count=0.999994
                                    349 ;	genLabel
      0000D0                        350 00106$:
                                    351 ;	Raw cost for generated ic 66 : (0, 0.000000) count=3.999697
                                    352 ;	genAssign
                                    353 ;	genCopy
      0000D0 A5*03            [ 3]  354 	lda	*__srslonglong_sloc2_1_0
                                    355 ;	Raw cost for generated ic 67 : (2, 3.000000) count=3.999697
                                    356 ;	genMinus
                                    357 ;	  genMinusDec - size=1  icount=1
      0000D2 C6*03            [ 5]  358 	dec	*__srslonglong_sloc2_1_0
                                    359 ;	Raw cost for generated ic 68 : (2, 5.000000) count=3.999697
                                    360 ;	genIfx
      0000D4 C9 00            [ 2]  361 	cmp	#0x00
                                    362 ;	genIfxJump : z
      0000D6 F0 50            [ 4]  363 	beq	00108$
                                    364 ;	Raw cost for generated ic 70 : (7, 7.600000) count=3.999697
                                    365 ;	_srslonglong.c: 26: t2=sign;
                                    366 ;	genAssign
                                    367 ;	genCopy
      0000D8 AEr0Ar00         [ 4]  368 	ldx	__srslonglong_sign_10000_2
                                    369 ;	Raw cost for generated ic 73 : (3, 4.000000) count=2.999773
                                    370 ;	_srslonglong.c: 27: for(i=7-zb;i>=0;i--) {
                                    371 ;	genAssign
                                    372 ;	genCopy
      0000DB A5*01            [ 3]  373 	lda	*__srslonglong_sloc1_1_0
      0000DD 85*00            [ 3]  374 	sta	*__srslonglong_sloc0_1_0
                                    375 ;	Raw cost for generated ic 75 : (4, 6.000000) count=2.999773
                                    376 ;	genLabel
      0000DF                        377 00116$:
                                    378 ;	Raw cost for generated ic 76 : (0, 0.000000) count=3.999632
                                    379 ;	genCmp
      0000DF 24*00            [ 3]  380 	bit	*__srslonglong_sloc0_1_0
      0000E1 30 ED            [ 4]  381 	bmi	00106$
                                    382 ;	Raw cost for generated ic 77 : (7, 8.600000) count=3.999632
                                    383 ;	skipping generated iCode
                                    384 ;	Raw cost for generated ic 78 : (0, 0.000000) count=3.999632
                                    385 ;	_srslonglong.c: 28: t1=b[i]&1;
                                    386 ;	genCast
                                    387 ;	genCopy
      0000E3 A5*00            [ 3]  388 	lda	*__srslonglong_sloc0_1_0
                                    389 ;	Raw cost for generated ic 81 : (2, 3.000000) count=0.999888
                                    390 ;	genAssign
                                    391 ;	genCopy
      0000E5 A0 00            [ 2]  392 	ldy	#0x00
      0000E7 84*06            [ 3]  393 	sty	*(__srslonglong_sloc3_1_0 + 1)
      0000E9 85*05            [ 3]  394 	sta	*__srslonglong_sloc3_1_0
                                    395 ;	Raw cost for generated ic 82 : (6, 8.000000) count=0.999888
                                    396 ;	genPointerGet
                                    397 ;	  setupDPTR - off=0 remat=__srslonglong_PARM_1 savea=0
      0000EB 18               [ 2]  398 	clc
      0000EC 69r00            [ 2]  399 	adc	#<(__srslonglong_PARM_1+0)
      0000EE 85*00            [ 3]  400 	sta	*(DPTR+0)
      0000F0 A5*06            [ 3]  401 	lda	*(__srslonglong_sloc3_1_0 + 1)
      0000F2 69s00            [ 2]  402 	adc	#>(__srslonglong_PARM_1+0)
      0000F4 85*01            [ 3]  403 	sta	*(DPTR+1)
      0000F6 B1*00            [ 6]  404 	lda	[DPTR],y
                                    405 ;	Raw cost for generated ic 83 : (14, 22.000000) count=0.999888
                                    406 ;	genAnd
      0000F8 A8               [ 2]  407 	tay
      0000F9 29 01            [ 2]  408 	and	#0x01
      0000FB 8Dr09r00         [ 4]  409 	sta	__srslonglong_t1_10000_2
                                    410 ;	Raw cost for generated ic 85 : (6, 8.000000) count=0.999888
                                    411 ;	_srslonglong.c: 29: b[i]=(b[i]>>1)|t2;
                                    412 ;	genRightShift
                                    413 ;	genRightShiftLiteral
                                    414 ;	  genrsh8 - shift=1
      0000FE 98               [ 2]  415 	tya
      0000FF 4A               [ 2]  416 	lsr	a
                                    417 ;	Raw cost for generated ic 93 : (2, 4.000000) count=0.999888
                                    418 ;	genOr
      000100 86*00            [ 3]  419 	stx	*(REGTEMP+0)
      000102 05*00            [ 3]  420 	ora	*(REGTEMP+0)
      000104 AA               [ 2]  421 	tax
                                    422 ;	Raw cost for generated ic 94 : (5, 8.000000) count=0.999888
                                    423 ;	genPointerSet
                                    424 ;	  setupDPTR - off=0 remat=__srslonglong_PARM_1 savea=0
      000105 18               [ 2]  425 	clc
      000106 A5*05            [ 3]  426 	lda	*__srslonglong_sloc3_1_0
      000108 69r00            [ 2]  427 	adc	#<(__srslonglong_PARM_1+0)
      00010A 85*00            [ 3]  428 	sta	*(DPTR+0)
      00010C A5*06            [ 3]  429 	lda	*(__srslonglong_sloc3_1_0 + 1)
      00010E 69s00            [ 2]  430 	adc	#>(__srslonglong_PARM_1+0)
      000110 85*01            [ 3]  431 	sta	*(DPTR+1)
      000112 8A               [ 2]  432 	txa
      000113 A0 00            [ 2]  433 	ldy	#0x00
      000115 91*00            [ 6]  434 	sta	[DPTR],y
                                    435 ;	Raw cost for generated ic 95 : (18, 28.000000) count=0.999888
                                    436 ;	_srslonglong.c: 30: t2=t1?0x80:0;
                                    437 ;	genIfx
      000117 ADr09r00         [ 4]  438 	lda	__srslonglong_t1_10000_2
                                    439 ;	genIfxJump : z
      00011A F0 05            [ 4]  440 	beq	00122$
                                    441 ;	Raw cost for generated ic 96 : (8, 9.600000) count=0.999888
                                    442 ;	genAssign
                                    443 ;	genCopy
      00011C A2 80            [ 2]  444 	ldx	#0x80
                                    445 ;	Raw cost for generated ic 97 : (2, 2.000000) count=0.749899
                                    446 ;	genGoto
      00011E 4Cr23r01         [ 3]  447 	jmp	00123$
                                    448 ;	Raw cost for generated ic 98 : (3, 3.000000) count=0.749899
                                    449 ;	genLabel
      000121                        450 00122$:
                                    451 ;	Raw cost for generated ic 99 : (0, 0.000000) count=0.249960
                                    452 ;	genAssign
                                    453 ;	genCopy
      000121 A2 00            [ 2]  454 	ldx	#0x00
                                    455 ;	Raw cost for generated ic 100 : (2, 2.000000) count=0.249960
                                    456 ;	genLabel
      000123                        457 00123$:
                                    458 ;	Raw cost for generated ic 101 : (0, 0.000000) count=0.999859
                                    459 ;	genCast
                                    460 ;	genCopy
                                    461 ;	Raw cost for generated ic 102 : (0, 0.000000) count=0.999859
                                    462 ;	_srslonglong.c: 27: for(i=7-zb;i>=0;i--) {
                                    463 ;	genMinus
                                    464 ;	  genMinusDec - size=1  icount=1
      000123 C6*00            [ 5]  465 	dec	*__srslonglong_sloc0_1_0
                                    466 ;	Raw cost for generated ic 106 : (2, 5.000000) count=0.999859
                                    467 ;	genGoto
      000125 4CrDFr00         [ 3]  468 	jmp	00116$
                                    469 ;	Raw cost for generated ic 108 : (3, 3.000000) count=0.999859
                                    470 ;	genLabel
      000128                        471 00108$:
                                    472 ;	Raw cost for generated ic 111 : (0, 0.000000) count=0.999924
                                    473 ;	_srslonglong.c: 34: return(l);
                                    474 ;	genRet
      000128 ADr07r00         [ 4]  475 	lda	(__srslonglong_PARM_1 + 7)
      00012B 85*00            [ 3]  476 	sta	*___SDCC_m6502_ret7
      00012D ADr06r00         [ 4]  477 	lda	(__srslonglong_PARM_1 + 6)
      000130 85*00            [ 3]  478 	sta	*___SDCC_m6502_ret6
      000132 ADr05r00         [ 4]  479 	lda	(__srslonglong_PARM_1 + 5)
      000135 85*00            [ 3]  480 	sta	*___SDCC_m6502_ret5
      000137 ADr04r00         [ 4]  481 	lda	(__srslonglong_PARM_1 + 4)
      00013A 85*00            [ 3]  482 	sta	*___SDCC_m6502_ret4
      00013C ADr03r00         [ 4]  483 	lda	(__srslonglong_PARM_1 + 3)
      00013F 85*00            [ 3]  484 	sta	*___SDCC_m6502_ret3
      000141 ADr02r00         [ 4]  485 	lda	(__srslonglong_PARM_1 + 2)
      000144 85*00            [ 3]  486 	sta	*___SDCC_m6502_ret2
      000146 AEr01r00         [ 4]  487 	ldx	(__srslonglong_PARM_1 + 1)
      000149 ADr00r00         [ 4]  488 	lda	__srslonglong_PARM_1
                                    489 ;	Raw cost for generated ic 112 : (36, 50.000000) count=0.999924
                                    490 ;	genLabel
                                    491 ;	Raw cost for generated ic 113 : (0, 0.000000) count=0.999924
                                    492 ;	_srslonglong.c: 35: }
                                    493 ;	genEndFunction
      00014C 60               [ 6]  494 	rts
                                    495 ;	Raw cost for generated ic 114 : (1, 6.000000) count=0.999924
                                    496 	.area CODE
                                    497 	.area RODATA
                                    498 	.area XINIT
                                    499 	.area CABS    (ABS)
