                                      1 ;--------------------------------------------------------
                                      2 ; File Created by SDCC : free open source ISO C Compiler
                                      3 ; Version 4.5.10 #15691 (Linux)
                                      4 ;--------------------------------------------------------
                                      5 	.module _srulonglong
                                      6 	
                                      7 	.optsdcc -mmos6502
                                      8 
                                      9 ;--------------------------------------------------------
                                     10 ;  Ordering of segments for the linker.
                                     11 ;--------------------------------------------------------
                                     12 	.area ZP      (PAG)
                                     13 	.area OSEG    (PAG, OVR)
                                     14 	.area _CODE
                                     15 	.area GSINIT
                                     16 	.area GSFINAL
                                     17 	.area CODE
                                     18 	.area RODATA
                                     19 	.area XINIT
                                     20 	.area _DATA
                                     21 	.area DATA
                                     22 	.area BSS
                                     23 ;--------------------------------------------------------
                                     24 ; Public variables in this module
                                     25 ;--------------------------------------------------------
                                     26 	.globl __srulonglong_PARM_2
                                     27 	.globl __srulonglong_PARM_1
                                     28 	.globl __srulonglong
                                     29 ;--------------------------------------------------------
                                     30 ; ZP ram data
                                     31 ;--------------------------------------------------------
                                     32 	.area ZP      (PAG)
                                     33 ;--------------------------------------------------------
                                     34 ; overlayable items in ram
                                     35 ;--------------------------------------------------------
                                     36 	.area	OSEG    (PAG, OVR)
      000000                         37 __srulonglong_sloc0_1_0:
      000000                         38 	.ds 1
      000001                         39 __srulonglong_sloc1_1_0:
      000001                         40 	.ds 2
      000003                         41 __srulonglong_sloc2_1_0:
      000003                         42 	.ds 2
      000005                         43 __srulonglong_sloc3_1_0:
      000005                         44 	.ds 2
                                     45 ;--------------------------------------------------------
                                     46 ; uninitialized external ram data
                                     47 ;--------------------------------------------------------
                                     48 	.area BSS
      000000                         49 __srulonglong_PARM_1:
      000000                         50 	.ds 8
      000008                         51 __srulonglong_PARM_2:
      000008                         52 	.ds 1
      000009                         53 __srulonglong_t1_10000_2:
      000009                         54 	.ds 1
      00000A                         55 __srulonglong_zb_10000_2:
      00000A                         56 	.ds 1
                                     57 ;--------------------------------------------------------
                                     58 ; absolute external ram data
                                     59 ;--------------------------------------------------------
                                     60 	.area DABS    (ABS)
                                     61 ;--------------------------------------------------------
                                     62 ; initialized external ram data
                                     63 ;--------------------------------------------------------
                                     64 	.area DATA
                                     65 ;--------------------------------------------------------
                                     66 ; global & static initialisations
                                     67 ;--------------------------------------------------------
                                     68 	.area _CODE
                                     69 	.area GSINIT
                                     70 	.area GSFINAL
                                     71 	.area GSINIT
                                     72 ;--------------------------------------------------------
                                     73 ; Home
                                     74 ;--------------------------------------------------------
                                     75 	.area _CODE
                                     76 	.area _CODE
                                     77 ;--------------------------------------------------------
                                     78 ; code
                                     79 ;--------------------------------------------------------
                                     80 	.area CODE
                                     81 ;------------------------------------------------------------
                                     82 ;Allocation info for local variables in function '_srulonglong'
                                     83 ;------------------------------------------------------------
                                     84 ;l             Allocated with name '__srulonglong_PARM_1'
                                     85 ;s             Allocated with name '__srulonglong_PARM_2'
                                     86 ;b             Allocated to registers 
                                     87 ;shift         Allocated to registers 
                                     88 ;t1            Allocated with name '__srulonglong_t1_10000_2'
                                     89 ;t2            Allocated to registers x 
                                     90 ;zb            Allocated with name '__srulonglong_zb_10000_2'
                                     91 ;i             Allocated to registers 
                                     92 ;sloc0         Allocated with name '__srulonglong_sloc0_1_0'
                                     93 ;sloc1         Allocated with name '__srulonglong_sloc1_1_0'
                                     94 ;sloc2         Allocated with name '__srulonglong_sloc2_1_0'
                                     95 ;sloc3         Allocated with name '__srulonglong_sloc3_1_0'
                                     96 ;------------------------------------------------------------
                                     97 ;	_srulonglong.c: 5: unsigned long long _srulonglong(unsigned long long l, char s)
                                     98 ;	genLabel
                                     99 ;	Raw cost for generated ic 0 : (0, 0.000000) count=1.000000
                                    100 ;	-----------------------------------------
                                    101 ;	 function _srulonglong
                                    102 ;	-----------------------------------------
                                    103 ;	Register assignment is optimal.
                                    104 ;	Stack space usage: 0 bytes.
      000000                        105 __srulonglong:
                                    106 ;	Raw cost for generated ic 1 : (0, 0.000000) count=1.000000
                                    107 ;	_srulonglong.c: 7: uint8_t *const b = (uint8_t *)(&l);
                                    108 ;	skipping iCode since result will be rematerialized
                                    109 ;	Raw cost for generated ic 2 : (0, 0.000000) count=1.000000
                                    110 ;	skipping iCode since result will be rematerialized
                                    111 ;	Raw cost for generated ic 4 : (0, 0.000000) count=1.000000
                                    112 ;	_srulonglong.c: 11: zb=s>>3;
                                    113 ;	genRightShift
                                    114 ;	genRightShiftLiteral
                                    115 ;	  genrsh8 - shift=3
      000000 ADr08r00         [ 4]  116 	lda	__srulonglong_PARM_2
      000003 4A               [ 2]  117 	lsr	a
      000004 4A               [ 2]  118 	lsr	a
      000005 4A               [ 2]  119 	lsr	a
      000006 8Dr0Ar00         [ 4]  120 	sta	__srulonglong_zb_10000_2
                                    121 ;	Raw cost for generated ic 6 : (9, 14.000000) count=1.000000
                                    122 ;	_srulonglong.c: 12: if(zb) {
                                    123 ;	genIfx
                                    124 ;	genIfxJump : z
      000009 D0 03            [ 4]  125 	bne	00186$
      00000B 4CrA6r00         [ 3]  126 	jmp	00104$
      00000E                        127 00186$:
                                    128 ;	Raw cost for generated ic 8 : (5, 5.600000) count=1.000000
                                    129 ;	_srulonglong.c: 13: for(i=0;i<(8-zb);i++) {
                                    130 ;	genAssign
                                    131 ;	genAssignLit
      00000E A0 00            [ 2]  132 	ldy	#0x00
      000010 84*00            [ 3]  133 	sty	*__srulonglong_sloc0_1_0
                                    134 ;	Raw cost for generated ic 108 : (4, 5.000000) count=0.750000
                                    135 ;	genLabel
      000012                        136 00110$:
                                    137 ;	Raw cost for generated ic 12 : (0, 0.000000) count=2.999995
                                    138 ;	genCast
      000012 ADr0Ar00         [ 4]  139 	lda	__srulonglong_zb_10000_2
      000015 85*01            [ 3]  140 	sta	*__srulonglong_sloc1_1_0
      000017 0A               [ 2]  141 	asl	a
      000018 A9 00            [ 2]  142 	lda	#0x00
      00001A 69 FF            [ 2]  143 	adc	#0xff
      00001C 49 FF            [ 2]  144 	eor	#0xff
      00001E 85*02            [ 3]  145 	sta	*(__srulonglong_sloc1_1_0 + 1)
                                    146 ;	Raw cost for generated ic 13 : (14, 18.000000) count=2.999995
                                    147 ;	genMinus
      000020 A9 08            [ 2]  148 	lda	#0x08
      000022 38               [ 2]  149 	sec
      000023 E5*01            [ 3]  150 	sbc	*__srulonglong_sloc1_1_0
      000025 85*03            [ 3]  151 	sta	*__srulonglong_sloc2_1_0
      000027 A9 00            [ 2]  152 	lda	#0x00
      000029 E5*02            [ 3]  153 	sbc	*(__srulonglong_sloc1_1_0 + 1)
      00002B 85*04            [ 3]  154 	sta	*(__srulonglong_sloc2_1_0 + 1)
                                    155 ;	Raw cost for generated ic 14 : (13, 18.000000) count=2.999995
                                    156 ;	genCast
                                    157 ;	genCopy
      00002D A2 00            [ 2]  158 	ldx	#0x00
      00002F A5*00            [ 3]  159 	lda	*__srulonglong_sloc0_1_0
      000031 10 01            [ 4]  160 	bpl	00187$
      000033 CA               [ 2]  161 	dex
      000034                        162 00187$:
                                    163 ;	Raw cost for generated ic 15 : (7, 9.600000) count=2.999995
                                    164 ;	genCmp
      000034 85*00            [ 3]  165 	sta	*(REGTEMP+0)
      000036 38               [ 2]  166 	sec
      000037 E5*03            [ 3]  167 	sbc	*__srulonglong_sloc2_1_0
      000039 8A               [ 2]  168 	txa
      00003A E5*04            [ 3]  169 	sbc	*(__srulonglong_sloc2_1_0 + 1)
      00003C 08               [ 3]  170 	php
      00003D A5*00            [ 3]  171 	lda	*(REGTEMP+0)
      00003F 28               [ 4]  172 	plp
      000040 50 04            [ 4]  173 	bvc	00189$
      000042 10 04            [ 4]  174 	bpl	00188$
      000044 30 35            [ 4]  175 	bmi	00126$
      000046                        176 00189$:
      000046 10 33            [ 4]  177 	bpl	00126$
      000048                        178 00188$:
                                    179 ;	Raw cost for generated ic 16 : (23, 36.400002) count=2.999995
                                    180 ;	skipping generated iCode
                                    181 ;	Raw cost for generated ic 17 : (0, 0.000000) count=2.999995
                                    182 ;	_srulonglong.c: 14: b[i]=b[zb+i];
                                    183 ;	genAssign
                                    184 ;	genCopy
      000048 85*03            [ 3]  185 	sta	*__srulonglong_sloc2_1_0
      00004A 86*04            [ 3]  186 	stx	*(__srulonglong_sloc2_1_0 + 1)
                                    187 ;	Raw cost for generated ic 21 : (4, 6.000000) count=2.249995
                                    188 ;	genPlus
      00004C 18               [ 2]  189 	clc
      00004D 65*01            [ 3]  190 	adc	*__srulonglong_sloc1_1_0
      00004F 48               [ 3]  191 	pha
      000050 8A               [ 2]  192 	txa
      000051 65*02            [ 3]  193 	adc	*(__srulonglong_sloc1_1_0 + 1)
      000053 AA               [ 2]  194 	tax
      000054 68               [ 4]  195 	pla
                                    196 ;	Raw cost for generated ic 24 : (9, 19.000000) count=2.249995
                                    197 ;	genAssign
                                    198 ;	genCopy
                                    199 ;	Raw cost for generated ic 25 : (0, 0.000000) count=2.249995
                                    200 ;	genPointerGet
                                    201 ;	  setupDPTR - off=0 remat=__srulonglong_PARM_1 savea=0
      000055 18               [ 2]  202 	clc
      000056 69r00            [ 2]  203 	adc	#<(__srulonglong_PARM_1+0)
      000058 85*00            [ 3]  204 	sta	*(DPTR+0)
      00005A 8A               [ 2]  205 	txa
      00005B 69s00            [ 2]  206 	adc	#>(__srulonglong_PARM_1+0)
      00005D 85*01            [ 3]  207 	sta	*(DPTR+1)
      00005F A0 00            [ 2]  208 	ldy	#0x00
      000061 B1*00            [ 6]  209 	lda	[DPTR],y
                                    210 ;	Raw cost for generated ic 26 : (14, 21.000000) count=2.249995
                                    211 ;	genPointerSet
      000063 85*00            [ 3]  212 	sta	*(REGTEMP+0)
                                    213 ;	  setupDPTR - off=0 remat=__srulonglong_PARM_1 savea=0
      000065 18               [ 2]  214 	clc
      000066 A5*03            [ 3]  215 	lda	*__srulonglong_sloc2_1_0
      000068 69r00            [ 2]  216 	adc	#<(__srulonglong_PARM_1+0)
      00006A 85*00            [ 3]  217 	sta	*(DPTR+0)
      00006C A5*04            [ 3]  218 	lda	*(__srulonglong_sloc2_1_0 + 1)
      00006E 69s00            [ 2]  219 	adc	#>(__srulonglong_PARM_1+0)
      000070 85*01            [ 3]  220 	sta	*(DPTR+1)
      000072 A5*00            [ 3]  221 	lda	*(REGTEMP+0)
      000074 91*00            [ 6]  222 	sta	[DPTR],y
                                    223 ;	Raw cost for generated ic 27 : (19, 30.000000) count=2.249995
                                    224 ;	_srulonglong.c: 13: for(i=0;i<(8-zb);i++) {
                                    225 ;	genPlus
                                    226 ;	  genPlusInc
      000076 E6*00            [ 5]  227 	inc	*__srulonglong_sloc0_1_0
                                    228 ;	Raw cost for generated ic 30 : (2, 5.000000) count=2.249995
                                    229 ;	genGoto
      000078 4Cr12r00         [ 3]  230 	jmp	00110$
                                    231 ;	Raw cost for generated ic 32 : (3, 3.000000) count=2.249995
                                    232 ;	genLabel
      00007B                        233 00126$:
                                    234 ;	Raw cost for generated ic 103 : (0, 0.000000) count=0.749999
                                    235 ;	genAssign
                                    236 ;	genCopy
      00007B A4*00            [ 3]  237 	ldy	*__srulonglong_sloc0_1_0
                                    238 ;	Raw cost for generated ic 111 : (2, 3.000000) count=0.749999
                                    239 ;	genLabel
      00007D                        240 00113$:
                                    241 ;	Raw cost for generated ic 34 : (0, 0.000000) count=2.999988
                                    242 ;	_srulonglong.c: 17: for(;i<8;i++)
                                    243 ;	genCmp
      00007D 98               [ 2]  244 	tya
      00007E 38               [ 2]  245 	sec
      00007F E9 08            [ 2]  246 	sbc	#0x08
      000081 50 04            [ 4]  247 	bvc	00192$
      000083 10 04            [ 4]  248 	bpl	00191$
      000085 30 1F            [ 4]  249 	bmi	00104$
      000087                        250 00192$:
      000087 10 1D            [ 4]  251 	bpl	00104$
      000089                        252 00191$:
                                    253 ;	Raw cost for generated ic 35 : (15, 19.400002) count=2.999988
                                    254 ;	skipping generated iCode
                                    255 ;	Raw cost for generated ic 36 : (0, 0.000000) count=2.999988
                                    256 ;	_srulonglong.c: 18: b[i]=0;
                                    257 ;	genCast
                                    258 ;	genCopy
      000089 A2 00            [ 2]  259 	ldx	#0x00
      00008B 98               [ 2]  260 	tya
      00008C 10 01            [ 4]  261 	bpl	00194$
      00008E CA               [ 2]  262 	dex
      00008F                        263 00194$:
                                    264 ;	Raw cost for generated ic 39 : (6, 8.600000) count=2.249989
                                    265 ;	genAssign
                                    266 ;	genCopy
                                    267 ;	Raw cost for generated ic 40 : (0, 0.000000) count=2.249989
                                    268 ;	genPointerSet
      00008F 84*00            [ 3]  269 	sty	*(REGTEMP+0)
                                    270 ;	  setupDPTR - off=0 remat=__srulonglong_PARM_1 savea=0
      000091 18               [ 2]  271 	clc
      000092 69r00            [ 2]  272 	adc	#<(__srulonglong_PARM_1+0)
      000094 85*00            [ 3]  273 	sta	*(DPTR+0)
      000096 8A               [ 2]  274 	txa
      000097 69s00            [ 2]  275 	adc	#>(__srulonglong_PARM_1+0)
      000099 85*01            [ 3]  276 	sta	*(DPTR+1)
      00009B A9 00            [ 2]  277 	lda	#0x00
      00009D A8               [ 2]  278 	tay
      00009E 91*00            [ 6]  279 	sta	[DPTR],y
      0000A0 A4*00            [ 3]  280 	ldy	*(REGTEMP+0)
                                    281 ;	Raw cost for generated ic 41 : (19, 30.000000) count=2.249989
                                    282 ;	_srulonglong.c: 17: for(;i<8;i++)
                                    283 ;	genPlus
                                    284 ;	  genPlusInc
      0000A2 C8               [ 2]  285 	iny
                                    286 ;	Raw cost for generated ic 44 : (1, 2.000000) count=2.249989
                                    287 ;	genGoto
      0000A3 4Cr7Dr00         [ 3]  288 	jmp	00113$
                                    289 ;	Raw cost for generated ic 46 : (3, 3.000000) count=2.249989
                                    290 ;	genLabel
      0000A6                        291 00104$:
                                    292 ;	Raw cost for generated ic 48 : (0, 0.000000) count=0.999997
                                    293 ;	_srulonglong.c: 21: shift=s&0x7;
                                    294 ;	genAnd
      0000A6 ADr08r00         [ 4]  295 	lda	__srulonglong_PARM_2
      0000A9 29 07            [ 2]  296 	and	#0x07
      0000AB 85*03            [ 3]  297 	sta	*__srulonglong_sloc2_1_0
                                    298 ;	Raw cost for generated ic 50 : (7, 9.000000) count=0.999997
                                    299 ;	_srulonglong.c: 22: while(shift--) {
                                    300 ;	genMinus
      0000AD A9 07            [ 2]  301 	lda	#0x07
      0000AF 38               [ 2]  302 	sec
      0000B0 EDr0Ar00         [ 4]  303 	sbc	__srulonglong_zb_10000_2
      0000B3 85*01            [ 3]  304 	sta	*__srulonglong_sloc1_1_0
                                    305 ;	Raw cost for generated ic 61 : (8, 11.000000) count=0.999997
                                    306 ;	genLabel
      0000B5                        307 00106$:
                                    308 ;	Raw cost for generated ic 53 : (0, 0.000000) count=3.999825
                                    309 ;	genAssign
                                    310 ;	genCopy
      0000B5 A5*03            [ 3]  311 	lda	*__srulonglong_sloc2_1_0
                                    312 ;	Raw cost for generated ic 54 : (2, 3.000000) count=3.999825
                                    313 ;	genMinus
                                    314 ;	  genMinusDec - size=1  icount=1
      0000B7 C6*03            [ 5]  315 	dec	*__srulonglong_sloc2_1_0
                                    316 ;	Raw cost for generated ic 55 : (2, 5.000000) count=3.999825
                                    317 ;	genIfx
      0000B9 C9 00            [ 2]  318 	cmp	#0x00
                                    319 ;	genIfxJump : z
      0000BB F0 4F            [ 4]  320 	beq	00108$
                                    321 ;	Raw cost for generated ic 57 : (7, 7.600000) count=3.999825
                                    322 ;	_srulonglong.c: 23: t2=0;
                                    323 ;	genAssign
                                    324 ;	genCopy
      0000BD A2 00            [ 2]  325 	ldx	#0x00
                                    326 ;	Raw cost for generated ic 60 : (2, 2.000000) count=2.999869
                                    327 ;	_srulonglong.c: 24: for(i=7-zb;i>=0;i--) {
                                    328 ;	genAssign
                                    329 ;	genCopy
      0000BF A5*01            [ 3]  330 	lda	*__srulonglong_sloc1_1_0
      0000C1 85*00            [ 3]  331 	sta	*__srulonglong_sloc0_1_0
                                    332 ;	Raw cost for generated ic 62 : (4, 6.000000) count=2.999869
                                    333 ;	genLabel
      0000C3                        334 00116$:
                                    335 ;	Raw cost for generated ic 63 : (0, 0.000000) count=3.999788
                                    336 ;	genCmp
      0000C3 24*00            [ 3]  337 	bit	*__srulonglong_sloc0_1_0
      0000C5 30 EE            [ 4]  338 	bmi	00106$
                                    339 ;	Raw cost for generated ic 64 : (7, 8.600000) count=3.999788
                                    340 ;	skipping generated iCode
                                    341 ;	Raw cost for generated ic 65 : (0, 0.000000) count=3.999788
                                    342 ;	_srulonglong.c: 25: t1=b[i]&1;
                                    343 ;	genCast
                                    344 ;	genCopy
      0000C7 A5*00            [ 3]  345 	lda	*__srulonglong_sloc0_1_0
                                    346 ;	Raw cost for generated ic 68 : (2, 3.000000) count=0.999936
                                    347 ;	genAssign
                                    348 ;	genCopy
      0000C9 A0 00            [ 2]  349 	ldy	#0x00
      0000CB 84*06            [ 3]  350 	sty	*(__srulonglong_sloc3_1_0 + 1)
      0000CD 85*05            [ 3]  351 	sta	*__srulonglong_sloc3_1_0
                                    352 ;	Raw cost for generated ic 69 : (6, 8.000000) count=0.999936
                                    353 ;	genPointerGet
                                    354 ;	  setupDPTR - off=0 remat=__srulonglong_PARM_1 savea=0
      0000CF 18               [ 2]  355 	clc
      0000D0 69r00            [ 2]  356 	adc	#<(__srulonglong_PARM_1+0)
      0000D2 85*00            [ 3]  357 	sta	*(DPTR+0)
      0000D4 A5*06            [ 3]  358 	lda	*(__srulonglong_sloc3_1_0 + 1)
      0000D6 69s00            [ 2]  359 	adc	#>(__srulonglong_PARM_1+0)
      0000D8 85*01            [ 3]  360 	sta	*(DPTR+1)
      0000DA B1*00            [ 6]  361 	lda	[DPTR],y
                                    362 ;	Raw cost for generated ic 70 : (14, 22.000000) count=0.999936
                                    363 ;	genAnd
      0000DC A8               [ 2]  364 	tay
      0000DD 29 01            [ 2]  365 	and	#0x01
      0000DF 8Dr09r00         [ 4]  366 	sta	__srulonglong_t1_10000_2
                                    367 ;	Raw cost for generated ic 72 : (6, 8.000000) count=0.999936
                                    368 ;	_srulonglong.c: 26: b[i]=(b[i]>>1)|t2;
                                    369 ;	genRightShift
                                    370 ;	genRightShiftLiteral
                                    371 ;	  genrsh8 - shift=1
      0000E2 98               [ 2]  372 	tya
      0000E3 4A               [ 2]  373 	lsr	a
                                    374 ;	Raw cost for generated ic 80 : (2, 4.000000) count=0.999936
                                    375 ;	genOr
      0000E4 86*00            [ 3]  376 	stx	*(REGTEMP+0)
      0000E6 05*00            [ 3]  377 	ora	*(REGTEMP+0)
      0000E8 AA               [ 2]  378 	tax
                                    379 ;	Raw cost for generated ic 81 : (5, 8.000000) count=0.999936
                                    380 ;	genPointerSet
                                    381 ;	  setupDPTR - off=0 remat=__srulonglong_PARM_1 savea=0
      0000E9 18               [ 2]  382 	clc
      0000EA A5*05            [ 3]  383 	lda	*__srulonglong_sloc3_1_0
      0000EC 69r00            [ 2]  384 	adc	#<(__srulonglong_PARM_1+0)
      0000EE 85*00            [ 3]  385 	sta	*(DPTR+0)
      0000F0 A5*06            [ 3]  386 	lda	*(__srulonglong_sloc3_1_0 + 1)
      0000F2 69s00            [ 2]  387 	adc	#>(__srulonglong_PARM_1+0)
      0000F4 85*01            [ 3]  388 	sta	*(DPTR+1)
      0000F6 8A               [ 2]  389 	txa
      0000F7 A0 00            [ 2]  390 	ldy	#0x00
      0000F9 91*00            [ 6]  391 	sta	[DPTR],y
                                    392 ;	Raw cost for generated ic 82 : (18, 28.000000) count=0.999936
                                    393 ;	_srulonglong.c: 27: t2=t1?0x80:0;
                                    394 ;	genIfx
      0000FB ADr09r00         [ 4]  395 	lda	__srulonglong_t1_10000_2
                                    396 ;	genIfxJump : z
      0000FE F0 05            [ 4]  397 	beq	00120$
                                    398 ;	Raw cost for generated ic 83 : (8, 9.600000) count=0.999936
                                    399 ;	genAssign
                                    400 ;	genCopy
      000100 A2 80            [ 2]  401 	ldx	#0x80
                                    402 ;	Raw cost for generated ic 84 : (2, 2.000000) count=0.749942
                                    403 ;	genGoto
      000102 4Cr07r01         [ 3]  404 	jmp	00121$
                                    405 ;	Raw cost for generated ic 85 : (3, 3.000000) count=0.749942
                                    406 ;	genLabel
      000105                        407 00120$:
                                    408 ;	Raw cost for generated ic 86 : (0, 0.000000) count=0.249977
                                    409 ;	genAssign
                                    410 ;	genCopy
      000105 A2 00            [ 2]  411 	ldx	#0x00
                                    412 ;	Raw cost for generated ic 87 : (2, 2.000000) count=0.249977
                                    413 ;	genLabel
      000107                        414 00121$:
                                    415 ;	Raw cost for generated ic 88 : (0, 0.000000) count=0.999919
                                    416 ;	genCast
                                    417 ;	genCopy
                                    418 ;	Raw cost for generated ic 89 : (0, 0.000000) count=0.999919
                                    419 ;	_srulonglong.c: 24: for(i=7-zb;i>=0;i--) {
                                    420 ;	genMinus
                                    421 ;	  genMinusDec - size=1  icount=1
      000107 C6*00            [ 5]  422 	dec	*__srulonglong_sloc0_1_0
                                    423 ;	Raw cost for generated ic 93 : (2, 5.000000) count=0.999919
                                    424 ;	genGoto
      000109 4CrC3r00         [ 3]  425 	jmp	00116$
                                    426 ;	Raw cost for generated ic 95 : (3, 3.000000) count=0.999919
                                    427 ;	genLabel
      00010C                        428 00108$:
                                    429 ;	Raw cost for generated ic 98 : (0, 0.000000) count=0.999951
                                    430 ;	_srulonglong.c: 31: return(l);
                                    431 ;	genRet
      00010C ADr07r00         [ 4]  432 	lda	(__srulonglong_PARM_1 + 7)
      00010F 85*00            [ 3]  433 	sta	*___SDCC_m6502_ret7
      000111 ADr06r00         [ 4]  434 	lda	(__srulonglong_PARM_1 + 6)
      000114 85*00            [ 3]  435 	sta	*___SDCC_m6502_ret6
      000116 ADr05r00         [ 4]  436 	lda	(__srulonglong_PARM_1 + 5)
      000119 85*00            [ 3]  437 	sta	*___SDCC_m6502_ret5
      00011B ADr04r00         [ 4]  438 	lda	(__srulonglong_PARM_1 + 4)
      00011E 85*00            [ 3]  439 	sta	*___SDCC_m6502_ret4
      000120 ADr03r00         [ 4]  440 	lda	(__srulonglong_PARM_1 + 3)
      000123 85*00            [ 3]  441 	sta	*___SDCC_m6502_ret3
      000125 ADr02r00         [ 4]  442 	lda	(__srulonglong_PARM_1 + 2)
      000128 85*00            [ 3]  443 	sta	*___SDCC_m6502_ret2
      00012A AEr01r00         [ 4]  444 	ldx	(__srulonglong_PARM_1 + 1)
      00012D ADr00r00         [ 4]  445 	lda	__srulonglong_PARM_1
                                    446 ;	Raw cost for generated ic 99 : (36, 50.000000) count=0.999951
                                    447 ;	genLabel
                                    448 ;	Raw cost for generated ic 100 : (0, 0.000000) count=0.999951
                                    449 ;	_srulonglong.c: 32: }
                                    450 ;	genEndFunction
      000130 60               [ 6]  451 	rts
                                    452 ;	Raw cost for generated ic 101 : (1, 6.000000) count=0.999951
                                    453 	.area CODE
                                    454 	.area RODATA
                                    455 	.area XINIT
                                    456 	.area CABS    (ABS)
