                                      1 ;--------------------------------------------------------
                                      2 ; File Created by SDCC : free open source ISO C Compiler
                                      3 ; Version 4.5.10 #15691 (Linux)
                                      4 ;--------------------------------------------------------
                                      5 	.module _ulonglong2fs
                                      6 	
                                      7 	.optsdcc -mmos6502
                                      8 
                                      9 ;--------------------------------------------------------
                                     10 ;  Ordering of segments for the linker.
                                     11 ;--------------------------------------------------------
                                     12 	.area ZP      (PAG)
                                     13 	.area OSEG    (PAG, OVR)
                                     14 	.area _CODE
                                     15 	.area GSINIT
                                     16 	.area GSFINAL
                                     17 	.area CODE
                                     18 	.area RODATA
                                     19 	.area XINIT
                                     20 	.area _DATA
                                     21 	.area DATA
                                     22 	.area BSS
                                     23 ;--------------------------------------------------------
                                     24 ; Public variables in this module
                                     25 ;--------------------------------------------------------
                                     26 	.globl ___ulonglong2fs_PARM_1
                                     27 	.globl ___ulonglong2fs
                                     28 ;--------------------------------------------------------
                                     29 ; ZP ram data
                                     30 ;--------------------------------------------------------
                                     31 	.area ZP      (PAG)
      000000                         32 ___ulonglong2fs_sloc0_1_0:
      000000                         33 	.ds 4
      000004                         34 ___ulonglong2fs_sloc1_1_0:
      000004                         35 	.ds 4
                                     36 ;--------------------------------------------------------
                                     37 ; overlayable items in ram
                                     38 ;--------------------------------------------------------
                                     39 ;--------------------------------------------------------
                                     40 ; uninitialized external ram data
                                     41 ;--------------------------------------------------------
                                     42 	.area BSS
      000000                         43 ___ulonglong2fs_PARM_1:
      000000                         44 	.ds 8
      000008                         45 ___ulonglong2fs_fl_10000_21:
      000008                         46 	.ds 4
                                     47 ;--------------------------------------------------------
                                     48 ; absolute external ram data
                                     49 ;--------------------------------------------------------
                                     50 	.area DABS    (ABS)
                                     51 ;--------------------------------------------------------
                                     52 ; initialized external ram data
                                     53 ;--------------------------------------------------------
                                     54 	.area DATA
                                     55 ;--------------------------------------------------------
                                     56 ; global & static initialisations
                                     57 ;--------------------------------------------------------
                                     58 	.area _CODE
                                     59 	.area GSINIT
                                     60 	.area GSFINAL
                                     61 	.area GSINIT
                                     62 ;--------------------------------------------------------
                                     63 ; Home
                                     64 ;--------------------------------------------------------
                                     65 	.area _CODE
                                     66 	.area _CODE
                                     67 ;--------------------------------------------------------
                                     68 ; code
                                     69 ;--------------------------------------------------------
                                     70 	.area CODE
                                     71 ;------------------------------------------------------------
                                     72 ;Allocation info for local variables in function '__ulonglong2fs'
                                     73 ;------------------------------------------------------------
                                     74 ;sloc0         Allocated with name '___ulonglong2fs_sloc0_1_0'
                                     75 ;sloc1         Allocated with name '___ulonglong2fs_sloc1_1_0'
                                     76 ;a             Allocated with name '___ulonglong2fs_PARM_1'
                                     77 ;exp           Allocated to registers 
                                     78 ;fl            Allocated with name '___ulonglong2fs_fl_10000_21'
                                     79 ;------------------------------------------------------------
                                     80 ;	../_ulonglong2fs.c: 61: float __ulonglong2fs (unsigned long long a ) __SDCC_FLOAT_NONBANKED
                                     81 ;	genLabel
                                     82 ;	Raw cost for generated ic 0 : (0, 0.000000) count=1.000000
                                     83 ;	-----------------------------------------
                                     84 ;	 function __ulonglong2fs
                                     85 ;	-----------------------------------------
                                     86 ;	Register assignment is optimal.
                                     87 ;	Stack space usage: 0 bytes.
      000000                         88 ___ulonglong2fs:
                                     89 ;	Raw cost for generated ic 1 : (0, 0.000000) count=1.000000
                                     90 ;	../_ulonglong2fs.c: 66: if (!a)
                                     91 ;	genIfx
      000000 ADr07r00         [ 4]   92 	lda	(___ulonglong2fs_PARM_1 + 7)
      000003 0Dr06r00         [ 4]   93 	ora	(___ulonglong2fs_PARM_1 + 6)
      000006 0Dr05r00         [ 4]   94 	ora	(___ulonglong2fs_PARM_1 + 5)
      000009 0Dr04r00         [ 4]   95 	ora	(___ulonglong2fs_PARM_1 + 4)
      00000C 0Dr03r00         [ 4]   96 	ora	(___ulonglong2fs_PARM_1 + 3)
      00000F 0Dr02r00         [ 4]   97 	ora	(___ulonglong2fs_PARM_1 + 2)
      000012 0Dr01r00         [ 4]   98 	ora	(___ulonglong2fs_PARM_1 + 1)
      000015 0Dr00r00         [ 4]   99 	ora	___ulonglong2fs_PARM_1
                                    100 ;	genIfxJump : z
      000018 D0 08            [ 4]  101 	bne	00102$
                                    102 ;	Raw cost for generated ic 3 : (29, 37.599998) count=1.000000
                                    103 ;	../_ulonglong2fs.c: 68: return 0.0;
                                    104 ;	genRet
      00001A A9 00            [ 2]  105 	lda	#0x00
      00001C AA               [ 2]  106 	tax
      00001D 85*00            [ 3]  107 	sta	*___SDCC_m6502_ret2
      00001F 85*00            [ 3]  108 	sta	*___SDCC_m6502_ret3
      000021 60               [ 6]  109 	rts
                                    110 ;	Raw cost for generated ic 6 : (10, 13.000000) count=0.750000
                                    111 ;	genLabel
      000022                        112 00102$:
                                    113 ;	Raw cost for generated ic 7 : (0, 0.000000) count=1.000000
                                    114 ;	../_ulonglong2fs.c: 71: if (a == 0xffffffffffffffffull)
                                    115 ;	genCmpEQorNE
      000022 ADr00r00         [ 4]  116 	lda	___ulonglong2fs_PARM_1
      000025 C9 FF            [ 2]  117 	cmp	#0xff
      000027 D0 3D            [ 4]  118 	bne	00118$
      000029 ADr01r00         [ 4]  119 	lda	(___ulonglong2fs_PARM_1 + 1)
      00002C C9 FF            [ 2]  120 	cmp	#0xff
      00002E D0 36            [ 4]  121 	bne	00118$
      000030 ADr02r00         [ 4]  122 	lda	(___ulonglong2fs_PARM_1 + 2)
      000033 C9 FF            [ 2]  123 	cmp	#0xff
      000035 D0 2F            [ 4]  124 	bne	00118$
      000037 ADr03r00         [ 4]  125 	lda	(___ulonglong2fs_PARM_1 + 3)
      00003A C9 FF            [ 2]  126 	cmp	#0xff
      00003C D0 28            [ 4]  127 	bne	00118$
      00003E ADr04r00         [ 4]  128 	lda	(___ulonglong2fs_PARM_1 + 4)
      000041 C9 FF            [ 2]  129 	cmp	#0xff
      000043 D0 21            [ 4]  130 	bne	00118$
      000045 ADr05r00         [ 4]  131 	lda	(___ulonglong2fs_PARM_1 + 5)
      000048 C9 FF            [ 2]  132 	cmp	#0xff
      00004A D0 1A            [ 4]  133 	bne	00118$
      00004C ADr06r00         [ 4]  134 	lda	(___ulonglong2fs_PARM_1 + 6)
      00004F C9 FF            [ 2]  135 	cmp	#0xff
      000051 D0 13            [ 4]  136 	bne	00118$
      000053 ADr07r00         [ 4]  137 	lda	(___ulonglong2fs_PARM_1 + 7)
      000056 C9 FF            [ 2]  138 	cmp	#0xff
      000058 D0 0C            [ 4]  139 	bne	00118$
                                    140 ;	Raw cost for generated ic 8 : (80, 92.799995) count=1.000000
                                    141 ;	skipping generated iCode
                                    142 ;	Raw cost for generated ic 9 : (0, 0.000000) count=1.000000
                                    143 ;	../_ulonglong2fs.c: 73: return 18446744073709551616.0f;
                                    144 ;	genRet
      00005A A9 00            [ 2]  145 	lda	#0x00
      00005C AA               [ 2]  146 	tax
      00005D A0 80            [ 2]  147 	ldy	#0x80
      00005F 84*00            [ 3]  148 	sty	*___SDCC_m6502_ret2
      000061 A0 5F            [ 2]  149 	ldy	#0x5f
      000063 84*00            [ 3]  150 	sty	*___SDCC_m6502_ret3
      000065 60               [ 6]  151 	rts
                                    152 ;	Raw cost for generated ic 12 : (14, 17.000000) count=0.750000
                                    153 ;	../_ulonglong2fs.c: 76: while (a < HIDDEN)
                                    154 ;	genLabel
      000066                        155 00118$:
                                    156 ;	Raw cost for generated ic 62 : (0, 0.000000) count=1.000000
                                    157 ;	genAssign
                                    158 ;	genCopy
      000066 A2 96            [ 2]  159 	ldx	#0x96
                                    160 ;	Raw cost for generated ic 66 : (2, 2.000000) count=1.000000
                                    161 ;	genLabel
      000068                        162 00105$:
                                    163 ;	Raw cost for generated ic 14 : (0, 0.000000) count=3.999698
                                    164 ;	genCmp
      000068 ADr02r00         [ 4]  165 	lda	(___ulonglong2fs_PARM_1 + 2)
      00006B 38               [ 2]  166 	sec
      00006C E9 80            [ 2]  167 	sbc	#0x80
      00006E ADr03r00         [ 4]  168 	lda	(___ulonglong2fs_PARM_1 + 3)
      000071 E9 00            [ 2]  169 	sbc	#0x00
      000073 ADr04r00         [ 4]  170 	lda	(___ulonglong2fs_PARM_1 + 4)
      000076 E9 00            [ 2]  171 	sbc	#0x00
      000078 ADr05r00         [ 4]  172 	lda	(___ulonglong2fs_PARM_1 + 5)
      00007B E9 00            [ 2]  173 	sbc	#0x00
      00007D ADr06r00         [ 4]  174 	lda	(___ulonglong2fs_PARM_1 + 6)
      000080 E9 00            [ 2]  175 	sbc	#0x00
      000082 ADr07r00         [ 4]  176 	lda	(___ulonglong2fs_PARM_1 + 7)
      000085 E9 00            [ 2]  177 	sbc	#0x00
      000087 B0 67            [ 4]  178 	bcs	00121$
                                    179 ;	Raw cost for generated ic 15 : (36, 43.599998) count=3.999698
                                    180 ;	skipping generated iCode
                                    181 ;	Raw cost for generated ic 16 : (0, 0.000000) count=3.999698
                                    182 ;	../_ulonglong2fs.c: 78: a <<= 1;
                                    183 ;	genAssign
                                    184 ;	genCopy
      000089 ADr07r00         [ 4]  185 	lda	(___ulonglong2fs_PARM_1 + 7)
      00008C 8Dr07r00         [ 4]  186 	sta	(__slulonglong_PARM_1 + 7)
      00008F ADr06r00         [ 4]  187 	lda	(___ulonglong2fs_PARM_1 + 6)
      000092 8Dr06r00         [ 4]  188 	sta	(__slulonglong_PARM_1 + 6)
      000095 ADr05r00         [ 4]  189 	lda	(___ulonglong2fs_PARM_1 + 5)
      000098 8Dr05r00         [ 4]  190 	sta	(__slulonglong_PARM_1 + 5)
      00009B ADr04r00         [ 4]  191 	lda	(___ulonglong2fs_PARM_1 + 4)
      00009E 8Dr04r00         [ 4]  192 	sta	(__slulonglong_PARM_1 + 4)
      0000A1 ADr03r00         [ 4]  193 	lda	(___ulonglong2fs_PARM_1 + 3)
      0000A4 8Dr03r00         [ 4]  194 	sta	(__slulonglong_PARM_1 + 3)
      0000A7 ADr02r00         [ 4]  195 	lda	(___ulonglong2fs_PARM_1 + 2)
      0000AA 8Dr02r00         [ 4]  196 	sta	(__slulonglong_PARM_1 + 2)
      0000AD ADr01r00         [ 4]  197 	lda	(___ulonglong2fs_PARM_1 + 1)
      0000B0 8Dr01r00         [ 4]  198 	sta	(__slulonglong_PARM_1 + 1)
      0000B3 ADr00r00         [ 4]  199 	lda	___ulonglong2fs_PARM_1
      0000B6 8Dr00r00         [ 4]  200 	sta	__slulonglong_PARM_1
                                    201 ;	Raw cost for generated ic 78 : (48, 64.000000) count=2.999698
                                    202 ;	genAssign
                                    203 ;	genAssignLit
      0000B9 A0 01            [ 2]  204 	ldy	#0x01
      0000BB 8Cr00r00         [ 4]  205 	sty	__slulonglong_PARM_2
                                    206 ;	Raw cost for generated ic 79 : (5, 6.000000) count=2.999698
                                    207 ;	genCall
      0000BE 8A               [ 2]  208 	txa
      0000BF 48               [ 3]  209 	pha
      0000C0 20r00r00         [ 6]  210 	jsr	__slulonglong
                                    211 ;	assignResultValue
      0000C3 8Dr00r00         [ 4]  212 	sta	___ulonglong2fs_PARM_1
      0000C6 8Er01r00         [ 4]  213 	stx	(___ulonglong2fs_PARM_1 + 1)
      0000C9 A5*00            [ 3]  214 	lda	*___SDCC_m6502_ret2
      0000CB 8Dr02r00         [ 4]  215 	sta	(___ulonglong2fs_PARM_1 + 2)
      0000CE A5*00            [ 3]  216 	lda	*___SDCC_m6502_ret3
      0000D0 8Dr03r00         [ 4]  217 	sta	(___ulonglong2fs_PARM_1 + 3)
      0000D3 A5*00            [ 3]  218 	lda	*___SDCC_m6502_ret4
      0000D5 8Dr04r00         [ 4]  219 	sta	(___ulonglong2fs_PARM_1 + 4)
      0000D8 A5*00            [ 3]  220 	lda	*___SDCC_m6502_ret5
      0000DA 8Dr05r00         [ 4]  221 	sta	(___ulonglong2fs_PARM_1 + 5)
      0000DD A5*00            [ 3]  222 	lda	*___SDCC_m6502_ret6
      0000DF 8Dr06r00         [ 4]  223 	sta	(___ulonglong2fs_PARM_1 + 6)
      0000E2 A5*00            [ 3]  224 	lda	*___SDCC_m6502_ret7
      0000E4 8Dr07r00         [ 4]  225 	sta	(___ulonglong2fs_PARM_1 + 7)
      0000E7 68               [ 4]  226 	pla
      0000E8 AA               [ 2]  227 	tax
      0000E9 ADr07r00         [ 4]  228 	lda	(___ulonglong2fs_PARM_1+7)
                                    229 ;	Raw cost for generated ic 80 : (46, 71.000000) count=2.999698
                                    230 ;	../_ulonglong2fs.c: 79: exp--;
                                    231 ;	genMinus
                                    232 ;	  genMinusDec - size=1  icount=1
      0000EC CA               [ 2]  233 	dex
                                    234 ;	Raw cost for generated ic 22 : (1, 2.000000) count=2.999698
                                    235 ;	genGoto
      0000ED 4Cr68r00         [ 3]  236 	jmp	00105$
                                    237 ;	Raw cost for generated ic 24 : (3, 3.000000) count=2.999698
                                    238 ;	../_ulonglong2fs.c: 82: while (a & NORM)
                                    239 ;	genLabel
      0000F0                        240 00121$:
                                    241 ;	Raw cost for generated ic 63 : (0, 0.000000) count=0.999925
                                    242 ;	genAssign
                                    243 ;	genCopy
                                    244 ;	Raw cost for generated ic 69 : (0, 0.000000) count=0.999925
                                    245 ;	genLabel
      0000F0                        246 00110$:
                                    247 ;	Raw cost for generated ic 26 : (0, 0.000000) count=3.999283
                                    248 ;	genAnd
      0000F0 ADr03r00         [ 4]  249 	lda	(___ulonglong2fs_PARM_1 + 3)
                                    250 ;	genIfxJump : z
      0000F3 D0 03            [ 4]  251 	bne	00172$
      0000F5 4Cr92r01         [ 3]  252 	jmp	00112$
      0000F8                        253 00172$:
                                    254 ;	Raw cost for generated ic 27 : (10, 12.200000) count=3.999283
                                    255 ;	skipping generated iCode
                                    256 ;	Raw cost for generated ic 28 : (0, 0.000000) count=3.999283
                                    257 ;	../_ulonglong2fs.c: 85: if (a & 1)
                                    258 ;	genAnd
      0000F8 ADr00r00         [ 4]  259 	lda	___ulonglong2fs_PARM_1
      0000FB 29 01            [ 2]  260 	and	#0x01
                                    261 ;	genIfxJump : z
      0000FD F0 2C            [ 4]  262 	beq	00109$
                                    263 ;	Raw cost for generated ic 31 : (12, 14.200001) count=2.999462
                                    264 ;	skipping generated iCode
                                    265 ;	Raw cost for generated ic 32 : (0, 0.000000) count=2.999462
                                    266 ;	../_ulonglong2fs.c: 86: a += 2;
                                    267 ;	genPlus
                                    268 ;	  genPlusInc
      0000FF ADr00r00         [ 4]  269 	lda	___ulonglong2fs_PARM_1
      000102 18               [ 2]  270 	clc
      000103 69 02            [ 2]  271 	adc	#0x02
      000105 8Dr00r00         [ 4]  272 	sta	___ulonglong2fs_PARM_1
      000108 90 21            [ 4]  273 	bcc	00175$
      00010A EEr01r00         [ 6]  274 	inc	(___ulonglong2fs_PARM_1 + 1)
      00010D D0 1C            [ 4]  275 	bne	00175$
      00010F EEr02r00         [ 6]  276 	inc	(___ulonglong2fs_PARM_1 + 2)
      000112 D0 17            [ 4]  277 	bne	00175$
      000114 EEr03r00         [ 6]  278 	inc	(___ulonglong2fs_PARM_1 + 3)
      000117 D0 12            [ 4]  279 	bne	00175$
      000119 EEr04r00         [ 6]  280 	inc	(___ulonglong2fs_PARM_1 + 4)
      00011C D0 0D            [ 4]  281 	bne	00175$
      00011E EEr05r00         [ 6]  282 	inc	(___ulonglong2fs_PARM_1 + 5)
      000121 D0 08            [ 4]  283 	bne	00175$
      000123 EEr06r00         [ 6]  284 	inc	(___ulonglong2fs_PARM_1 + 6)
      000126 D0 03            [ 4]  285 	bne	00175$
      000128 EEr07r00         [ 6]  286 	inc	(___ulonglong2fs_PARM_1 + 7)
      00012B                        287 00175$:
                                    288 ;	Raw cost for generated ic 35 : (44, 72.199997) count=2.249518
                                    289 ;	genLabel
      00012B                        290 00109$:
                                    291 ;	Raw cost for generated ic 37 : (0, 0.000000) count=2.999358
                                    292 ;	../_ulonglong2fs.c: 87: a >>= 1;
                                    293 ;	genAssign
                                    294 ;	genCopy
      00012B ADr07r00         [ 4]  295 	lda	(___ulonglong2fs_PARM_1 + 7)
      00012E 8Dr07r00         [ 4]  296 	sta	(__srulonglong_PARM_1 + 7)
      000131 ADr06r00         [ 4]  297 	lda	(___ulonglong2fs_PARM_1 + 6)
      000134 8Dr06r00         [ 4]  298 	sta	(__srulonglong_PARM_1 + 6)
      000137 ADr05r00         [ 4]  299 	lda	(___ulonglong2fs_PARM_1 + 5)
      00013A 8Dr05r00         [ 4]  300 	sta	(__srulonglong_PARM_1 + 5)
      00013D ADr04r00         [ 4]  301 	lda	(___ulonglong2fs_PARM_1 + 4)
      000140 8Dr04r00         [ 4]  302 	sta	(__srulonglong_PARM_1 + 4)
      000143 ADr03r00         [ 4]  303 	lda	(___ulonglong2fs_PARM_1 + 3)
      000146 8Dr03r00         [ 4]  304 	sta	(__srulonglong_PARM_1 + 3)
      000149 ADr02r00         [ 4]  305 	lda	(___ulonglong2fs_PARM_1 + 2)
      00014C 8Dr02r00         [ 4]  306 	sta	(__srulonglong_PARM_1 + 2)
      00014F ADr01r00         [ 4]  307 	lda	(___ulonglong2fs_PARM_1 + 1)
      000152 8Dr01r00         [ 4]  308 	sta	(__srulonglong_PARM_1 + 1)
      000155 ADr00r00         [ 4]  309 	lda	___ulonglong2fs_PARM_1
      000158 8Dr00r00         [ 4]  310 	sta	__srulonglong_PARM_1
                                    311 ;	Raw cost for generated ic 81 : (48, 64.000000) count=2.999358
                                    312 ;	genAssign
                                    313 ;	genAssignLit
      00015B A0 01            [ 2]  314 	ldy	#0x01
      00015D 8Cr00r00         [ 4]  315 	sty	__srulonglong_PARM_2
                                    316 ;	Raw cost for generated ic 82 : (5, 6.000000) count=2.999358
                                    317 ;	genCall
      000160 8A               [ 2]  318 	txa
      000161 48               [ 3]  319 	pha
      000162 20r00r00         [ 6]  320 	jsr	__srulonglong
                                    321 ;	assignResultValue
      000165 8Dr00r00         [ 4]  322 	sta	___ulonglong2fs_PARM_1
      000168 8Er01r00         [ 4]  323 	stx	(___ulonglong2fs_PARM_1 + 1)
      00016B A5*00            [ 3]  324 	lda	*___SDCC_m6502_ret2
      00016D 8Dr02r00         [ 4]  325 	sta	(___ulonglong2fs_PARM_1 + 2)
      000170 A5*00            [ 3]  326 	lda	*___SDCC_m6502_ret3
      000172 8Dr03r00         [ 4]  327 	sta	(___ulonglong2fs_PARM_1 + 3)
      000175 A5*00            [ 3]  328 	lda	*___SDCC_m6502_ret4
      000177 8Dr04r00         [ 4]  329 	sta	(___ulonglong2fs_PARM_1 + 4)
      00017A A5*00            [ 3]  330 	lda	*___SDCC_m6502_ret5
      00017C 8Dr05r00         [ 4]  331 	sta	(___ulonglong2fs_PARM_1 + 5)
      00017F A5*00            [ 3]  332 	lda	*___SDCC_m6502_ret6
      000181 8Dr06r00         [ 4]  333 	sta	(___ulonglong2fs_PARM_1 + 6)
      000184 A5*00            [ 3]  334 	lda	*___SDCC_m6502_ret7
      000186 8Dr07r00         [ 4]  335 	sta	(___ulonglong2fs_PARM_1 + 7)
      000189 68               [ 4]  336 	pla
      00018A AA               [ 2]  337 	tax
      00018B ADr07r00         [ 4]  338 	lda	(___ulonglong2fs_PARM_1+7)
                                    339 ;	Raw cost for generated ic 83 : (46, 71.000000) count=2.999358
                                    340 ;	../_ulonglong2fs.c: 88: exp++;
                                    341 ;	genPlus
                                    342 ;	  genPlusInc
      00018E E8               [ 2]  343 	inx
                                    344 ;	Raw cost for generated ic 41 : (1, 2.000000) count=2.999358
                                    345 ;	genGoto
      00018F 4CrF0r00         [ 3]  346 	jmp	00110$
                                    347 ;	Raw cost for generated ic 43 : (3, 3.000000) count=2.999358
                                    348 ;	genLabel
      000192                        349 00112$:
                                    350 ;	Raw cost for generated ic 44 : (0, 0.000000) count=0.999740
                                    351 ;	../_ulonglong2fs.c: 91: a &= ~HIDDEN ;
                                    352 ;	genAnd
      000192 ADr02r00         [ 4]  353 	lda	(___ulonglong2fs_PARM_1 + 2)
      000195 29 7F            [ 2]  354 	and	#0x7f
      000197 8Dr02r00         [ 4]  355 	sta	(___ulonglong2fs_PARM_1 + 2)
      00019A A0 00            [ 2]  356 	ldy	#0x00
      00019C 8Cr04r00         [ 4]  357 	sty	(___ulonglong2fs_PARM_1 + 4)
      00019F 8Cr05r00         [ 4]  358 	sty	(___ulonglong2fs_PARM_1 + 5)
      0001A2 8Cr06r00         [ 4]  359 	sty	(___ulonglong2fs_PARM_1 + 6)
      0001A5 8Cr07r00         [ 4]  360 	sty	(___ulonglong2fs_PARM_1 + 7)
                                    361 ;	Raw cost for generated ic 45 : (22, 28.000000) count=0.999740
                                    362 ;	../_ulonglong2fs.c: 93: fl.l = PACK(0,(unsigned long)exp, a);
                                    363 ;	skipping iCode since result will be rematerialized
                                    364 ;	Raw cost for generated ic 47 : (0, 0.000000) count=0.999740
                                    365 ;	genCast
                                    366 ;	genCopy
      0001A8 84*03            [ 3]  367 	sty	*(___ulonglong2fs_sloc0_1_0 + 3)
      0001AA 84*02            [ 3]  368 	sty	*(___ulonglong2fs_sloc0_1_0 + 2)
      0001AC 84*01            [ 3]  369 	sty	*(___ulonglong2fs_sloc0_1_0 + 1)
      0001AE 86*00            [ 3]  370 	stx	*___ulonglong2fs_sloc0_1_0
                                    371 ;	Raw cost for generated ic 49 : (8, 12.000000) count=0.999740
                                    372 ;	genLeftShift
                                    373 ;	genLeftShiftLiteral
                                    374 ;	  genlsh32 - shift=23
      0001B0 A5*01            [ 3]  375 	lda	*(___ulonglong2fs_sloc0_1_0 + 1)
      0001B2 4A               [ 2]  376 	lsr	a
      0001B3 A5*00            [ 3]  377 	lda	*___ulonglong2fs_sloc0_1_0
      0001B5 6A               [ 2]  378 	ror	a
      0001B6 85*03            [ 3]  379 	sta	*(___ulonglong2fs_sloc0_1_0 + 3)
      0001B8 98               [ 2]  380 	tya
      0001B9 85*01            [ 3]  381 	sta	*(___ulonglong2fs_sloc0_1_0 + 1)
      0001BB 85*00            [ 3]  382 	sta	*___ulonglong2fs_sloc0_1_0
      0001BD 6A               [ 2]  383 	ror	a
      0001BE 85*02            [ 3]  384 	sta	*(___ulonglong2fs_sloc0_1_0 + 2)
                                    385 ;	Raw cost for generated ic 50 : (16, 26.000000) count=0.999740
                                    386 ;	genCast
                                    387 ;	genCopy
                                    388 ;	Raw cost for generated ic 52 : (0, 0.000000) count=0.999740
                                    389 ;	genCast
                                    390 ;	genCopy
      0001C0 ADr03r00         [ 4]  391 	lda	(___ulonglong2fs_PARM_1 + 3)
      0001C3 85*07            [ 3]  392 	sta	*(___ulonglong2fs_sloc1_1_0 + 3)
      0001C5 ADr02r00         [ 4]  393 	lda	(___ulonglong2fs_PARM_1 + 2)
      0001C8 85*06            [ 3]  394 	sta	*(___ulonglong2fs_sloc1_1_0 + 2)
      0001CA ADr01r00         [ 4]  395 	lda	(___ulonglong2fs_PARM_1 + 1)
      0001CD 85*05            [ 3]  396 	sta	*(___ulonglong2fs_sloc1_1_0 + 1)
      0001CF ADr00r00         [ 4]  397 	lda	___ulonglong2fs_PARM_1
      0001D2 85*04            [ 3]  398 	sta	*___ulonglong2fs_sloc1_1_0
                                    399 ;	Raw cost for generated ic 65 : (20, 28.000000) count=0.999740
                                    400 ;	genOr
      0001D4 A5*00            [ 3]  401 	lda	*___ulonglong2fs_sloc0_1_0
      0001D6 05*04            [ 3]  402 	ora	*___ulonglong2fs_sloc1_1_0
      0001D8 85*04            [ 3]  403 	sta	*___ulonglong2fs_sloc1_1_0
      0001DA A5*01            [ 3]  404 	lda	*(___ulonglong2fs_sloc0_1_0 + 1)
      0001DC 05*05            [ 3]  405 	ora	*(___ulonglong2fs_sloc1_1_0 + 1)
      0001DE 85*05            [ 3]  406 	sta	*(___ulonglong2fs_sloc1_1_0 + 1)
      0001E0 A5*02            [ 3]  407 	lda	*(___ulonglong2fs_sloc0_1_0 + 2)
      0001E2 05*06            [ 3]  408 	ora	*(___ulonglong2fs_sloc1_1_0 + 2)
      0001E4 85*06            [ 3]  409 	sta	*(___ulonglong2fs_sloc1_1_0 + 2)
      0001E6 A5*03            [ 3]  410 	lda	*(___ulonglong2fs_sloc0_1_0 + 3)
      0001E8 05*07            [ 3]  411 	ora	*(___ulonglong2fs_sloc1_1_0 + 3)
      0001EA 85*07            [ 3]  412 	sta	*(___ulonglong2fs_sloc1_1_0 + 3)
                                    413 ;	Raw cost for generated ic 53 : (24, 36.000000) count=0.999740
                                    414 ;	genPointerSet
                                    415 ;	genDataPointerSet
      0001EC 8Dr0Br00         [ 4]  416 	sta	(___ulonglong2fs_fl_10000_21 + 3)
      0001EF A5*06            [ 3]  417 	lda	*(___ulonglong2fs_sloc1_1_0 + 2)
      0001F1 8Dr0Ar00         [ 4]  418 	sta	(___ulonglong2fs_fl_10000_21 + 2)
      0001F4 A5*05            [ 3]  419 	lda	*(___ulonglong2fs_sloc1_1_0 + 1)
      0001F6 8Dr09r00         [ 4]  420 	sta	(___ulonglong2fs_fl_10000_21 + 1)
      0001F9 A5*04            [ 3]  421 	lda	*___ulonglong2fs_sloc1_1_0
      0001FB 8Dr08r00         [ 4]  422 	sta	___ulonglong2fs_fl_10000_21
                                    423 ;	Raw cost for generated ic 55 : (18, 25.000000) count=0.999740
                                    424 ;	../_ulonglong2fs.c: 95: return (fl.f);
                                    425 ;	skipping iCode since result will be rematerialized
                                    426 ;	Raw cost for generated ic 56 : (0, 0.000000) count=0.999740
                                    427 ;	genPointerGet
                                    428 ;	genDataPointerGet
      0001FE ADr0Br00         [ 4]  429 	lda	(___ulonglong2fs_fl_10000_21 + 3)
      000201 85*07            [ 3]  430 	sta	*(___ulonglong2fs_sloc1_1_0 + 3)
      000203 ADr0Ar00         [ 4]  431 	lda	(___ulonglong2fs_fl_10000_21 + 2)
      000206 85*06            [ 3]  432 	sta	*(___ulonglong2fs_sloc1_1_0 + 2)
      000208 ADr09r00         [ 4]  433 	lda	(___ulonglong2fs_fl_10000_21 + 1)
      00020B 85*05            [ 3]  434 	sta	*(___ulonglong2fs_sloc1_1_0 + 1)
      00020D ADr08r00         [ 4]  435 	lda	___ulonglong2fs_fl_10000_21
      000210 85*04            [ 3]  436 	sta	*___ulonglong2fs_sloc1_1_0
                                    437 ;	Raw cost for generated ic 58 : (20, 28.000000) count=0.999740
                                    438 ;	genRet
      000212 A5*07            [ 3]  439 	lda	*(___ulonglong2fs_sloc1_1_0 + 3)
      000214 85*00            [ 3]  440 	sta	*___SDCC_m6502_ret3
      000216 A5*06            [ 3]  441 	lda	*(___ulonglong2fs_sloc1_1_0 + 2)
      000218 85*00            [ 3]  442 	sta	*___SDCC_m6502_ret2
      00021A A6*05            [ 3]  443 	ldx	*(___ulonglong2fs_sloc1_1_0 + 1)
      00021C A5*04            [ 3]  444 	lda	*___ulonglong2fs_sloc1_1_0
                                    445 ;	Raw cost for generated ic 59 : (12, 18.000000) count=0.999740
                                    446 ;	genLabel
                                    447 ;	Raw cost for generated ic 60 : (0, 0.000000) count=0.999740
                                    448 ;	../_ulonglong2fs.c: 96: }
                                    449 ;	genEndFunction
      00021E 60               [ 6]  450 	rts
                                    451 ;	Raw cost for generated ic 61 : (1, 6.000000) count=0.999740
                                    452 	.area CODE
                                    453 	.area RODATA
                                    454 	.area XINIT
                                    455 	.area CABS    (ABS)
