                                      1 ;--------------------------------------------------------
                                      2 ; File Created by SDCC : free open source ISO C Compiler
                                      3 ; Version 4.5.10 #15691 (Linux)
                                      4 ;--------------------------------------------------------
                                      5 	.module ckd_sub
                                      6 	
                                      7 	.optsdcc -mmos6502
                                      8 
                                      9 ;--------------------------------------------------------
                                     10 ;  Ordering of segments for the linker.
                                     11 ;--------------------------------------------------------
                                     12 	.area ZP      (PAG)
                                     13 	.area OSEG    (PAG, OVR)
                                     14 	.area _CODE
                                     15 	.area GSINIT
                                     16 	.area GSFINAL
                                     17 	.area CODE
                                     18 	.area RODATA
                                     19 	.area XINIT
                                     20 	.area _DATA
                                     21 	.area DATA
                                     22 	.area BSS
                                     23 ;--------------------------------------------------------
                                     24 ; Public variables in this module
                                     25 ;--------------------------------------------------------
                                     26 	.globl ___ckd_sub_ulong_PARM_3
                                     27 	.globl ___ckd_sub_ulong_PARM_2
                                     28 	.globl ___ckd_sub_long_PARM_3
                                     29 	.globl ___ckd_sub_long_PARM_2
                                     30 	.globl ___ckd_sub_uint_PARM_3
                                     31 	.globl ___ckd_sub_uint_PARM_2
                                     32 	.globl ___ckd_sub_int_PARM_3
                                     33 	.globl ___ckd_sub_int_PARM_2
                                     34 	.globl ___ckd_sub_ushort_PARM_3
                                     35 	.globl ___ckd_sub_ushort_PARM_2
                                     36 	.globl ___ckd_sub_short_PARM_3
                                     37 	.globl ___ckd_sub_short_PARM_2
                                     38 	.globl ___ckd_sub_uchar_PARM_3
                                     39 	.globl ___ckd_sub_uchar_PARM_2
                                     40 	.globl ___ckd_sub_schar_PARM_3
                                     41 	.globl ___ckd_sub_schar_PARM_2
                                     42 	.globl ___ckd_sub_schar
                                     43 	.globl ___ckd_sub_uchar
                                     44 	.globl ___ckd_sub_short
                                     45 	.globl ___ckd_sub_ushort
                                     46 	.globl ___ckd_sub_int
                                     47 	.globl ___ckd_sub_uint
                                     48 	.globl ___ckd_sub_long
                                     49 	.globl ___ckd_sub_ulong
                                     50 ;--------------------------------------------------------
                                     51 ; ZP ram data
                                     52 ;--------------------------------------------------------
                                     53 	.area ZP      (PAG)
                                     54 ;--------------------------------------------------------
                                     55 ; overlayable items in ram
                                     56 ;--------------------------------------------------------
                                     57 	.area	OSEG    (PAG, OVR)
      000000                         58 ___ckd_sub_schar_sloc0_1_0:
      000000                         59 	.ds 8
      000008                         60 ___ckd_sub_schar_sloc1_1_0:
      000008                         61 	.ds 8
                                     62 	.area	OSEG    (PAG, OVR)
      000000                         63 ___ckd_sub_uchar_sloc0_1_0:
      000000                         64 	.ds 8
      000008                         65 ___ckd_sub_uchar_sloc1_1_0:
      000008                         66 	.ds 8
                                     67 	.area	OSEG    (PAG, OVR)
      000000                         68 ___ckd_sub_short_sloc0_1_0:
      000000                         69 	.ds 8
      000008                         70 ___ckd_sub_short_sloc1_1_0:
      000008                         71 	.ds 8
                                     72 	.area	OSEG    (PAG, OVR)
      000000                         73 ___ckd_sub_ushort_sloc0_1_0:
      000000                         74 	.ds 8
      000008                         75 ___ckd_sub_ushort_sloc1_1_0:
      000008                         76 	.ds 8
                                     77 	.area	OSEG    (PAG, OVR)
      000000                         78 ___ckd_sub_int_sloc0_1_0:
      000000                         79 	.ds 8
      000008                         80 ___ckd_sub_int_sloc1_1_0:
      000008                         81 	.ds 8
                                     82 	.area	OSEG    (PAG, OVR)
      000000                         83 ___ckd_sub_uint_sloc0_1_0:
      000000                         84 	.ds 8
      000008                         85 ___ckd_sub_uint_sloc1_1_0:
      000008                         86 	.ds 8
                                     87 	.area	OSEG    (PAG, OVR)
      000000                         88 ___ckd_sub_long_sloc0_1_0:
      000000                         89 	.ds 8
      000008                         90 ___ckd_sub_long_sloc1_1_0:
      000008                         91 	.ds 4
      00000C                         92 ___ckd_sub_long_sloc2_1_0:
      00000C                         93 	.ds 8
                                     94 	.area	OSEG    (PAG, OVR)
      000000                         95 ___ckd_sub_ulong_sloc0_1_0:
      000000                         96 	.ds 8
      000008                         97 ___ckd_sub_ulong_sloc1_1_0:
      000008                         98 	.ds 4
      00000C                         99 ___ckd_sub_ulong_sloc2_1_0:
      00000C                        100 	.ds 8
                                    101 ;--------------------------------------------------------
                                    102 ; uninitialized external ram data
                                    103 ;--------------------------------------------------------
                                    104 	.area BSS
      000000                        105 ___ckd_sub_schar_PARM_2:
      000000                        106 	.ds 8
      000008                        107 ___ckd_sub_schar_PARM_3:
      000008                        108 	.ds 8
      000010                        109 ___ckd_sub_schar_r_10000_25:
      000010                        110 	.ds 2
      000012                        111 ___ckd_sub_uchar_PARM_2:
      000012                        112 	.ds 8
      00001A                        113 ___ckd_sub_uchar_PARM_3:
      00001A                        114 	.ds 8
      000022                        115 ___ckd_sub_uchar_r_10000_27:
      000022                        116 	.ds 2
      000024                        117 ___ckd_sub_short_PARM_2:
      000024                        118 	.ds 8
      00002C                        119 ___ckd_sub_short_PARM_3:
      00002C                        120 	.ds 8
      000034                        121 ___ckd_sub_short_r_10000_29:
      000034                        122 	.ds 2
      000036                        123 ___ckd_sub_ushort_PARM_2:
      000036                        124 	.ds 8
      00003E                        125 ___ckd_sub_ushort_PARM_3:
      00003E                        126 	.ds 8
      000046                        127 ___ckd_sub_ushort_r_10000_31:
      000046                        128 	.ds 2
      000048                        129 ___ckd_sub_int_PARM_2:
      000048                        130 	.ds 8
      000050                        131 ___ckd_sub_int_PARM_3:
      000050                        132 	.ds 8
      000058                        133 ___ckd_sub_int_r_10000_33:
      000058                        134 	.ds 2
      00005A                        135 ___ckd_sub_uint_PARM_2:
      00005A                        136 	.ds 8
      000062                        137 ___ckd_sub_uint_PARM_3:
      000062                        138 	.ds 8
      00006A                        139 ___ckd_sub_uint_r_10000_35:
      00006A                        140 	.ds 2
      00006C                        141 ___ckd_sub_long_PARM_2:
      00006C                        142 	.ds 8
      000074                        143 ___ckd_sub_long_PARM_3:
      000074                        144 	.ds 8
      00007C                        145 ___ckd_sub_long_r_10000_37:
      00007C                        146 	.ds 2
      00007E                        147 ___ckd_sub_ulong_PARM_2:
      00007E                        148 	.ds 8
      000086                        149 ___ckd_sub_ulong_PARM_3:
      000086                        150 	.ds 8
      00008E                        151 ___ckd_sub_ulong_r_10000_39:
      00008E                        152 	.ds 2
                                    153 ;--------------------------------------------------------
                                    154 ; absolute external ram data
                                    155 ;--------------------------------------------------------
                                    156 	.area DABS    (ABS)
                                    157 ;--------------------------------------------------------
                                    158 ; initialized external ram data
                                    159 ;--------------------------------------------------------
                                    160 	.area DATA
                                    161 ;--------------------------------------------------------
                                    162 ; global & static initialisations
                                    163 ;--------------------------------------------------------
                                    164 	.area _CODE
                                    165 	.area GSINIT
                                    166 	.area GSFINAL
                                    167 	.area GSINIT
                                    168 ;--------------------------------------------------------
                                    169 ; Home
                                    170 ;--------------------------------------------------------
                                    171 	.area _CODE
                                    172 	.area _CODE
                                    173 ;--------------------------------------------------------
                                    174 ; code
                                    175 ;--------------------------------------------------------
                                    176 	.area CODE
                                    177 ;------------------------------------------------------------
                                    178 ;Allocation info for local variables in function '__ckd_sub_schar'
                                    179 ;------------------------------------------------------------
                                    180 ;a             Allocated with name '___ckd_sub_schar_PARM_2'
                                    181 ;b             Allocated with name '___ckd_sub_schar_PARM_3'
                                    182 ;r             Allocated with name '___ckd_sub_schar_r_10000_25'
                                    183 ;result        Allocated with name '___ckd_sub_schar_result_10000_26'
                                    184 ;sloc0         Allocated with name '___ckd_sub_schar_sloc0_1_0'
                                    185 ;sloc1         Allocated with name '___ckd_sub_schar_sloc1_1_0'
                                    186 ;------------------------------------------------------------
                                    187 ;	./../../include/stdckdint.h: 61: inline _Bool __ckd_sub_schar __CKD_DEFAULT_IMPL(signed char, -)
                                    188 ;	genLabel
                                    189 ;	Raw cost for generated ic 0 : (0, 0.000000) count=1.000000
                                    190 ;	-----------------------------------------
                                    191 ;	 function __ckd_sub_schar
                                    192 ;	-----------------------------------------
                                    193 ;	Register assignment might be sub-optimal.
                                    194 ;	Stack space usage: 0 bytes.
      000000                        195 ___ckd_sub_schar:
                                    196 ;	Raw cost for generated ic 1 : (0, 0.000000) count=1.000000
                                    197 ;	genReceive
      000000 8Dr10r00         [ 4]  198 	sta	___ckd_sub_schar_r_10000_25
      000003 8Er11r00         [ 4]  199 	stx	(___ckd_sub_schar_r_10000_25 + 1)
                                    200 ;	Raw cost for generated ic 2 : (6, 8.000000) count=1.000000
                                    201 ;	genMinus
      000006 ADr00r00         [ 4]  202 	lda	___ckd_sub_schar_PARM_2
      000009 38               [ 2]  203 	sec
      00000A EDr08r00         [ 4]  204 	sbc	___ckd_sub_schar_PARM_3
      00000D 85*00            [ 3]  205 	sta	*___ckd_sub_schar_sloc0_1_0
      00000F ADr01r00         [ 4]  206 	lda	(___ckd_sub_schar_PARM_2 + 1)
      000012 EDr09r00         [ 4]  207 	sbc	(___ckd_sub_schar_PARM_3 + 1)
      000015 85*01            [ 3]  208 	sta	*(___ckd_sub_schar_sloc0_1_0 + 1)
      000017 ADr02r00         [ 4]  209 	lda	(___ckd_sub_schar_PARM_2 + 2)
      00001A EDr0Ar00         [ 4]  210 	sbc	(___ckd_sub_schar_PARM_3 + 2)
      00001D 85*02            [ 3]  211 	sta	*(___ckd_sub_schar_sloc0_1_0 + 2)
      00001F ADr03r00         [ 4]  212 	lda	(___ckd_sub_schar_PARM_2 + 3)
      000022 EDr0Br00         [ 4]  213 	sbc	(___ckd_sub_schar_PARM_3 + 3)
      000025 85*03            [ 3]  214 	sta	*(___ckd_sub_schar_sloc0_1_0 + 3)
      000027 ADr04r00         [ 4]  215 	lda	(___ckd_sub_schar_PARM_2 + 4)
      00002A EDr0Cr00         [ 4]  216 	sbc	(___ckd_sub_schar_PARM_3 + 4)
      00002D 85*04            [ 3]  217 	sta	*(___ckd_sub_schar_sloc0_1_0 + 4)
      00002F ADr05r00         [ 4]  218 	lda	(___ckd_sub_schar_PARM_2 + 5)
      000032 EDr0Dr00         [ 4]  219 	sbc	(___ckd_sub_schar_PARM_3 + 5)
      000035 85*05            [ 3]  220 	sta	*(___ckd_sub_schar_sloc0_1_0 + 5)
      000037 ADr06r00         [ 4]  221 	lda	(___ckd_sub_schar_PARM_2 + 6)
      00003A EDr0Er00         [ 4]  222 	sbc	(___ckd_sub_schar_PARM_3 + 6)
      00003D 85*06            [ 3]  223 	sta	*(___ckd_sub_schar_sloc0_1_0 + 6)
      00003F ADr07r00         [ 4]  224 	lda	(___ckd_sub_schar_PARM_2 + 7)
      000042 EDr0Fr00         [ 4]  225 	sbc	(___ckd_sub_schar_PARM_3 + 7)
      000045 85*07            [ 3]  226 	sta	*(___ckd_sub_schar_sloc0_1_0 + 7)
                                    227 ;	Raw cost for generated ic 3 : (65, 90.000000) count=1.000000
                                    228 ;	genCast
                                    229 ;	genCopy
                                    230 ;	Raw cost for generated ic 6 : (2, 3.000000) count=1.000000
                                    231 ;	genPointerSet
                                    232 ;	  setupDPTR - off=0 remat=(null) savea=0
      000047 AEr10r00         [ 4]  233 	ldx	___ckd_sub_schar_r_10000_25
      00004A 86*00            [ 3]  234 	stx	*(DPTR+0)
      00004C AEr11r00         [ 4]  235 	ldx	(___ckd_sub_schar_r_10000_25 + 1)
      00004F 86*01            [ 3]  236 	stx	*(DPTR+1)
      000051 A6*00            [ 3]  237 	ldx	*(___ckd_sub_schar_sloc0_1_0+0)
      000053 8A               [ 2]  238 	txa
      000054 A0 00            [ 2]  239 	ldy	#0x00
      000056 91*00            [ 6]  240 	sta	[DPTR],y
      000058 A6*00            [ 3]  241 	ldx	*(___ckd_sub_schar_sloc0_1_0+0)
                                    242 ;	Raw cost for generated ic 7 : (21, 32.000000) count=1.000000
                                    243 ;	genCast
      00005A 8A               [ 2]  244 	txa
      00005B 85*08            [ 3]  245 	sta	*___ckd_sub_schar_sloc1_1_0
      00005D 0A               [ 2]  246 	asl	a
      00005E 98               [ 2]  247 	tya
      00005F 69 FF            [ 2]  248 	adc	#0xff
      000061 49 FF            [ 2]  249 	eor	#0xff
      000063 85*09            [ 3]  250 	sta	*(___ckd_sub_schar_sloc1_1_0 + 1)
      000065 85*0A            [ 3]  251 	sta	*(___ckd_sub_schar_sloc1_1_0 + 2)
      000067 85*0B            [ 3]  252 	sta	*(___ckd_sub_schar_sloc1_1_0 + 3)
      000069 85*0C            [ 3]  253 	sta	*(___ckd_sub_schar_sloc1_1_0 + 4)
      00006B 85*0D            [ 3]  254 	sta	*(___ckd_sub_schar_sloc1_1_0 + 5)
      00006D 85*0E            [ 3]  255 	sta	*(___ckd_sub_schar_sloc1_1_0 + 6)
      00006F 85*0F            [ 3]  256 	sta	*(___ckd_sub_schar_sloc1_1_0 + 7)
                                    257 ;	Raw cost for generated ic 10 : (23, 34.000000) count=1.000000
                                    258 ;	genCmpEQorNE
      000071 A5*08            [ 3]  259 	lda	*___ckd_sub_schar_sloc1_1_0
      000073 C5*00            [ 3]  260 	cmp	*___ckd_sub_schar_sloc0_1_0
      000075 D0 2A            [ 4]  261 	bne	00104$
      000077 A5*09            [ 3]  262 	lda	*(___ckd_sub_schar_sloc1_1_0 + 1)
      000079 C5*01            [ 3]  263 	cmp	*(___ckd_sub_schar_sloc0_1_0 + 1)
      00007B D0 24            [ 4]  264 	bne	00104$
      00007D A5*0A            [ 3]  265 	lda	*(___ckd_sub_schar_sloc1_1_0 + 2)
      00007F C5*02            [ 3]  266 	cmp	*(___ckd_sub_schar_sloc0_1_0 + 2)
      000081 D0 1E            [ 4]  267 	bne	00104$
      000083 A5*0B            [ 3]  268 	lda	*(___ckd_sub_schar_sloc1_1_0 + 3)
      000085 C5*03            [ 3]  269 	cmp	*(___ckd_sub_schar_sloc0_1_0 + 3)
      000087 D0 18            [ 4]  270 	bne	00104$
      000089 A5*0C            [ 3]  271 	lda	*(___ckd_sub_schar_sloc1_1_0 + 4)
      00008B C5*04            [ 3]  272 	cmp	*(___ckd_sub_schar_sloc0_1_0 + 4)
      00008D D0 12            [ 4]  273 	bne	00104$
      00008F A5*0D            [ 3]  274 	lda	*(___ckd_sub_schar_sloc1_1_0 + 5)
      000091 C5*05            [ 3]  275 	cmp	*(___ckd_sub_schar_sloc0_1_0 + 5)
      000093 D0 0C            [ 4]  276 	bne	00104$
      000095 A5*0E            [ 3]  277 	lda	*(___ckd_sub_schar_sloc1_1_0 + 6)
      000097 C5*06            [ 3]  278 	cmp	*(___ckd_sub_schar_sloc0_1_0 + 6)
      000099 D0 06            [ 4]  279 	bne	00104$
      00009B A5*0F            [ 3]  280 	lda	*(___ckd_sub_schar_sloc1_1_0 + 7)
      00009D C5*07            [ 3]  281 	cmp	*(___ckd_sub_schar_sloc0_1_0 + 7)
      00009F F0 04            [ 4]  282 	beq	00112$
      0000A1                        283 00104$:
      0000A1 98               [ 2]  284 	tya
      0000A2 4CrA7r00         [ 3]  285 	jmp	00111$
      0000A5                        286 00112$:
      0000A5 A9 01            [ 2]  287 	lda	#0x01
      0000A7                        288 00111$:
                                    289 ;	Raw cost for generated ic 11 : (75, 96.799995) count=1.000000
                                    290 ;	genNot
      0000A7 49 01            [ 2]  291 	eor	#0x01
                                    292 ;	Raw cost for generated ic 12 : (2, 2.000000) count=1.000000
                                    293 ;	genRet
                                    294 ;	Raw cost for generated ic 13 : (0, 0.000000) count=1.000000
                                    295 ;	genLabel
                                    296 ;	Raw cost for generated ic 14 : (0, 0.000000) count=1.000000
                                    297 ;	genEndFunction
      0000A9 60               [ 6]  298 	rts
                                    299 ;	Raw cost for generated ic 15 : (1, 6.000000) count=1.000000
                                    300 ;------------------------------------------------------------
                                    301 ;Allocation info for local variables in function '__ckd_sub_uchar'
                                    302 ;------------------------------------------------------------
                                    303 ;a             Allocated with name '___ckd_sub_uchar_PARM_2'
                                    304 ;b             Allocated with name '___ckd_sub_uchar_PARM_3'
                                    305 ;r             Allocated with name '___ckd_sub_uchar_r_10000_27'
                                    306 ;result        Allocated with name '___ckd_sub_uchar_result_10000_28'
                                    307 ;sloc0         Allocated with name '___ckd_sub_uchar_sloc0_1_0'
                                    308 ;sloc1         Allocated with name '___ckd_sub_uchar_sloc1_1_0'
                                    309 ;------------------------------------------------------------
                                    310 ;	./../../include/stdckdint.h: 62: inline _Bool __ckd_sub_uchar __CKD_DEFAULT_IMPL(unsigned char, -)
                                    311 ;	genLabel
                                    312 ;	Raw cost for generated ic 0 : (0, 0.000000) count=1.000000
                                    313 ;	-----------------------------------------
                                    314 ;	 function __ckd_sub_uchar
                                    315 ;	-----------------------------------------
                                    316 ;	Register assignment might be sub-optimal.
                                    317 ;	Stack space usage: 0 bytes.
      0000AA                        318 ___ckd_sub_uchar:
                                    319 ;	Raw cost for generated ic 1 : (0, 0.000000) count=1.000000
                                    320 ;	genReceive
      0000AA 8Dr22r00         [ 4]  321 	sta	___ckd_sub_uchar_r_10000_27
      0000AD 8Er23r00         [ 4]  322 	stx	(___ckd_sub_uchar_r_10000_27 + 1)
                                    323 ;	Raw cost for generated ic 2 : (6, 8.000000) count=1.000000
                                    324 ;	genMinus
      0000B0 ADr12r00         [ 4]  325 	lda	___ckd_sub_uchar_PARM_2
      0000B3 38               [ 2]  326 	sec
      0000B4 EDr1Ar00         [ 4]  327 	sbc	___ckd_sub_uchar_PARM_3
      0000B7 85*00            [ 3]  328 	sta	*___ckd_sub_uchar_sloc0_1_0
      0000B9 ADr13r00         [ 4]  329 	lda	(___ckd_sub_uchar_PARM_2 + 1)
      0000BC EDr1Br00         [ 4]  330 	sbc	(___ckd_sub_uchar_PARM_3 + 1)
      0000BF 85*01            [ 3]  331 	sta	*(___ckd_sub_uchar_sloc0_1_0 + 1)
      0000C1 ADr14r00         [ 4]  332 	lda	(___ckd_sub_uchar_PARM_2 + 2)
      0000C4 EDr1Cr00         [ 4]  333 	sbc	(___ckd_sub_uchar_PARM_3 + 2)
      0000C7 85*02            [ 3]  334 	sta	*(___ckd_sub_uchar_sloc0_1_0 + 2)
      0000C9 ADr15r00         [ 4]  335 	lda	(___ckd_sub_uchar_PARM_2 + 3)
      0000CC EDr1Dr00         [ 4]  336 	sbc	(___ckd_sub_uchar_PARM_3 + 3)
      0000CF 85*03            [ 3]  337 	sta	*(___ckd_sub_uchar_sloc0_1_0 + 3)
      0000D1 ADr16r00         [ 4]  338 	lda	(___ckd_sub_uchar_PARM_2 + 4)
      0000D4 EDr1Er00         [ 4]  339 	sbc	(___ckd_sub_uchar_PARM_3 + 4)
      0000D7 85*04            [ 3]  340 	sta	*(___ckd_sub_uchar_sloc0_1_0 + 4)
      0000D9 ADr17r00         [ 4]  341 	lda	(___ckd_sub_uchar_PARM_2 + 5)
      0000DC EDr1Fr00         [ 4]  342 	sbc	(___ckd_sub_uchar_PARM_3 + 5)
      0000DF 85*05            [ 3]  343 	sta	*(___ckd_sub_uchar_sloc0_1_0 + 5)
      0000E1 ADr18r00         [ 4]  344 	lda	(___ckd_sub_uchar_PARM_2 + 6)
      0000E4 EDr20r00         [ 4]  345 	sbc	(___ckd_sub_uchar_PARM_3 + 6)
      0000E7 85*06            [ 3]  346 	sta	*(___ckd_sub_uchar_sloc0_1_0 + 6)
      0000E9 ADr19r00         [ 4]  347 	lda	(___ckd_sub_uchar_PARM_2 + 7)
      0000EC EDr21r00         [ 4]  348 	sbc	(___ckd_sub_uchar_PARM_3 + 7)
      0000EF 85*07            [ 3]  349 	sta	*(___ckd_sub_uchar_sloc0_1_0 + 7)
                                    350 ;	Raw cost for generated ic 3 : (65, 90.000000) count=1.000000
                                    351 ;	genCast
                                    352 ;	genCopy
                                    353 ;	Raw cost for generated ic 6 : (2, 3.000000) count=1.000000
                                    354 ;	genPointerSet
                                    355 ;	  setupDPTR - off=0 remat=(null) savea=0
      0000F1 AEr22r00         [ 4]  356 	ldx	___ckd_sub_uchar_r_10000_27
      0000F4 86*00            [ 3]  357 	stx	*(DPTR+0)
      0000F6 AEr23r00         [ 4]  358 	ldx	(___ckd_sub_uchar_r_10000_27 + 1)
      0000F9 86*01            [ 3]  359 	stx	*(DPTR+1)
      0000FB A6*00            [ 3]  360 	ldx	*(___ckd_sub_uchar_sloc0_1_0+0)
      0000FD 8A               [ 2]  361 	txa
      0000FE A0 00            [ 2]  362 	ldy	#0x00
      000100 91*00            [ 6]  363 	sta	[DPTR],y
      000102 A6*00            [ 3]  364 	ldx	*(___ckd_sub_uchar_sloc0_1_0+0)
                                    365 ;	Raw cost for generated ic 7 : (21, 32.000000) count=1.000000
                                    366 ;	genCast
                                    367 ;	genCopy
      000104 84*0F            [ 3]  368 	sty	*(___ckd_sub_uchar_sloc1_1_0 + 7)
      000106 84*0E            [ 3]  369 	sty	*(___ckd_sub_uchar_sloc1_1_0 + 6)
      000108 84*0D            [ 3]  370 	sty	*(___ckd_sub_uchar_sloc1_1_0 + 5)
      00010A 84*0C            [ 3]  371 	sty	*(___ckd_sub_uchar_sloc1_1_0 + 4)
      00010C 84*0B            [ 3]  372 	sty	*(___ckd_sub_uchar_sloc1_1_0 + 3)
      00010E 84*0A            [ 3]  373 	sty	*(___ckd_sub_uchar_sloc1_1_0 + 2)
      000110 84*09            [ 3]  374 	sty	*(___ckd_sub_uchar_sloc1_1_0 + 1)
      000112 86*08            [ 3]  375 	stx	*___ckd_sub_uchar_sloc1_1_0
                                    376 ;	Raw cost for generated ic 10 : (16, 24.000000) count=1.000000
                                    377 ;	genCmpEQorNE
      000114 E4*00            [ 3]  378 	cpx	*___ckd_sub_uchar_sloc0_1_0
      000116 D0 2A            [ 4]  379 	bne	00104$
      000118 A5*09            [ 3]  380 	lda	*(___ckd_sub_uchar_sloc1_1_0 + 1)
      00011A C5*01            [ 3]  381 	cmp	*(___ckd_sub_uchar_sloc0_1_0 + 1)
      00011C D0 24            [ 4]  382 	bne	00104$
      00011E A5*0A            [ 3]  383 	lda	*(___ckd_sub_uchar_sloc1_1_0 + 2)
      000120 C5*02            [ 3]  384 	cmp	*(___ckd_sub_uchar_sloc0_1_0 + 2)
      000122 D0 1E            [ 4]  385 	bne	00104$
      000124 A5*0B            [ 3]  386 	lda	*(___ckd_sub_uchar_sloc1_1_0 + 3)
      000126 C5*03            [ 3]  387 	cmp	*(___ckd_sub_uchar_sloc0_1_0 + 3)
      000128 D0 18            [ 4]  388 	bne	00104$
      00012A A5*0C            [ 3]  389 	lda	*(___ckd_sub_uchar_sloc1_1_0 + 4)
      00012C C5*04            [ 3]  390 	cmp	*(___ckd_sub_uchar_sloc0_1_0 + 4)
      00012E D0 12            [ 4]  391 	bne	00104$
      000130 A5*0D            [ 3]  392 	lda	*(___ckd_sub_uchar_sloc1_1_0 + 5)
      000132 C5*05            [ 3]  393 	cmp	*(___ckd_sub_uchar_sloc0_1_0 + 5)
      000134 D0 0C            [ 4]  394 	bne	00104$
      000136 A5*0E            [ 3]  395 	lda	*(___ckd_sub_uchar_sloc1_1_0 + 6)
      000138 C5*06            [ 3]  396 	cmp	*(___ckd_sub_uchar_sloc0_1_0 + 6)
      00013A D0 06            [ 4]  397 	bne	00104$
      00013C A5*0F            [ 3]  398 	lda	*(___ckd_sub_uchar_sloc1_1_0 + 7)
      00013E C5*07            [ 3]  399 	cmp	*(___ckd_sub_uchar_sloc0_1_0 + 7)
      000140 F0 04            [ 4]  400 	beq	00112$
      000142                        401 00104$:
      000142 98               [ 2]  402 	tya
      000143 4Cr48r01         [ 3]  403 	jmp	00111$
      000146                        404 00112$:
      000146 A9 01            [ 2]  405 	lda	#0x01
      000148                        406 00111$:
                                    407 ;	Raw cost for generated ic 11 : (73, 93.799995) count=1.000000
                                    408 ;	genNot
      000148 49 01            [ 2]  409 	eor	#0x01
                                    410 ;	Raw cost for generated ic 12 : (2, 2.000000) count=1.000000
                                    411 ;	genRet
                                    412 ;	Raw cost for generated ic 13 : (0, 0.000000) count=1.000000
                                    413 ;	genLabel
                                    414 ;	Raw cost for generated ic 14 : (0, 0.000000) count=1.000000
                                    415 ;	genEndFunction
      00014A 60               [ 6]  416 	rts
                                    417 ;	Raw cost for generated ic 15 : (1, 6.000000) count=1.000000
                                    418 ;------------------------------------------------------------
                                    419 ;Allocation info for local variables in function '__ckd_sub_short'
                                    420 ;------------------------------------------------------------
                                    421 ;a             Allocated with name '___ckd_sub_short_PARM_2'
                                    422 ;b             Allocated with name '___ckd_sub_short_PARM_3'
                                    423 ;r             Allocated with name '___ckd_sub_short_r_10000_29'
                                    424 ;result        Allocated with name '___ckd_sub_short_result_10000_30'
                                    425 ;sloc0         Allocated with name '___ckd_sub_short_sloc0_1_0'
                                    426 ;sloc1         Allocated with name '___ckd_sub_short_sloc1_1_0'
                                    427 ;------------------------------------------------------------
                                    428 ;	./../../include/stdckdint.h: 63: inline _Bool __ckd_sub_short __CKD_DEFAULT_IMPL(short, -)
                                    429 ;	genLabel
                                    430 ;	Raw cost for generated ic 0 : (0, 0.000000) count=1.000000
                                    431 ;	-----------------------------------------
                                    432 ;	 function __ckd_sub_short
                                    433 ;	-----------------------------------------
                                    434 ;	Register assignment might be sub-optimal.
                                    435 ;	Stack space usage: 0 bytes.
      00014B                        436 ___ckd_sub_short:
                                    437 ;	Raw cost for generated ic 1 : (0, 0.000000) count=1.000000
                                    438 ;	genReceive
      00014B 8Dr34r00         [ 4]  439 	sta	___ckd_sub_short_r_10000_29
      00014E 8Er35r00         [ 4]  440 	stx	(___ckd_sub_short_r_10000_29 + 1)
                                    441 ;	Raw cost for generated ic 2 : (6, 8.000000) count=1.000000
                                    442 ;	genMinus
      000151 ADr24r00         [ 4]  443 	lda	___ckd_sub_short_PARM_2
      000154 38               [ 2]  444 	sec
      000155 EDr2Cr00         [ 4]  445 	sbc	___ckd_sub_short_PARM_3
      000158 85*00            [ 3]  446 	sta	*___ckd_sub_short_sloc0_1_0
      00015A ADr25r00         [ 4]  447 	lda	(___ckd_sub_short_PARM_2 + 1)
      00015D EDr2Dr00         [ 4]  448 	sbc	(___ckd_sub_short_PARM_3 + 1)
      000160 85*01            [ 3]  449 	sta	*(___ckd_sub_short_sloc0_1_0 + 1)
      000162 ADr26r00         [ 4]  450 	lda	(___ckd_sub_short_PARM_2 + 2)
      000165 EDr2Er00         [ 4]  451 	sbc	(___ckd_sub_short_PARM_3 + 2)
      000168 85*02            [ 3]  452 	sta	*(___ckd_sub_short_sloc0_1_0 + 2)
      00016A ADr27r00         [ 4]  453 	lda	(___ckd_sub_short_PARM_2 + 3)
      00016D EDr2Fr00         [ 4]  454 	sbc	(___ckd_sub_short_PARM_3 + 3)
      000170 85*03            [ 3]  455 	sta	*(___ckd_sub_short_sloc0_1_0 + 3)
      000172 ADr28r00         [ 4]  456 	lda	(___ckd_sub_short_PARM_2 + 4)
      000175 EDr30r00         [ 4]  457 	sbc	(___ckd_sub_short_PARM_3 + 4)
      000178 85*04            [ 3]  458 	sta	*(___ckd_sub_short_sloc0_1_0 + 4)
      00017A ADr29r00         [ 4]  459 	lda	(___ckd_sub_short_PARM_2 + 5)
      00017D EDr31r00         [ 4]  460 	sbc	(___ckd_sub_short_PARM_3 + 5)
      000180 85*05            [ 3]  461 	sta	*(___ckd_sub_short_sloc0_1_0 + 5)
      000182 ADr2Ar00         [ 4]  462 	lda	(___ckd_sub_short_PARM_2 + 6)
      000185 EDr32r00         [ 4]  463 	sbc	(___ckd_sub_short_PARM_3 + 6)
      000188 85*06            [ 3]  464 	sta	*(___ckd_sub_short_sloc0_1_0 + 6)
      00018A ADr2Br00         [ 4]  465 	lda	(___ckd_sub_short_PARM_2 + 7)
      00018D EDr33r00         [ 4]  466 	sbc	(___ckd_sub_short_PARM_3 + 7)
      000190 85*07            [ 3]  467 	sta	*(___ckd_sub_short_sloc0_1_0 + 7)
                                    468 ;	Raw cost for generated ic 3 : (65, 90.000000) count=1.000000
                                    469 ;	genCast
                                    470 ;	genCopy
      000192 A6*01            [ 3]  471 	ldx	*(___ckd_sub_short_sloc0_1_0 + 1)
      000194 A5*00            [ 3]  472 	lda	*___ckd_sub_short_sloc0_1_0
                                    473 ;	Raw cost for generated ic 6 : (4, 6.000000) count=1.000000
                                    474 ;	genPointerSet
      000196 85*00            [ 3]  475 	sta	*(REGTEMP+0)
      000198 86*01            [ 3]  476 	stx	*(REGTEMP+1)
                                    477 ;	  setupDPTR - off=0 remat=(null) savea=0
      00019A AEr34r00         [ 4]  478 	ldx	___ckd_sub_short_r_10000_29
      00019D 86*00            [ 3]  479 	stx	*(DPTR+0)
      00019F AEr35r00         [ 4]  480 	ldx	(___ckd_sub_short_r_10000_29 + 1)
      0001A2 86*01            [ 3]  481 	stx	*(DPTR+1)
      0001A4 A5*00            [ 3]  482 	lda	*(REGTEMP+0)
      0001A6 A6*01            [ 3]  483 	ldx	*(REGTEMP+1)
      0001A8 A0 00            [ 2]  484 	ldy	#0x00
      0001AA 91*00            [ 6]  485 	sta	[DPTR],y
      0001AC 8A               [ 2]  486 	txa
      0001AD C8               [ 2]  487 	iny
      0001AE 91*00            [ 6]  488 	sta	[DPTR],y
      0001B0 A6*01            [ 3]  489 	ldx	*(REGTEMP+1)
      0001B2 A5*00            [ 3]  490 	lda	*(REGTEMP+0)
                                    491 ;	Raw cost for generated ic 7 : (30, 50.000000) count=1.000000
                                    492 ;	genCast
      0001B4 85*08            [ 3]  493 	sta	*___ckd_sub_short_sloc1_1_0
      0001B6 86*09            [ 3]  494 	stx	*(___ckd_sub_short_sloc1_1_0 + 1)
      0001B8 E0 80            [ 2]  495 	cpx	#0x80
      0001BA A2 00            [ 2]  496 	ldx	#0x00
      0001BC 90 01            [ 4]  497 	bcc	00103$
      0001BE CA               [ 2]  498 	dex
      0001BF                        499 00103$:
      0001BF 86*0A            [ 3]  500 	stx	*(___ckd_sub_short_sloc1_1_0 + 2)
      0001C1 86*0B            [ 3]  501 	stx	*(___ckd_sub_short_sloc1_1_0 + 3)
      0001C3 86*0C            [ 3]  502 	stx	*(___ckd_sub_short_sloc1_1_0 + 4)
      0001C5 86*0D            [ 3]  503 	stx	*(___ckd_sub_short_sloc1_1_0 + 5)
      0001C7 86*0E            [ 3]  504 	stx	*(___ckd_sub_short_sloc1_1_0 + 6)
      0001C9 86*0F            [ 3]  505 	stx	*(___ckd_sub_short_sloc1_1_0 + 7)
                                    506 ;	Raw cost for generated ic 10 : (23, 32.599998) count=1.000000
                                    507 ;	genCmpEQorNE
      0001CB C5*00            [ 3]  508 	cmp	*___ckd_sub_short_sloc0_1_0
      0001CD D0 28            [ 4]  509 	bne	00105$
      0001CF A5*09            [ 3]  510 	lda	*(___ckd_sub_short_sloc1_1_0 + 1)
      0001D1 C5*01            [ 3]  511 	cmp	*(___ckd_sub_short_sloc0_1_0 + 1)
      0001D3 D0 22            [ 4]  512 	bne	00105$
      0001D5 A5*0A            [ 3]  513 	lda	*(___ckd_sub_short_sloc1_1_0 + 2)
      0001D7 C5*02            [ 3]  514 	cmp	*(___ckd_sub_short_sloc0_1_0 + 2)
      0001D9 D0 1C            [ 4]  515 	bne	00105$
      0001DB A5*0B            [ 3]  516 	lda	*(___ckd_sub_short_sloc1_1_0 + 3)
      0001DD C5*03            [ 3]  517 	cmp	*(___ckd_sub_short_sloc0_1_0 + 3)
      0001DF D0 16            [ 4]  518 	bne	00105$
      0001E1 A5*0C            [ 3]  519 	lda	*(___ckd_sub_short_sloc1_1_0 + 4)
      0001E3 C5*04            [ 3]  520 	cmp	*(___ckd_sub_short_sloc0_1_0 + 4)
      0001E5 D0 10            [ 4]  521 	bne	00105$
      0001E7 A5*0D            [ 3]  522 	lda	*(___ckd_sub_short_sloc1_1_0 + 5)
      0001E9 C5*05            [ 3]  523 	cmp	*(___ckd_sub_short_sloc0_1_0 + 5)
      0001EB D0 0A            [ 4]  524 	bne	00105$
      0001ED A5*0E            [ 3]  525 	lda	*(___ckd_sub_short_sloc1_1_0 + 6)
      0001EF C5*06            [ 3]  526 	cmp	*(___ckd_sub_short_sloc0_1_0 + 6)
      0001F1 D0 04            [ 4]  527 	bne	00105$
      0001F3 E4*07            [ 3]  528 	cpx	*(___ckd_sub_short_sloc0_1_0 + 7)
      0001F5 F0 05            [ 4]  529 	beq	00113$
      0001F7                        530 00105$:
      0001F7 A9 00            [ 2]  531 	lda	#0x00
      0001F9 4CrFDr01         [ 3]  532 	jmp	00112$
      0001FC                        533 00113$:
      0001FC 98               [ 2]  534 	tya
      0001FD                        535 00112$:
                                    536 ;	Raw cost for generated ic 11 : (71, 90.799995) count=1.000000
                                    537 ;	genNot
      0001FD 49 01            [ 2]  538 	eor	#0x01
                                    539 ;	Raw cost for generated ic 12 : (2, 2.000000) count=1.000000
                                    540 ;	genRet
                                    541 ;	Raw cost for generated ic 13 : (0, 0.000000) count=1.000000
                                    542 ;	genLabel
                                    543 ;	Raw cost for generated ic 14 : (0, 0.000000) count=1.000000
                                    544 ;	genEndFunction
      0001FF 60               [ 6]  545 	rts
                                    546 ;	Raw cost for generated ic 15 : (1, 6.000000) count=1.000000
                                    547 ;------------------------------------------------------------
                                    548 ;Allocation info for local variables in function '__ckd_sub_ushort'
                                    549 ;------------------------------------------------------------
                                    550 ;a             Allocated with name '___ckd_sub_ushort_PARM_2'
                                    551 ;b             Allocated with name '___ckd_sub_ushort_PARM_3'
                                    552 ;r             Allocated with name '___ckd_sub_ushort_r_10000_31'
                                    553 ;result        Allocated with name '___ckd_sub_ushort_result_10000_32'
                                    554 ;sloc0         Allocated with name '___ckd_sub_ushort_sloc0_1_0'
                                    555 ;sloc1         Allocated with name '___ckd_sub_ushort_sloc1_1_0'
                                    556 ;------------------------------------------------------------
                                    557 ;	./../../include/stdckdint.h: 64: inline _Bool __ckd_sub_ushort __CKD_DEFAULT_IMPL(unsigned short, -)
                                    558 ;	genLabel
                                    559 ;	Raw cost for generated ic 0 : (0, 0.000000) count=1.000000
                                    560 ;	-----------------------------------------
                                    561 ;	 function __ckd_sub_ushort
                                    562 ;	-----------------------------------------
                                    563 ;	Register assignment might be sub-optimal.
                                    564 ;	Stack space usage: 0 bytes.
      000200                        565 ___ckd_sub_ushort:
                                    566 ;	Raw cost for generated ic 1 : (0, 0.000000) count=1.000000
                                    567 ;	genReceive
      000200 8Dr46r00         [ 4]  568 	sta	___ckd_sub_ushort_r_10000_31
      000203 8Er47r00         [ 4]  569 	stx	(___ckd_sub_ushort_r_10000_31 + 1)
                                    570 ;	Raw cost for generated ic 2 : (6, 8.000000) count=1.000000
                                    571 ;	genMinus
      000206 ADr36r00         [ 4]  572 	lda	___ckd_sub_ushort_PARM_2
      000209 38               [ 2]  573 	sec
      00020A EDr3Er00         [ 4]  574 	sbc	___ckd_sub_ushort_PARM_3
      00020D 85*00            [ 3]  575 	sta	*___ckd_sub_ushort_sloc0_1_0
      00020F ADr37r00         [ 4]  576 	lda	(___ckd_sub_ushort_PARM_2 + 1)
      000212 EDr3Fr00         [ 4]  577 	sbc	(___ckd_sub_ushort_PARM_3 + 1)
      000215 85*01            [ 3]  578 	sta	*(___ckd_sub_ushort_sloc0_1_0 + 1)
      000217 ADr38r00         [ 4]  579 	lda	(___ckd_sub_ushort_PARM_2 + 2)
      00021A EDr40r00         [ 4]  580 	sbc	(___ckd_sub_ushort_PARM_3 + 2)
      00021D 85*02            [ 3]  581 	sta	*(___ckd_sub_ushort_sloc0_1_0 + 2)
      00021F ADr39r00         [ 4]  582 	lda	(___ckd_sub_ushort_PARM_2 + 3)
      000222 EDr41r00         [ 4]  583 	sbc	(___ckd_sub_ushort_PARM_3 + 3)
      000225 85*03            [ 3]  584 	sta	*(___ckd_sub_ushort_sloc0_1_0 + 3)
      000227 ADr3Ar00         [ 4]  585 	lda	(___ckd_sub_ushort_PARM_2 + 4)
      00022A EDr42r00         [ 4]  586 	sbc	(___ckd_sub_ushort_PARM_3 + 4)
      00022D 85*04            [ 3]  587 	sta	*(___ckd_sub_ushort_sloc0_1_0 + 4)
      00022F ADr3Br00         [ 4]  588 	lda	(___ckd_sub_ushort_PARM_2 + 5)
      000232 EDr43r00         [ 4]  589 	sbc	(___ckd_sub_ushort_PARM_3 + 5)
      000235 85*05            [ 3]  590 	sta	*(___ckd_sub_ushort_sloc0_1_0 + 5)
      000237 ADr3Cr00         [ 4]  591 	lda	(___ckd_sub_ushort_PARM_2 + 6)
      00023A EDr44r00         [ 4]  592 	sbc	(___ckd_sub_ushort_PARM_3 + 6)
      00023D 85*06            [ 3]  593 	sta	*(___ckd_sub_ushort_sloc0_1_0 + 6)
      00023F ADr3Dr00         [ 4]  594 	lda	(___ckd_sub_ushort_PARM_2 + 7)
      000242 EDr45r00         [ 4]  595 	sbc	(___ckd_sub_ushort_PARM_3 + 7)
      000245 85*07            [ 3]  596 	sta	*(___ckd_sub_ushort_sloc0_1_0 + 7)
                                    597 ;	Raw cost for generated ic 3 : (65, 90.000000) count=1.000000
                                    598 ;	genCast
                                    599 ;	genCopy
      000247 A6*01            [ 3]  600 	ldx	*(___ckd_sub_ushort_sloc0_1_0 + 1)
      000249 A5*00            [ 3]  601 	lda	*___ckd_sub_ushort_sloc0_1_0
                                    602 ;	Raw cost for generated ic 6 : (4, 6.000000) count=1.000000
                                    603 ;	genPointerSet
      00024B 85*00            [ 3]  604 	sta	*(REGTEMP+0)
      00024D 86*01            [ 3]  605 	stx	*(REGTEMP+1)
                                    606 ;	  setupDPTR - off=0 remat=(null) savea=0
      00024F AEr46r00         [ 4]  607 	ldx	___ckd_sub_ushort_r_10000_31
      000252 86*00            [ 3]  608 	stx	*(DPTR+0)
      000254 AEr47r00         [ 4]  609 	ldx	(___ckd_sub_ushort_r_10000_31 + 1)
      000257 86*01            [ 3]  610 	stx	*(DPTR+1)
      000259 A5*00            [ 3]  611 	lda	*(REGTEMP+0)
      00025B A6*01            [ 3]  612 	ldx	*(REGTEMP+1)
      00025D A0 00            [ 2]  613 	ldy	#0x00
      00025F 91*00            [ 6]  614 	sta	[DPTR],y
      000261 8A               [ 2]  615 	txa
      000262 C8               [ 2]  616 	iny
      000263 91*00            [ 6]  617 	sta	[DPTR],y
      000265 A6*01            [ 3]  618 	ldx	*(REGTEMP+1)
      000267 A5*00            [ 3]  619 	lda	*(REGTEMP+0)
                                    620 ;	Raw cost for generated ic 7 : (30, 50.000000) count=1.000000
                                    621 ;	genCast
                                    622 ;	genCopy
      000269 88               [ 2]  623 	dey
      00026A 84*0F            [ 3]  624 	sty	*(___ckd_sub_ushort_sloc1_1_0 + 7)
      00026C 84*0E            [ 3]  625 	sty	*(___ckd_sub_ushort_sloc1_1_0 + 6)
      00026E 84*0D            [ 3]  626 	sty	*(___ckd_sub_ushort_sloc1_1_0 + 5)
      000270 84*0C            [ 3]  627 	sty	*(___ckd_sub_ushort_sloc1_1_0 + 4)
      000272 84*0B            [ 3]  628 	sty	*(___ckd_sub_ushort_sloc1_1_0 + 3)
      000274 84*0A            [ 3]  629 	sty	*(___ckd_sub_ushort_sloc1_1_0 + 2)
      000276 86*09            [ 3]  630 	stx	*(___ckd_sub_ushort_sloc1_1_0 + 1)
      000278 85*08            [ 3]  631 	sta	*___ckd_sub_ushort_sloc1_1_0
                                    632 ;	Raw cost for generated ic 10 : (17, 26.000000) count=1.000000
                                    633 ;	genCmpEQorNE
      00027A C5*00            [ 3]  634 	cmp	*___ckd_sub_ushort_sloc0_1_0
      00027C D0 28            [ 4]  635 	bne	00104$
      00027E E4*01            [ 3]  636 	cpx	*(___ckd_sub_ushort_sloc0_1_0 + 1)
      000280 D0 24            [ 4]  637 	bne	00104$
      000282 A5*0A            [ 3]  638 	lda	*(___ckd_sub_ushort_sloc1_1_0 + 2)
      000284 C5*02            [ 3]  639 	cmp	*(___ckd_sub_ushort_sloc0_1_0 + 2)
      000286 D0 1E            [ 4]  640 	bne	00104$
      000288 A5*0B            [ 3]  641 	lda	*(___ckd_sub_ushort_sloc1_1_0 + 3)
      00028A C5*03            [ 3]  642 	cmp	*(___ckd_sub_ushort_sloc0_1_0 + 3)
      00028C D0 18            [ 4]  643 	bne	00104$
      00028E A5*0C            [ 3]  644 	lda	*(___ckd_sub_ushort_sloc1_1_0 + 4)
      000290 C5*04            [ 3]  645 	cmp	*(___ckd_sub_ushort_sloc0_1_0 + 4)
      000292 D0 12            [ 4]  646 	bne	00104$
      000294 A5*0D            [ 3]  647 	lda	*(___ckd_sub_ushort_sloc1_1_0 + 5)
      000296 C5*05            [ 3]  648 	cmp	*(___ckd_sub_ushort_sloc0_1_0 + 5)
      000298 D0 0C            [ 4]  649 	bne	00104$
      00029A A5*0E            [ 3]  650 	lda	*(___ckd_sub_ushort_sloc1_1_0 + 6)
      00029C C5*06            [ 3]  651 	cmp	*(___ckd_sub_ushort_sloc0_1_0 + 6)
      00029E D0 06            [ 4]  652 	bne	00104$
      0002A0 A5*0F            [ 3]  653 	lda	*(___ckd_sub_ushort_sloc1_1_0 + 7)
      0002A2 C5*07            [ 3]  654 	cmp	*(___ckd_sub_ushort_sloc0_1_0 + 7)
      0002A4 F0 04            [ 4]  655 	beq	00112$
      0002A6                        656 00104$:
      0002A6 98               [ 2]  657 	tya
      0002A7 4CrACr02         [ 3]  658 	jmp	00111$
      0002AA                        659 00112$:
      0002AA A9 01            [ 2]  660 	lda	#0x01
      0002AC                        661 00111$:
                                    662 ;	Raw cost for generated ic 11 : (71, 90.799995) count=1.000000
                                    663 ;	genNot
      0002AC 49 01            [ 2]  664 	eor	#0x01
                                    665 ;	Raw cost for generated ic 12 : (2, 2.000000) count=1.000000
                                    666 ;	genRet
                                    667 ;	Raw cost for generated ic 13 : (0, 0.000000) count=1.000000
                                    668 ;	genLabel
                                    669 ;	Raw cost for generated ic 14 : (0, 0.000000) count=1.000000
                                    670 ;	genEndFunction
      0002AE 60               [ 6]  671 	rts
                                    672 ;	Raw cost for generated ic 15 : (1, 6.000000) count=1.000000
                                    673 ;------------------------------------------------------------
                                    674 ;Allocation info for local variables in function '__ckd_sub_int'
                                    675 ;------------------------------------------------------------
                                    676 ;a             Allocated with name '___ckd_sub_int_PARM_2'
                                    677 ;b             Allocated with name '___ckd_sub_int_PARM_3'
                                    678 ;r             Allocated with name '___ckd_sub_int_r_10000_33'
                                    679 ;result        Allocated with name '___ckd_sub_int_result_10000_34'
                                    680 ;sloc0         Allocated with name '___ckd_sub_int_sloc0_1_0'
                                    681 ;sloc1         Allocated with name '___ckd_sub_int_sloc1_1_0'
                                    682 ;------------------------------------------------------------
                                    683 ;	./../../include/stdckdint.h: 65: inline _Bool __ckd_sub_int __CKD_DEFAULT_IMPL(int, -)
                                    684 ;	genLabel
                                    685 ;	Raw cost for generated ic 0 : (0, 0.000000) count=1.000000
                                    686 ;	-----------------------------------------
                                    687 ;	 function __ckd_sub_int
                                    688 ;	-----------------------------------------
                                    689 ;	Register assignment might be sub-optimal.
                                    690 ;	Stack space usage: 0 bytes.
      0002AF                        691 ___ckd_sub_int:
                                    692 ;	Raw cost for generated ic 1 : (0, 0.000000) count=1.000000
                                    693 ;	genReceive
      0002AF 8Dr58r00         [ 4]  694 	sta	___ckd_sub_int_r_10000_33
      0002B2 8Er59r00         [ 4]  695 	stx	(___ckd_sub_int_r_10000_33 + 1)
                                    696 ;	Raw cost for generated ic 2 : (6, 8.000000) count=1.000000
                                    697 ;	genMinus
      0002B5 ADr48r00         [ 4]  698 	lda	___ckd_sub_int_PARM_2
      0002B8 38               [ 2]  699 	sec
      0002B9 EDr50r00         [ 4]  700 	sbc	___ckd_sub_int_PARM_3
      0002BC 85*00            [ 3]  701 	sta	*___ckd_sub_int_sloc0_1_0
      0002BE ADr49r00         [ 4]  702 	lda	(___ckd_sub_int_PARM_2 + 1)
      0002C1 EDr51r00         [ 4]  703 	sbc	(___ckd_sub_int_PARM_3 + 1)
      0002C4 85*01            [ 3]  704 	sta	*(___ckd_sub_int_sloc0_1_0 + 1)
      0002C6 ADr4Ar00         [ 4]  705 	lda	(___ckd_sub_int_PARM_2 + 2)
      0002C9 EDr52r00         [ 4]  706 	sbc	(___ckd_sub_int_PARM_3 + 2)
      0002CC 85*02            [ 3]  707 	sta	*(___ckd_sub_int_sloc0_1_0 + 2)
      0002CE ADr4Br00         [ 4]  708 	lda	(___ckd_sub_int_PARM_2 + 3)
      0002D1 EDr53r00         [ 4]  709 	sbc	(___ckd_sub_int_PARM_3 + 3)
      0002D4 85*03            [ 3]  710 	sta	*(___ckd_sub_int_sloc0_1_0 + 3)
      0002D6 ADr4Cr00         [ 4]  711 	lda	(___ckd_sub_int_PARM_2 + 4)
      0002D9 EDr54r00         [ 4]  712 	sbc	(___ckd_sub_int_PARM_3 + 4)
      0002DC 85*04            [ 3]  713 	sta	*(___ckd_sub_int_sloc0_1_0 + 4)
      0002DE ADr4Dr00         [ 4]  714 	lda	(___ckd_sub_int_PARM_2 + 5)
      0002E1 EDr55r00         [ 4]  715 	sbc	(___ckd_sub_int_PARM_3 + 5)
      0002E4 85*05            [ 3]  716 	sta	*(___ckd_sub_int_sloc0_1_0 + 5)
      0002E6 ADr4Er00         [ 4]  717 	lda	(___ckd_sub_int_PARM_2 + 6)
      0002E9 EDr56r00         [ 4]  718 	sbc	(___ckd_sub_int_PARM_3 + 6)
      0002EC 85*06            [ 3]  719 	sta	*(___ckd_sub_int_sloc0_1_0 + 6)
      0002EE ADr4Fr00         [ 4]  720 	lda	(___ckd_sub_int_PARM_2 + 7)
      0002F1 EDr57r00         [ 4]  721 	sbc	(___ckd_sub_int_PARM_3 + 7)
      0002F4 85*07            [ 3]  722 	sta	*(___ckd_sub_int_sloc0_1_0 + 7)
                                    723 ;	Raw cost for generated ic 3 : (65, 90.000000) count=1.000000
                                    724 ;	genCast
                                    725 ;	genCopy
      0002F6 A6*01            [ 3]  726 	ldx	*(___ckd_sub_int_sloc0_1_0 + 1)
      0002F8 A5*00            [ 3]  727 	lda	*___ckd_sub_int_sloc0_1_0
                                    728 ;	Raw cost for generated ic 6 : (4, 6.000000) count=1.000000
                                    729 ;	genPointerSet
      0002FA 85*00            [ 3]  730 	sta	*(REGTEMP+0)
      0002FC 86*01            [ 3]  731 	stx	*(REGTEMP+1)
                                    732 ;	  setupDPTR - off=0 remat=(null) savea=0
      0002FE AEr58r00         [ 4]  733 	ldx	___ckd_sub_int_r_10000_33
      000301 86*00            [ 3]  734 	stx	*(DPTR+0)
      000303 AEr59r00         [ 4]  735 	ldx	(___ckd_sub_int_r_10000_33 + 1)
      000306 86*01            [ 3]  736 	stx	*(DPTR+1)
      000308 A5*00            [ 3]  737 	lda	*(REGTEMP+0)
      00030A A6*01            [ 3]  738 	ldx	*(REGTEMP+1)
      00030C A0 00            [ 2]  739 	ldy	#0x00
      00030E 91*00            [ 6]  740 	sta	[DPTR],y
      000310 8A               [ 2]  741 	txa
      000311 C8               [ 2]  742 	iny
      000312 91*00            [ 6]  743 	sta	[DPTR],y
      000314 A6*01            [ 3]  744 	ldx	*(REGTEMP+1)
      000316 A5*00            [ 3]  745 	lda	*(REGTEMP+0)
                                    746 ;	Raw cost for generated ic 7 : (30, 50.000000) count=1.000000
                                    747 ;	genCast
      000318 85*08            [ 3]  748 	sta	*___ckd_sub_int_sloc1_1_0
      00031A 86*09            [ 3]  749 	stx	*(___ckd_sub_int_sloc1_1_0 + 1)
      00031C E0 80            [ 2]  750 	cpx	#0x80
      00031E A2 00            [ 2]  751 	ldx	#0x00
      000320 90 01            [ 4]  752 	bcc	00103$
      000322 CA               [ 2]  753 	dex
      000323                        754 00103$:
      000323 86*0A            [ 3]  755 	stx	*(___ckd_sub_int_sloc1_1_0 + 2)
      000325 86*0B            [ 3]  756 	stx	*(___ckd_sub_int_sloc1_1_0 + 3)
      000327 86*0C            [ 3]  757 	stx	*(___ckd_sub_int_sloc1_1_0 + 4)
      000329 86*0D            [ 3]  758 	stx	*(___ckd_sub_int_sloc1_1_0 + 5)
      00032B 86*0E            [ 3]  759 	stx	*(___ckd_sub_int_sloc1_1_0 + 6)
      00032D 86*0F            [ 3]  760 	stx	*(___ckd_sub_int_sloc1_1_0 + 7)
                                    761 ;	Raw cost for generated ic 10 : (23, 32.599998) count=1.000000
                                    762 ;	genCmpEQorNE
      00032F C5*00            [ 3]  763 	cmp	*___ckd_sub_int_sloc0_1_0
      000331 D0 28            [ 4]  764 	bne	00105$
      000333 A5*09            [ 3]  765 	lda	*(___ckd_sub_int_sloc1_1_0 + 1)
      000335 C5*01            [ 3]  766 	cmp	*(___ckd_sub_int_sloc0_1_0 + 1)
      000337 D0 22            [ 4]  767 	bne	00105$
      000339 A5*0A            [ 3]  768 	lda	*(___ckd_sub_int_sloc1_1_0 + 2)
      00033B C5*02            [ 3]  769 	cmp	*(___ckd_sub_int_sloc0_1_0 + 2)
      00033D D0 1C            [ 4]  770 	bne	00105$
      00033F A5*0B            [ 3]  771 	lda	*(___ckd_sub_int_sloc1_1_0 + 3)
      000341 C5*03            [ 3]  772 	cmp	*(___ckd_sub_int_sloc0_1_0 + 3)
      000343 D0 16            [ 4]  773 	bne	00105$
      000345 A5*0C            [ 3]  774 	lda	*(___ckd_sub_int_sloc1_1_0 + 4)
      000347 C5*04            [ 3]  775 	cmp	*(___ckd_sub_int_sloc0_1_0 + 4)
      000349 D0 10            [ 4]  776 	bne	00105$
      00034B A5*0D            [ 3]  777 	lda	*(___ckd_sub_int_sloc1_1_0 + 5)
      00034D C5*05            [ 3]  778 	cmp	*(___ckd_sub_int_sloc0_1_0 + 5)
      00034F D0 0A            [ 4]  779 	bne	00105$
      000351 A5*0E            [ 3]  780 	lda	*(___ckd_sub_int_sloc1_1_0 + 6)
      000353 C5*06            [ 3]  781 	cmp	*(___ckd_sub_int_sloc0_1_0 + 6)
      000355 D0 04            [ 4]  782 	bne	00105$
      000357 E4*07            [ 3]  783 	cpx	*(___ckd_sub_int_sloc0_1_0 + 7)
      000359 F0 05            [ 4]  784 	beq	00113$
      00035B                        785 00105$:
      00035B A9 00            [ 2]  786 	lda	#0x00
      00035D 4Cr61r03         [ 3]  787 	jmp	00112$
      000360                        788 00113$:
      000360 98               [ 2]  789 	tya
      000361                        790 00112$:
                                    791 ;	Raw cost for generated ic 11 : (71, 90.799995) count=1.000000
                                    792 ;	genNot
      000361 49 01            [ 2]  793 	eor	#0x01
                                    794 ;	Raw cost for generated ic 12 : (2, 2.000000) count=1.000000
                                    795 ;	genRet
                                    796 ;	Raw cost for generated ic 13 : (0, 0.000000) count=1.000000
                                    797 ;	genLabel
                                    798 ;	Raw cost for generated ic 14 : (0, 0.000000) count=1.000000
                                    799 ;	genEndFunction
      000363 60               [ 6]  800 	rts
                                    801 ;	Raw cost for generated ic 15 : (1, 6.000000) count=1.000000
                                    802 ;------------------------------------------------------------
                                    803 ;Allocation info for local variables in function '__ckd_sub_uint'
                                    804 ;------------------------------------------------------------
                                    805 ;a             Allocated with name '___ckd_sub_uint_PARM_2'
                                    806 ;b             Allocated with name '___ckd_sub_uint_PARM_3'
                                    807 ;r             Allocated with name '___ckd_sub_uint_r_10000_35'
                                    808 ;result        Allocated with name '___ckd_sub_uint_result_10000_36'
                                    809 ;sloc0         Allocated with name '___ckd_sub_uint_sloc0_1_0'
                                    810 ;sloc1         Allocated with name '___ckd_sub_uint_sloc1_1_0'
                                    811 ;------------------------------------------------------------
                                    812 ;	./../../include/stdckdint.h: 66: inline _Bool __ckd_sub_uint __CKD_DEFAULT_IMPL(unsigned int, -)
                                    813 ;	genLabel
                                    814 ;	Raw cost for generated ic 0 : (0, 0.000000) count=1.000000
                                    815 ;	-----------------------------------------
                                    816 ;	 function __ckd_sub_uint
                                    817 ;	-----------------------------------------
                                    818 ;	Register assignment might be sub-optimal.
                                    819 ;	Stack space usage: 0 bytes.
      000364                        820 ___ckd_sub_uint:
                                    821 ;	Raw cost for generated ic 1 : (0, 0.000000) count=1.000000
                                    822 ;	genReceive
      000364 8Dr6Ar00         [ 4]  823 	sta	___ckd_sub_uint_r_10000_35
      000367 8Er6Br00         [ 4]  824 	stx	(___ckd_sub_uint_r_10000_35 + 1)
                                    825 ;	Raw cost for generated ic 2 : (6, 8.000000) count=1.000000
                                    826 ;	genMinus
      00036A ADr5Ar00         [ 4]  827 	lda	___ckd_sub_uint_PARM_2
      00036D 38               [ 2]  828 	sec
      00036E EDr62r00         [ 4]  829 	sbc	___ckd_sub_uint_PARM_3
      000371 85*00            [ 3]  830 	sta	*___ckd_sub_uint_sloc0_1_0
      000373 ADr5Br00         [ 4]  831 	lda	(___ckd_sub_uint_PARM_2 + 1)
      000376 EDr63r00         [ 4]  832 	sbc	(___ckd_sub_uint_PARM_3 + 1)
      000379 85*01            [ 3]  833 	sta	*(___ckd_sub_uint_sloc0_1_0 + 1)
      00037B ADr5Cr00         [ 4]  834 	lda	(___ckd_sub_uint_PARM_2 + 2)
      00037E EDr64r00         [ 4]  835 	sbc	(___ckd_sub_uint_PARM_3 + 2)
      000381 85*02            [ 3]  836 	sta	*(___ckd_sub_uint_sloc0_1_0 + 2)
      000383 ADr5Dr00         [ 4]  837 	lda	(___ckd_sub_uint_PARM_2 + 3)
      000386 EDr65r00         [ 4]  838 	sbc	(___ckd_sub_uint_PARM_3 + 3)
      000389 85*03            [ 3]  839 	sta	*(___ckd_sub_uint_sloc0_1_0 + 3)
      00038B ADr5Er00         [ 4]  840 	lda	(___ckd_sub_uint_PARM_2 + 4)
      00038E EDr66r00         [ 4]  841 	sbc	(___ckd_sub_uint_PARM_3 + 4)
      000391 85*04            [ 3]  842 	sta	*(___ckd_sub_uint_sloc0_1_0 + 4)
      000393 ADr5Fr00         [ 4]  843 	lda	(___ckd_sub_uint_PARM_2 + 5)
      000396 EDr67r00         [ 4]  844 	sbc	(___ckd_sub_uint_PARM_3 + 5)
      000399 85*05            [ 3]  845 	sta	*(___ckd_sub_uint_sloc0_1_0 + 5)
      00039B ADr60r00         [ 4]  846 	lda	(___ckd_sub_uint_PARM_2 + 6)
      00039E EDr68r00         [ 4]  847 	sbc	(___ckd_sub_uint_PARM_3 + 6)
      0003A1 85*06            [ 3]  848 	sta	*(___ckd_sub_uint_sloc0_1_0 + 6)
      0003A3 ADr61r00         [ 4]  849 	lda	(___ckd_sub_uint_PARM_2 + 7)
      0003A6 EDr69r00         [ 4]  850 	sbc	(___ckd_sub_uint_PARM_3 + 7)
      0003A9 85*07            [ 3]  851 	sta	*(___ckd_sub_uint_sloc0_1_0 + 7)
                                    852 ;	Raw cost for generated ic 3 : (65, 90.000000) count=1.000000
                                    853 ;	genCast
                                    854 ;	genCopy
      0003AB A6*01            [ 3]  855 	ldx	*(___ckd_sub_uint_sloc0_1_0 + 1)
      0003AD A5*00            [ 3]  856 	lda	*___ckd_sub_uint_sloc0_1_0
                                    857 ;	Raw cost for generated ic 6 : (4, 6.000000) count=1.000000
                                    858 ;	genPointerSet
      0003AF 85*00            [ 3]  859 	sta	*(REGTEMP+0)
      0003B1 86*01            [ 3]  860 	stx	*(REGTEMP+1)
                                    861 ;	  setupDPTR - off=0 remat=(null) savea=0
      0003B3 AEr6Ar00         [ 4]  862 	ldx	___ckd_sub_uint_r_10000_35
      0003B6 86*00            [ 3]  863 	stx	*(DPTR+0)
      0003B8 AEr6Br00         [ 4]  864 	ldx	(___ckd_sub_uint_r_10000_35 + 1)
      0003BB 86*01            [ 3]  865 	stx	*(DPTR+1)
      0003BD A5*00            [ 3]  866 	lda	*(REGTEMP+0)
      0003BF A6*01            [ 3]  867 	ldx	*(REGTEMP+1)
      0003C1 A0 00            [ 2]  868 	ldy	#0x00
      0003C3 91*00            [ 6]  869 	sta	[DPTR],y
      0003C5 8A               [ 2]  870 	txa
      0003C6 C8               [ 2]  871 	iny
      0003C7 91*00            [ 6]  872 	sta	[DPTR],y
      0003C9 A6*01            [ 3]  873 	ldx	*(REGTEMP+1)
      0003CB A5*00            [ 3]  874 	lda	*(REGTEMP+0)
                                    875 ;	Raw cost for generated ic 7 : (30, 50.000000) count=1.000000
                                    876 ;	genCast
                                    877 ;	genCopy
      0003CD 88               [ 2]  878 	dey
      0003CE 84*0F            [ 3]  879 	sty	*(___ckd_sub_uint_sloc1_1_0 + 7)
      0003D0 84*0E            [ 3]  880 	sty	*(___ckd_sub_uint_sloc1_1_0 + 6)
      0003D2 84*0D            [ 3]  881 	sty	*(___ckd_sub_uint_sloc1_1_0 + 5)
      0003D4 84*0C            [ 3]  882 	sty	*(___ckd_sub_uint_sloc1_1_0 + 4)
      0003D6 84*0B            [ 3]  883 	sty	*(___ckd_sub_uint_sloc1_1_0 + 3)
      0003D8 84*0A            [ 3]  884 	sty	*(___ckd_sub_uint_sloc1_1_0 + 2)
      0003DA 86*09            [ 3]  885 	stx	*(___ckd_sub_uint_sloc1_1_0 + 1)
      0003DC 85*08            [ 3]  886 	sta	*___ckd_sub_uint_sloc1_1_0
                                    887 ;	Raw cost for generated ic 10 : (17, 26.000000) count=1.000000
                                    888 ;	genCmpEQorNE
      0003DE C5*00            [ 3]  889 	cmp	*___ckd_sub_uint_sloc0_1_0
      0003E0 D0 28            [ 4]  890 	bne	00104$
      0003E2 E4*01            [ 3]  891 	cpx	*(___ckd_sub_uint_sloc0_1_0 + 1)
      0003E4 D0 24            [ 4]  892 	bne	00104$
      0003E6 A5*0A            [ 3]  893 	lda	*(___ckd_sub_uint_sloc1_1_0 + 2)
      0003E8 C5*02            [ 3]  894 	cmp	*(___ckd_sub_uint_sloc0_1_0 + 2)
      0003EA D0 1E            [ 4]  895 	bne	00104$
      0003EC A5*0B            [ 3]  896 	lda	*(___ckd_sub_uint_sloc1_1_0 + 3)
      0003EE C5*03            [ 3]  897 	cmp	*(___ckd_sub_uint_sloc0_1_0 + 3)
      0003F0 D0 18            [ 4]  898 	bne	00104$
      0003F2 A5*0C            [ 3]  899 	lda	*(___ckd_sub_uint_sloc1_1_0 + 4)
      0003F4 C5*04            [ 3]  900 	cmp	*(___ckd_sub_uint_sloc0_1_0 + 4)
      0003F6 D0 12            [ 4]  901 	bne	00104$
      0003F8 A5*0D            [ 3]  902 	lda	*(___ckd_sub_uint_sloc1_1_0 + 5)
      0003FA C5*05            [ 3]  903 	cmp	*(___ckd_sub_uint_sloc0_1_0 + 5)
      0003FC D0 0C            [ 4]  904 	bne	00104$
      0003FE A5*0E            [ 3]  905 	lda	*(___ckd_sub_uint_sloc1_1_0 + 6)
      000400 C5*06            [ 3]  906 	cmp	*(___ckd_sub_uint_sloc0_1_0 + 6)
      000402 D0 06            [ 4]  907 	bne	00104$
      000404 A5*0F            [ 3]  908 	lda	*(___ckd_sub_uint_sloc1_1_0 + 7)
      000406 C5*07            [ 3]  909 	cmp	*(___ckd_sub_uint_sloc0_1_0 + 7)
      000408 F0 04            [ 4]  910 	beq	00112$
      00040A                        911 00104$:
      00040A 98               [ 2]  912 	tya
      00040B 4Cr10r04         [ 3]  913 	jmp	00111$
      00040E                        914 00112$:
      00040E A9 01            [ 2]  915 	lda	#0x01
      000410                        916 00111$:
                                    917 ;	Raw cost for generated ic 11 : (71, 90.799995) count=1.000000
                                    918 ;	genNot
      000410 49 01            [ 2]  919 	eor	#0x01
                                    920 ;	Raw cost for generated ic 12 : (2, 2.000000) count=1.000000
                                    921 ;	genRet
                                    922 ;	Raw cost for generated ic 13 : (0, 0.000000) count=1.000000
                                    923 ;	genLabel
                                    924 ;	Raw cost for generated ic 14 : (0, 0.000000) count=1.000000
                                    925 ;	genEndFunction
      000412 60               [ 6]  926 	rts
                                    927 ;	Raw cost for generated ic 15 : (1, 6.000000) count=1.000000
                                    928 ;------------------------------------------------------------
                                    929 ;Allocation info for local variables in function '__ckd_sub_long'
                                    930 ;------------------------------------------------------------
                                    931 ;a             Allocated with name '___ckd_sub_long_PARM_2'
                                    932 ;b             Allocated with name '___ckd_sub_long_PARM_3'
                                    933 ;r             Allocated with name '___ckd_sub_long_r_10000_37'
                                    934 ;result        Allocated with name '___ckd_sub_long_result_10000_38'
                                    935 ;sloc0         Allocated with name '___ckd_sub_long_sloc0_1_0'
                                    936 ;sloc1         Allocated with name '___ckd_sub_long_sloc1_1_0'
                                    937 ;sloc2         Allocated with name '___ckd_sub_long_sloc2_1_0'
                                    938 ;------------------------------------------------------------
                                    939 ;	./../../include/stdckdint.h: 67: inline _Bool __ckd_sub_long __CKD_DEFAULT_IMPL(long, -)
                                    940 ;	genLabel
                                    941 ;	Raw cost for generated ic 0 : (0, 0.000000) count=1.000000
                                    942 ;	-----------------------------------------
                                    943 ;	 function __ckd_sub_long
                                    944 ;	-----------------------------------------
                                    945 ;	Register assignment might be sub-optimal.
                                    946 ;	Stack space usage: 0 bytes.
      000413                        947 ___ckd_sub_long:
                                    948 ;	Raw cost for generated ic 1 : (0, 0.000000) count=1.000000
                                    949 ;	genReceive
      000413 8Dr7Cr00         [ 4]  950 	sta	___ckd_sub_long_r_10000_37
      000416 8Er7Dr00         [ 4]  951 	stx	(___ckd_sub_long_r_10000_37 + 1)
                                    952 ;	Raw cost for generated ic 2 : (6, 8.000000) count=1.000000
                                    953 ;	genMinus
      000419 ADr6Cr00         [ 4]  954 	lda	___ckd_sub_long_PARM_2
      00041C 38               [ 2]  955 	sec
      00041D EDr74r00         [ 4]  956 	sbc	___ckd_sub_long_PARM_3
      000420 85*00            [ 3]  957 	sta	*___ckd_sub_long_sloc0_1_0
      000422 ADr6Dr00         [ 4]  958 	lda	(___ckd_sub_long_PARM_2 + 1)
      000425 EDr75r00         [ 4]  959 	sbc	(___ckd_sub_long_PARM_3 + 1)
      000428 85*01            [ 3]  960 	sta	*(___ckd_sub_long_sloc0_1_0 + 1)
      00042A ADr6Er00         [ 4]  961 	lda	(___ckd_sub_long_PARM_2 + 2)
      00042D EDr76r00         [ 4]  962 	sbc	(___ckd_sub_long_PARM_3 + 2)
      000430 85*02            [ 3]  963 	sta	*(___ckd_sub_long_sloc0_1_0 + 2)
      000432 ADr6Fr00         [ 4]  964 	lda	(___ckd_sub_long_PARM_2 + 3)
      000435 EDr77r00         [ 4]  965 	sbc	(___ckd_sub_long_PARM_3 + 3)
      000438 85*03            [ 3]  966 	sta	*(___ckd_sub_long_sloc0_1_0 + 3)
      00043A ADr70r00         [ 4]  967 	lda	(___ckd_sub_long_PARM_2 + 4)
      00043D EDr78r00         [ 4]  968 	sbc	(___ckd_sub_long_PARM_3 + 4)
      000440 85*04            [ 3]  969 	sta	*(___ckd_sub_long_sloc0_1_0 + 4)
      000442 ADr71r00         [ 4]  970 	lda	(___ckd_sub_long_PARM_2 + 5)
      000445 EDr79r00         [ 4]  971 	sbc	(___ckd_sub_long_PARM_3 + 5)
      000448 85*05            [ 3]  972 	sta	*(___ckd_sub_long_sloc0_1_0 + 5)
      00044A ADr72r00         [ 4]  973 	lda	(___ckd_sub_long_PARM_2 + 6)
      00044D EDr7Ar00         [ 4]  974 	sbc	(___ckd_sub_long_PARM_3 + 6)
      000450 85*06            [ 3]  975 	sta	*(___ckd_sub_long_sloc0_1_0 + 6)
      000452 ADr73r00         [ 4]  976 	lda	(___ckd_sub_long_PARM_2 + 7)
      000455 EDr7Br00         [ 4]  977 	sbc	(___ckd_sub_long_PARM_3 + 7)
      000458 85*07            [ 3]  978 	sta	*(___ckd_sub_long_sloc0_1_0 + 7)
                                    979 ;	Raw cost for generated ic 3 : (65, 90.000000) count=1.000000
                                    980 ;	genCast
                                    981 ;	genCopy
      00045A A5*03            [ 3]  982 	lda	*(___ckd_sub_long_sloc0_1_0 + 3)
      00045C 85*0B            [ 3]  983 	sta	*(___ckd_sub_long_sloc1_1_0 + 3)
      00045E A5*02            [ 3]  984 	lda	*(___ckd_sub_long_sloc0_1_0 + 2)
      000460 85*0A            [ 3]  985 	sta	*(___ckd_sub_long_sloc1_1_0 + 2)
      000462 A5*01            [ 3]  986 	lda	*(___ckd_sub_long_sloc0_1_0 + 1)
      000464 85*09            [ 3]  987 	sta	*(___ckd_sub_long_sloc1_1_0 + 1)
      000466 A5*00            [ 3]  988 	lda	*___ckd_sub_long_sloc0_1_0
      000468 85*08            [ 3]  989 	sta	*___ckd_sub_long_sloc1_1_0
                                    990 ;	Raw cost for generated ic 6 : (16, 24.000000) count=1.000000
                                    991 ;	genPointerSet
                                    992 ;	  setupDPTR - off=0 remat=(null) savea=0
      00046A 86*01            [ 3]  993 	stx	*(DPTR+1)
      00046C AEr7Cr00         [ 4]  994 	ldx	___ckd_sub_long_r_10000_37
      00046F 86*00            [ 3]  995 	stx	*(DPTR+0)
      000471 A0 00            [ 2]  996 	ldy	#0x00
      000473 91*00            [ 6]  997 	sta	[DPTR],y
      000475 A5*09            [ 3]  998 	lda	*(___ckd_sub_long_sloc1_1_0 + 1)
      000477 C8               [ 2]  999 	iny
      000478 91*00            [ 6] 1000 	sta	[DPTR],y
      00047A A5*0A            [ 3] 1001 	lda	*(___ckd_sub_long_sloc1_1_0 + 2)
      00047C C8               [ 2] 1002 	iny
      00047D 91*00            [ 6] 1003 	sta	[DPTR],y
      00047F A5*0B            [ 3] 1004 	lda	*(___ckd_sub_long_sloc1_1_0 + 3)
      000481 C8               [ 2] 1005 	iny
      000482 91*00            [ 6] 1006 	sta	[DPTR],y
                                   1007 ;	Raw cost for generated ic 7 : (26, 51.000000) count=1.000000
                                   1008 ;	genCast
      000484 A5*08            [ 3] 1009 	lda	*___ckd_sub_long_sloc1_1_0
      000486 85*0C            [ 3] 1010 	sta	*___ckd_sub_long_sloc2_1_0
      000488 A5*09            [ 3] 1011 	lda	*(___ckd_sub_long_sloc1_1_0 + 1)
      00048A 85*0D            [ 3] 1012 	sta	*(___ckd_sub_long_sloc2_1_0 + 1)
      00048C A5*0A            [ 3] 1013 	lda	*(___ckd_sub_long_sloc1_1_0 + 2)
      00048E 85*0E            [ 3] 1014 	sta	*(___ckd_sub_long_sloc2_1_0 + 2)
      000490 A5*0B            [ 3] 1015 	lda	*(___ckd_sub_long_sloc1_1_0 + 3)
      000492 85*0F            [ 3] 1016 	sta	*(___ckd_sub_long_sloc2_1_0 + 3)
      000494 0A               [ 2] 1017 	asl	a
      000495 A9 00            [ 2] 1018 	lda	#0x00
      000497 69 FF            [ 2] 1019 	adc	#0xff
      000499 49 FF            [ 2] 1020 	eor	#0xff
      00049B 85*10            [ 3] 1021 	sta	*(___ckd_sub_long_sloc2_1_0 + 4)
      00049D 85*11            [ 3] 1022 	sta	*(___ckd_sub_long_sloc2_1_0 + 5)
      00049F 85*12            [ 3] 1023 	sta	*(___ckd_sub_long_sloc2_1_0 + 6)
      0004A1 85*13            [ 3] 1024 	sta	*(___ckd_sub_long_sloc2_1_0 + 7)
                                   1025 ;	Raw cost for generated ic 10 : (31, 44.000000) count=1.000000
                                   1026 ;	genCmpEQorNE
      0004A3 A5*0C            [ 3] 1027 	lda	*___ckd_sub_long_sloc2_1_0
      0004A5 C5*00            [ 3] 1028 	cmp	*___ckd_sub_long_sloc0_1_0
      0004A7 D0 2A            [ 4] 1029 	bne	00104$
      0004A9 A5*0D            [ 3] 1030 	lda	*(___ckd_sub_long_sloc2_1_0 + 1)
      0004AB C5*01            [ 3] 1031 	cmp	*(___ckd_sub_long_sloc0_1_0 + 1)
      0004AD D0 24            [ 4] 1032 	bne	00104$
      0004AF A5*0E            [ 3] 1033 	lda	*(___ckd_sub_long_sloc2_1_0 + 2)
      0004B1 C5*02            [ 3] 1034 	cmp	*(___ckd_sub_long_sloc0_1_0 + 2)
      0004B3 D0 1E            [ 4] 1035 	bne	00104$
      0004B5 A5*0F            [ 3] 1036 	lda	*(___ckd_sub_long_sloc2_1_0 + 3)
      0004B7 C5*03            [ 3] 1037 	cmp	*(___ckd_sub_long_sloc0_1_0 + 3)
      0004B9 D0 18            [ 4] 1038 	bne	00104$
      0004BB A5*10            [ 3] 1039 	lda	*(___ckd_sub_long_sloc2_1_0 + 4)
      0004BD C5*04            [ 3] 1040 	cmp	*(___ckd_sub_long_sloc0_1_0 + 4)
      0004BF D0 12            [ 4] 1041 	bne	00104$
      0004C1 A5*11            [ 3] 1042 	lda	*(___ckd_sub_long_sloc2_1_0 + 5)
      0004C3 C5*05            [ 3] 1043 	cmp	*(___ckd_sub_long_sloc0_1_0 + 5)
      0004C5 D0 0C            [ 4] 1044 	bne	00104$
      0004C7 A5*12            [ 3] 1045 	lda	*(___ckd_sub_long_sloc2_1_0 + 6)
      0004C9 C5*06            [ 3] 1046 	cmp	*(___ckd_sub_long_sloc0_1_0 + 6)
      0004CB D0 06            [ 4] 1047 	bne	00104$
      0004CD A5*13            [ 3] 1048 	lda	*(___ckd_sub_long_sloc2_1_0 + 7)
      0004CF C5*07            [ 3] 1049 	cmp	*(___ckd_sub_long_sloc0_1_0 + 7)
      0004D1 F0 05            [ 4] 1050 	beq	00112$
      0004D3                       1051 00104$:
      0004D3 A9 00            [ 2] 1052 	lda	#0x00
      0004D5 4CrDAr04         [ 3] 1053 	jmp	00111$
      0004D8                       1054 00112$:
      0004D8 A9 01            [ 2] 1055 	lda	#0x01
      0004DA                       1056 00111$:
                                   1057 ;	Raw cost for generated ic 11 : (76, 96.799995) count=1.000000
                                   1058 ;	genNot
      0004DA 49 01            [ 2] 1059 	eor	#0x01
                                   1060 ;	Raw cost for generated ic 12 : (2, 2.000000) count=1.000000
                                   1061 ;	genRet
                                   1062 ;	Raw cost for generated ic 13 : (0, 0.000000) count=1.000000
                                   1063 ;	genLabel
                                   1064 ;	Raw cost for generated ic 14 : (0, 0.000000) count=1.000000
                                   1065 ;	genEndFunction
      0004DC 60               [ 6] 1066 	rts
                                   1067 ;	Raw cost for generated ic 15 : (1, 6.000000) count=1.000000
                                   1068 ;------------------------------------------------------------
                                   1069 ;Allocation info for local variables in function '__ckd_sub_ulong'
                                   1070 ;------------------------------------------------------------
                                   1071 ;a             Allocated with name '___ckd_sub_ulong_PARM_2'
                                   1072 ;b             Allocated with name '___ckd_sub_ulong_PARM_3'
                                   1073 ;r             Allocated with name '___ckd_sub_ulong_r_10000_39'
                                   1074 ;result        Allocated with name '___ckd_sub_ulong_result_10000_40'
                                   1075 ;sloc0         Allocated with name '___ckd_sub_ulong_sloc0_1_0'
                                   1076 ;sloc1         Allocated with name '___ckd_sub_ulong_sloc1_1_0'
                                   1077 ;sloc2         Allocated with name '___ckd_sub_ulong_sloc2_1_0'
                                   1078 ;------------------------------------------------------------
                                   1079 ;	./../../include/stdckdint.h: 68: inline _Bool __ckd_sub_ulong __CKD_DEFAULT_IMPL(unsigned long, -)
                                   1080 ;	genLabel
                                   1081 ;	Raw cost for generated ic 0 : (0, 0.000000) count=1.000000
                                   1082 ;	-----------------------------------------
                                   1083 ;	 function __ckd_sub_ulong
                                   1084 ;	-----------------------------------------
                                   1085 ;	Register assignment might be sub-optimal.
                                   1086 ;	Stack space usage: 0 bytes.
      0004DD                       1087 ___ckd_sub_ulong:
                                   1088 ;	Raw cost for generated ic 1 : (0, 0.000000) count=1.000000
                                   1089 ;	genReceive
      0004DD 8Dr8Er00         [ 4] 1090 	sta	___ckd_sub_ulong_r_10000_39
      0004E0 8Er8Fr00         [ 4] 1091 	stx	(___ckd_sub_ulong_r_10000_39 + 1)
                                   1092 ;	Raw cost for generated ic 2 : (6, 8.000000) count=1.000000
                                   1093 ;	genMinus
      0004E3 ADr7Er00         [ 4] 1094 	lda	___ckd_sub_ulong_PARM_2
      0004E6 38               [ 2] 1095 	sec
      0004E7 EDr86r00         [ 4] 1096 	sbc	___ckd_sub_ulong_PARM_3
      0004EA 85*00            [ 3] 1097 	sta	*___ckd_sub_ulong_sloc0_1_0
      0004EC ADr7Fr00         [ 4] 1098 	lda	(___ckd_sub_ulong_PARM_2 + 1)
      0004EF EDr87r00         [ 4] 1099 	sbc	(___ckd_sub_ulong_PARM_3 + 1)
      0004F2 85*01            [ 3] 1100 	sta	*(___ckd_sub_ulong_sloc0_1_0 + 1)
      0004F4 ADr80r00         [ 4] 1101 	lda	(___ckd_sub_ulong_PARM_2 + 2)
      0004F7 EDr88r00         [ 4] 1102 	sbc	(___ckd_sub_ulong_PARM_3 + 2)
      0004FA 85*02            [ 3] 1103 	sta	*(___ckd_sub_ulong_sloc0_1_0 + 2)
      0004FC ADr81r00         [ 4] 1104 	lda	(___ckd_sub_ulong_PARM_2 + 3)
      0004FF EDr89r00         [ 4] 1105 	sbc	(___ckd_sub_ulong_PARM_3 + 3)
      000502 85*03            [ 3] 1106 	sta	*(___ckd_sub_ulong_sloc0_1_0 + 3)
      000504 ADr82r00         [ 4] 1107 	lda	(___ckd_sub_ulong_PARM_2 + 4)
      000507 EDr8Ar00         [ 4] 1108 	sbc	(___ckd_sub_ulong_PARM_3 + 4)
      00050A 85*04            [ 3] 1109 	sta	*(___ckd_sub_ulong_sloc0_1_0 + 4)
      00050C ADr83r00         [ 4] 1110 	lda	(___ckd_sub_ulong_PARM_2 + 5)
      00050F EDr8Br00         [ 4] 1111 	sbc	(___ckd_sub_ulong_PARM_3 + 5)
      000512 85*05            [ 3] 1112 	sta	*(___ckd_sub_ulong_sloc0_1_0 + 5)
      000514 ADr84r00         [ 4] 1113 	lda	(___ckd_sub_ulong_PARM_2 + 6)
      000517 EDr8Cr00         [ 4] 1114 	sbc	(___ckd_sub_ulong_PARM_3 + 6)
      00051A 85*06            [ 3] 1115 	sta	*(___ckd_sub_ulong_sloc0_1_0 + 6)
      00051C ADr85r00         [ 4] 1116 	lda	(___ckd_sub_ulong_PARM_2 + 7)
      00051F EDr8Dr00         [ 4] 1117 	sbc	(___ckd_sub_ulong_PARM_3 + 7)
      000522 85*07            [ 3] 1118 	sta	*(___ckd_sub_ulong_sloc0_1_0 + 7)
                                   1119 ;	Raw cost for generated ic 3 : (65, 90.000000) count=1.000000
                                   1120 ;	genCast
                                   1121 ;	genCopy
      000524 A5*03            [ 3] 1122 	lda	*(___ckd_sub_ulong_sloc0_1_0 + 3)
      000526 85*0B            [ 3] 1123 	sta	*(___ckd_sub_ulong_sloc1_1_0 + 3)
      000528 A5*02            [ 3] 1124 	lda	*(___ckd_sub_ulong_sloc0_1_0 + 2)
      00052A 85*0A            [ 3] 1125 	sta	*(___ckd_sub_ulong_sloc1_1_0 + 2)
      00052C A5*01            [ 3] 1126 	lda	*(___ckd_sub_ulong_sloc0_1_0 + 1)
      00052E 85*09            [ 3] 1127 	sta	*(___ckd_sub_ulong_sloc1_1_0 + 1)
      000530 A5*00            [ 3] 1128 	lda	*___ckd_sub_ulong_sloc0_1_0
      000532 85*08            [ 3] 1129 	sta	*___ckd_sub_ulong_sloc1_1_0
                                   1130 ;	Raw cost for generated ic 6 : (16, 24.000000) count=1.000000
                                   1131 ;	genPointerSet
                                   1132 ;	  setupDPTR - off=0 remat=(null) savea=0
      000534 86*01            [ 3] 1133 	stx	*(DPTR+1)
      000536 AEr8Er00         [ 4] 1134 	ldx	___ckd_sub_ulong_r_10000_39
      000539 86*00            [ 3] 1135 	stx	*(DPTR+0)
      00053B A0 00            [ 2] 1136 	ldy	#0x00
      00053D 91*00            [ 6] 1137 	sta	[DPTR],y
      00053F A5*09            [ 3] 1138 	lda	*(___ckd_sub_ulong_sloc1_1_0 + 1)
      000541 C8               [ 2] 1139 	iny
      000542 91*00            [ 6] 1140 	sta	[DPTR],y
      000544 A5*0A            [ 3] 1141 	lda	*(___ckd_sub_ulong_sloc1_1_0 + 2)
      000546 C8               [ 2] 1142 	iny
      000547 91*00            [ 6] 1143 	sta	[DPTR],y
      000549 A5*0B            [ 3] 1144 	lda	*(___ckd_sub_ulong_sloc1_1_0 + 3)
      00054B C8               [ 2] 1145 	iny
      00054C 91*00            [ 6] 1146 	sta	[DPTR],y
                                   1147 ;	Raw cost for generated ic 7 : (26, 51.000000) count=1.000000
                                   1148 ;	genCast
                                   1149 ;	genCopy
      00054E A0 00            [ 2] 1150 	ldy	#0x00
      000550 84*13            [ 3] 1151 	sty	*(___ckd_sub_ulong_sloc2_1_0 + 7)
      000552 84*12            [ 3] 1152 	sty	*(___ckd_sub_ulong_sloc2_1_0 + 6)
      000554 84*11            [ 3] 1153 	sty	*(___ckd_sub_ulong_sloc2_1_0 + 5)
      000556 84*10            [ 3] 1154 	sty	*(___ckd_sub_ulong_sloc2_1_0 + 4)
      000558 85*0F            [ 3] 1155 	sta	*(___ckd_sub_ulong_sloc2_1_0 + 3)
      00055A A5*0A            [ 3] 1156 	lda	*(___ckd_sub_ulong_sloc1_1_0 + 2)
      00055C 85*0E            [ 3] 1157 	sta	*(___ckd_sub_ulong_sloc2_1_0 + 2)
      00055E A5*09            [ 3] 1158 	lda	*(___ckd_sub_ulong_sloc1_1_0 + 1)
      000560 85*0D            [ 3] 1159 	sta	*(___ckd_sub_ulong_sloc2_1_0 + 1)
      000562 A5*08            [ 3] 1160 	lda	*___ckd_sub_ulong_sloc1_1_0
      000564 85*0C            [ 3] 1161 	sta	*___ckd_sub_ulong_sloc2_1_0
                                   1162 ;	Raw cost for generated ic 10 : (24, 35.000000) count=1.000000
                                   1163 ;	genCmpEQorNE
      000566 C5*00            [ 3] 1164 	cmp	*___ckd_sub_ulong_sloc0_1_0
      000568 D0 2A            [ 4] 1165 	bne	00104$
      00056A A5*0D            [ 3] 1166 	lda	*(___ckd_sub_ulong_sloc2_1_0 + 1)
      00056C C5*01            [ 3] 1167 	cmp	*(___ckd_sub_ulong_sloc0_1_0 + 1)
      00056E D0 24            [ 4] 1168 	bne	00104$
      000570 A5*0E            [ 3] 1169 	lda	*(___ckd_sub_ulong_sloc2_1_0 + 2)
      000572 C5*02            [ 3] 1170 	cmp	*(___ckd_sub_ulong_sloc0_1_0 + 2)
      000574 D0 1E            [ 4] 1171 	bne	00104$
      000576 A5*0F            [ 3] 1172 	lda	*(___ckd_sub_ulong_sloc2_1_0 + 3)
      000578 C5*03            [ 3] 1173 	cmp	*(___ckd_sub_ulong_sloc0_1_0 + 3)
      00057A D0 18            [ 4] 1174 	bne	00104$
      00057C A5*10            [ 3] 1175 	lda	*(___ckd_sub_ulong_sloc2_1_0 + 4)
      00057E C5*04            [ 3] 1176 	cmp	*(___ckd_sub_ulong_sloc0_1_0 + 4)
      000580 D0 12            [ 4] 1177 	bne	00104$
      000582 A5*11            [ 3] 1178 	lda	*(___ckd_sub_ulong_sloc2_1_0 + 5)
      000584 C5*05            [ 3] 1179 	cmp	*(___ckd_sub_ulong_sloc0_1_0 + 5)
      000586 D0 0C            [ 4] 1180 	bne	00104$
      000588 A5*12            [ 3] 1181 	lda	*(___ckd_sub_ulong_sloc2_1_0 + 6)
      00058A C5*06            [ 3] 1182 	cmp	*(___ckd_sub_ulong_sloc0_1_0 + 6)
      00058C D0 06            [ 4] 1183 	bne	00104$
      00058E A5*13            [ 3] 1184 	lda	*(___ckd_sub_ulong_sloc2_1_0 + 7)
      000590 C5*07            [ 3] 1185 	cmp	*(___ckd_sub_ulong_sloc0_1_0 + 7)
      000592 F0 04            [ 4] 1186 	beq	00112$
      000594                       1187 00104$:
      000594 98               [ 2] 1188 	tya
      000595 4Cr9Ar05         [ 3] 1189 	jmp	00111$
      000598                       1190 00112$:
      000598 A9 01            [ 2] 1191 	lda	#0x01
      00059A                       1192 00111$:
                                   1193 ;	Raw cost for generated ic 11 : (73, 93.799995) count=1.000000
                                   1194 ;	genNot
      00059A 49 01            [ 2] 1195 	eor	#0x01
                                   1196 ;	Raw cost for generated ic 12 : (2, 2.000000) count=1.000000
                                   1197 ;	genRet
                                   1198 ;	Raw cost for generated ic 13 : (0, 0.000000) count=1.000000
                                   1199 ;	genLabel
                                   1200 ;	Raw cost for generated ic 14 : (0, 0.000000) count=1.000000
                                   1201 ;	genEndFunction
      00059C 60               [ 6] 1202 	rts
                                   1203 ;	Raw cost for generated ic 15 : (1, 6.000000) count=1.000000
                                   1204 	.area CODE
                                   1205 	.area RODATA
                                   1206 	.area XINIT
                                   1207 	.area CABS    (ABS)
