                                      1 ;--------------------------------------------------------
                                      2 ; File Created by SDCC : free open source ISO C Compiler
                                      3 ; Version 4.5.10 #15691 (Linux)
                                      4 ;--------------------------------------------------------
                                      5 	.module gets
                                      6 	
                                      7 	.optsdcc -mmos6502
                                      8 
                                      9 ;--------------------------------------------------------
                                     10 ;  Ordering of segments for the linker.
                                     11 ;--------------------------------------------------------
                                     12 	.area ZP      (PAG)
                                     13 	.area OSEG    (PAG, OVR)
                                     14 	.area _CODE
                                     15 	.area GSINIT
                                     16 	.area GSFINAL
                                     17 	.area CODE
                                     18 	.area RODATA
                                     19 	.area XINIT
                                     20 	.area _DATA
                                     21 	.area DATA
                                     22 	.area BSS
                                     23 ;--------------------------------------------------------
                                     24 ; Public variables in this module
                                     25 ;--------------------------------------------------------
                                     26 	.globl _gets
                                     27 	.globl _putchar
                                     28 	.globl _getchar
                                     29 ;--------------------------------------------------------
                                     30 ; ZP ram data
                                     31 ;--------------------------------------------------------
                                     32 	.area ZP      (PAG)
                                     33 ;--------------------------------------------------------
                                     34 ; overlayable items in ram
                                     35 ;--------------------------------------------------------
                                     36 ;--------------------------------------------------------
                                     37 ; uninitialized external ram data
                                     38 ;--------------------------------------------------------
                                     39 	.area BSS
      000000                         40 _gets_s_10000_11:
      000000                         41 	.ds 2
      000002                         42 _gets_count_10000_12:
      000002                         43 	.ds 2
                                     44 ;--------------------------------------------------------
                                     45 ; absolute external ram data
                                     46 ;--------------------------------------------------------
                                     47 	.area DABS    (ABS)
                                     48 ;--------------------------------------------------------
                                     49 ; initialized external ram data
                                     50 ;--------------------------------------------------------
                                     51 	.area DATA
                                     52 ;--------------------------------------------------------
                                     53 ; global & static initialisations
                                     54 ;--------------------------------------------------------
                                     55 	.area _CODE
                                     56 	.area GSINIT
                                     57 	.area GSFINAL
                                     58 	.area GSINIT
                                     59 ;--------------------------------------------------------
                                     60 ; Home
                                     61 ;--------------------------------------------------------
                                     62 	.area _CODE
                                     63 	.area _CODE
                                     64 ;--------------------------------------------------------
                                     65 ; code
                                     66 ;--------------------------------------------------------
                                     67 	.area CODE
                                     68 ;------------------------------------------------------------
                                     69 ;Allocation info for local variables in function 'gets'
                                     70 ;------------------------------------------------------------
                                     71 ;s             Allocated with name '_gets_s_10000_11'
                                     72 ;c             Allocated to registers a 
                                     73 ;count         Allocated with name '_gets_count_10000_12'
                                     74 ;------------------------------------------------------------
                                     75 ;	../gets.c: 32: gets (char *s)
                                     76 ;	genLabel
                                     77 ;	Raw cost for generated ic 0 : (0, 0.000000) count=1.000000
                                     78 ;	-----------------------------------------
                                     79 ;	 function gets
                                     80 ;	-----------------------------------------
                                     81 ;	Register assignment is optimal.
                                     82 ;	Stack space usage: 0 bytes.
      000000                         83 _gets:
                                     84 ;	Raw cost for generated ic 1 : (0, 0.000000) count=1.000000
                                     85 ;	genReceive
      000000 8Dr00r00         [ 4]   86 	sta	_gets_s_10000_11
      000003 8Er01r00         [ 4]   87 	stx	(_gets_s_10000_11 + 1)
                                     88 ;	Raw cost for generated ic 2 : (6, 8.000000) count=1.000000
                                     89 ;	../gets.c: 35: unsigned int count = 0;
                                     90 ;	genAssign
                                     91 ;	genAssignLit
      000006 A0 00            [ 2]   92 	ldy	#0x00
      000008 8Cr02r00         [ 4]   93 	sty	_gets_count_10000_12
      00000B 8Cr03r00         [ 4]   94 	sty	(_gets_count_10000_12 + 1)
                                     95 ;	Raw cost for generated ic 3 : (8, 10.000000) count=1.000000
                                     96 ;	../gets.c: 37: while (1)
                                     97 ;	genLabel
      00000E                         98 00109$:
                                     99 ;	Raw cost for generated ic 6 : (0, 0.000000) count=72.000000
                                    100 ;	../gets.c: 39: c = getchar ();
                                    101 ;	genCall
      00000E 20r00r00         [ 6]  102 	jsr	_getchar
                                    103 ;	assignResultValue
                                    104 ;	Raw cost for generated ic 7 : (3, 6.000000) count=72.000000
                                    105 ;	genCast
                                    106 ;	genCopy
                                    107 ;	Raw cost for generated ic 8 : (0, 0.000000) count=72.000000
                                    108 ;	../gets.c: 40: switch(c)
                                    109 ;	genCmpEQorNE
      000011 C9 08            [ 2]  110 	cmp	#0x08
      000013 F0 0B            [ 4]  111 	beq	00101$
                                    112 ;	Raw cost for generated ic 10 : (7, 7.600000) count=72.000000
                                    113 ;	skipping generated iCode
                                    114 ;	Raw cost for generated ic 11 : (0, 0.000000) count=72.000000
                                    115 ;	genCmpEQorNE
      000015 C9 0A            [ 2]  116 	cmp	#0x0a
      000017 F0 3D            [ 4]  117 	beq	00105$
                                    118 ;	Raw cost for generated ic 12 : (7, 7.600000) count=54.000000
                                    119 ;	skipping generated iCode
                                    120 ;	Raw cost for generated ic 13 : (0, 0.000000) count=54.000000
                                    121 ;	genCmpEQorNE
      000019 C9 0D            [ 2]  122 	cmp	#0x0d
      00001B F0 39            [ 4]  123 	beq	00105$
                                    124 ;	Raw cost for generated ic 14 : (7, 7.600000) count=40.500000
                                    125 ;	skipping generated iCode
                                    126 ;	Raw cost for generated ic 15 : (0, 0.000000) count=40.500000
                                    127 ;	genGoto
      00001D 4Cr77r00         [ 3]  128 	jmp	00106$
                                    129 ;	Raw cost for generated ic 16 : (3, 3.000000) count=30.375000
                                    130 ;	../gets.c: 42: case '\b': /* backspace */
                                    131 ;	genLabel
      000020                        132 00101$:
                                    133 ;	Raw cost for generated ic 17 : (0, 0.000000) count=18.000000
                                    134 ;	../gets.c: 43: if (count)
                                    135 ;	genIfx
      000020 ADr03r00         [ 4]  136 	lda	(_gets_count_10000_12 + 1)
      000023 0Dr02r00         [ 4]  137 	ora	_gets_count_10000_12
                                    138 ;	genIfxJump : z
      000026 F0 E6            [ 4]  139 	beq	00109$
                                    140 ;	Raw cost for generated ic 18 : (11, 13.600000) count=18.000000
                                    141 ;	../gets.c: 45: putchar ('\b');
                                    142 ;	Raw cost for generated ic 21 : (0, 0.000000) count=4.500000
                                    143 ;	genCall
                                    144 ;	genSend
      000028 A2 00            [ 2]  145 	ldx	#0x00
      00002A A9 08            [ 2]  146 	lda	#0x08
      00002C 20r00r00         [ 6]  147 	jsr	_putchar
                                    148 ;	Raw cost for generated ic 22 : (7, 10.000000) count=4.500000
                                    149 ;	../gets.c: 46: putchar (' ');
                                    150 ;	Raw cost for generated ic 23 : (0, 0.000000) count=4.500000
                                    151 ;	genCall
                                    152 ;	genSend
      00002F A2 00            [ 2]  153 	ldx	#0x00
      000031 A9 20            [ 2]  154 	lda	#0x20
      000033 20r00r00         [ 6]  155 	jsr	_putchar
                                    156 ;	Raw cost for generated ic 24 : (7, 10.000000) count=4.500000
                                    157 ;	../gets.c: 47: putchar ('\b');
                                    158 ;	Raw cost for generated ic 25 : (0, 0.000000) count=4.500000
                                    159 ;	genCall
                                    160 ;	genSend
      000036 A2 00            [ 2]  161 	ldx	#0x00
      000038 A9 08            [ 2]  162 	lda	#0x08
      00003A 20r00r00         [ 6]  163 	jsr	_putchar
                                    164 ;	Raw cost for generated ic 26 : (7, 10.000000) count=4.500000
                                    165 ;	../gets.c: 48: --s;
                                    166 ;	genMinus
                                    167 ;	  genMinusDec - size=2  icount=1
      00003D ADr00r00         [ 4]  168 	lda	_gets_s_10000_11
      000040 D0 03            [ 4]  169 	bne	00148$
      000042 CEr01r00         [ 6]  170 	dec	(_gets_s_10000_11 + 1)
      000045                        171 00148$:
      000045 CEr00r00         [ 6]  172 	dec	_gets_s_10000_11
                                    173 ;	Raw cost for generated ic 27 : (11, 18.600000) count=4.500000
                                    174 ;	../gets.c: 49: --count;
                                    175 ;	genMinus
                                    176 ;	  genMinusDec - size=2  icount=1
      000048 ADr02r00         [ 4]  177 	lda	_gets_count_10000_12
      00004B D0 03            [ 4]  178 	bne	00149$
      00004D CEr03r00         [ 6]  179 	dec	(_gets_count_10000_12 + 1)
      000050                        180 00149$:
      000050 CEr02r00         [ 6]  181 	dec	_gets_count_10000_12
                                    182 ;	Raw cost for generated ic 29 : (11, 18.600000) count=4.500000
                                    183 ;	../gets.c: 51: break;
                                    184 ;	genGoto
      000053 4Cr0Er00         [ 3]  185 	jmp	00109$
                                    186 ;	Raw cost for generated ic 32 : (3, 3.000000) count=4.500000
                                    187 ;	../gets.c: 54: case '\r': /* CR or LF */
                                    188 ;	genLabel
      000056                        189 00105$:
                                    190 ;	Raw cost for generated ic 34 : (0, 0.000000) count=23.625000
                                    191 ;	../gets.c: 55: putchar ('\r');
                                    192 ;	Raw cost for generated ic 35 : (0, 0.000000) count=23.625000
                                    193 ;	genCall
                                    194 ;	genSend
      000056 A2 00            [ 2]  195 	ldx	#0x00
      000058 A9 0D            [ 2]  196 	lda	#0x0d
      00005A 20r00r00         [ 6]  197 	jsr	_putchar
                                    198 ;	Raw cost for generated ic 36 : (7, 10.000000) count=23.625000
                                    199 ;	../gets.c: 56: putchar ('\n');
                                    200 ;	Raw cost for generated ic 37 : (0, 0.000000) count=23.625000
                                    201 ;	genCall
                                    202 ;	genSend
      00005D A2 00            [ 2]  203 	ldx	#0x00
      00005F A9 0A            [ 2]  204 	lda	#0x0a
      000061 20r00r00         [ 6]  205 	jsr	_putchar
                                    206 ;	Raw cost for generated ic 38 : (7, 10.000000) count=23.625000
                                    207 ;	../gets.c: 57: *s = 0;
                                    208 ;	genPointerSet
                                    209 ;	  setupDPTR - off=0 remat=(null) savea=0
      000064 AEr00r00         [ 4]  210 	ldx	_gets_s_10000_11
      000067 86*00            [ 3]  211 	stx	*(DPTR+0)
      000069 AEr01r00         [ 4]  212 	ldx	(_gets_s_10000_11 + 1)
      00006C 86*01            [ 3]  213 	stx	*(DPTR+1)
      00006E A9 00            [ 2]  214 	lda	#0x00
      000070 A8               [ 2]  215 	tay
      000071 91*00            [ 6]  216 	sta	[DPTR],y
                                    217 ;	Raw cost for generated ic 40 : (15, 24.000000) count=23.625000
                                    218 ;	../gets.c: 58: return s;
                                    219 ;	genRet
      000073 ADr00r00         [ 4]  220 	lda	_gets_s_10000_11
      000076 60               [ 6]  221 	rts
                                    222 ;	Raw cost for generated ic 41 : (6, 7.000000) count=23.625000
                                    223 ;	../gets.c: 60: default:
                                    224 ;	genLabel
      000077                        225 00106$:
                                    226 ;	Raw cost for generated ic 42 : (0, 0.000000) count=54.000000
                                    227 ;	../gets.c: 61: *s++ = c;
                                    228 ;	genPointerSet
                                    229 ;	  setupDPTR - off=0 remat=(null) savea=0
      000077 AEr00r00         [ 4]  230 	ldx	_gets_s_10000_11
      00007A 86*00            [ 3]  231 	stx	*(DPTR+0)
      00007C AEr01r00         [ 4]  232 	ldx	(_gets_s_10000_11 + 1)
      00007F 86*01            [ 3]  233 	stx	*(DPTR+1)
      000081 A0 00            [ 2]  234 	ldy	#0x00
      000083 91*00            [ 6]  235 	sta	[DPTR],y
                                    236 ;	Raw cost for generated ic 46 : (14, 22.000000) count=54.000000
                                    237 ;	genPlus
                                    238 ;	  genPlusInc
      000085 EEr00r00         [ 6]  239 	inc	_gets_s_10000_11
      000088 D0 03            [ 4]  240 	bne	00150$
      00008A EEr01r00         [ 6]  241 	inc	(_gets_s_10000_11 + 1)
      00008D                        242 00150$:
                                    243 ;	Raw cost for generated ic 44 : (8, 14.600000) count=54.000000
                                    244 ;	../gets.c: 62: ++count;
                                    245 ;	genPlus
                                    246 ;	  genPlusInc
      00008D EEr02r00         [ 6]  247 	inc	_gets_count_10000_12
      000090 D0 03            [ 4]  248 	bne	00151$
      000092 EEr03r00         [ 6]  249 	inc	(_gets_count_10000_12 + 1)
      000095                        250 00151$:
                                    251 ;	Raw cost for generated ic 47 : (8, 14.600000) count=54.000000
                                    252 ;	../gets.c: 63: putchar (c);
                                    253 ;	genCast
                                    254 ;	genCopy
      000095 A2 00            [ 2]  255 	ldx	#0x00
                                    256 ;	Raw cost for generated ic 49 : (2, 2.000000) count=54.000000
                                    257 ;	Raw cost for generated ic 50 : (0, 0.000000) count=54.000000
                                    258 ;	genCall
                                    259 ;	genSend
      000097 20r00r00         [ 6]  260 	jsr	_putchar
                                    261 ;	Raw cost for generated ic 51 : (3, 6.000000) count=54.000000
                                    262 ;	../gets.c: 65: }
                                    263 ;	genGoto
      00009A 4Cr0Er00         [ 3]  264 	jmp	00109$
                                    265 ;	Raw cost for generated ic 54 : (3, 3.000000) count=54.000000
                                    266 ;	genLabel
                                    267 ;	Raw cost for generated ic 56 : (0, 0.000000) count=0.000000
                                    268 ;	../gets.c: 67: }
                                    269 ;	genEndFunction
      00009D 60               [ 6]  270 	rts
                                    271 ;	Raw cost for generated ic 57 : (1, 6.000000) count=0.000000
                                    272 	.area CODE
                                    273 	.area RODATA
                                    274 	.area XINIT
                                    275 	.area CABS    (ABS)
