                                      1 ;--------------------------------------------------------
                                      2 ; File Created by SDCC : free open source ISO C Compiler
                                      3 ; Version 4.5.10 #15691 (Linux)
                                      4 ;--------------------------------------------------------
                                      5 	.module mbstoc16s
                                      6 	
                                      7 	.optsdcc -mmos6502
                                      8 
                                      9 ;--------------------------------------------------------
                                     10 ;  Ordering of segments for the linker.
                                     11 ;--------------------------------------------------------
                                     12 	.area ZP      (PAG)
                                     13 	.area OSEG    (PAG, OVR)
                                     14 	.area _CODE
                                     15 	.area GSINIT
                                     16 	.area GSFINAL
                                     17 	.area CODE
                                     18 	.area RODATA
                                     19 	.area XINIT
                                     20 	.area _DATA
                                     21 	.area DATA
                                     22 	.area BSS
                                     23 ;--------------------------------------------------------
                                     24 ; Public variables in this module
                                     25 ;--------------------------------------------------------
                                     26 	.globl _mbtowc
                                     27 	.globl ___mbstoc16s_PARM_3
                                     28 	.globl ___mbstoc16s_PARM_2
                                     29 	.globl ___mbstoc16s
                                     30 ;--------------------------------------------------------
                                     31 ; ZP ram data
                                     32 ;--------------------------------------------------------
                                     33 	.area ZP      (PAG)
      000000                         34 ___mbstoc16s_sloc0_1_0:
      000000                         35 	.ds 2
      000002                         36 ___mbstoc16s_sloc1_1_0:
      000002                         37 	.ds 4
                                     38 ;--------------------------------------------------------
                                     39 ; overlayable items in ram
                                     40 ;--------------------------------------------------------
                                     41 ;--------------------------------------------------------
                                     42 ; uninitialized external ram data
                                     43 ;--------------------------------------------------------
                                     44 	.area BSS
      000000                         45 ___mbstoc16s_PARM_2:
      000000                         46 	.ds 2
      000002                         47 ___mbstoc16s_PARM_3:
      000002                         48 	.ds 2
      000004                         49 ___mbstoc16s_c16s_10000_64:
      000004                         50 	.ds 2
      000006                         51 ___mbstoc16s_m_10000_65:
      000006                         52 	.ds 2
      000008                         53 ___mbstoc16s_l_30000_67:
      000008                         54 	.ds 2
      00000A                         55 ___mbstoc16s_codepoint_30000_67:
      00000A                         56 	.ds 4
                                     57 ;--------------------------------------------------------
                                     58 ; absolute external ram data
                                     59 ;--------------------------------------------------------
                                     60 	.area DABS    (ABS)
                                     61 ;--------------------------------------------------------
                                     62 ; initialized external ram data
                                     63 ;--------------------------------------------------------
                                     64 	.area DATA
                                     65 ;--------------------------------------------------------
                                     66 ; global & static initialisations
                                     67 ;--------------------------------------------------------
                                     68 	.area _CODE
                                     69 	.area GSINIT
                                     70 	.area GSFINAL
                                     71 	.area GSINIT
                                     72 ;--------------------------------------------------------
                                     73 ; Home
                                     74 ;--------------------------------------------------------
                                     75 	.area _CODE
                                     76 	.area _CODE
                                     77 ;--------------------------------------------------------
                                     78 ; code
                                     79 ;--------------------------------------------------------
                                     80 	.area CODE
                                     81 ;------------------------------------------------------------
                                     82 ;Allocation info for local variables in function '__mbstoc16s'
                                     83 ;------------------------------------------------------------
                                     84 ;sloc0         Allocated with name '___mbstoc16s_sloc0_1_0'
                                     85 ;sloc1         Allocated with name '___mbstoc16s_sloc1_1_0'
                                     86 ;s             Allocated with name '___mbstoc16s_PARM_2'
                                     87 ;n             Allocated with name '___mbstoc16s_PARM_3'
                                     88 ;c16s          Allocated with name '___mbstoc16s_c16s_10000_64'
                                     89 ;m             Allocated with name '___mbstoc16s_m_10000_65'
                                     90 ;l             Allocated with name '___mbstoc16s_l_30000_67'
                                     91 ;codepoint     Allocated with name '___mbstoc16s_codepoint_30000_67'
                                     92 ;------------------------------------------------------------
                                     93 ;	../mbstoc16s.c: 44: size_t __mbstoc16s(char16_t *restrict c16s, const char *restrict s, size_t n)
                                     94 ;	genLabel
                                     95 ;	Raw cost for generated ic 0 : (0, 0.000000) count=1.000000
                                     96 ;	-----------------------------------------
                                     97 ;	 function __mbstoc16s
                                     98 ;	-----------------------------------------
                                     99 ;	Register assignment is optimal.
                                    100 ;	Stack space usage: 0 bytes.
      000000                        101 ___mbstoc16s:
                                    102 ;	Raw cost for generated ic 1 : (0, 0.000000) count=1.000000
                                    103 ;	genReceive
      000000 85*00            [ 3]  104 	sta	*___mbstoc16s_sloc0_1_0
      000002 86*01            [ 3]  105 	stx	*(___mbstoc16s_sloc0_1_0 + 1)
                                    106 ;	Raw cost for generated ic 2 : (4, 6.000000) count=1.000000
                                    107 ;	../mbstoc16s.c: 46: size_t m = 0;
                                    108 ;	genAssign
                                    109 ;	genAssignLit
      000004 A0 00            [ 2]  110 	ldy	#0x00
      000006 8Cr06r00         [ 4]  111 	sty	___mbstoc16s_m_10000_65
      000009 8Cr07r00         [ 4]  112 	sty	(___mbstoc16s_m_10000_65 + 1)
                                    113 ;	Raw cost for generated ic 3 : (8, 10.000000) count=1.000000
                                    114 ;	../mbstoc16s.c: 85: return(m);
                                    115 ;	genLabel
      00000C                        116 00116$:
                                    117 ;	Raw cost for generated ic 4 : (0, 0.000000) count=1.230679
                                    118 ;	../mbstoc16s.c: 53: l = mbtowc(&codepoint, s, MB_LEN_MAX);
                                    119 ;	skipping iCode since result will be rematerialized
                                    120 ;	Raw cost for generated ic 5 : (0, 0.000000) count=1.230679
                                    121 ;	skipping iCode since result will be rematerialized
                                    122 ;	Raw cost for generated ic 6 : (0, 0.000000) count=1.230679
                                    123 ;	genAssign
                                    124 ;	genCopy
      00000C ADr01r00         [ 4]  125 	lda	(___mbstoc16s_PARM_2 + 1)
      00000F 8Dr01r00         [ 4]  126 	sta	(_mbtowc_PARM_2 + 1)
      000012 ADr00r00         [ 4]  127 	lda	___mbstoc16s_PARM_2
      000015 8Dr00r00         [ 4]  128 	sta	_mbtowc_PARM_2
                                    129 ;	Raw cost for generated ic 8 : (12, 16.000000) count=1.230679
                                    130 ;	genAssign
                                    131 ;	genAssignLit
      000018 A2 04            [ 2]  132 	ldx	#0x04
      00001A 8Er00r00         [ 4]  133 	stx	_mbtowc_PARM_3
      00001D A0 00            [ 2]  134 	ldy	#0x00
      00001F 8Cr01r00         [ 4]  135 	sty	(_mbtowc_PARM_3 + 1)
                                    136 ;	Raw cost for generated ic 9 : (10, 12.000000) count=1.230679
                                    137 ;	Raw cost for generated ic 7 : (0, 0.000000) count=1.230679
                                    138 ;	genCall
                                    139 ;	genSend
      000022 A2s00            [ 2]  140 	ldx	#>___mbstoc16s_codepoint_30000_67
      000024 A9r0A            [ 2]  141 	lda	#___mbstoc16s_codepoint_30000_67
      000026 20r00r00         [ 6]  142 	jsr	_mbtowc
                                    143 ;	assignResultValue
      000029 8Dr08r00         [ 4]  144 	sta	___mbstoc16s_l_30000_67
      00002C 8Er09r00         [ 4]  145 	stx	(___mbstoc16s_l_30000_67 + 1)
                                    146 ;	Raw cost for generated ic 10 : (13, 18.000000) count=1.230679
                                    147 ;	../mbstoc16s.c: 55: if(l < 0)
                                    148 ;	genCmp
      00002F 2Cr09r00         [ 4]  149 	bit	(___mbstoc16s_l_30000_67 + 1)
      000032 10 04            [ 4]  150 	bpl	00106$
                                    151 ;	Raw cost for generated ic 12 : (8, 9.600000) count=1.230679
                                    152 ;	skipping generated iCode
                                    153 ;	Raw cost for generated ic 13 : (0, 0.000000) count=1.230679
                                    154 ;	../mbstoc16s.c: 56: return(-1);
                                    155 ;	genRet
      000034 A9 FF            [ 2]  156 	lda	#0xff
      000036 AA               [ 2]  157 	tax
      000037 60               [ 6]  158 	rts
                                    159 ;	Raw cost for generated ic 16 : (6, 7.000000) count=0.923009
                                    160 ;	genLabel
      000038                        161 00106$:
                                    162 ;	Raw cost for generated ic 18 : (0, 0.000000) count=1.230679
                                    163 ;	../mbstoc16s.c: 57: else if(!l)
                                    164 ;	genIfx
      000038 ADr09r00         [ 4]  165 	lda	(___mbstoc16s_l_30000_67 + 1)
      00003B 0Dr08r00         [ 4]  166 	ora	___mbstoc16s_l_30000_67
                                    167 ;	genIfxJump : z
      00003E D0 1D            [ 4]  168 	bne	00107$
                                    169 ;	Raw cost for generated ic 19 : (11, 13.600000) count=1.230679
                                    170 ;	../mbstoc16s.c: 59: if(m < n)
                                    171 ;	genCmp
      000040 ADr06r00         [ 4]  172 	lda	___mbstoc16s_m_10000_65
      000043 38               [ 2]  173 	sec
      000044 EDr02r00         [ 4]  174 	sbc	___mbstoc16s_PARM_3
      000047 ADr07r00         [ 4]  175 	lda	(___mbstoc16s_m_10000_65 + 1)
      00004A EDr03r00         [ 4]  176 	sbc	(___mbstoc16s_PARM_3 + 1)
      00004D 90 03            [ 4]  177 	bcc	00172$
      00004F 4Cr85r01         [ 3]  178 	jmp	00115$
      000052                        179 00172$:
                                    180 ;	Raw cost for generated ic 22 : (18, 23.600000) count=0.923009
                                    181 ;	skipping generated iCode
                                    182 ;	Raw cost for generated ic 23 : (0, 0.000000) count=0.923009
                                    183 ;	../mbstoc16s.c: 60: *c16s = 0;
                                    184 ;	genPointerSet
      000052 A9 00            [ 2]  185 	lda	#0x00
      000054 A8               [ 2]  186 	tay
      000055 91*00            [ 6]  187 	sta	[*___mbstoc16s_sloc0_1_0],y
      000057 C8               [ 2]  188 	iny
      000058 91*00            [ 6]  189 	sta	[*___mbstoc16s_sloc0_1_0],y
                                    190 ;	Raw cost for generated ic 27 : (8, 18.000000) count=0.692257
                                    191 ;	../mbstoc16s.c: 61: break;
                                    192 ;	genGoto
      00005A 4Cr85r01         [ 3]  193 	jmp	00115$
                                    194 ;	Raw cost for generated ic 29 : (3, 3.000000) count=0.692257
                                    195 ;	genLabel
      00005D                        196 00107$:
                                    197 ;	Raw cost for generated ic 31 : (0, 0.000000) count=0.307634
                                    198 ;	../mbstoc16s.c: 64: if (codepoint <= 0xffff) // Basic multilingual plane
                                    199 ;	genCmp
      00005D A9 FF            [ 2]  200 	lda	#0xff
      00005F 38               [ 2]  201 	sec
      000060 EDr0Ar00         [ 4]  202 	sbc	___mbstoc16s_codepoint_30000_67
      000063 A9 FF            [ 2]  203 	lda	#0xff
      000065 EDr0Br00         [ 4]  204 	sbc	(___mbstoc16s_codepoint_30000_67 + 1)
      000068 A9 00            [ 2]  205 	lda	#0x00
      00006A EDr0Cr00         [ 4]  206 	sbc	(___mbstoc16s_codepoint_30000_67 + 2)
      00006D A9 00            [ 2]  207 	lda	#0x00
      00006F EDr0Dr00         [ 4]  208 	sbc	(___mbstoc16s_codepoint_30000_67 + 3)
      000072 90 36            [ 4]  209 	bcc	00113$
                                    210 ;	Raw cost for generated ic 32 : (26, 31.600000) count=0.307634
                                    211 ;	skipping generated iCode
                                    212 ;	Raw cost for generated ic 33 : (0, 0.000000) count=0.307634
                                    213 ;	../mbstoc16s.c: 66: if (m >= n)
                                    214 ;	genCmp
      000074 ADr06r00         [ 4]  215 	lda	___mbstoc16s_m_10000_65
      000077 38               [ 2]  216 	sec
      000078 EDr02r00         [ 4]  217 	sbc	___mbstoc16s_PARM_3
      00007B ADr07r00         [ 4]  218 	lda	(___mbstoc16s_m_10000_65 + 1)
      00007E EDr03r00         [ 4]  219 	sbc	(___mbstoc16s_PARM_3 + 1)
      000081 90 03            [ 4]  220 	bcc	00174$
      000083 4Cr85r01         [ 3]  221 	jmp	00115$
      000086                        222 00174$:
                                    223 ;	Raw cost for generated ic 36 : (18, 23.600000) count=0.230726
                                    224 ;	skipping generated iCode
                                    225 ;	Raw cost for generated ic 37 : (0, 0.000000) count=0.230726
                                    226 ;	../mbstoc16s.c: 69: *c16s++ = codepoint;
                                    227 ;	genCast
                                    228 ;	genCopy
      000086 AEr0Br00         [ 4]  229 	ldx	(___mbstoc16s_codepoint_30000_67 + 1)
      000089 ADr0Ar00         [ 4]  230 	lda	___mbstoc16s_codepoint_30000_67
                                    231 ;	Raw cost for generated ic 45 : (6, 8.000000) count=0.173044
                                    232 ;	genPointerSet
      00008C A0 00            [ 2]  233 	ldy	#0x00
      00008E 91*00            [ 6]  234 	sta	[*___mbstoc16s_sloc0_1_0],y
      000090 8A               [ 2]  235 	txa
      000091 C8               [ 2]  236 	iny
      000092 91*00            [ 6]  237 	sta	[*___mbstoc16s_sloc0_1_0],y
                                    238 ;	Raw cost for generated ic 46 : (8, 18.000000) count=0.173044
                                    239 ;	genPlus
                                    240 ;	  genPlusInc
      000094 A5*00            [ 3]  241 	lda	*___mbstoc16s_sloc0_1_0
      000096 18               [ 2]  242 	clc
      000097 69 02            [ 2]  243 	adc	#0x02
      000099 85*00            [ 3]  244 	sta	*___mbstoc16s_sloc0_1_0
      00009B 90 02            [ 4]  245 	bcc	00175$
      00009D E6*01            [ 5]  246 	inc	*(___mbstoc16s_sloc0_1_0 + 1)
      00009F                        247 00175$:
                                    248 ;	Raw cost for generated ic 43 : (11, 17.600000) count=0.173044
                                    249 ;	../mbstoc16s.c: 70: m++;
                                    250 ;	genPlus
                                    251 ;	  genPlusInc
      00009F EEr06r00         [ 6]  252 	inc	___mbstoc16s_m_10000_65
      0000A2 D0 03            [ 4]  253 	bne	00176$
      0000A4 EEr07r00         [ 6]  254 	inc	(___mbstoc16s_m_10000_65 + 1)
      0000A7                        255 00176$:
                                    256 ;	Raw cost for generated ic 48 : (8, 14.600000) count=0.173044
                                    257 ;	genGoto
      0000A7 4Cr6Fr01         [ 3]  258 	jmp	00114$
                                    259 ;	Raw cost for generated ic 50 : (3, 3.000000) count=0.173044
                                    260 ;	genLabel
      0000AA                        261 00113$:
                                    262 ;	Raw cost for generated ic 51 : (0, 0.000000) count=0.076909
                                    263 ;	../mbstoc16s.c: 74: if (m + 1 >= n)
                                    264 ;	genPlus
                                    265 ;	  genPlusInc
      0000AA AEr07r00         [ 4]  266 	ldx	(___mbstoc16s_m_10000_65 + 1)
      0000AD ADr06r00         [ 4]  267 	lda	___mbstoc16s_m_10000_65
      0000B0 18               [ 2]  268 	clc
      0000B1 69 01            [ 2]  269 	adc	#0x01
      0000B3 90 01            [ 4]  270 	bcc	00177$
      0000B5 E8               [ 2]  271 	inx
      0000B6                        272 00177$:
                                    273 ;	Raw cost for generated ic 52 : (12, 16.600000) count=0.076909
                                    274 ;	genCmp
      0000B6 38               [ 2]  275 	sec
      0000B7 EDr02r00         [ 4]  276 	sbc	___mbstoc16s_PARM_3
      0000BA 8A               [ 2]  277 	txa
      0000BB EDr03r00         [ 4]  278 	sbc	(___mbstoc16s_PARM_3 + 1)
      0000BE 90 03            [ 4]  279 	bcc	00178$
      0000C0 4Cr85r01         [ 3]  280 	jmp	00115$
      0000C3                        281 00178$:
                                    282 ;	Raw cost for generated ic 53 : (13, 17.600000) count=0.076909
                                    283 ;	skipping generated iCode
                                    284 ;	Raw cost for generated ic 54 : (0, 0.000000) count=0.076909
                                    285 ;	../mbstoc16s.c: 77: codepoint -= 0x100000;
                                    286 ;	genMinus
                                    287 ;	  genMinusDec - size=4  icount=1048576
      0000C3 ADr0Ar00         [ 4]  288 	lda	___mbstoc16s_codepoint_30000_67
      0000C6 38               [ 2]  289 	sec
      0000C7 E9 00            [ 2]  290 	sbc	#0x00
      0000C9 8Dr0Ar00         [ 4]  291 	sta	___mbstoc16s_codepoint_30000_67
      0000CC ADr0Br00         [ 4]  292 	lda	(___mbstoc16s_codepoint_30000_67 + 1)
      0000CF E9 00            [ 2]  293 	sbc	#0x00
      0000D1 8Dr0Br00         [ 4]  294 	sta	(___mbstoc16s_codepoint_30000_67 + 1)
      0000D4 ADr0Cr00         [ 4]  295 	lda	(___mbstoc16s_codepoint_30000_67 + 2)
      0000D7 E9 10            [ 2]  296 	sbc	#0x10
      0000D9 8Dr0Cr00         [ 4]  297 	sta	(___mbstoc16s_codepoint_30000_67 + 2)
      0000DC ADr0Dr00         [ 4]  298 	lda	(___mbstoc16s_codepoint_30000_67 + 3)
      0000DF E9 00            [ 2]  299 	sbc	#0x00
      0000E1 8Dr0Dr00         [ 4]  300 	sta	(___mbstoc16s_codepoint_30000_67 + 3)
                                    301 ;	Raw cost for generated ic 59 : (33, 42.000000) count=0.057634
                                    302 ;	../mbstoc16s.c: 78: *c16s++ = ((codepoint >> 10) & 0x3ff) + 0xd800;
                                    303 ;	genRightShift
                                    304 ;	genRightShiftLiteral
                                    305 ;	  genrsh32 - shift=10
      0000E4 4A               [ 2]  306 	lsr	a
      0000E5 85*04            [ 3]  307 	sta	*(___mbstoc16s_sloc1_1_0 + 2)
      0000E7 ADr0Cr00         [ 4]  308 	lda	(___mbstoc16s_codepoint_30000_67 + 2)
      0000EA 6A               [ 2]  309 	ror	a
      0000EB 85*03            [ 3]  310 	sta	*(___mbstoc16s_sloc1_1_0 + 1)
      0000ED ADr0Br00         [ 4]  311 	lda	(___mbstoc16s_codepoint_30000_67 + 1)
      0000F0 6A               [ 2]  312 	ror	a
      0000F1 85*02            [ 3]  313 	sta	*___mbstoc16s_sloc1_1_0
      0000F3 A5*04            [ 3]  314 	lda	*(___mbstoc16s_sloc1_1_0 + 2)
      0000F5 4A               [ 2]  315 	lsr	a
      0000F6 66*03            [ 5]  316 	ror	*(___mbstoc16s_sloc1_1_0 + 1)
      0000F8 66*02            [ 5]  317 	ror	*___mbstoc16s_sloc1_1_0
      0000FA 85*04            [ 3]  318 	sta	*(___mbstoc16s_sloc1_1_0 + 2)
      0000FC A0 00            [ 2]  319 	ldy	#0x00
      0000FE 84*05            [ 3]  320 	sty	*(___mbstoc16s_sloc1_1_0 + 3)
                                    321 ;	Raw cost for generated ic 64 : (28, 46.000000) count=0.057634
                                    322 ;	genCast
                                    323 ;	genCopy
      000100 A6*03            [ 3]  324 	ldx	*(___mbstoc16s_sloc1_1_0 + 1)
      000102 A5*02            [ 3]  325 	lda	*___mbstoc16s_sloc1_1_0
                                    326 ;	Raw cost for generated ic 90 : (4, 6.000000) count=0.057634
                                    327 ;	genAnd
      000104 85*00            [ 3]  328 	sta	*(REGTEMP+0)
      000106 8A               [ 2]  329 	txa
      000107 29 03            [ 2]  330 	and	#0x03
      000109 AA               [ 2]  331 	tax
      00010A A5*00            [ 3]  332 	lda	*(REGTEMP+0)
                                    333 ;	Raw cost for generated ic 65 : (8, 12.000000) count=0.057634
                                    334 ;	genPlus
                                    335 ;	  genPlusInc
      00010C 18               [ 2]  336 	clc
      00010D 48               [ 3]  337 	pha
      00010E 8A               [ 2]  338 	txa
      00010F 69 D8            [ 2]  339 	adc	#0xd8
      000111 AA               [ 2]  340 	tax
      000112 68               [ 4]  341 	pla
                                    342 ;	Raw cost for generated ic 66 : (7, 15.000000) count=0.057634
                                    343 ;	genPointerSet
      000113 91*00            [ 6]  344 	sta	[*___mbstoc16s_sloc0_1_0],y
      000115 8A               [ 2]  345 	txa
      000116 C8               [ 2]  346 	iny
      000117 91*00            [ 6]  347 	sta	[*___mbstoc16s_sloc0_1_0],y
                                    348 ;	Raw cost for generated ic 68 : (6, 16.000000) count=0.057634
                                    349 ;	genPlus
                                    350 ;	  genPlusInc
      000119 A5*00            [ 3]  351 	lda	*___mbstoc16s_sloc0_1_0
      00011B 18               [ 2]  352 	clc
      00011C 69 02            [ 2]  353 	adc	#0x02
      00011E 8Dr04r00         [ 4]  354 	sta	___mbstoc16s_c16s_10000_64
      000121 A5*01            [ 3]  355 	lda	*(___mbstoc16s_sloc0_1_0 + 1)
      000123 69 00            [ 2]  356 	adc	#0x00
      000125 8Dr05r00         [ 4]  357 	sta	(___mbstoc16s_c16s_10000_64 + 1)
                                    358 ;	Raw cost for generated ic 62 : (15, 20.000000) count=0.057634
                                    359 ;	../mbstoc16s.c: 79: *c16s++ = (codepoint & 0x3ff) + 0xdc00;
                                    360 ;	genCast
                                    361 ;	genCopy
      000128 AEr0Br00         [ 4]  362 	ldx	(___mbstoc16s_codepoint_30000_67 + 1)
      00012B ADr0Ar00         [ 4]  363 	lda	___mbstoc16s_codepoint_30000_67
                                    364 ;	Raw cost for generated ic 91 : (6, 8.000000) count=0.057634
                                    365 ;	genAnd
      00012E 85*00            [ 3]  366 	sta	*(REGTEMP+0)
      000130 8A               [ 2]  367 	txa
      000131 29 03            [ 2]  368 	and	#0x03
      000133 AA               [ 2]  369 	tax
      000134 A5*00            [ 3]  370 	lda	*(REGTEMP+0)
                                    371 ;	Raw cost for generated ic 72 : (8, 12.000000) count=0.057634
                                    372 ;	genPlus
                                    373 ;	  genPlusInc
      000136 18               [ 2]  374 	clc
      000137 48               [ 3]  375 	pha
      000138 8A               [ 2]  376 	txa
      000139 69 DC            [ 2]  377 	adc	#0xdc
      00013B AA               [ 2]  378 	tax
      00013C 68               [ 4]  379 	pla
                                    380 ;	Raw cost for generated ic 73 : (7, 15.000000) count=0.057634
                                    381 ;	genPointerSet
      00013D 85*00            [ 3]  382 	sta	*(REGTEMP+0)
                                    383 ;	  setupDPTR - off=0 remat=(null) savea=0
      00013F ADr04r00         [ 4]  384 	lda	___mbstoc16s_c16s_10000_64
      000142 85*00            [ 3]  385 	sta	*(DPTR+0)
      000144 ADr05r00         [ 4]  386 	lda	(___mbstoc16s_c16s_10000_64 + 1)
      000147 85*01            [ 3]  387 	sta	*(DPTR+1)
      000149 A5*00            [ 3]  388 	lda	*(REGTEMP+0)
      00014B 88               [ 2]  389 	dey
      00014C 91*00            [ 6]  390 	sta	[DPTR],y
      00014E 8A               [ 2]  391 	txa
      00014F C8               [ 2]  392 	iny
      000150 91*00            [ 6]  393 	sta	[DPTR],y
                                    394 ;	Raw cost for generated ic 75 : (21, 38.000000) count=0.057634
                                    395 ;	genPlus
                                    396 ;	  genPlusInc
      000152 ADr04r00         [ 4]  397 	lda	___mbstoc16s_c16s_10000_64
      000155 18               [ 2]  398 	clc
      000156 69 02            [ 2]  399 	adc	#0x02
      000158 85*00            [ 3]  400 	sta	*___mbstoc16s_sloc0_1_0
      00015A ADr05r00         [ 4]  401 	lda	(___mbstoc16s_c16s_10000_64 + 1)
      00015D 69 00            [ 2]  402 	adc	#0x00
      00015F 85*01            [ 3]  403 	sta	*(___mbstoc16s_sloc0_1_0 + 1)
                                    404 ;	Raw cost for generated ic 70 : (15, 20.000000) count=0.057634
                                    405 ;	../mbstoc16s.c: 80: m += 2;
                                    406 ;	genPlus
                                    407 ;	  genPlusInc
      000161 ADr06r00         [ 4]  408 	lda	___mbstoc16s_m_10000_65
      000164 18               [ 2]  409 	clc
      000165 69 02            [ 2]  410 	adc	#0x02
      000167 8Dr06r00         [ 4]  411 	sta	___mbstoc16s_m_10000_65
      00016A 90 03            [ 4]  412 	bcc	00179$
      00016C EEr07r00         [ 6]  413 	inc	(___mbstoc16s_m_10000_65 + 1)
      00016F                        414 00179$:
                                    415 ;	Raw cost for generated ic 76 : (14, 20.600000) count=0.057634
                                    416 ;	genLabel
      00016F                        417 00114$:
                                    418 ;	Raw cost for generated ic 78 : (0, 0.000000) count=0.230679
                                    419 ;	../mbstoc16s.c: 82: s += l;
                                    420 ;	genPlus
      00016F ADr00r00         [ 4]  421 	lda	___mbstoc16s_PARM_2
      000172 18               [ 2]  422 	clc
      000173 6Dr08r00         [ 4]  423 	adc	___mbstoc16s_l_30000_67
      000176 8Dr00r00         [ 4]  424 	sta	___mbstoc16s_PARM_2
      000179 ADr01r00         [ 4]  425 	lda	(___mbstoc16s_PARM_2 + 1)
      00017C 6Dr09r00         [ 4]  426 	adc	(___mbstoc16s_l_30000_67 + 1)
      00017F 8Dr01r00         [ 4]  427 	sta	(___mbstoc16s_PARM_2 + 1)
                                    428 ;	Raw cost for generated ic 79 : (19, 26.000000) count=0.230679
                                    429 ;	genGoto
      000182 4Cr0Cr00         [ 3]  430 	jmp	00116$
                                    431 ;	Raw cost for generated ic 82 : (3, 3.000000) count=0.230679
                                    432 ;	genLabel
      000185                        433 00115$:
                                    434 ;	Raw cost for generated ic 83 : (0, 0.000000) count=0.999918
                                    435 ;	../mbstoc16s.c: 85: return(m);
                                    436 ;	genRet
      000185 AEr07r00         [ 4]  437 	ldx	(___mbstoc16s_m_10000_65 + 1)
      000188 ADr06r00         [ 4]  438 	lda	___mbstoc16s_m_10000_65
                                    439 ;	Raw cost for generated ic 84 : (6, 8.000000) count=0.999918
                                    440 ;	genLabel
                                    441 ;	Raw cost for generated ic 85 : (0, 0.000000) count=0.999918
                                    442 ;	../mbstoc16s.c: 86: }
                                    443 ;	genEndFunction
      00018B 60               [ 6]  444 	rts
                                    445 ;	Raw cost for generated ic 86 : (1, 6.000000) count=0.999918
                                    446 	.area CODE
                                    447 	.area RODATA
                                    448 	.area XINIT
                                    449 	.area CABS    (ABS)
