                                      1 ;--------------------------------------------------------
                                      2 ; File Created by SDCC : free open source ISO C Compiler
                                      3 ; Version 4.5.10 #15691 (Linux)
                                      4 ;--------------------------------------------------------
                                      5 	.module mbstowcs
                                      6 	
                                      7 	.optsdcc -mmos6502
                                      8 
                                      9 ;--------------------------------------------------------
                                     10 ;  Ordering of segments for the linker.
                                     11 ;--------------------------------------------------------
                                     12 	.area ZP      (PAG)
                                     13 	.area OSEG    (PAG, OVR)
                                     14 	.area _CODE
                                     15 	.area GSINIT
                                     16 	.area GSFINAL
                                     17 	.area CODE
                                     18 	.area RODATA
                                     19 	.area XINIT
                                     20 	.area _DATA
                                     21 	.area DATA
                                     22 	.area BSS
                                     23 ;--------------------------------------------------------
                                     24 ; Public variables in this module
                                     25 ;--------------------------------------------------------
                                     26 	.globl _mbtowc
                                     27 	.globl _mbstowcs_PARM_3
                                     28 	.globl _mbstowcs_PARM_2
                                     29 	.globl _mbstowcs
                                     30 ;--------------------------------------------------------
                                     31 ; ZP ram data
                                     32 ;--------------------------------------------------------
                                     33 	.area ZP      (PAG)
      000000                         34 _mbstowcs_sloc0_1_0:
      000000                         35 	.ds 2
      000002                         36 _mbstowcs_sloc1_1_0:
      000002                         37 	.ds 2
      000004                         38 _mbstowcs_sloc2_1_0:
      000004                         39 	.ds 2
                                     40 ;--------------------------------------------------------
                                     41 ; overlayable items in ram
                                     42 ;--------------------------------------------------------
                                     43 ;--------------------------------------------------------
                                     44 ; uninitialized external ram data
                                     45 ;--------------------------------------------------------
                                     46 	.area BSS
      000000                         47 _mbstowcs_PARM_2:
      000000                         48 	.ds 2
      000002                         49 _mbstowcs_PARM_3:
      000002                         50 	.ds 2
      000004                         51 _mbstowcs_m_10000_43:
      000004                         52 	.ds 2
      000006                         53 _mbstowcs_b_20000_44:
      000006                         54 	.ds 2
                                     55 ;--------------------------------------------------------
                                     56 ; absolute external ram data
                                     57 ;--------------------------------------------------------
                                     58 	.area DABS    (ABS)
                                     59 ;--------------------------------------------------------
                                     60 ; initialized external ram data
                                     61 ;--------------------------------------------------------
                                     62 	.area DATA
                                     63 ;--------------------------------------------------------
                                     64 ; global & static initialisations
                                     65 ;--------------------------------------------------------
                                     66 	.area _CODE
                                     67 	.area GSINIT
                                     68 	.area GSFINAL
                                     69 	.area GSINIT
                                     70 ;--------------------------------------------------------
                                     71 ; Home
                                     72 ;--------------------------------------------------------
                                     73 	.area _CODE
                                     74 	.area _CODE
                                     75 ;--------------------------------------------------------
                                     76 ; code
                                     77 ;--------------------------------------------------------
                                     78 	.area CODE
                                     79 ;------------------------------------------------------------
                                     80 ;Allocation info for local variables in function 'mbstowcs'
                                     81 ;------------------------------------------------------------
                                     82 ;sloc0         Allocated with name '_mbstowcs_sloc0_1_0'
                                     83 ;sloc1         Allocated with name '_mbstowcs_sloc1_1_0'
                                     84 ;sloc2         Allocated with name '_mbstowcs_sloc2_1_0'
                                     85 ;s             Allocated with name '_mbstowcs_PARM_2'
                                     86 ;n             Allocated with name '_mbstowcs_PARM_3'
                                     87 ;pwcs          Allocated to registers 
                                     88 ;m             Allocated with name '_mbstowcs_m_10000_43'
                                     89 ;b             Allocated with name '_mbstowcs_b_20000_44'
                                     90 ;------------------------------------------------------------
                                     91 ;	../mbstowcs.c: 33: size_t mbstowcs(wchar_t *restrict pwcs, const char *restrict s, size_t n)
                                     92 ;	genLabel
                                     93 ;	Raw cost for generated ic 0 : (0, 0.000000) count=1.000000
                                     94 ;	-----------------------------------------
                                     95 ;	 function mbstowcs
                                     96 ;	-----------------------------------------
                                     97 ;	Register assignment is optimal.
                                     98 ;	Stack space usage: 0 bytes.
      000000                         99 _mbstowcs:
                                    100 ;	Raw cost for generated ic 1 : (0, 0.000000) count=1.000000
                                    101 ;	genReceive
      000000 85*00            [ 3]  102 	sta	*_mbstowcs_sloc0_1_0
      000002 86*01            [ 3]  103 	stx	*(_mbstowcs_sloc0_1_0 + 1)
                                    104 ;	Raw cost for generated ic 2 : (4, 6.000000) count=1.000000
                                    105 ;	../mbstowcs.c: 35: size_t m = 0;
                                    106 ;	genAssign
                                    107 ;	genAssignLit
      000004 A0 00            [ 2]  108 	ldy	#0x00
      000006 8Cr04r00         [ 4]  109 	sty	_mbstowcs_m_10000_43
      000009 8Cr05r00         [ 4]  110 	sty	(_mbstowcs_m_10000_43 + 1)
                                    111 ;	Raw cost for generated ic 3 : (8, 10.000000) count=1.000000
                                    112 ;	../mbstowcs.c: 36: while(n--)
                                    113 ;	genAssign
                                    114 ;	genAssignLit
      00000C 84*02            [ 3]  115 	sty	*_mbstowcs_sloc1_1_0
      00000E 84*03            [ 3]  116 	sty	*(_mbstowcs_sloc1_1_0 + 1)
                                    117 ;	Raw cost for generated ic 42 : (4, 6.000000) count=1.000000
                                    118 ;	genAssign
                                    119 ;	genCopy
      000010 ADr03r00         [ 4]  120 	lda	(_mbstowcs_PARM_3 + 1)
      000013 85*05            [ 3]  121 	sta	*(_mbstowcs_sloc2_1_0 + 1)
      000015 ADr02r00         [ 4]  122 	lda	_mbstowcs_PARM_3
      000018 85*04            [ 3]  123 	sta	*_mbstowcs_sloc2_1_0
                                    124 ;	Raw cost for generated ic 43 : (10, 14.000000) count=1.000000
                                    125 ;	genLabel
      00001A                        126 00105$:
                                    127 ;	Raw cost for generated ic 4 : (0, 0.000000) count=2.285707
                                    128 ;	genAssign
                                    129 ;	genCopy
      00001A A6*05            [ 3]  130 	ldx	*(_mbstowcs_sloc2_1_0 + 1)
      00001C A5*04            [ 3]  131 	lda	*_mbstowcs_sloc2_1_0
                                    132 ;	Raw cost for generated ic 5 : (4, 6.000000) count=2.285707
                                    133 ;	genMinus
                                    134 ;	  genMinusDec - size=2  icount=1
      00001E A4*04            [ 3]  135 	ldy	*_mbstowcs_sloc2_1_0
      000020 D0 02            [ 4]  136 	bne	00134$
      000022 C6*05            [ 5]  137 	dec	*(_mbstowcs_sloc2_1_0 + 1)
      000024                        138 00134$:
      000024 C6*04            [ 5]  139 	dec	*_mbstowcs_sloc2_1_0
                                    140 ;	Raw cost for generated ic 6 : (8, 15.600000) count=2.285707
                                    141 ;	genIfx
      000026 C9 00            [ 2]  142 	cmp	#0x00
                                    143 ;	genIfxJump : z
      000028 D0 04            [ 4]  144 	bne	00136$
      00002A E0 00            [ 2]  145 	cpx	#0x00
      00002C F0 65            [ 4]  146 	beq	00107$
      00002E                        147 00136$:
                                    148 ;	Raw cost for generated ic 8 : (11, 12.200000) count=2.285707
                                    149 ;	../mbstowcs.c: 38: int b = mbtowc(pwcs++, s, MB_LEN_MAX);
                                    150 ;	genAssign
                                    151 ;	genCopy
      00002E A6*01            [ 3]  152 	ldx	*(_mbstowcs_sloc0_1_0 + 1)
      000030 A5*00            [ 3]  153 	lda	*_mbstowcs_sloc0_1_0
                                    154 ;	Raw cost for generated ic 11 : (4, 6.000000) count=1.714280
                                    155 ;	genPlus
                                    156 ;	  genPlusInc
      000032 48               [ 3]  157 	pha
      000033 A5*00            [ 3]  158 	lda	*_mbstowcs_sloc0_1_0
      000035 18               [ 2]  159 	clc
      000036 69 04            [ 2]  160 	adc	#0x04
      000038 85*00            [ 3]  161 	sta	*_mbstowcs_sloc0_1_0
      00003A 90 02            [ 4]  162 	bcc	00137$
      00003C E6*01            [ 5]  163 	inc	*(_mbstowcs_sloc0_1_0 + 1)
      00003E                        164 00137$:
      00003E 68               [ 4]  165 	pla
                                    166 ;	Raw cost for generated ic 12 : (13, 24.600000) count=1.714280
                                    167 ;	genAssign
                                    168 ;	genCopy
      00003F ACr01r00         [ 4]  169 	ldy	(_mbstowcs_PARM_2 + 1)
      000042 8Cr01r00         [ 4]  170 	sty	(_mbtowc_PARM_2 + 1)
      000045 ACr00r00         [ 4]  171 	ldy	_mbstowcs_PARM_2
      000048 8Cr00r00         [ 4]  172 	sty	_mbtowc_PARM_2
                                    173 ;	Raw cost for generated ic 15 : (12, 16.000000) count=1.714280
                                    174 ;	genAssign
                                    175 ;	genAssignLit
      00004B A0 04            [ 2]  176 	ldy	#0x04
      00004D 8Cr00r00         [ 4]  177 	sty	_mbtowc_PARM_3
      000050 A0 00            [ 2]  178 	ldy	#0x00
      000052 8Cr01r00         [ 4]  179 	sty	(_mbtowc_PARM_3 + 1)
                                    180 ;	Raw cost for generated ic 16 : (10, 12.000000) count=1.714280
                                    181 ;	Raw cost for generated ic 14 : (0, 0.000000) count=1.714280
                                    182 ;	genCall
                                    183 ;	genSend
      000055 20r00r00         [ 6]  184 	jsr	_mbtowc
                                    185 ;	assignResultValue
      000058 8Dr06r00         [ 4]  186 	sta	_mbstowcs_b_20000_44
      00005B 8Er07r00         [ 4]  187 	stx	(_mbstowcs_b_20000_44 + 1)
                                    188 ;	Raw cost for generated ic 17 : (9, 14.000000) count=1.714280
                                    189 ;	../mbstowcs.c: 39: if(!b)
                                    190 ;	genIfx
      00005E 8A               [ 2]  191 	txa
      00005F 0Dr06r00         [ 4]  192 	ora	_mbstowcs_b_20000_44
                                    193 ;	genIfxJump : z
      000062 F0 2F            [ 4]  194 	beq	00107$
                                    195 ;	Raw cost for generated ic 19 : (9, 11.600000) count=1.714280
                                    196 ;	../mbstowcs.c: 41: if(b < 0)
                                    197 ;	genCmp
      000064 2Cr07r00         [ 4]  198 	bit	(_mbstowcs_b_20000_44 + 1)
      000067 10 04            [ 4]  199 	bpl	00104$
                                    200 ;	Raw cost for generated ic 24 : (8, 9.600000) count=1.285710
                                    201 ;	skipping generated iCode
                                    202 ;	Raw cost for generated ic 25 : (0, 0.000000) count=1.285710
                                    203 ;	../mbstowcs.c: 42: return(-1);
                                    204 ;	genRet
      000069 A9 FF            [ 2]  205 	lda	#0xff
      00006B AA               [ 2]  206 	tax
      00006C 60               [ 6]  207 	rts
                                    208 ;	Raw cost for generated ic 28 : (6, 7.000000) count=0.964280
                                    209 ;	genLabel
      00006D                        210 00104$:
                                    211 ;	Raw cost for generated ic 29 : (0, 0.000000) count=1.285707
                                    212 ;	../mbstowcs.c: 43: s += b;
                                    213 ;	genPlus
      00006D ADr00r00         [ 4]  214 	lda	_mbstowcs_PARM_2
      000070 18               [ 2]  215 	clc
      000071 6Dr06r00         [ 4]  216 	adc	_mbstowcs_b_20000_44
      000074 8Dr00r00         [ 4]  217 	sta	_mbstowcs_PARM_2
      000077 ADr01r00         [ 4]  218 	lda	(_mbstowcs_PARM_2 + 1)
      00007A 6Dr07r00         [ 4]  219 	adc	(_mbstowcs_b_20000_44 + 1)
      00007D 8Dr01r00         [ 4]  220 	sta	(_mbstowcs_PARM_2 + 1)
                                    221 ;	Raw cost for generated ic 30 : (19, 26.000000) count=1.285707
                                    222 ;	../mbstowcs.c: 44: m++;
                                    223 ;	genPlus
                                    224 ;	  genPlusInc
      000080 E6*02            [ 5]  225 	inc	*_mbstowcs_sloc1_1_0
      000082 D0 02            [ 4]  226 	bne	00141$
      000084 E6*03            [ 5]  227 	inc	*(_mbstowcs_sloc1_1_0 + 1)
      000086                        228 00141$:
                                    229 ;	Raw cost for generated ic 33 : (6, 12.600000) count=1.285707
                                    230 ;	genAssign
                                    231 ;	genCopy
      000086 A5*03            [ 3]  232 	lda	*(_mbstowcs_sloc1_1_0 + 1)
      000088 8Dr05r00         [ 4]  233 	sta	(_mbstowcs_m_10000_43 + 1)
      00008B A5*02            [ 3]  234 	lda	*_mbstowcs_sloc1_1_0
      00008D 8Dr04r00         [ 4]  235 	sta	_mbstowcs_m_10000_43
                                    236 ;	Raw cost for generated ic 34 : (10, 14.000000) count=1.285707
                                    237 ;	genGoto
      000090 4Cr1Ar00         [ 3]  238 	jmp	00105$
                                    239 ;	Raw cost for generated ic 35 : (3, 3.000000) count=1.285707
                                    240 ;	genLabel
      000093                        241 00107$:
                                    242 ;	Raw cost for generated ic 36 : (0, 0.000000) count=0.999994
                                    243 ;	../mbstowcs.c: 47: return(m);
                                    244 ;	genRet
      000093 AEr05r00         [ 4]  245 	ldx	(_mbstowcs_m_10000_43 + 1)
      000096 ADr04r00         [ 4]  246 	lda	_mbstowcs_m_10000_43
                                    247 ;	Raw cost for generated ic 37 : (6, 8.000000) count=0.999994
                                    248 ;	genLabel
                                    249 ;	Raw cost for generated ic 38 : (0, 0.000000) count=0.999994
                                    250 ;	../mbstowcs.c: 48: }
                                    251 ;	genEndFunction
      000099 60               [ 6]  252 	rts
                                    253 ;	Raw cost for generated ic 39 : (1, 6.000000) count=0.999994
                                    254 	.area CODE
                                    255 	.area RODATA
                                    256 	.area XINIT
                                    257 	.area CABS    (ABS)
