                                      1 ;--------------------------------------------------------
                                      2 ; File Created by SDCC : free open source ISO C Compiler
                                      3 ; Version 4.5.10 #15691 (Linux)
                                      4 ;--------------------------------------------------------
                                      5 	.module wcsncmp
                                      6 	
                                      7 	.optsdcc -mmos6502
                                      8 
                                      9 ;--------------------------------------------------------
                                     10 ;  Ordering of segments for the linker.
                                     11 ;--------------------------------------------------------
                                     12 	.area ZP      (PAG)
                                     13 	.area OSEG    (PAG, OVR)
                                     14 	.area _CODE
                                     15 	.area GSINIT
                                     16 	.area GSFINAL
                                     17 	.area CODE
                                     18 	.area RODATA
                                     19 	.area XINIT
                                     20 	.area _DATA
                                     21 	.area DATA
                                     22 	.area BSS
                                     23 ;--------------------------------------------------------
                                     24 ; Public variables in this module
                                     25 ;--------------------------------------------------------
                                     26 	.globl _wcsncmp_PARM_3
                                     27 	.globl _wcsncmp_PARM_2
                                     28 	.globl _wcsncmp
                                     29 ;--------------------------------------------------------
                                     30 ; ZP ram data
                                     31 ;--------------------------------------------------------
                                     32 	.area ZP      (PAG)
                                     33 ;--------------------------------------------------------
                                     34 ; overlayable items in ram
                                     35 ;--------------------------------------------------------
                                     36 	.area	OSEG    (PAG, OVR)
      000000                         37 _wcsncmp_sloc0_1_0:
      000000                         38 	.ds 2
      000002                         39 _wcsncmp_sloc1_1_0:
      000002                         40 	.ds 2
      000004                         41 _wcsncmp_sloc2_1_0:
      000004                         42 	.ds 2
      000006                         43 _wcsncmp_sloc3_1_0:
      000006                         44 	.ds 4
      00000A                         45 _wcsncmp_sloc4_1_0:
      00000A                         46 	.ds 4
                                     47 ;--------------------------------------------------------
                                     48 ; uninitialized external ram data
                                     49 ;--------------------------------------------------------
                                     50 	.area BSS
      000000                         51 _wcsncmp_PARM_2:
      000000                         52 	.ds 2
      000002                         53 _wcsncmp_PARM_3:
      000002                         54 	.ds 2
                                     55 ;--------------------------------------------------------
                                     56 ; absolute external ram data
                                     57 ;--------------------------------------------------------
                                     58 	.area DABS    (ABS)
                                     59 ;--------------------------------------------------------
                                     60 ; initialized external ram data
                                     61 ;--------------------------------------------------------
                                     62 	.area DATA
                                     63 ;--------------------------------------------------------
                                     64 ; global & static initialisations
                                     65 ;--------------------------------------------------------
                                     66 	.area _CODE
                                     67 	.area GSINIT
                                     68 	.area GSFINAL
                                     69 	.area GSINIT
                                     70 ;--------------------------------------------------------
                                     71 ; Home
                                     72 ;--------------------------------------------------------
                                     73 	.area _CODE
                                     74 	.area _CODE
                                     75 ;--------------------------------------------------------
                                     76 ; code
                                     77 ;--------------------------------------------------------
                                     78 	.area CODE
                                     79 ;------------------------------------------------------------
                                     80 ;Allocation info for local variables in function 'wcsncmp'
                                     81 ;------------------------------------------------------------
                                     82 ;last          Allocated with name '_wcsncmp_PARM_2'
                                     83 ;count         Allocated with name '_wcsncmp_PARM_3'
                                     84 ;first         Allocated to registers a x 
                                     85 ;sloc0         Allocated with name '_wcsncmp_sloc0_1_0'
                                     86 ;sloc1         Allocated with name '_wcsncmp_sloc1_1_0'
                                     87 ;sloc2         Allocated with name '_wcsncmp_sloc2_1_0'
                                     88 ;sloc3         Allocated with name '_wcsncmp_sloc3_1_0'
                                     89 ;sloc4         Allocated with name '_wcsncmp_sloc4_1_0'
                                     90 ;------------------------------------------------------------
                                     91 ;	../wcsncmp.c: 32: int wcsncmp ( const wchar_t * first, const wchar_t * last, size_t count )
                                     92 ;	genLabel
                                     93 ;	Raw cost for generated ic 0 : (0, 0.000000) count=1.000000
                                     94 ;	-----------------------------------------
                                     95 ;	 function wcsncmp
                                     96 ;	-----------------------------------------
                                     97 ;	Register assignment is optimal.
                                     98 ;	Stack space usage: 0 bytes.
      000000                         99 _wcsncmp:
                                    100 ;	Raw cost for generated ic 1 : (0, 0.000000) count=1.000000
                                    101 ;	genReceive
                                    102 ;	Raw cost for generated ic 2 : (0, 0.000000) count=1.000000
                                    103 ;	../wcsncmp.c: 34: if (!count)
                                    104 ;	genIfx
      000000 85*00            [ 3]  105 	sta	*(REGTEMP+0)
      000002 ADr03r00         [ 4]  106 	lda	(_wcsncmp_PARM_3 + 1)
      000005 0Dr02r00         [ 4]  107 	ora	_wcsncmp_PARM_3
      000008 08               [ 3]  108 	php
      000009 A5*00            [ 3]  109 	lda	*(REGTEMP+0)
      00000B 28               [ 4]  110 	plp
                                    111 ;	genIfxJump : z
      00000C D0 04            [ 4]  112 	bne	00114$
                                    113 ;	Raw cost for generated ic 3 : (17, 26.600000) count=1.000000
                                    114 ;	../wcsncmp.c: 35: return(0);
                                    115 ;	genRet
      00000E A9 00            [ 2]  116 	lda	#0x00
      000010 AA               [ 2]  117 	tax
      000011 60               [ 6]  118 	rts
                                    119 ;	Raw cost for generated ic 6 : (6, 7.000000) count=0.750000
                                    120 ;	../wcsncmp.c: 37: while (--count && *first && *first == *last) {
                                    121 ;	genLabel
      000012                        122 00114$:
                                    123 ;	Raw cost for generated ic 44 : (0, 0.000000) count=1.000000
                                    124 ;	genAssign
                                    125 ;	genCopy
      000012 85*00            [ 3]  126 	sta	*_wcsncmp_sloc0_1_0
      000014 86*01            [ 3]  127 	stx	*(_wcsncmp_sloc0_1_0 + 1)
                                    128 ;	Raw cost for generated ic 47 : (4, 6.000000) count=1.000000
                                    129 ;	genAssign
                                    130 ;	genCopy
      000016 ADr01r00         [ 4]  131 	lda	(_wcsncmp_PARM_2 + 1)
      000019 85*03            [ 3]  132 	sta	*(_wcsncmp_sloc1_1_0 + 1)
      00001B ADr00r00         [ 4]  133 	lda	_wcsncmp_PARM_2
      00001E 85*02            [ 3]  134 	sta	*_wcsncmp_sloc1_1_0
                                    135 ;	Raw cost for generated ic 50 : (10, 14.000000) count=1.000000
                                    136 ;	genAssign
                                    137 ;	genCopy
      000020 ADr03r00         [ 4]  138 	lda	(_wcsncmp_PARM_3 + 1)
      000023 85*05            [ 3]  139 	sta	*(_wcsncmp_sloc2_1_0 + 1)
      000025 ADr02r00         [ 4]  140 	lda	_wcsncmp_PARM_3
      000028 85*04            [ 3]  141 	sta	*_wcsncmp_sloc2_1_0
                                    142 ;	Raw cost for generated ic 52 : (10, 14.000000) count=1.000000
                                    143 ;	genLabel
      00002A                        144 00105$:
                                    145 ;	Raw cost for generated ic 8 : (0, 0.000000) count=1.729728
                                    146 ;	genMinus
                                    147 ;	  genMinusDec - size=2  icount=1
      00002A A5*04            [ 3]  148 	lda	*_wcsncmp_sloc2_1_0
      00002C D0 02            [ 4]  149 	bne	00143$
      00002E C6*05            [ 5]  150 	dec	*(_wcsncmp_sloc2_1_0 + 1)
      000030                        151 00143$:
      000030 C6*04            [ 5]  152 	dec	*_wcsncmp_sloc2_1_0
                                    153 ;	Raw cost for generated ic 9 : (8, 15.600000) count=1.729728
                                    154 ;	genIfx
      000032 A5*05            [ 3]  155 	lda	*(_wcsncmp_sloc2_1_0 + 1)
      000034 05*04            [ 3]  156 	ora	*_wcsncmp_sloc2_1_0
                                    157 ;	genIfxJump : z
      000036 F0 63            [ 4]  158 	beq	00107$
                                    159 ;	Raw cost for generated ic 11 : (9, 11.600000) count=1.729728
                                    160 ;	genPointerGet
      000038 A0 00            [ 2]  161 	ldy	#0x00
      00003A B1*00            [ 6]  162 	lda	[*_wcsncmp_sloc0_1_0],y
      00003C 85*06            [ 3]  163 	sta	*_wcsncmp_sloc3_1_0
      00003E C8               [ 2]  164 	iny
      00003F B1*00            [ 6]  165 	lda	[*_wcsncmp_sloc0_1_0],y
      000041 85*07            [ 3]  166 	sta	*(_wcsncmp_sloc3_1_0 + 1)
      000043 C8               [ 2]  167 	iny
      000044 B1*00            [ 6]  168 	lda	[*_wcsncmp_sloc0_1_0],y
      000046 85*08            [ 3]  169 	sta	*(_wcsncmp_sloc3_1_0 + 2)
      000048 C8               [ 2]  170 	iny
      000049 B1*00            [ 6]  171 	lda	[*_wcsncmp_sloc0_1_0],y
      00004B 85*09            [ 3]  172 	sta	*(_wcsncmp_sloc3_1_0 + 3)
                                    173 ;	Raw cost for generated ic 15 : (21, 40.000000) count=1.297296
                                    174 ;	genIfx
      00004D 05*08            [ 3]  175 	ora	*(_wcsncmp_sloc3_1_0 + 2)
      00004F 05*07            [ 3]  176 	ora	*(_wcsncmp_sloc3_1_0 + 1)
      000051 05*06            [ 3]  177 	ora	*_wcsncmp_sloc3_1_0
                                    178 ;	genIfxJump : z
      000053 F0 46            [ 4]  179 	beq	00107$
                                    180 ;	Raw cost for generated ic 16 : (11, 14.600000) count=1.297296
                                    181 ;	genPointerGet
      000055 A0 00            [ 2]  182 	ldy	#0x00
      000057 B1*02            [ 6]  183 	lda	[*_wcsncmp_sloc1_1_0],y
      000059 85*0A            [ 3]  184 	sta	*_wcsncmp_sloc4_1_0
      00005B C8               [ 2]  185 	iny
      00005C B1*02            [ 6]  186 	lda	[*_wcsncmp_sloc1_1_0],y
      00005E 85*0B            [ 3]  187 	sta	*(_wcsncmp_sloc4_1_0 + 1)
      000060 C8               [ 2]  188 	iny
      000061 B1*02            [ 6]  189 	lda	[*_wcsncmp_sloc1_1_0],y
      000063 85*0C            [ 3]  190 	sta	*(_wcsncmp_sloc4_1_0 + 2)
      000065 C8               [ 2]  191 	iny
      000066 B1*02            [ 6]  192 	lda	[*_wcsncmp_sloc1_1_0],y
      000068 85*0D            [ 3]  193 	sta	*(_wcsncmp_sloc4_1_0 + 3)
                                    194 ;	Raw cost for generated ic 22 : (21, 40.000000) count=0.972971
                                    195 ;	genCmpEQorNE
      00006A A5*06            [ 3]  196 	lda	*_wcsncmp_sloc3_1_0
      00006C C5*0A            [ 3]  197 	cmp	*_wcsncmp_sloc4_1_0
      00006E D0 2B            [ 4]  198 	bne	00107$
      000070 A5*07            [ 3]  199 	lda	*(_wcsncmp_sloc3_1_0 + 1)
      000072 C5*0B            [ 3]  200 	cmp	*(_wcsncmp_sloc4_1_0 + 1)
      000074 D0 25            [ 4]  201 	bne	00107$
      000076 A5*08            [ 3]  202 	lda	*(_wcsncmp_sloc3_1_0 + 2)
      000078 C5*0C            [ 3]  203 	cmp	*(_wcsncmp_sloc4_1_0 + 2)
      00007A D0 1F            [ 4]  204 	bne	00107$
      00007C A5*09            [ 3]  205 	lda	*(_wcsncmp_sloc3_1_0 + 3)
      00007E C5*0D            [ 3]  206 	cmp	*(_wcsncmp_sloc4_1_0 + 3)
      000080 D0 19            [ 4]  207 	bne	00107$
                                    208 ;	Raw cost for generated ic 23 : (36, 46.400002) count=0.972971
                                    209 ;	skipping generated iCode
                                    210 ;	Raw cost for generated ic 24 : (0, 0.000000) count=0.972971
                                    211 ;	../wcsncmp.c: 38: first++;
                                    212 ;	genPlus
                                    213 ;	  genPlusInc
      000082 A5*00            [ 3]  214 	lda	*_wcsncmp_sloc0_1_0
      000084 18               [ 2]  215 	clc
      000085 69 04            [ 2]  216 	adc	#0x04
      000087 85*00            [ 3]  217 	sta	*_wcsncmp_sloc0_1_0
      000089 90 02            [ 4]  218 	bcc	00153$
      00008B E6*01            [ 5]  219 	inc	*(_wcsncmp_sloc0_1_0 + 1)
      00008D                        220 00153$:
                                    221 ;	Raw cost for generated ic 28 : (11, 17.600000) count=0.729728
                                    222 ;	../wcsncmp.c: 39: last++;
                                    223 ;	genPlus
                                    224 ;	  genPlusInc
      00008D A5*02            [ 3]  225 	lda	*_wcsncmp_sloc1_1_0
      00008F 18               [ 2]  226 	clc
      000090 69 04            [ 2]  227 	adc	#0x04
      000092 85*02            [ 3]  228 	sta	*_wcsncmp_sloc1_1_0
      000094 90 94            [ 4]  229 	bcc	00105$
      000096 E6*03            [ 5]  230 	inc	*(_wcsncmp_sloc1_1_0 + 1)
                                    231 ;	Raw cost for generated ic 31 : (11, 17.600000) count=0.729728
                                    232 ;	genGoto
      000098 4Cr2Ar00         [ 3]  233 	jmp	00105$
                                    234 ;	Raw cost for generated ic 33 : (3, 3.000000) count=0.729728
                                    235 ;	genLabel
      00009B                        236 00107$:
                                    237 ;	Raw cost for generated ic 34 : (0, 0.000000) count=0.999998
                                    238 ;	../wcsncmp.c: 42: return( *first - *last );
                                    239 ;	genPointerGet
      00009B A0 01            [ 2]  240 	ldy	#0x01
      00009D B1*00            [ 6]  241 	lda	[*_wcsncmp_sloc0_1_0],y
      00009F AA               [ 2]  242 	tax
      0000A0 88               [ 2]  243 	dey
      0000A1 B1*00            [ 6]  244 	lda	[*_wcsncmp_sloc0_1_0],y
                                    245 ;	Raw cost for generated ic 36 : (8, 16.000000) count=0.999998
                                    246 ;	genPointerGet
      0000A3 85*00            [ 3]  247 	sta	*(REGTEMP+0)
      0000A5 B1*02            [ 6]  248 	lda	[*_wcsncmp_sloc1_1_0],y
      0000A7 85*0A            [ 3]  249 	sta	*_wcsncmp_sloc4_1_0
      0000A9 C8               [ 2]  250 	iny
      0000AA B1*02            [ 6]  251 	lda	[*_wcsncmp_sloc1_1_0],y
      0000AC 85*0B            [ 3]  252 	sta	*(_wcsncmp_sloc4_1_0 + 1)
      0000AE A5*00            [ 3]  253 	lda	*(REGTEMP+0)
                                    254 ;	Raw cost for generated ic 38 : (13, 24.000000) count=0.999998
                                    255 ;	genMinus
      0000B0 38               [ 2]  256 	sec
      0000B1 E5*0A            [ 3]  257 	sbc	*_wcsncmp_sloc4_1_0
      0000B3 48               [ 3]  258 	pha
      0000B4 8A               [ 2]  259 	txa
      0000B5 E5*0B            [ 3]  260 	sbc	*(_wcsncmp_sloc4_1_0 + 1)
      0000B7 AA               [ 2]  261 	tax
      0000B8 68               [ 4]  262 	pla
                                    263 ;	Raw cost for generated ic 39 : (9, 19.000000) count=0.999998
                                    264 ;	genRet
                                    265 ;	Raw cost for generated ic 41 : (0, 0.000000) count=0.999998
                                    266 ;	genLabel
                                    267 ;	Raw cost for generated ic 42 : (0, 0.000000) count=0.999998
                                    268 ;	../wcsncmp.c: 43: }
                                    269 ;	genEndFunction
      0000B9 60               [ 6]  270 	rts
                                    271 ;	Raw cost for generated ic 43 : (1, 6.000000) count=0.999998
                                    272 	.area CODE
                                    273 	.area RODATA
                                    274 	.area XINIT
                                    275 	.area CABS    (ABS)
