                                      1 ;--------------------------------------------------------
                                      2 ; File Created by SDCC : free open source ISO C Compiler
                                      3 ; Version 4.5.10 #15691 (Linux)
                                      4 ;--------------------------------------------------------
                                      5 	.module wcstombs
                                      6 	
                                      7 	.optsdcc -mmos6502
                                      8 
                                      9 ;--------------------------------------------------------
                                     10 ;  Ordering of segments for the linker.
                                     11 ;--------------------------------------------------------
                                     12 	.area ZP      (PAG)
                                     13 	.area OSEG    (PAG, OVR)
                                     14 	.area _CODE
                                     15 	.area GSINIT
                                     16 	.area GSFINAL
                                     17 	.area CODE
                                     18 	.area RODATA
                                     19 	.area XINIT
                                     20 	.area _DATA
                                     21 	.area DATA
                                     22 	.area BSS
                                     23 ;--------------------------------------------------------
                                     24 ; Public variables in this module
                                     25 ;--------------------------------------------------------
                                     26 	.globl _wctomb
                                     27 	.globl _wcstombs_PARM_3
                                     28 	.globl _wcstombs_PARM_2
                                     29 	.globl _wcstombs
                                     30 ;--------------------------------------------------------
                                     31 ; ZP ram data
                                     32 ;--------------------------------------------------------
                                     33 	.area ZP      (PAG)
      000000                         34 _wcstombs_sloc0_1_0:
      000000                         35 	.ds 2
                                     36 ;--------------------------------------------------------
                                     37 ; overlayable items in ram
                                     38 ;--------------------------------------------------------
                                     39 ;--------------------------------------------------------
                                     40 ; uninitialized external ram data
                                     41 ;--------------------------------------------------------
                                     42 	.area BSS
      000000                         43 _wcstombs_PARM_2:
      000000                         44 	.ds 2
      000002                         45 _wcstombs_PARM_3:
      000002                         46 	.ds 2
      000004                         47 _wcstombs_s_10000_42:
      000004                         48 	.ds 2
      000006                         49 _wcstombs_m_10000_43:
      000006                         50 	.ds 2
      000008                         51 _wcstombs_buffer_10000_43:
      000008                         52 	.ds 4
      00000C                         53 _wcstombs_b_20000_44:
      00000C                         54 	.ds 2
                                     55 ;--------------------------------------------------------
                                     56 ; absolute external ram data
                                     57 ;--------------------------------------------------------
                                     58 	.area DABS    (ABS)
                                     59 ;--------------------------------------------------------
                                     60 ; initialized external ram data
                                     61 ;--------------------------------------------------------
                                     62 	.area DATA
                                     63 ;--------------------------------------------------------
                                     64 ; global & static initialisations
                                     65 ;--------------------------------------------------------
                                     66 	.area _CODE
                                     67 	.area GSINIT
                                     68 	.area GSFINAL
                                     69 	.area GSINIT
                                     70 ;--------------------------------------------------------
                                     71 ; Home
                                     72 ;--------------------------------------------------------
                                     73 	.area _CODE
                                     74 	.area _CODE
                                     75 ;--------------------------------------------------------
                                     76 ; code
                                     77 ;--------------------------------------------------------
                                     78 	.area CODE
                                     79 ;------------------------------------------------------------
                                     80 ;Allocation info for local variables in function 'wcstombs'
                                     81 ;------------------------------------------------------------
                                     82 ;sloc0         Allocated with name '_wcstombs_sloc0_1_0'
                                     83 ;pwcs          Allocated with name '_wcstombs_PARM_2'
                                     84 ;n             Allocated with name '_wcstombs_PARM_3'
                                     85 ;s             Allocated with name '_wcstombs_s_10000_42'
                                     86 ;m             Allocated with name '_wcstombs_m_10000_43'
                                     87 ;buffer        Allocated with name '_wcstombs_buffer_10000_43'
                                     88 ;b             Allocated with name '_wcstombs_b_20000_44'
                                     89 ;------------------------------------------------------------
                                     90 ;	../wcstombs.c: 33: size_t wcstombs(char *restrict s, const wchar_t *restrict pwcs, size_t n)
                                     91 ;	genLabel
                                     92 ;	Raw cost for generated ic 0 : (0, 0.000000) count=1.000000
                                     93 ;	-----------------------------------------
                                     94 ;	 function wcstombs
                                     95 ;	-----------------------------------------
                                     96 ;	Register assignment is optimal.
                                     97 ;	Stack space usage: 0 bytes.
      000000                         98 _wcstombs:
                                     99 ;	Raw cost for generated ic 1 : (0, 0.000000) count=1.000000
                                    100 ;	genReceive
      000000 8Dr04r00         [ 4]  101 	sta	_wcstombs_s_10000_42
      000003 8Er05r00         [ 4]  102 	stx	(_wcstombs_s_10000_42 + 1)
                                    103 ;	Raw cost for generated ic 2 : (6, 8.000000) count=1.000000
                                    104 ;	../wcstombs.c: 35: size_t m = 0;
                                    105 ;	genAssign
                                    106 ;	genAssignLit
      000006 A0 00            [ 2]  107 	ldy	#0x00
      000008 8Cr06r00         [ 4]  108 	sty	_wcstombs_m_10000_43
      00000B 8Cr07r00         [ 4]  109 	sty	(_wcstombs_m_10000_43 + 1)
                                    110 ;	Raw cost for generated ic 3 : (8, 10.000000) count=1.000000
                                    111 ;	../wcstombs.c: 38: while(n > MB_LEN_MAX || n >= wctomb(buffer, *pwcs))
                                    112 ;	skipping iCode since result will be rematerialized
                                    113 ;	Raw cost for generated ic 9 : (0, 0.000000) count=1.000000
                                    114 ;	genAssign
                                    115 ;	genCopy
      00000E ADr01r00         [ 4]  116 	lda	(_wcstombs_PARM_2 + 1)
      000011 85*01            [ 3]  117 	sta	*(_wcstombs_sloc0_1_0 + 1)
      000013 ADr00r00         [ 4]  118 	lda	_wcstombs_PARM_2
      000016 85*00            [ 3]  119 	sta	*_wcstombs_sloc0_1_0
                                    120 ;	Raw cost for generated ic 61 : (10, 14.000000) count=1.000000
                                    121 ;	genLabel
      000018                        122 00107$:
                                    123 ;	Raw cost for generated ic 4 : (0, 0.000000) count=2.942521
                                    124 ;	genCmp
      000018 A9 04            [ 2]  125 	lda	#0x04
      00001A 38               [ 2]  126 	sec
      00001B EDr02r00         [ 4]  127 	sbc	_wcstombs_PARM_3
      00001E A9 00            [ 2]  128 	lda	#0x00
      000020 EDr03r00         [ 4]  129 	sbc	(_wcstombs_PARM_3 + 1)
      000023 90 34            [ 4]  130 	bcc	00108$
                                    131 ;	Raw cost for generated ic 5 : (16, 19.600000) count=2.942521
                                    132 ;	skipping generated iCode
                                    133 ;	Raw cost for generated ic 6 : (0, 0.000000) count=2.942521
                                    134 ;	skipping iCode since result will be rematerialized
                                    135 ;	Raw cost for generated ic 10 : (0, 0.000000) count=2.206891
                                    136 ;	genPointerGet
      000025 A0 00            [ 2]  137 	ldy	#0x00
      000027 B1*00            [ 6]  138 	lda	[*_wcstombs_sloc0_1_0],y
      000029 8Dr00r00         [ 4]  139 	sta	_wctomb_PARM_2
      00002C C8               [ 2]  140 	iny
      00002D B1*00            [ 6]  141 	lda	[*_wcstombs_sloc0_1_0],y
      00002F 8Dr01r00         [ 4]  142 	sta	(_wctomb_PARM_2 + 1)
      000032 C8               [ 2]  143 	iny
      000033 B1*00            [ 6]  144 	lda	[*_wcstombs_sloc0_1_0],y
      000035 8Dr02r00         [ 4]  145 	sta	(_wctomb_PARM_2 + 2)
      000038 C8               [ 2]  146 	iny
      000039 B1*00            [ 6]  147 	lda	[*_wcstombs_sloc0_1_0],y
      00003B 8Dr03r00         [ 4]  148 	sta	(_wctomb_PARM_2 + 3)
                                    149 ;	Raw cost for generated ic 12 : (25, 44.000000) count=2.206891
                                    150 ;	Raw cost for generated ic 13 : (0, 0.000000) count=2.206891
                                    151 ;	genCall
                                    152 ;	genSend
      00003E A2s00            [ 2]  153 	ldx	#>_wcstombs_buffer_10000_43
      000040 A9r08            [ 2]  154 	lda	#_wcstombs_buffer_10000_43
      000042 20r00r00         [ 6]  155 	jsr	_wctomb
                                    156 ;	assignResultValue
                                    157 ;	Raw cost for generated ic 15 : (7, 10.000000) count=2.206891
                                    158 ;	genCast
                                    159 ;	genCopy
                                    160 ;	Raw cost for generated ic 16 : (0, 0.000000) count=2.206891
                                    161 ;	genCmp
      000045 85*00            [ 3]  162 	sta	*(REGTEMP+0)
      000047 ADr02r00         [ 4]  163 	lda	_wcstombs_PARM_3
      00004A 38               [ 2]  164 	sec
      00004B E5*00            [ 3]  165 	sbc	*(REGTEMP+0)
      00004D ADr03r00         [ 4]  166 	lda	(_wcstombs_PARM_3 + 1)
      000050 86*00            [ 3]  167 	stx	*(REGTEMP+0)
      000052 E5*00            [ 3]  168 	sbc	*(REGTEMP+0)
      000054 B0 03            [ 4]  169 	bcs	00137$
      000056 4CrF0r00         [ 3]  170 	jmp	00109$
      000059                        171 00137$:
                                    172 ;	Raw cost for generated ic 17 : (20, 27.600000) count=2.206891
                                    173 ;	skipping generated iCode
                                    174 ;	Raw cost for generated ic 18 : (0, 0.000000) count=2.206891
                                    175 ;	genLabel
      000059                        176 00108$:
                                    177 ;	Raw cost for generated ic 20 : (0, 0.000000) count=2.390799
                                    178 ;	../wcstombs.c: 40: int b = wctomb(s, *pwcs);
                                    179 ;	genPointerGet
      000059 A0 00            [ 2]  180 	ldy	#0x00
      00005B B1*00            [ 6]  181 	lda	[*_wcstombs_sloc0_1_0],y
      00005D 8Dr00r00         [ 4]  182 	sta	_wctomb_PARM_2
      000060 C8               [ 2]  183 	iny
      000061 B1*00            [ 6]  184 	lda	[*_wcstombs_sloc0_1_0],y
      000063 8Dr01r00         [ 4]  185 	sta	(_wctomb_PARM_2 + 1)
      000066 C8               [ 2]  186 	iny
      000067 B1*00            [ 6]  187 	lda	[*_wcstombs_sloc0_1_0],y
      000069 8Dr02r00         [ 4]  188 	sta	(_wctomb_PARM_2 + 2)
      00006C C8               [ 2]  189 	iny
      00006D B1*00            [ 6]  190 	lda	[*_wcstombs_sloc0_1_0],y
      00006F 8Dr03r00         [ 4]  191 	sta	(_wctomb_PARM_2 + 3)
                                    192 ;	Raw cost for generated ic 22 : (25, 44.000000) count=2.390799
                                    193 ;	Raw cost for generated ic 23 : (0, 0.000000) count=2.390799
                                    194 ;	genCall
                                    195 ;	genSend
      000072 AEr05r00         [ 4]  196 	ldx	(_wcstombs_s_10000_42 + 1)
      000075 ADr04r00         [ 4]  197 	lda	_wcstombs_s_10000_42
      000078 20r00r00         [ 6]  198 	jsr	_wctomb
                                    199 ;	assignResultValue
      00007B 8Dr0Cr00         [ 4]  200 	sta	_wcstombs_b_20000_44
      00007E 8Er0Dr00         [ 4]  201 	stx	(_wcstombs_b_20000_44 + 1)
                                    202 ;	Raw cost for generated ic 25 : (15, 22.000000) count=2.390799
                                    203 ;	../wcstombs.c: 42: if(b == 1 && !*s)
                                    204 ;	genCmpEQorNE
      000081 C9 01            [ 2]  205 	cmp	#0x01
      000083 D0 14            [ 4]  206 	bne	00102$
      000085 E0 00            [ 2]  207 	cpx	#0x00
      000087 D0 10            [ 4]  208 	bne	00102$
                                    209 ;	Raw cost for generated ic 27 : (14, 15.200001) count=2.390799
                                    210 ;	skipping generated iCode
                                    211 ;	Raw cost for generated ic 28 : (0, 0.000000) count=2.390799
                                    212 ;	genPointerGet
                                    213 ;	  setupDPTR - off=0 remat=(null) savea=0
      000089 AEr04r00         [ 4]  214 	ldx	_wcstombs_s_10000_42
      00008C 86*00            [ 3]  215 	stx	*(DPTR+0)
      00008E AEr05r00         [ 4]  216 	ldx	(_wcstombs_s_10000_42 + 1)
      000091 86*01            [ 3]  217 	stx	*(DPTR+1)
      000093 A0 00            [ 2]  218 	ldy	#0x00
      000095 B1*00            [ 6]  219 	lda	[DPTR],y
                                    220 ;	Raw cost for generated ic 32 : (14, 21.000000) count=1.793097
                                    221 ;	genIfx
                                    222 ;	genIfxJump : z
      000097 F0 57            [ 4]  223 	beq	00109$
                                    224 ;	Raw cost for generated ic 33 : (5, 5.600000) count=1.793097
                                    225 ;	../wcstombs.c: 43: break;
                                    226 ;	genLabel
      000099                        227 00102$:
                                    228 ;	Raw cost for generated ic 37 : (0, 0.000000) count=1.942521
                                    229 ;	../wcstombs.c: 44: if(b < 0)
                                    230 ;	genCmp
      000099 2Cr0Dr00         [ 4]  231 	bit	(_wcstombs_b_20000_44 + 1)
      00009C 10 04            [ 4]  232 	bpl	00105$
                                    233 ;	Raw cost for generated ic 38 : (8, 9.600000) count=1.942521
                                    234 ;	skipping generated iCode
                                    235 ;	Raw cost for generated ic 39 : (0, 0.000000) count=1.942521
                                    236 ;	../wcstombs.c: 45: return(-1);
                                    237 ;	genRet
      00009E A9 FF            [ 2]  238 	lda	#0xff
      0000A0 AA               [ 2]  239 	tax
      0000A1 60               [ 6]  240 	rts
                                    241 ;	Raw cost for generated ic 42 : (6, 7.000000) count=1.456891
                                    242 ;	genLabel
      0000A2                        243 00105$:
                                    244 ;	Raw cost for generated ic 43 : (0, 0.000000) count=1.942521
                                    245 ;	../wcstombs.c: 47: n -= b;
                                    246 ;	genCast
                                    247 ;	genCopy
      0000A2 AEr0Dr00         [ 4]  248 	ldx	(_wcstombs_b_20000_44 + 1)
      0000A5 ADr0Cr00         [ 4]  249 	lda	_wcstombs_b_20000_44
                                    250 ;	Raw cost for generated ic 44 : (6, 8.000000) count=1.942521
                                    251 ;	genMinus
      0000A8 85*00            [ 3]  252 	sta	*(REGTEMP+0)
      0000AA 85*01            [ 3]  253 	sta	*(REGTEMP+1)
      0000AC ADr02r00         [ 4]  254 	lda	_wcstombs_PARM_3
      0000AF 38               [ 2]  255 	sec
      0000B0 E5*01            [ 3]  256 	sbc	*(REGTEMP+1)
      0000B2 8Dr02r00         [ 4]  257 	sta	_wcstombs_PARM_3
      0000B5 ADr03r00         [ 4]  258 	lda	(_wcstombs_PARM_3 + 1)
      0000B8 86*01            [ 3]  259 	stx	*(REGTEMP+1)
      0000BA E5*01            [ 3]  260 	sbc	*(REGTEMP+1)
      0000BC 8Dr03r00         [ 4]  261 	sta	(_wcstombs_PARM_3 + 1)
      0000BF A5*00            [ 3]  262 	lda	*(REGTEMP+0)
                                    263 ;	Raw cost for generated ic 45 : (25, 36.000000) count=1.942521
                                    264 ;	../wcstombs.c: 48: m += b;
                                    265 ;	genPlus
      0000C1 18               [ 2]  266 	clc
      0000C2 6Dr06r00         [ 4]  267 	adc	_wcstombs_m_10000_43
      0000C5 8Dr06r00         [ 4]  268 	sta	_wcstombs_m_10000_43
      0000C8 8A               [ 2]  269 	txa
      0000C9 6Dr07r00         [ 4]  270 	adc	(_wcstombs_m_10000_43 + 1)
      0000CC 8Dr07r00         [ 4]  271 	sta	(_wcstombs_m_10000_43 + 1)
                                    272 ;	Raw cost for generated ic 48 : (14, 20.000000) count=1.942521
                                    273 ;	../wcstombs.c: 49: s += b;
                                    274 ;	genPlus
      0000CF ADr04r00         [ 4]  275 	lda	_wcstombs_s_10000_42
      0000D2 18               [ 2]  276 	clc
      0000D3 6Dr0Cr00         [ 4]  277 	adc	_wcstombs_b_20000_44
      0000D6 8Dr04r00         [ 4]  278 	sta	_wcstombs_s_10000_42
      0000D9 ADr05r00         [ 4]  279 	lda	(_wcstombs_s_10000_42 + 1)
      0000DC 6Dr0Dr00         [ 4]  280 	adc	(_wcstombs_b_20000_44 + 1)
      0000DF 8Dr05r00         [ 4]  281 	sta	(_wcstombs_s_10000_42 + 1)
                                    282 ;	Raw cost for generated ic 50 : (19, 26.000000) count=1.942521
                                    283 ;	../wcstombs.c: 50: pwcs++;
                                    284 ;	genPlus
                                    285 ;	  genPlusInc
      0000E2 A5*00            [ 3]  286 	lda	*_wcstombs_sloc0_1_0
      0000E4 18               [ 2]  287 	clc
      0000E5 69 04            [ 2]  288 	adc	#0x04
      0000E7 85*00            [ 3]  289 	sta	*_wcstombs_sloc0_1_0
      0000E9 90 02            [ 4]  290 	bcc	00144$
      0000EB E6*01            [ 5]  291 	inc	*(_wcstombs_sloc0_1_0 + 1)
      0000ED                        292 00144$:
                                    293 ;	Raw cost for generated ic 53 : (11, 17.600000) count=1.942521
                                    294 ;	genGoto
      0000ED 4Cr18r00         [ 3]  295 	jmp	00107$
                                    296 ;	Raw cost for generated ic 55 : (3, 3.000000) count=1.942521
                                    297 ;	genLabel
      0000F0                        298 00109$:
                                    299 ;	Raw cost for generated ic 56 : (0, 0.000000) count=0.999997
                                    300 ;	../wcstombs.c: 53: return(m);
                                    301 ;	genRet
      0000F0 AEr07r00         [ 4]  302 	ldx	(_wcstombs_m_10000_43 + 1)
      0000F3 ADr06r00         [ 4]  303 	lda	_wcstombs_m_10000_43
                                    304 ;	Raw cost for generated ic 57 : (6, 8.000000) count=0.999997
                                    305 ;	genLabel
                                    306 ;	Raw cost for generated ic 58 : (0, 0.000000) count=0.999997
                                    307 ;	../wcstombs.c: 54: }
                                    308 ;	genEndFunction
      0000F6 60               [ 6]  309 	rts
                                    310 ;	Raw cost for generated ic 59 : (1, 6.000000) count=0.999997
                                    311 	.area CODE
                                    312 	.area RODATA
                                    313 	.area XINIT
                                    314 	.area CABS    (ABS)
