                                      1 ;--------------------------------------------------------
                                      2 ; File Created by SDCC : free open source ISO C Compiler
                                      3 ; Version 4.5.10 #15691 (Linux)
                                      4 ;--------------------------------------------------------
                                      5 	.module wcstol
                                      6 	
                                      7 	.optsdcc -mmos6502
                                      8 
                                      9 ;--------------------------------------------------------
                                     10 ;  Ordering of segments for the linker.
                                     11 ;--------------------------------------------------------
                                     12 	.area ZP      (PAG)
                                     13 	.area OSEG    (PAG, OVR)
                                     14 	.area _CODE
                                     15 	.area GSINIT
                                     16 	.area GSFINAL
                                     17 	.area CODE
                                     18 	.area RODATA
                                     19 	.area XINIT
                                     20 	.area _DATA
                                     21 	.area DATA
                                     22 	.area BSS
                                     23 ;--------------------------------------------------------
                                     24 ; Public variables in this module
                                     25 ;--------------------------------------------------------
                                     26 	.globl _wcstoul
                                     27 	.globl _wcstol_PARM_3
                                     28 	.globl _wcstol_PARM_2
                                     29 	.globl _wcstol
                                     30 ;--------------------------------------------------------
                                     31 ; ZP ram data
                                     32 ;--------------------------------------------------------
                                     33 	.area ZP      (PAG)
      000000                         34 _wcstol_sloc0_1_0:
      000000                         35 	.ds 2
      000002                         36 _wcstol_sloc1_1_0:
      000002                         37 	.ds 4
      000006                         38 _wcstol_sloc2_1_0:
      000006                         39 	.ds 4
                                     40 ;--------------------------------------------------------
                                     41 ; overlayable items in ram
                                     42 ;--------------------------------------------------------
                                     43 ;--------------------------------------------------------
                                     44 ; uninitialized external ram data
                                     45 ;--------------------------------------------------------
                                     46 	.area BSS
      000000                         47 _wcstol_PARM_2:
      000000                         48 	.ds 2
      000002                         49 _wcstol_PARM_3:
      000002                         50 	.ds 2
      000004                         51 _wcstol_nptr_10000_78:
      000004                         52 	.ds 2
      000006                         53 _wcstol_ptr_10000_79:
      000006                         54 	.ds 2
      000008                         55 _wcstol_rptr_10000_79:
      000008                         56 	.ds 2
                                     57 ;--------------------------------------------------------
                                     58 ; absolute external ram data
                                     59 ;--------------------------------------------------------
                                     60 	.area DABS    (ABS)
                                     61 ;--------------------------------------------------------
                                     62 ; initialized external ram data
                                     63 ;--------------------------------------------------------
                                     64 	.area DATA
                                     65 ;--------------------------------------------------------
                                     66 ; global & static initialisations
                                     67 ;--------------------------------------------------------
                                     68 	.area _CODE
                                     69 	.area GSINIT
                                     70 	.area GSFINAL
                                     71 	.area GSINIT
                                     72 ;--------------------------------------------------------
                                     73 ; Home
                                     74 ;--------------------------------------------------------
                                     75 	.area _CODE
                                     76 	.area _CODE
                                     77 ;--------------------------------------------------------
                                     78 ; code
                                     79 ;--------------------------------------------------------
                                     80 	.area CODE
                                     81 ;------------------------------------------------------------
                                     82 ;Allocation info for local variables in function 'wcstol'
                                     83 ;------------------------------------------------------------
                                     84 ;sloc0         Allocated with name '_wcstol_sloc0_1_0'
                                     85 ;sloc1         Allocated with name '_wcstol_sloc1_1_0'
                                     86 ;sloc2         Allocated with name '_wcstol_sloc2_1_0'
                                     87 ;endptr        Allocated with name '_wcstol_PARM_2'
                                     88 ;base          Allocated with name '_wcstol_PARM_3'
                                     89 ;nptr          Allocated with name '_wcstol_nptr_10000_78'
                                     90 ;__200000008   Allocated to registers 
                                     91 ;__200000005   Allocated to registers 
                                     92 ;ptr           Allocated with name '_wcstol_ptr_10000_79'
                                     93 ;rptr          Allocated with name '_wcstol_rptr_10000_79'
                                     94 ;u             Allocated with name '_wcstol_u_10000_79'
                                     95 ;neg           Allocated to registers x 
                                     96 ;__200000006   Allocated with name '_wcstol___200000006_20000_93'
                                     97 ;c             Allocated with name '_wcstol_c_30000_94'
                                     98 ;__300000009   Allocated with name '_wcstol___300000009_30000_96'
                                     99 ;c             Allocated with name '_wcstol_c_40000_97'
                                    100 ;------------------------------------------------------------
                                    101 ;	../wcstol.c: 40: long int wcstol(const wchar_t *restrict nptr, wchar_t **restrict endptr, int base)
                                    102 ;	genLabel
                                    103 ;	Raw cost for generated ic 0 : (0, 0.000000) count=1.000000
                                    104 ;	-----------------------------------------
                                    105 ;	 function wcstol
                                    106 ;	-----------------------------------------
                                    107 ;	Register assignment is optimal.
                                    108 ;	Stack space usage: 0 bytes.
      000000                        109 _wcstol:
                                    110 ;	Raw cost for generated ic 1 : (0, 0.000000) count=1.000000
                                    111 ;	genReceive
      000000 8Dr04r00         [ 4]  112 	sta	_wcstol_nptr_10000_78
      000003 8Er05r00         [ 4]  113 	stx	(_wcstol_nptr_10000_78 + 1)
                                    114 ;	Raw cost for generated ic 2 : (6, 8.000000) count=1.000000
                                    115 ;	../wcstol.c: 47: while (iswblank (*ptr))
                                    116 ;	genAssign
                                    117 ;	genCopy
      000006 85*00            [ 3]  118 	sta	*_wcstol_sloc0_1_0
      000008 86*01            [ 3]  119 	stx	*(_wcstol_sloc0_1_0 + 1)
                                    120 ;	Raw cost for generated ic 153 : (4, 6.000000) count=1.000000
                                    121 ;	genLabel
      00000A                        122 00101$:
                                    123 ;	Raw cost for generated ic 4 : (0, 0.000000) count=5.333324
                                    124 ;	genPointerGet
      00000A A0 00            [ 2]  125 	ldy	#0x00
      00000C B1*00            [ 6]  126 	lda	[*_wcstol_sloc0_1_0],y
      00000E 85*02            [ 3]  127 	sta	*_wcstol_sloc1_1_0
      000010 C8               [ 2]  128 	iny
      000011 B1*00            [ 6]  129 	lda	[*_wcstol_sloc0_1_0],y
      000013 85*03            [ 3]  130 	sta	*(_wcstol_sloc1_1_0 + 1)
      000015 C8               [ 2]  131 	iny
      000016 B1*00            [ 6]  132 	lda	[*_wcstol_sloc0_1_0],y
      000018 85*04            [ 3]  133 	sta	*(_wcstol_sloc1_1_0 + 2)
      00001A C8               [ 2]  134 	iny
      00001B B1*00            [ 6]  135 	lda	[*_wcstol_sloc0_1_0],y
      00001D 85*05            [ 3]  136 	sta	*(_wcstol_sloc1_1_0 + 3)
                                    137 ;	Raw cost for generated ic 6 : (21, 40.000000) count=5.333324
                                    138 ;	./../../include/wchar.h: 63: return ((wchar_t)c == L' ' || (wchar_t)c == L'\t');
                                    139 ;	genCmpEQorNE
      00001F A5*02            [ 3]  140 	lda	*_wcstol_sloc1_1_0
      000021 C9 20            [ 2]  141 	cmp	#0x20
      000023 D0 0C            [ 4]  142 	bne	00241$
      000025 A5*03            [ 3]  143 	lda	*(_wcstol_sloc1_1_0 + 1)
      000027 D0 08            [ 4]  144 	bne	00241$
      000029 A5*04            [ 3]  145 	lda	*(_wcstol_sloc1_1_0 + 2)
      00002B D0 04            [ 4]  146 	bne	00241$
      00002D A5*05            [ 3]  147 	lda	*(_wcstol_sloc1_1_0 + 3)
      00002F F0 12            [ 4]  148 	beq	00132$
      000031                        149 00241$:
                                    150 ;	Raw cost for generated ic 9 : (30, 36.400002) count=5.333324
                                    151 ;	skipping generated iCode
                                    152 ;	Raw cost for generated ic 10 : (0, 0.000000) count=5.333324
                                    153 ;	genCmpEQorNE
      000031 A5*02            [ 3]  154 	lda	*_wcstol_sloc1_1_0
      000033 C9 09            [ 2]  155 	cmp	#0x09
      000035 D0 1A            [ 4]  156 	bne	00158$
      000037 A5*03            [ 3]  157 	lda	*(_wcstol_sloc1_1_0 + 1)
      000039 D0 16            [ 4]  158 	bne	00158$
      00003B A5*04            [ 3]  159 	lda	*(_wcstol_sloc1_1_0 + 2)
      00003D D0 12            [ 4]  160 	bne	00158$
      00003F A5*05            [ 3]  161 	lda	*(_wcstol_sloc1_1_0 + 3)
      000041 D0 0E            [ 4]  162 	bne	00158$
                                    163 ;	Raw cost for generated ic 11 : (30, 36.400002) count=3.999992
                                    164 ;	skipping generated iCode
                                    165 ;	Raw cost for generated ic 12 : (0, 0.000000) count=3.999992
                                    166 ;	genLabel
      000043                        167 00132$:
                                    168 ;	Raw cost for generated ic 16 : (0, 0.000000) count=4.333324
                                    169 ;	../wcstol.c: 48: ptr++;
                                    170 ;	genPlus
                                    171 ;	  genPlusInc
      000043 A5*00            [ 3]  172 	lda	*_wcstol_sloc0_1_0
      000045 18               [ 2]  173 	clc
      000046 69 04            [ 2]  174 	adc	#0x04
      000048 85*00            [ 3]  175 	sta	*_wcstol_sloc0_1_0
      00004A 90 BE            [ 4]  176 	bcc	00101$
      00004C E6*01            [ 5]  177 	inc	*(_wcstol_sloc0_1_0 + 1)
                                    178 ;	Raw cost for generated ic 27 : (11, 17.600000) count=4.333324
                                    179 ;	genGoto
      00004E 4Cr0Ar00         [ 3]  180 	jmp	00101$
                                    181 ;	Raw cost for generated ic 29 : (3, 3.000000) count=4.333324
                                    182 ;	genLabel
      000051                        183 00158$:
                                    184 ;	Raw cost for generated ic 154 : (0, 0.000000) count=0.999997
                                    185 ;	genAssign
                                    186 ;	genCopy
      000051 A5*01            [ 3]  187 	lda	*(_wcstol_sloc0_1_0 + 1)
      000053 8Dr07r00         [ 4]  188 	sta	(_wcstol_ptr_10000_79 + 1)
      000056 A5*00            [ 3]  189 	lda	*_wcstol_sloc0_1_0
      000058 8Dr06r00         [ 4]  190 	sta	_wcstol_ptr_10000_79
                                    191 ;	Raw cost for generated ic 155 : (10, 14.000000) count=0.999997
                                    192 ;	../wcstol.c: 52: if (*ptr == L'-')
                                    193 ;	genPointerGet
      00005B A0 00            [ 2]  194 	ldy	#0x00
      00005D B1*00            [ 6]  195 	lda	[*_wcstol_sloc0_1_0],y
      00005F 85*02            [ 3]  196 	sta	*_wcstol_sloc1_1_0
      000061 C8               [ 2]  197 	iny
      000062 B1*00            [ 6]  198 	lda	[*_wcstol_sloc0_1_0],y
      000064 85*03            [ 3]  199 	sta	*(_wcstol_sloc1_1_0 + 1)
      000066 C8               [ 2]  200 	iny
      000067 B1*00            [ 6]  201 	lda	[*_wcstol_sloc0_1_0],y
      000069 85*04            [ 3]  202 	sta	*(_wcstol_sloc1_1_0 + 2)
      00006B C8               [ 2]  203 	iny
      00006C B1*00            [ 6]  204 	lda	[*_wcstol_sloc0_1_0],y
      00006E 85*05            [ 3]  205 	sta	*(_wcstol_sloc1_1_0 + 3)
                                    206 ;	Raw cost for generated ic 36 : (21, 40.000000) count=0.999997
                                    207 ;	genCmpEQorNE
      000070 A5*02            [ 3]  208 	lda	*_wcstol_sloc1_1_0
      000072 C9 2D            [ 2]  209 	cmp	#0x2d
      000074 D0 20            [ 4]  210 	bne	00105$
      000076 A5*03            [ 3]  211 	lda	*(_wcstol_sloc1_1_0 + 1)
      000078 D0 1C            [ 4]  212 	bne	00105$
      00007A A5*04            [ 3]  213 	lda	*(_wcstol_sloc1_1_0 + 2)
      00007C D0 18            [ 4]  214 	bne	00105$
      00007E A5*05            [ 3]  215 	lda	*(_wcstol_sloc1_1_0 + 3)
      000080 D0 14            [ 4]  216 	bne	00105$
                                    217 ;	Raw cost for generated ic 37 : (30, 36.400002) count=0.999997
                                    218 ;	skipping generated iCode
                                    219 ;	Raw cost for generated ic 38 : (0, 0.000000) count=0.999997
                                    220 ;	../wcstol.c: 54: neg = true;
                                    221 ;	genAssign
                                    222 ;	genCopy
      000082 A2 01            [ 2]  223 	ldx	#0x01
                                    224 ;	Raw cost for generated ic 41 : (2, 2.000000) count=0.749996
                                    225 ;	../wcstol.c: 55: ptr++;
                                    226 ;	genPlus
                                    227 ;	  genPlusInc
      000084 A5*00            [ 3]  228 	lda	*_wcstol_sloc0_1_0
      000086 18               [ 2]  229 	clc
      000087 69 04            [ 2]  230 	adc	#0x04
      000089 8Dr06r00         [ 4]  231 	sta	_wcstol_ptr_10000_79
      00008C A5*01            [ 3]  232 	lda	*(_wcstol_sloc0_1_0 + 1)
      00008E 69 00            [ 2]  233 	adc	#0x00
      000090 8Dr07r00         [ 4]  234 	sta	(_wcstol_ptr_10000_79 + 1)
                                    235 ;	Raw cost for generated ic 43 : (15, 20.000000) count=0.749996
                                    236 ;	genGoto
      000093 4Cr98r00         [ 3]  237 	jmp	00106$
                                    238 ;	Raw cost for generated ic 45 : (3, 3.000000) count=0.749996
                                    239 ;	genLabel
      000096                        240 00105$:
                                    241 ;	Raw cost for generated ic 46 : (0, 0.000000) count=0.249999
                                    242 ;	../wcstol.c: 58: neg = false;
                                    243 ;	genAssign
                                    244 ;	genCopy
      000096 A2 00            [ 2]  245 	ldx	#0x00
                                    246 ;	Raw cost for generated ic 47 : (2, 2.000000) count=0.249999
                                    247 ;	genLabel
      000098                        248 00106$:
                                    249 ;	Raw cost for generated ic 48 : (0, 0.000000) count=0.999995
                                    250 ;	../wcstol.c: 61: if (neg && (iswblank (*ptr) || *ptr == L'-' || *ptr == L'+'))
                                    251 ;	genIfx
      000098 E0 00            [ 2]  252 	cpx	#0x00
                                    253 ;	genIfxJump : z
      00009A D0 03            [ 4]  254 	bne	00256$
      00009C 4Cr2Dr01         [ 3]  255 	jmp	00110$
      00009F                        256 00256$:
                                    257 ;	Raw cost for generated ic 49 : (7, 7.600000) count=0.999995
                                    258 ;	genPointerGet
                                    259 ;	  setupDPTR - off=0 remat=(null) savea=0
      00009F ADr06r00         [ 4]  260 	lda	_wcstol_ptr_10000_79
      0000A2 85*00            [ 3]  261 	sta	*(DPTR+0)
      0000A4 ADr07r00         [ 4]  262 	lda	(_wcstol_ptr_10000_79 + 1)
      0000A7 85*01            [ 3]  263 	sta	*(DPTR+1)
      0000A9 A0 00            [ 2]  264 	ldy	#0x00
      0000AB B1*00            [ 6]  265 	lda	[DPTR],y
      0000AD 85*02            [ 3]  266 	sta	*_wcstol_sloc1_1_0
      0000AF C8               [ 2]  267 	iny
      0000B0 B1*00            [ 6]  268 	lda	[DPTR],y
      0000B2 85*03            [ 3]  269 	sta	*(_wcstol_sloc1_1_0 + 1)
      0000B4 C8               [ 2]  270 	iny
      0000B5 B1*00            [ 6]  271 	lda	[DPTR],y
      0000B7 85*04            [ 3]  272 	sta	*(_wcstol_sloc1_1_0 + 2)
      0000B9 C8               [ 2]  273 	iny
      0000BA B1*00            [ 6]  274 	lda	[DPTR],y
      0000BC 85*05            [ 3]  275 	sta	*(_wcstol_sloc1_1_0 + 3)
                                    276 ;	Raw cost for generated ic 53 : (31, 54.000000) count=0.749996
                                    277 ;	./../../include/wchar.h: 63: return ((wchar_t)c == L' ' || (wchar_t)c == L'\t');
                                    278 ;	genCmpEQorNE
      0000BE A5*02            [ 3]  279 	lda	*_wcstol_sloc1_1_0
      0000C0 C9 20            [ 2]  280 	cmp	#0x20
      0000C2 D0 0C            [ 4]  281 	bne	00258$
      0000C4 A5*03            [ 3]  282 	lda	*(_wcstol_sloc1_1_0 + 1)
      0000C6 D0 08            [ 4]  283 	bne	00258$
      0000C8 A5*04            [ 3]  284 	lda	*(_wcstol_sloc1_1_0 + 2)
      0000CA D0 04            [ 4]  285 	bne	00258$
      0000CC A5*05            [ 3]  286 	lda	*(_wcstol_sloc1_1_0 + 3)
      0000CE F0 36            [ 4]  287 	beq	00109$
      0000D0                        288 00258$:
                                    289 ;	Raw cost for generated ic 56 : (30, 36.400002) count=0.749996
                                    290 ;	skipping generated iCode
                                    291 ;	Raw cost for generated ic 57 : (0, 0.000000) count=0.749996
                                    292 ;	genCmpEQorNE
      0000D0 A5*02            [ 3]  293 	lda	*_wcstol_sloc1_1_0
      0000D2 C9 09            [ 2]  294 	cmp	#0x09
      0000D4 D0 0C            [ 4]  295 	bne	00262$
      0000D6 A5*03            [ 3]  296 	lda	*(_wcstol_sloc1_1_0 + 1)
      0000D8 D0 08            [ 4]  297 	bne	00262$
      0000DA A5*04            [ 3]  298 	lda	*(_wcstol_sloc1_1_0 + 2)
      0000DC D0 04            [ 4]  299 	bne	00262$
      0000DE A5*05            [ 3]  300 	lda	*(_wcstol_sloc1_1_0 + 3)
      0000E0 F0 24            [ 4]  301 	beq	00109$
      0000E2                        302 00262$:
                                    303 ;	Raw cost for generated ic 58 : (30, 36.400002) count=0.562497
                                    304 ;	skipping generated iCode
                                    305 ;	Raw cost for generated ic 59 : (0, 0.000000) count=0.562497
                                    306 ;	../wcstol.c: 61: if (neg && (iswblank (*ptr) || *ptr == L'-' || *ptr == L'+'))
                                    307 ;	genCmpEQorNE
      0000E2 A5*02            [ 3]  308 	lda	*_wcstol_sloc1_1_0
      0000E4 C9 2D            [ 2]  309 	cmp	#0x2d
      0000E6 D0 0C            [ 4]  310 	bne	00266$
      0000E8 A5*03            [ 3]  311 	lda	*(_wcstol_sloc1_1_0 + 1)
      0000EA D0 08            [ 4]  312 	bne	00266$
      0000EC A5*04            [ 3]  313 	lda	*(_wcstol_sloc1_1_0 + 2)
      0000EE D0 04            [ 4]  314 	bne	00266$
      0000F0 A5*05            [ 3]  315 	lda	*(_wcstol_sloc1_1_0 + 3)
      0000F2 F0 12            [ 4]  316 	beq	00109$
      0000F4                        317 00266$:
                                    318 ;	Raw cost for generated ic 75 : (30, 36.400002) count=0.421873
                                    319 ;	skipping generated iCode
                                    320 ;	Raw cost for generated ic 76 : (0, 0.000000) count=0.421873
                                    321 ;	genCmpEQorNE
      0000F4 A5*02            [ 3]  322 	lda	*_wcstol_sloc1_1_0
      0000F6 C9 2B            [ 2]  323 	cmp	#0x2b
      0000F8 D0 33            [ 4]  324 	bne	00110$
      0000FA A5*03            [ 3]  325 	lda	*(_wcstol_sloc1_1_0 + 1)
      0000FC D0 2F            [ 4]  326 	bne	00110$
      0000FE A5*04            [ 3]  327 	lda	*(_wcstol_sloc1_1_0 + 2)
      000100 D0 2B            [ 4]  328 	bne	00110$
      000102 A5*05            [ 3]  329 	lda	*(_wcstol_sloc1_1_0 + 3)
      000104 D0 27            [ 4]  330 	bne	00110$
                                    331 ;	Raw cost for generated ic 81 : (30, 36.400002) count=0.316405
                                    332 ;	skipping generated iCode
                                    333 ;	Raw cost for generated ic 82 : (0, 0.000000) count=0.316405
                                    334 ;	genLabel
      000106                        335 00109$:
                                    336 ;	Raw cost for generated ic 84 : (0, 0.000000) count=0.670895
                                    337 ;	../wcstol.c: 63: if (endptr)
                                    338 ;	genIfx
      000106 ADr01r00         [ 4]  339 	lda	(_wcstol_PARM_2 + 1)
      000109 0Dr00r00         [ 4]  340 	ora	_wcstol_PARM_2
                                    341 ;	genIfxJump : z
      00010C F0 17            [ 4]  342 	beq	00108$
                                    343 ;	Raw cost for generated ic 85 : (11, 13.600000) count=0.670895
                                    344 ;	../wcstol.c: 64: *endptr = nptr;
                                    345 ;	genAssign
                                    346 ;	genCopy
      00010E AEr01r00         [ 4]  347 	ldx	(_wcstol_PARM_2 + 1)
      000111 ADr00r00         [ 4]  348 	lda	_wcstol_PARM_2
                                    349 ;	Raw cost for generated ic 88 : (6, 8.000000) count=0.503171
                                    350 ;	genPointerSet
                                    351 ;	  setupDPTR - off=0 remat=(null) savea=0
      000114 85*00            [ 3]  352 	sta	*(DPTR+0)
      000116 86*01            [ 3]  353 	stx	*(DPTR+1)
      000118 ADr04r00         [ 4]  354 	lda	_wcstol_nptr_10000_78
      00011B A0 00            [ 2]  355 	ldy	#0x00
      00011D 91*00            [ 6]  356 	sta	[DPTR],y
      00011F ADr05r00         [ 4]  357 	lda	(_wcstol_nptr_10000_78 + 1)
      000122 C8               [ 2]  358 	iny
      000123 91*00            [ 6]  359 	sta	[DPTR],y
                                    360 ;	Raw cost for generated ic 89 : (17, 30.000000) count=0.503171
                                    361 ;	genLabel
      000125                        362 00108$:
                                    363 ;	Raw cost for generated ic 90 : (0, 0.000000) count=0.670895
                                    364 ;	../wcstol.c: 65: return (0);
                                    365 ;	genRet
      000125 A9 00            [ 2]  366 	lda	#0x00
      000127 AA               [ 2]  367 	tax
      000128 85*00            [ 3]  368 	sta	*___SDCC_m6502_ret2
      00012A 85*00            [ 3]  369 	sta	*___SDCC_m6502_ret3
      00012C 60               [ 6]  370 	rts
                                    371 ;	Raw cost for generated ic 91 : (10, 13.000000) count=0.670895
                                    372 ;	genLabel
      00012D                        373 00110$:
                                    374 ;	Raw cost for generated ic 92 : (0, 0.000000) count=0.999995
                                    375 ;	../wcstol.c: 68: u = wcstoul(ptr, &rptr, base);
                                    376 ;	skipping iCode since result will be rematerialized
                                    377 ;	Raw cost for generated ic 93 : (0, 0.000000) count=0.999995
                                    378 ;	genCast
                                    379 ;	genCopy
      00012D A9s00            [ 2]  380 	lda	#>_wcstol_rptr_10000_79
      00012F 8Dr01r00         [ 4]  381 	sta	(_wcstoul_PARM_2 + 1)
      000132 A9r08            [ 2]  382 	lda	#_wcstol_rptr_10000_79
      000134 8Dr00r00         [ 4]  383 	sta	_wcstoul_PARM_2
                                    384 ;	Raw cost for generated ic 94 : (10, 12.000000) count=0.999995
                                    385 ;	genAssign
                                    386 ;	genCopy
      000137 ADr03r00         [ 4]  387 	lda	(_wcstol_PARM_3 + 1)
      00013A 8Dr01r00         [ 4]  388 	sta	(_wcstoul_PARM_3 + 1)
      00013D ADr02r00         [ 4]  389 	lda	_wcstol_PARM_3
      000140 8Dr00r00         [ 4]  390 	sta	_wcstoul_PARM_3
                                    391 ;	Raw cost for generated ic 97 : (12, 16.000000) count=0.999995
                                    392 ;	Raw cost for generated ic 95 : (0, 0.000000) count=0.999995
                                    393 ;	genCall
      000143 8A               [ 2]  394 	txa
      000144 48               [ 3]  395 	pha
                                    396 ;	genSend
      000145 AEr07r00         [ 4]  397 	ldx	(_wcstol_ptr_10000_79 + 1)
      000148 ADr06r00         [ 4]  398 	lda	_wcstol_ptr_10000_79
      00014B 20r00r00         [ 6]  399 	jsr	_wcstoul
                                    400 ;	assignResultValue
      00014E 85*02            [ 3]  401 	sta	*_wcstol_sloc1_1_0
      000150 86*03            [ 3]  402 	stx	*(_wcstol_sloc1_1_0 + 1)
      000152 A5*00            [ 3]  403 	lda	*___SDCC_m6502_ret2
      000154 85*04            [ 3]  404 	sta	*(_wcstol_sloc1_1_0 + 2)
      000156 A5*00            [ 3]  405 	lda	*___SDCC_m6502_ret3
      000158 85*05            [ 3]  406 	sta	*(_wcstol_sloc1_1_0 + 3)
      00015A 68               [ 4]  407 	pla
      00015B AA               [ 2]  408 	tax
                                    409 ;	Raw cost for generated ic 98 : (31, 51.000000) count=0.999995
                                    410 ;	../wcstol.c: 71: if (rptr == ptr)
                                    411 ;	genCmpEQorNE
      00015C ADr08r00         [ 4]  412 	lda	_wcstol_rptr_10000_79
      00015F CDr06r00         [ 4]  413 	cmp	_wcstol_ptr_10000_79
      000162 D0 2F            [ 4]  414 	bne	00117$
      000164 ADr09r00         [ 4]  415 	lda	(_wcstol_rptr_10000_79 + 1)
      000167 CDr07r00         [ 4]  416 	cmp	(_wcstol_ptr_10000_79 + 1)
      00016A D0 27            [ 4]  417 	bne	00117$
                                    418 ;	Raw cost for generated ic 100 : (22, 27.200001) count=0.999995
                                    419 ;	skipping generated iCode
                                    420 ;	Raw cost for generated ic 101 : (0, 0.000000) count=0.999995
                                    421 ;	../wcstol.c: 73: if (endptr)
                                    422 ;	genIfx
      00016C ADr01r00         [ 4]  423 	lda	(_wcstol_PARM_2 + 1)
      00016F 0Dr00r00         [ 4]  424 	ora	_wcstol_PARM_2
                                    425 ;	genIfxJump : z
      000172 F0 17            [ 4]  426 	beq	00115$
                                    427 ;	Raw cost for generated ic 104 : (11, 13.600000) count=0.749996
                                    428 ;	../wcstol.c: 74: *endptr = nptr;
                                    429 ;	genAssign
                                    430 ;	genCopy
      000174 AEr01r00         [ 4]  431 	ldx	(_wcstol_PARM_2 + 1)
      000177 ADr00r00         [ 4]  432 	lda	_wcstol_PARM_2
                                    433 ;	Raw cost for generated ic 107 : (6, 8.000000) count=0.562497
                                    434 ;	genPointerSet
                                    435 ;	  setupDPTR - off=0 remat=(null) savea=0
      00017A 85*00            [ 3]  436 	sta	*(DPTR+0)
      00017C 86*01            [ 3]  437 	stx	*(DPTR+1)
      00017E ADr04r00         [ 4]  438 	lda	_wcstol_nptr_10000_78
      000181 A0 00            [ 2]  439 	ldy	#0x00
      000183 91*00            [ 6]  440 	sta	[DPTR],y
      000185 ADr05r00         [ 4]  441 	lda	(_wcstol_nptr_10000_78 + 1)
      000188 C8               [ 2]  442 	iny
      000189 91*00            [ 6]  443 	sta	[DPTR],y
                                    444 ;	Raw cost for generated ic 108 : (17, 30.000000) count=0.562497
                                    445 ;	genLabel
      00018B                        446 00115$:
                                    447 ;	Raw cost for generated ic 109 : (0, 0.000000) count=0.749996
                                    448 ;	../wcstol.c: 75: return (0);
                                    449 ;	genRet
      00018B A9 00            [ 2]  450 	lda	#0x00
      00018D AA               [ 2]  451 	tax
      00018E 85*00            [ 3]  452 	sta	*___SDCC_m6502_ret2
      000190 85*00            [ 3]  453 	sta	*___SDCC_m6502_ret3
      000192 60               [ 6]  454 	rts
                                    455 ;	Raw cost for generated ic 110 : (10, 13.000000) count=0.749996
                                    456 ;	genLabel
      000193                        457 00117$:
                                    458 ;	Raw cost for generated ic 111 : (0, 0.000000) count=0.999995
                                    459 ;	../wcstol.c: 78: if (endptr)
                                    460 ;	genIfx
      000193 ADr01r00         [ 4]  461 	lda	(_wcstol_PARM_2 + 1)
      000196 0Dr00r00         [ 4]  462 	ora	_wcstol_PARM_2
                                    463 ;	genIfxJump : z
      000199 F0 17            [ 4]  464 	beq	00119$
                                    465 ;	Raw cost for generated ic 112 : (11, 13.600000) count=0.999995
                                    466 ;	../wcstol.c: 79: *endptr = rptr;
                                    467 ;	genAssign
                                    468 ;	genCopy
      00019B ADr01r00         [ 4]  469 	lda	(_wcstol_PARM_2 + 1)
      00019E 85*01            [ 3]  470 	sta	*(_wcstol_sloc0_1_0 + 1)
      0001A0 ADr00r00         [ 4]  471 	lda	_wcstol_PARM_2
      0001A3 85*00            [ 3]  472 	sta	*_wcstol_sloc0_1_0
                                    473 ;	Raw cost for generated ic 115 : (10, 14.000000) count=0.749996
                                    474 ;	genPointerSet
      0001A5 ADr08r00         [ 4]  475 	lda	_wcstol_rptr_10000_79
      0001A8 A0 00            [ 2]  476 	ldy	#0x00
      0001AA 91*00            [ 6]  477 	sta	[*_wcstol_sloc0_1_0],y
      0001AC ADr09r00         [ 4]  478 	lda	(_wcstol_rptr_10000_79 + 1)
      0001AF C8               [ 2]  479 	iny
      0001B0 91*00            [ 6]  480 	sta	[*_wcstol_sloc0_1_0],y
                                    481 ;	Raw cost for generated ic 116 : (13, 24.000000) count=0.749996
                                    482 ;	genLabel
      0001B2                        483 00119$:
                                    484 ;	Raw cost for generated ic 117 : (0, 0.000000) count=0.999995
                                    485 ;	../wcstol.c: 82: if (!neg && u > LONG_MAX)
                                    486 ;	genIfx
      0001B2 E0 00            [ 2]  487 	cpx	#0x00
                                    488 ;	genIfxJump : z
      0001B4 D0 27            [ 4]  489 	bne	00124$
                                    490 ;	Raw cost for generated ic 118 : (7, 7.600000) count=0.999995
                                    491 ;	genCmp
      0001B6 A9 FF            [ 2]  492 	lda	#0xff
      0001B8 38               [ 2]  493 	sec
      0001B9 E5*02            [ 3]  494 	sbc	*_wcstol_sloc1_1_0
      0001BB A9 FF            [ 2]  495 	lda	#0xff
      0001BD E5*03            [ 3]  496 	sbc	*(_wcstol_sloc1_1_0 + 1)
      0001BF A9 FF            [ 2]  497 	lda	#0xff
      0001C1 E5*04            [ 3]  498 	sbc	*(_wcstol_sloc1_1_0 + 2)
      0001C3 A9 7F            [ 2]  499 	lda	#0x7f
      0001C5 E5*05            [ 3]  500 	sbc	*(_wcstol_sloc1_1_0 + 3)
      0001C7 B0 14            [ 4]  501 	bcs	00124$
                                    502 ;	Raw cost for generated ic 121 : (22, 27.600000) count=0.749996
                                    503 ;	skipping generated iCode
                                    504 ;	Raw cost for generated ic 122 : (0, 0.000000) count=0.749996
                                    505 ;	../wcstol.c: 84: errno = ERANGE;
                                    506 ;	genAssign
                                    507 ;	genAssignLit
      0001C9 A2 22            [ 2]  508 	ldx	#0x22
      0001CB 8Er00r00         [ 4]  509 	stx	_errno
      0001CE A0 00            [ 2]  510 	ldy	#0x00
      0001D0 8Cr01r00         [ 4]  511 	sty	(_errno + 1)
                                    512 ;	Raw cost for generated ic 126 : (10, 12.000000) count=0.562497
                                    513 ;	../wcstol.c: 85: return (LONG_MAX);
                                    514 ;	genRet
      0001D3 A9 FF            [ 2]  515 	lda	#0xff
      0001D5 AA               [ 2]  516 	tax
      0001D6 85*00            [ 3]  517 	sta	*___SDCC_m6502_ret2
      0001D8 A0 7F            [ 2]  518 	ldy	#0x7f
      0001DA 84*00            [ 3]  519 	sty	*___SDCC_m6502_ret3
      0001DC 60               [ 6]  520 	rts
                                    521 ;	Raw cost for generated ic 127 : (12, 15.000000) count=0.562497
                                    522 ;	genLabel
      0001DD                        523 00124$:
                                    524 ;	Raw cost for generated ic 129 : (0, 0.000000) count=0.999995
                                    525 ;	../wcstol.c: 87: else if (neg && u > -LONG_MIN)
                                    526 ;	genIfx
      0001DD E0 00            [ 2]  527 	cpx	#0x00
                                    528 ;	genIfxJump : z
      0001DF F0 26            [ 4]  529 	beq	00125$
                                    530 ;	Raw cost for generated ic 130 : (7, 7.600000) count=0.999995
                                    531 ;	genCmp
      0001E1 A9 00            [ 2]  532 	lda	#0x00
      0001E3 38               [ 2]  533 	sec
      0001E4 E5*02            [ 3]  534 	sbc	*_wcstol_sloc1_1_0
      0001E6 A9 00            [ 2]  535 	lda	#0x00
      0001E8 E5*03            [ 3]  536 	sbc	*(_wcstol_sloc1_1_0 + 1)
      0001EA A9 00            [ 2]  537 	lda	#0x00
      0001EC E5*04            [ 3]  538 	sbc	*(_wcstol_sloc1_1_0 + 2)
      0001EE A9 80            [ 2]  539 	lda	#0x80
      0001F0 E5*05            [ 3]  540 	sbc	*(_wcstol_sloc1_1_0 + 3)
      0001F2 B0 13            [ 4]  541 	bcs	00125$
                                    542 ;	Raw cost for generated ic 133 : (22, 27.600000) count=0.749996
                                    543 ;	skipping generated iCode
                                    544 ;	Raw cost for generated ic 134 : (0, 0.000000) count=0.749996
                                    545 ;	../wcstol.c: 89: errno = ERANGE;
                                    546 ;	genAssign
                                    547 ;	genAssignLit
      0001F4 A2 22            [ 2]  548 	ldx	#0x22
      0001F6 8Er00r00         [ 4]  549 	stx	_errno
      0001F9 A0 00            [ 2]  550 	ldy	#0x00
      0001FB 8Cr01r00         [ 4]  551 	sty	(_errno + 1)
                                    552 ;	Raw cost for generated ic 138 : (10, 12.000000) count=0.562497
                                    553 ;	../wcstol.c: 90: return (LONG_MIN);
                                    554 ;	genRet
      0001FE 98               [ 2]  555 	tya
      0001FF AA               [ 2]  556 	tax
      000200 85*00            [ 3]  557 	sta	*___SDCC_m6502_ret2
      000202 A0 80            [ 2]  558 	ldy	#0x80
      000204 84*00            [ 3]  559 	sty	*___SDCC_m6502_ret3
      000206 60               [ 6]  560 	rts
                                    561 ;	Raw cost for generated ic 139 : (11, 15.000000) count=0.562497
                                    562 ;	genLabel
      000207                        563 00125$:
                                    564 ;	Raw cost for generated ic 141 : (0, 0.000000) count=0.999995
                                    565 ;	../wcstol.c: 93: return (neg ? -u : u);
                                    566 ;	genIfx
      000207 E0 00            [ 2]  567 	cpx	#0x00
                                    568 ;	genIfxJump : z
      000209 F0 1C            [ 4]  569 	beq	00137$
                                    570 ;	Raw cost for generated ic 142 : (7, 7.600000) count=0.999995
                                    571 ;	genUminus
      00020B A9 00            [ 2]  572 	lda	#0x00
      00020D 38               [ 2]  573 	sec
      00020E E5*02            [ 3]  574 	sbc	*_wcstol_sloc1_1_0
      000210 85*06            [ 3]  575 	sta	*_wcstol_sloc2_1_0
      000212 A9 00            [ 2]  576 	lda	#0x00
      000214 E5*03            [ 3]  577 	sbc	*(_wcstol_sloc1_1_0 + 1)
      000216 85*07            [ 3]  578 	sta	*(_wcstol_sloc2_1_0 + 1)
      000218 A9 00            [ 2]  579 	lda	#0x00
      00021A E5*04            [ 3]  580 	sbc	*(_wcstol_sloc1_1_0 + 2)
      00021C 85*08            [ 3]  581 	sta	*(_wcstol_sloc2_1_0 + 2)
      00021E A9 00            [ 2]  582 	lda	#0x00
      000220 E5*05            [ 3]  583 	sbc	*(_wcstol_sloc1_1_0 + 3)
      000222 85*09            [ 3]  584 	sta	*(_wcstol_sloc2_1_0 + 3)
                                    585 ;	Raw cost for generated ic 143 : (25, 34.000000) count=0.749996
                                    586 ;	genGoto
      000224 4Cr37r02         [ 3]  587 	jmp	00138$
                                    588 ;	Raw cost for generated ic 145 : (3, 3.000000) count=0.749996
                                    589 ;	genLabel
      000227                        590 00137$:
                                    591 ;	Raw cost for generated ic 146 : (0, 0.000000) count=0.249999
                                    592 ;	genAssign
                                    593 ;	genCopy
      000227 A5*05            [ 3]  594 	lda	*(_wcstol_sloc1_1_0 + 3)
      000229 85*09            [ 3]  595 	sta	*(_wcstol_sloc2_1_0 + 3)
      00022B A5*04            [ 3]  596 	lda	*(_wcstol_sloc1_1_0 + 2)
      00022D 85*08            [ 3]  597 	sta	*(_wcstol_sloc2_1_0 + 2)
      00022F A5*03            [ 3]  598 	lda	*(_wcstol_sloc1_1_0 + 1)
      000231 85*07            [ 3]  599 	sta	*(_wcstol_sloc2_1_0 + 1)
      000233 A5*02            [ 3]  600 	lda	*_wcstol_sloc1_1_0
      000235 85*06            [ 3]  601 	sta	*_wcstol_sloc2_1_0
                                    602 ;	Raw cost for generated ic 147 : (16, 24.000000) count=0.249999
                                    603 ;	genLabel
      000237                        604 00138$:
                                    605 ;	Raw cost for generated ic 148 : (0, 0.000000) count=0.999995
                                    606 ;	genRet
      000237 A5*09            [ 3]  607 	lda	*(_wcstol_sloc2_1_0 + 3)
      000239 85*00            [ 3]  608 	sta	*___SDCC_m6502_ret3
      00023B A5*08            [ 3]  609 	lda	*(_wcstol_sloc2_1_0 + 2)
      00023D 85*00            [ 3]  610 	sta	*___SDCC_m6502_ret2
      00023F A6*07            [ 3]  611 	ldx	*(_wcstol_sloc2_1_0 + 1)
      000241 A5*06            [ 3]  612 	lda	*_wcstol_sloc2_1_0
                                    613 ;	Raw cost for generated ic 149 : (12, 18.000000) count=0.999995
                                    614 ;	genLabel
                                    615 ;	Raw cost for generated ic 150 : (0, 0.000000) count=0.999995
                                    616 ;	../wcstol.c: 94: }
                                    617 ;	genEndFunction
      000243 60               [ 6]  618 	rts
                                    619 ;	Raw cost for generated ic 151 : (1, 6.000000) count=0.999995
                                    620 	.area CODE
                                    621 	.area RODATA
                                    622 	.area XINIT
                                    623 	.area CABS    (ABS)
