                                      1 ;--------------------------------------------------------
                                      2 ; File Created by SDCC : free open source ISO C Compiler
                                      3 ; Version 4.5.10 #15691 (Linux)
                                      4 ;--------------------------------------------------------
                                      5 	.module __itoa
                                      6 	
      000000                          7 	.r65c02
                                      8 	.optsdcc -mmos65c02
                                      9 
                                     10 ;--------------------------------------------------------
                                     11 ;  Ordering of segments for the linker.
                                     12 ;--------------------------------------------------------
                                     13 	.area ZP      (PAG)
                                     14 	.area OSEG    (PAG, OVR)
                                     15 	.area _CODE
                                     16 	.area GSINIT
                                     17 	.area GSFINAL
                                     18 	.area CODE
                                     19 	.area RODATA
                                     20 	.area XINIT
                                     21 	.area _DATA
                                     22 	.area DATA
                                     23 	.area BSS
                                     24 ;--------------------------------------------------------
                                     25 ; Public variables in this module
                                     26 ;--------------------------------------------------------
                                     27 	.globl ___itoa_PARM_3
                                     28 	.globl ___itoa_PARM_2
                                     29 	.globl ___uitoa_PARM_3
                                     30 	.globl ___uitoa_PARM_2
                                     31 	.globl ___uitoa
                                     32 	.globl ___itoa
                                     33 ;--------------------------------------------------------
                                     34 ; ZP ram data
                                     35 ;--------------------------------------------------------
                                     36 	.area ZP      (PAG)
      000000                         37 ___uitoa_sloc0_1_0:
      000000                         38 	.ds 1
      000001                         39 ___uitoa_sloc1_1_0:
      000001                         40 	.ds 2
      000003                         41 ___uitoa_sloc2_1_0:
      000003                         42 	.ds 2
      000005                         43 ___uitoa_sloc3_1_0:
      000005                         44 	.ds 2
      000007                         45 ___uitoa_sloc4_1_0:
      000007                         46 	.ds 2
                                     47 ;--------------------------------------------------------
                                     48 ; overlayable items in ram
                                     49 ;--------------------------------------------------------
                                     50 ;--------------------------------------------------------
                                     51 ; uninitialized external ram data
                                     52 ;--------------------------------------------------------
                                     53 	.area BSS
      000000                         54 ___uitoa_PARM_2:
      000000                         55 	.ds 2
      000002                         56 ___uitoa_PARM_3:
      000002                         57 	.ds 1
      000003                         58 ___uitoa_value_10000_42:
      000003                         59 	.ds 2
      000005                         60 ___uitoa_tmp_20000_46:
      000005                         61 	.ds 1
      000006                         62 ___itoa_PARM_2:
      000006                         63 	.ds 2
      000008                         64 ___itoa_PARM_3:
      000008                         65 	.ds 1
      000009                         66 ___itoa_value_10000_47:
      000009                         67 	.ds 2
                                     68 ;--------------------------------------------------------
                                     69 ; absolute external ram data
                                     70 ;--------------------------------------------------------
                                     71 	.area DABS    (ABS)
                                     72 ;--------------------------------------------------------
                                     73 ; initialized external ram data
                                     74 ;--------------------------------------------------------
                                     75 	.area DATA
                                     76 ;--------------------------------------------------------
                                     77 ; global & static initialisations
                                     78 ;--------------------------------------------------------
                                     79 	.area _CODE
                                     80 	.area GSINIT
                                     81 	.area GSFINAL
                                     82 	.area GSINIT
                                     83 ;--------------------------------------------------------
                                     84 ; Home
                                     85 ;--------------------------------------------------------
                                     86 	.area _CODE
                                     87 	.area _CODE
                                     88 ;--------------------------------------------------------
                                     89 ; code
                                     90 ;--------------------------------------------------------
                                     91 	.area CODE
                                     92 ;------------------------------------------------------------
                                     93 ;Allocation info for local variables in function '__uitoa'
                                     94 ;------------------------------------------------------------
                                     95 ;sloc0         Allocated with name '___uitoa_sloc0_1_0'
                                     96 ;sloc1         Allocated with name '___uitoa_sloc1_1_0'
                                     97 ;sloc2         Allocated with name '___uitoa_sloc2_1_0'
                                     98 ;sloc3         Allocated with name '___uitoa_sloc3_1_0'
                                     99 ;sloc4         Allocated with name '___uitoa_sloc4_1_0'
                                    100 ;string        Allocated with name '___uitoa_PARM_2'
                                    101 ;radix         Allocated with name '___uitoa_PARM_3'
                                    102 ;value         Allocated with name '___uitoa_value_10000_42'
                                    103 ;index         Allocated to registers 
                                    104 ;i             Allocated to registers 
                                    105 ;tmp           Allocated with name '___uitoa_tmp_20000_46'
                                    106 ;------------------------------------------------------------
                                    107 ;	../__itoa.c: 42: void __uitoa(unsigned int value, char* string, unsigned char radix)
                                    108 ;	genLabel
                                    109 ;	Raw cost for generated ic 0 : (0, 0.000000) count=1.000000
                                    110 ;	-----------------------------------------
                                    111 ;	 function __uitoa
                                    112 ;	-----------------------------------------
                                    113 ;	Register assignment is optimal.
                                    114 ;	Stack space usage: 0 bytes.
      000000                        115 ___uitoa:
                                    116 ;	Raw cost for generated ic 1 : (0, 0.000000) count=1.000000
                                    117 ;	genReceive
      000000 8Dr03r00         [ 4]  118 	sta	___uitoa_value_10000_42
      000003 8Er04r00         [ 4]  119 	stx	(___uitoa_value_10000_42 + 1)
                                    120 ;	Raw cost for generated ic 2 : (6, 8.000000) count=1.000000
                                    121 ;	../__itoa.c: 47: do {
                                    122 ;	genAssign
                                    123 ;	genAssignLit
      000006 64*00            [ 3]  124 	stz	*___uitoa_sloc0_1_0
                                    125 ;	Raw cost for generated ic 73 : (3, 4.000000) count=1.000000
                                    126 ;	genLabel
      000008                        127 00103$:
                                    128 ;	Raw cost for generated ic 5 : (0, 0.000000) count=3.999997
                                    129 ;	../__itoa.c: 48: string[index] = '0' + (value % radix);
                                    130 ;	genCast
                                    131 ;	genCopy
      000008 A2 00            [ 2]  132 	ldx	#0x00
      00000A A5*00            [ 3]  133 	lda	*___uitoa_sloc0_1_0
      00000C 10 01            [ 4]  134 	bpl	00143$
      00000E CA               [ 2]  135 	dex
      00000F                        136 00143$:
                                    137 ;	Raw cost for generated ic 6 : (7, 9.600000) count=3.999997
                                    138 ;	genPlus
      00000F 18               [ 2]  139 	clc
      000010 6Dr00r00         [ 5]  140 	adc	___uitoa_PARM_2
      000013 85*01            [ 3]  141 	sta	*___uitoa_sloc1_1_0
      000015 8A               [ 2]  142 	txa
      000016 6Dr01r00         [ 5]  143 	adc	(___uitoa_PARM_2 + 1)
      000019 85*02            [ 3]  144 	sta	*(___uitoa_sloc1_1_0 + 1)
                                    145 ;	Raw cost for generated ic 7 : (12, 18.000000) count=3.999997
                                    146 ;	genCast
                                    147 ;	genCopy
      00001B 64*04            [ 3]  148 	stz	*(___uitoa_sloc2_1_0 + 1)
      00001D ADr02r00         [ 4]  149 	lda	___uitoa_PARM_3
      000020 85*03            [ 3]  150 	sta	*___uitoa_sloc2_1_0
                                    151 ;	Raw cost for generated ic 8 : (8, 11.000000) count=3.999997
                                    152 ;	genAssign
                                    153 ;	genCopy
      000022 A5*04            [ 3]  154 	lda	*(___uitoa_sloc2_1_0 + 1)
      000024 8Dr01r00         [ 4]  155 	sta	(__moduint_PARM_2 + 1)
      000027 A5*03            [ 3]  156 	lda	*___uitoa_sloc2_1_0
      000029 8Dr00r00         [ 4]  157 	sta	__moduint_PARM_2
                                    158 ;	Raw cost for generated ic 88 : (10, 14.000000) count=3.999997
                                    159 ;	Raw cost for generated ic 87 : (0, 0.000000) count=3.999997
                                    160 ;	genCall
                                    161 ;	genSend
      00002C AEr04r00         [ 4]  162 	ldx	(___uitoa_value_10000_42 + 1)
      00002F ADr03r00         [ 4]  163 	lda	___uitoa_value_10000_42
      000032 20r00r00         [ 6]  164 	jsr	__moduint
                                    165 ;	assignResultValue
                                    166 ;	Raw cost for generated ic 89 : (9, 14.000000) count=3.999997
                                    167 ;	genCast
                                    168 ;	genCopy
                                    169 ;	Raw cost for generated ic 10 : (0, 0.000000) count=3.999997
                                    170 ;	genCast
                                    171 ;	genCopy
                                    172 ;	Raw cost for generated ic 11 : (0, 0.000000) count=3.999997
                                    173 ;	genPlus
                                    174 ;	  genPlusInc
      000035 18               [ 2]  175 	clc
      000036 69 30            [ 3]  176 	adc	#0x30
                                    177 ;	Raw cost for generated ic 12 : (3, 4.000000) count=3.999997
                                    178 ;	genPointerSet
      000038 A0 00            [ 2]  179 	ldy	#0x00
                                    180 ;	Raw cost for generated ic 13 : (4, 8.000000) count=3.999997
                                    181 ;	../__itoa.c: 49: if (string[index] > '9')
                                    182 ;	genPointerGet
      00003A 91*01            [ 6]  183 	sta	[*___uitoa_sloc1_1_0],y
      00003C 09 00            [ 2]  184 	ora	#0x00
                                    185 ;	Raw cost for generated ic 16 : (2, 5.000000) count=3.999997
                                    186 ;	genCmp
      00003E C9 39            [ 2]  187 	cmp	#0x39
      000040 F0 09            [ 4]  188 	beq	00102$
      000042 90 07            [ 4]  189 	bcc	00102$
                                    190 ;	Raw cost for generated ic 17 : (9, 10.200000) count=3.999997
                                    191 ;	skipping generated iCode
                                    192 ;	Raw cost for generated ic 18 : (0, 0.000000) count=3.999997
                                    193 ;	../__itoa.c: 50: string[index] += 'A' - '9' - 1;
                                    194 ;	genPointerGet
      000044 B1*01            [ 6]  195 	lda	[*___uitoa_sloc1_1_0],y
                                    196 ;	Raw cost for generated ic 25 : (2, 5.000000) count=2.999997
                                    197 ;	genCast
                                    198 ;	genCopy
                                    199 ;	Raw cost for generated ic 26 : (0, 0.000000) count=2.999997
                                    200 ;	genPlus
                                    201 ;	  genPlusInc
      000046 18               [ 2]  202 	clc
      000047 69 07            [ 3]  203 	adc	#0x07
                                    204 ;	Raw cost for generated ic 27 : (3, 4.000000) count=2.999997
                                    205 ;	genPointerSet
      000049 91*01            [ 6]  206 	sta	[*___uitoa_sloc1_1_0],y
                                    207 ;	Raw cost for generated ic 28 : (2, 6.000000) count=2.999997
                                    208 ;	genLabel
      00004B                        209 00102$:
                                    210 ;	Raw cost for generated ic 29 : (0, 0.000000) count=3.999996
                                    211 ;	../__itoa.c: 51: value /= radix;
                                    212 ;	genAssign
                                    213 ;	genCopy
      00004B A5*04            [ 3]  214 	lda	*(___uitoa_sloc2_1_0 + 1)
      00004D 8Dr01r00         [ 4]  215 	sta	(__divuint_PARM_2 + 1)
      000050 A5*03            [ 3]  216 	lda	*___uitoa_sloc2_1_0
      000052 8Dr00r00         [ 4]  217 	sta	__divuint_PARM_2
                                    218 ;	Raw cost for generated ic 91 : (10, 14.000000) count=3.999996
                                    219 ;	../__itoa.c: 52: ++index;
                                    220 ;	Raw cost for generated ic 90 : (0, 0.000000) count=3.999996
                                    221 ;	genCall
                                    222 ;	genSend
      000055 AEr04r00         [ 4]  223 	ldx	(___uitoa_value_10000_42 + 1)
      000058 ADr03r00         [ 4]  224 	lda	___uitoa_value_10000_42
      00005B 20r00r00         [ 6]  225 	jsr	__divuint
                                    226 ;	assignResultValue
      00005E 8Dr03r00         [ 4]  227 	sta	___uitoa_value_10000_42
      000061 8Er04r00         [ 4]  228 	stx	(___uitoa_value_10000_42 + 1)
                                    229 ;	Raw cost for generated ic 92 : (15, 22.000000) count=3.999996
                                    230 ;	genPlus
                                    231 ;	  genPlusInc
      000064 E6*00            [ 5]  232 	inc	*___uitoa_sloc0_1_0
                                    233 ;	Raw cost for generated ic 33 : (2, 5.000000) count=3.999996
                                    234 ;	../__itoa.c: 53: } while (value != 0);
                                    235 ;	genIfx
      000066 8A               [ 2]  236 	txa
      000067 0Dr03r00         [ 4]  237 	ora	___uitoa_value_10000_42
                                    238 ;	genIfxJump : z
      00006A D0 9C            [ 4]  239 	bne	00103$
                                    240 ;	Raw cost for generated ic 36 : (9, 11.600000) count=3.999996
                                    241 ;	../__itoa.c: 56: string[index--] = '\0';
                                    242 ;	genMinus
                                    243 ;	  genMinusDec - size=1  icount=1
      00006C A5*00            [ 3]  244 	lda	*___uitoa_sloc0_1_0
      00006E 38               [ 2]  245 	sec
      00006F E9 01            [ 3]  246 	sbc	#0x01
      000071 85*03            [ 3]  247 	sta	*___uitoa_sloc2_1_0
                                    248 ;	Raw cost for generated ic 40 : (7, 10.000000) count=0.999998
                                    249 ;	genCast
                                    250 ;	genCopy
      000073 A2 00            [ 2]  251 	ldx	#0x00
      000075 A5*00            [ 3]  252 	lda	*___uitoa_sloc0_1_0
      000077 10 01            [ 4]  253 	bpl	00148$
      000079 CA               [ 2]  254 	dex
      00007A                        255 00148$:
                                    256 ;	Raw cost for generated ic 42 : (7, 9.600000) count=0.999998
                                    257 ;	genPlus
      00007A 18               [ 2]  258 	clc
      00007B 6Dr00r00         [ 5]  259 	adc	___uitoa_PARM_2
      00007E 85*01            [ 3]  260 	sta	*___uitoa_sloc1_1_0
      000080 8A               [ 2]  261 	txa
      000081 6Dr01r00         [ 5]  262 	adc	(___uitoa_PARM_2 + 1)
      000084 85*02            [ 3]  263 	sta	*(___uitoa_sloc1_1_0 + 1)
                                    264 ;	Raw cost for generated ic 43 : (12, 18.000000) count=0.999998
                                    265 ;	genPointerSet
      000086 A9 00            [ 2]  266 	lda	#0x00
      000088 A8               [ 2]  267 	tay
      000089 91*01            [ 6]  268 	sta	[*___uitoa_sloc1_1_0],y
                                    269 ;	Raw cost for generated ic 44 : (5, 10.000000) count=0.999998
                                    270 ;	../__itoa.c: 59: while (index > i) {
                                    271 ;	genAssign
                                    272 ;	genAssignLit
      00008B 85*01            [ 3]  273 	sta	*___uitoa_sloc1_1_0
                                    274 ;	Raw cost for generated ic 76 : (2, 3.000000) count=0.999998
                                    275 ;	genLabel
      00008D                        276 00106$:
                                    277 ;	Raw cost for generated ic 45 : (0, 0.000000) count=3.999987
                                    278 ;	genCmp
      00008D A5*01            [ 3]  279 	lda	*___uitoa_sloc1_1_0
      00008F 38               [ 2]  280 	sec
      000090 E5*03            [ 4]  281 	sbc	*___uitoa_sloc2_1_0
      000092 50 04            [ 4]  282 	bvc	00150$
      000094 10 05            [ 4]  283 	bpl	00149$
      000096 30 40            [ 4]  284 	bmi	00109$
      000098                        285 00150$:
      000098 30 01            [ 4]  286 	bmi	00149$
      00009A 60               [ 6]  287 	rts
      00009B                        288 00149$:
                                    289 ;	Raw cost for generated ic 46 : (16, 21.400002) count=3.999987
                                    290 ;	skipping generated iCode
                                    291 ;	Raw cost for generated ic 47 : (0, 0.000000) count=3.999987
                                    292 ;	../__itoa.c: 60: char tmp = string[i];
                                    293 ;	genCast
                                    294 ;	genCopy
      00009B A2 00            [ 2]  295 	ldx	#0x00
      00009D A5*01            [ 3]  296 	lda	*___uitoa_sloc1_1_0
      00009F 10 01            [ 4]  297 	bpl	00152$
      0000A1 CA               [ 2]  298 	dex
      0000A2                        299 00152$:
                                    300 ;	Raw cost for generated ic 50 : (7, 9.600000) count=2.999989
                                    301 ;	genPlus
      0000A2 18               [ 2]  302 	clc
      0000A3 6Dr00r00         [ 5]  303 	adc	___uitoa_PARM_2
      0000A6 85*05            [ 3]  304 	sta	*___uitoa_sloc3_1_0
      0000A8 8A               [ 2]  305 	txa
      0000A9 6Dr01r00         [ 5]  306 	adc	(___uitoa_PARM_2 + 1)
      0000AC 85*06            [ 3]  307 	sta	*(___uitoa_sloc3_1_0 + 1)
                                    308 ;	Raw cost for generated ic 51 : (12, 18.000000) count=2.999989
                                    309 ;	genPointerGet
      0000AE A0 00            [ 2]  310 	ldy	#0x00
      0000B0 B1*05            [ 6]  311 	lda	[*___uitoa_sloc3_1_0],y
      0000B2 8Dr05r00         [ 4]  312 	sta	___uitoa_tmp_20000_46
                                    313 ;	Raw cost for generated ic 52 : (7, 11.000000) count=2.999989
                                    314 ;	../__itoa.c: 61: string[i] = string[index];
                                    315 ;	genCast
                                    316 ;	genCopy
      0000B5 A2 00            [ 2]  317 	ldx	#0x00
      0000B7 A5*03            [ 3]  318 	lda	*___uitoa_sloc2_1_0
      0000B9 10 01            [ 4]  319 	bpl	00153$
      0000BB CA               [ 2]  320 	dex
      0000BC                        321 00153$:
                                    322 ;	Raw cost for generated ic 56 : (7, 9.600000) count=2.999989
                                    323 ;	genPlus
      0000BC 18               [ 2]  324 	clc
      0000BD 6Dr00r00         [ 5]  325 	adc	___uitoa_PARM_2
      0000C0 85*07            [ 3]  326 	sta	*___uitoa_sloc4_1_0
      0000C2 8A               [ 2]  327 	txa
      0000C3 6Dr01r00         [ 5]  328 	adc	(___uitoa_PARM_2 + 1)
      0000C6 85*08            [ 3]  329 	sta	*(___uitoa_sloc4_1_0 + 1)
                                    330 ;	Raw cost for generated ic 57 : (12, 18.000000) count=2.999989
                                    331 ;	genPointerGet
      0000C8 B1*07            [ 6]  332 	lda	[*___uitoa_sloc4_1_0],y
                                    333 ;	Raw cost for generated ic 58 : (2, 5.000000) count=2.999989
                                    334 ;	genPointerSet
      0000CA 91*05            [ 6]  335 	sta	[*___uitoa_sloc3_1_0],y
                                    336 ;	Raw cost for generated ic 59 : (2, 6.000000) count=2.999989
                                    337 ;	../__itoa.c: 62: string[index] = tmp;
                                    338 ;	genPointerSet
      0000CC ADr05r00         [ 4]  339 	lda	___uitoa_tmp_20000_46
      0000CF 91*07            [ 6]  340 	sta	[*___uitoa_sloc4_1_0],y
                                    341 ;	Raw cost for generated ic 62 : (5, 10.000000) count=2.999989
                                    342 ;	../__itoa.c: 63: ++i;
                                    343 ;	genPlus
                                    344 ;	  genPlusInc
      0000D1 E6*01            [ 5]  345 	inc	*___uitoa_sloc1_1_0
                                    346 ;	Raw cost for generated ic 63 : (2, 5.000000) count=2.999989
                                    347 ;	../__itoa.c: 64: --index;
                                    348 ;	genMinus
                                    349 ;	  genMinusDec - size=1  icount=1
      0000D3 C6*03            [ 5]  350 	dec	*___uitoa_sloc2_1_0
                                    351 ;	Raw cost for generated ic 65 : (2, 5.000000) count=2.999989
                                    352 ;	genGoto
      0000D5 4Cr8Dr00         [ 3]  353 	jmp	00106$
                                    354 ;	Raw cost for generated ic 67 : (3, 3.000000) count=2.999989
                                    355 ;	genLabel
      0000D8                        356 00109$:
                                    357 ;	Raw cost for generated ic 69 : (0, 0.000000) count=0.999997
                                    358 ;	../__itoa.c: 66: }
                                    359 ;	genEndFunction
      0000D8 60               [ 6]  360 	rts
                                    361 ;	Raw cost for generated ic 70 : (1, 6.000000) count=0.999997
                                    362 ;------------------------------------------------------------
                                    363 ;Allocation info for local variables in function '__itoa'
                                    364 ;------------------------------------------------------------
                                    365 ;string        Allocated with name '___itoa_PARM_2'
                                    366 ;radix         Allocated with name '___itoa_PARM_3'
                                    367 ;value         Allocated with name '___itoa_value_10000_47'
                                    368 ;------------------------------------------------------------
                                    369 ;	../__itoa.c: 68: void __itoa(int value, char* string, unsigned char radix)
                                    370 ;	genLabel
                                    371 ;	Raw cost for generated ic 0 : (0, 0.000000) count=1.000000
                                    372 ;	-----------------------------------------
                                    373 ;	 function __itoa
                                    374 ;	-----------------------------------------
                                    375 ;	Register assignment is optimal.
                                    376 ;	Stack space usage: 0 bytes.
      0000D9                        377 ___itoa:
                                    378 ;	Raw cost for generated ic 1 : (0, 0.000000) count=1.000000
                                    379 ;	genReceive
      0000D9 8Dr09r00         [ 4]  380 	sta	___itoa_value_10000_47
      0000DC 8Er0Ar00         [ 4]  381 	stx	(___itoa_value_10000_47 + 1)
                                    382 ;	Raw cost for generated ic 2 : (6, 8.000000) count=1.000000
                                    383 ;	../__itoa.c: 70: if (value < 0 && radix == 10) {
                                    384 ;	genCmp
      0000DF 2Cr0Ar00         [ 4]  385 	bit	(___itoa_value_10000_47 + 1)
      0000E2 10 34            [ 4]  386 	bpl	00102$
                                    387 ;	Raw cost for generated ic 3 : (8, 9.600000) count=1.000000
                                    388 ;	skipping generated iCode
                                    389 ;	Raw cost for generated ic 4 : (0, 0.000000) count=1.000000
                                    390 ;	genCmpEQorNE
      0000E4 ADr08r00         [ 4]  391 	lda	___itoa_PARM_3
      0000E7 C9 0A            [ 2]  392 	cmp	#0x0a
      0000E9 D0 2D            [ 4]  393 	bne	00102$
                                    394 ;	Raw cost for generated ic 7 : (10, 11.600000) count=0.750000
                                    395 ;	skipping generated iCode
                                    396 ;	Raw cost for generated ic 8 : (0, 0.000000) count=0.750000
                                    397 ;	../__itoa.c: 71: *string++ = '-';
                                    398 ;	genAssign
                                    399 ;	genCopy
      0000EB AEr07r00         [ 4]  400 	ldx	(___itoa_PARM_2 + 1)
      0000EE ADr06r00         [ 4]  401 	lda	___itoa_PARM_2
                                    402 ;	Raw cost for generated ic 11 : (6, 8.000000) count=0.562500
                                    403 ;	genPointerSet
                                    404 ;	  setupDPTR - off=0 remat=(null) savea=0
      0000F1 85*00            [ 3]  405 	sta	*(DPTR+0)
      0000F3 86*01            [ 3]  406 	stx	*(DPTR+1)
      0000F5 A9 2D            [ 2]  407 	lda	#0x2d
      0000F7 A0 00            [ 2]  408 	ldy	#0x00
      0000F9 91*00            [ 6]  409 	sta	[DPTR],y
      0000FB A5*00            [ 3]  410 	lda	*(DPTR+0)
                                    411 ;	Raw cost for generated ic 14 : (12, 19.000000) count=0.562500
                                    412 ;	genPlus
                                    413 ;	  genPlusInc
      0000FD 18               [ 2]  414 	clc
      0000FE 69 01            [ 3]  415 	adc	#0x01
      000100 8Dr06r00         [ 4]  416 	sta	___itoa_PARM_2
      000103 8A               [ 2]  417 	txa
      000104 69 00            [ 3]  418 	adc	#0x00
      000106 8Dr07r00         [ 4]  419 	sta	(___itoa_PARM_2 + 1)
                                    420 ;	Raw cost for generated ic 12 : (12, 16.000000) count=0.562500
                                    421 ;	../__itoa.c: 72: value = -value;
                                    422 ;	genUminus
      000109 98               [ 2]  423 	tya
      00010A 38               [ 2]  424 	sec
      00010B EDr09r00         [ 5]  425 	sbc	___itoa_value_10000_47
      00010E 8Dr09r00         [ 4]  426 	sta	___itoa_value_10000_47
      000111 98               [ 2]  427 	tya
      000112 EDr0Ar00         [ 5]  428 	sbc	(___itoa_value_10000_47 + 1)
      000115 8Dr0Ar00         [ 4]  429 	sta	(___itoa_value_10000_47 + 1)
                                    430 ;	Raw cost for generated ic 15 : (15, 22.000000) count=0.562500
                                    431 ;	genLabel
      000118                        432 00102$:
                                    433 ;	Raw cost for generated ic 17 : (0, 0.000000) count=1.000000
                                    434 ;	../__itoa.c: 74: __uitoa(value, string, radix);
                                    435 ;	genAssign
                                    436 ;	genCopy
      000118 ADr07r00         [ 4]  437 	lda	(___itoa_PARM_2 + 1)
      00011B 8Dr01r00         [ 4]  438 	sta	(___uitoa_PARM_2 + 1)
      00011E ADr06r00         [ 4]  439 	lda	___itoa_PARM_2
      000121 8Dr00r00         [ 4]  440 	sta	___uitoa_PARM_2
                                    441 ;	Raw cost for generated ic 19 : (12, 16.000000) count=1.000000
                                    442 ;	genAssign
                                    443 ;	genCopy
      000124 ADr08r00         [ 4]  444 	lda	___itoa_PARM_3
      000127 8Dr02r00         [ 4]  445 	sta	___uitoa_PARM_3
                                    446 ;	Raw cost for generated ic 20 : (6, 8.000000) count=1.000000
                                    447 ;	Raw cost for generated ic 18 : (0, 0.000000) count=1.000000
                                    448 ;	genCall
                                    449 ;	genSend
      00012A AEr0Ar00         [ 4]  450 	ldx	(___itoa_value_10000_47 + 1)
      00012D ADr09r00         [ 4]  451 	lda	___itoa_value_10000_47
                                    452 ;	Raw cost for generated ic 21 : (9, 14.000000) count=1.000000
                                    453 ;	genLabel
                                    454 ;	Raw cost for generated ic 22 : (0, 0.000000) count=1.000000
                                    455 ;	../__itoa.c: 75: }
                                    456 ;	genEndFunction
      000130 4Cr00r00         [ 3]  457 	jmp	___uitoa
                                    458 ;	Raw cost for generated ic 23 : (1, 6.000000) count=1.000000
                                    459 	.area CODE
                                    460 	.area RODATA
                                    461 	.area XINIT
                                    462 	.area CABS    (ABS)
