                                      1 ;--------------------------------------------------------
                                      2 ; File Created by SDCC : free open source ISO C Compiler
                                      3 ; Version 4.5.10 #15691 (Linux)
                                      4 ;--------------------------------------------------------
                                      5 	.module __ltoa
                                      6 	
      000000                          7 	.r65c02
                                      8 	.optsdcc -mmos65c02
                                      9 
                                     10 ;--------------------------------------------------------
                                     11 ;  Ordering of segments for the linker.
                                     12 ;--------------------------------------------------------
                                     13 	.area ZP      (PAG)
                                     14 	.area OSEG    (PAG, OVR)
                                     15 	.area _CODE
                                     16 	.area GSINIT
                                     17 	.area GSFINAL
                                     18 	.area CODE
                                     19 	.area RODATA
                                     20 	.area XINIT
                                     21 	.area _DATA
                                     22 	.area DATA
                                     23 	.area BSS
                                     24 ;--------------------------------------------------------
                                     25 ; Public variables in this module
                                     26 ;--------------------------------------------------------
                                     27 	.globl ___ltoa_PARM_3
                                     28 	.globl ___ltoa_PARM_2
                                     29 	.globl ___ltoa_PARM_1
                                     30 	.globl ___ultoa_PARM_3
                                     31 	.globl ___ultoa_PARM_2
                                     32 	.globl ___ultoa_PARM_1
                                     33 	.globl ___ultoa
                                     34 	.globl ___ltoa
                                     35 ;--------------------------------------------------------
                                     36 ; ZP ram data
                                     37 ;--------------------------------------------------------
                                     38 	.area ZP      (PAG)
      000000                         39 ___ultoa_sloc0_1_0:
      000000                         40 	.ds 1
      000001                         41 ___ultoa_sloc1_1_0:
      000001                         42 	.ds 4
      000005                         43 ___ultoa_sloc2_1_0:
      000005                         44 	.ds 4
                                     45 ;--------------------------------------------------------
                                     46 ; overlayable items in ram
                                     47 ;--------------------------------------------------------
                                     48 ;--------------------------------------------------------
                                     49 ; uninitialized external ram data
                                     50 ;--------------------------------------------------------
                                     51 	.area BSS
      000000                         52 ___ultoa_PARM_1:
      000000                         53 	.ds 4
      000004                         54 ___ultoa_PARM_2:
      000004                         55 	.ds 2
      000006                         56 ___ultoa_PARM_3:
      000006                         57 	.ds 1
      000007                         58 ___ultoa_buffer_10000_43:
      000007                         59 	.ds 32
      000027                         60 ___ltoa_PARM_1:
      000027                         61 	.ds 4
      00002B                         62 ___ltoa_PARM_2:
      00002B                         63 	.ds 2
      00002D                         64 ___ltoa_PARM_3:
      00002D                         65 	.ds 1
                                     66 ;--------------------------------------------------------
                                     67 ; absolute external ram data
                                     68 ;--------------------------------------------------------
                                     69 	.area DABS    (ABS)
                                     70 ;--------------------------------------------------------
                                     71 ; initialized external ram data
                                     72 ;--------------------------------------------------------
                                     73 	.area DATA
                                     74 ;--------------------------------------------------------
                                     75 ; global & static initialisations
                                     76 ;--------------------------------------------------------
                                     77 	.area _CODE
                                     78 	.area GSINIT
                                     79 	.area GSFINAL
                                     80 	.area GSINIT
                                     81 ;--------------------------------------------------------
                                     82 ; Home
                                     83 ;--------------------------------------------------------
                                     84 	.area _CODE
                                     85 	.area _CODE
                                     86 ;--------------------------------------------------------
                                     87 ; code
                                     88 ;--------------------------------------------------------
                                     89 	.area CODE
                                     90 ;------------------------------------------------------------
                                     91 ;Allocation info for local variables in function '__ultoa'
                                     92 ;------------------------------------------------------------
                                     93 ;sloc0         Allocated with name '___ultoa_sloc0_1_0'
                                     94 ;sloc1         Allocated with name '___ultoa_sloc1_1_0'
                                     95 ;sloc2         Allocated with name '___ultoa_sloc2_1_0'
                                     96 ;value         Allocated with name '___ultoa_PARM_1'
                                     97 ;string        Allocated with name '___ultoa_PARM_2'
                                     98 ;radix         Allocated with name '___ultoa_PARM_3'
                                     99 ;buffer        Allocated with name '___ultoa_buffer_10000_43'
                                    100 ;index         Allocated to registers 
                                    101 ;c             Allocated to registers y 
                                    102 ;------------------------------------------------------------
                                    103 ;	../__ltoa.c: 58: void __ultoa(unsigned long value, char* string, unsigned char radix)
                                    104 ;	genLabel
                                    105 ;	Raw cost for generated ic 0 : (0, 0.000000) count=1.000000
                                    106 ;	-----------------------------------------
                                    107 ;	 function __ultoa
                                    108 ;	-----------------------------------------
                                    109 ;	Register assignment is optimal.
                                    110 ;	Stack space usage: 0 bytes.
      000000                        111 ___ultoa:
                                    112 ;	Raw cost for generated ic 1 : (0, 0.000000) count=1.000000
                                    113 ;	../__ltoa.c: 63: do {
                                    114 ;	skipping iCode since result will be rematerialized
                                    115 ;	Raw cost for generated ic 18 : (0, 0.000000) count=1.000000
                                    116 ;	genAssign
                                    117 ;	genAssignLit
      000000 A2 20            [ 2]  118 	ldx	#0x20
      000002 86*00            [ 3]  119 	stx	*___ultoa_sloc0_1_0
                                    120 ;	Raw cost for generated ic 51 : (4, 5.000000) count=1.000000
                                    121 ;	genLabel
      000004                        122 00103$:
                                    123 ;	Raw cost for generated ic 3 : (0, 0.000000) count=3.999997
                                    124 ;	../__ltoa.c: 64: unsigned char c = '0' + (value % radix);
                                    125 ;	genCast
                                    126 ;	genCopy
      000004 64*04            [ 3]  127 	stz	*(___ultoa_sloc1_1_0 + 3)
      000006 64*03            [ 3]  128 	stz	*(___ultoa_sloc1_1_0 + 2)
      000008 64*02            [ 3]  129 	stz	*(___ultoa_sloc1_1_0 + 1)
      00000A ADr06r00         [ 4]  130 	lda	___ultoa_PARM_3
      00000D 85*01            [ 3]  131 	sta	*___ultoa_sloc1_1_0
                                    132 ;	Raw cost for generated ic 4 : (14, 19.000000) count=3.999997
                                    133 ;	genAssign
                                    134 ;	genCopy
      00000F ADr03r00         [ 4]  135 	lda	(___ultoa_PARM_1 + 3)
      000012 8Dr03r00         [ 4]  136 	sta	(__modulong_PARM_1 + 3)
      000015 ADr02r00         [ 4]  137 	lda	(___ultoa_PARM_1 + 2)
      000018 8Dr02r00         [ 4]  138 	sta	(__modulong_PARM_1 + 2)
      00001B ADr01r00         [ 4]  139 	lda	(___ultoa_PARM_1 + 1)
      00001E 8Dr01r00         [ 4]  140 	sta	(__modulong_PARM_1 + 1)
      000021 ADr00r00         [ 4]  141 	lda	___ultoa_PARM_1
      000024 8Dr00r00         [ 4]  142 	sta	__modulong_PARM_1
                                    143 ;	Raw cost for generated ic 65 : (24, 32.000000) count=3.999997
                                    144 ;	genAssign
                                    145 ;	genCopy
      000027 A5*04            [ 3]  146 	lda	*(___ultoa_sloc1_1_0 + 3)
      000029 8Dr03r00         [ 4]  147 	sta	(__modulong_PARM_2 + 3)
      00002C A5*03            [ 3]  148 	lda	*(___ultoa_sloc1_1_0 + 2)
      00002E 8Dr02r00         [ 4]  149 	sta	(__modulong_PARM_2 + 2)
      000031 A5*02            [ 3]  150 	lda	*(___ultoa_sloc1_1_0 + 1)
      000033 8Dr01r00         [ 4]  151 	sta	(__modulong_PARM_2 + 1)
      000036 A5*01            [ 3]  152 	lda	*___ultoa_sloc1_1_0
      000038 8Dr00r00         [ 4]  153 	sta	__modulong_PARM_2
                                    154 ;	Raw cost for generated ic 66 : (20, 28.000000) count=3.999997
                                    155 ;	genCall
      00003B 20r00r00         [ 6]  156 	jsr	__modulong
                                    157 ;	assignResultValue
      00003E 85*05            [ 3]  158 	sta	*___ultoa_sloc2_1_0
      000040 86*06            [ 3]  159 	stx	*(___ultoa_sloc2_1_0 + 1)
      000042 A5*00            [ 3]  160 	lda	*___SDCC_m6502_ret2
      000044 85*07            [ 3]  161 	sta	*(___ultoa_sloc2_1_0 + 2)
      000046 A5*00            [ 3]  162 	lda	*___SDCC_m6502_ret3
      000048 85*08            [ 3]  163 	sta	*(___ultoa_sloc2_1_0 + 3)
                                    164 ;	Raw cost for generated ic 67 : (15, 24.000000) count=3.999997
                                    165 ;	genCast
                                    166 ;	genCopy
      00004A A5*05            [ 3]  167 	lda	*___ultoa_sloc2_1_0
                                    168 ;	Raw cost for generated ic 6 : (2, 3.000000) count=3.999997
                                    169 ;	genCast
                                    170 ;	genCopy
                                    171 ;	Raw cost for generated ic 7 : (0, 0.000000) count=3.999997
                                    172 ;	genPlus
                                    173 ;	  genPlusInc
      00004C 18               [ 2]  174 	clc
      00004D 69 30            [ 3]  175 	adc	#0x30
      00004F A8               [ 2]  176 	tay
                                    177 ;	Raw cost for generated ic 8 : (4, 6.000000) count=3.999997
                                    178 ;	../__ltoa.c: 65: if (c > (unsigned char)'9')
                                    179 ;	genCmp
      000050 C0 39            [ 2]  180 	cpy	#0x39
      000052 F0 07            [ 4]  181 	beq	00102$
      000054 90 05            [ 4]  182 	bcc	00102$
                                    183 ;	Raw cost for generated ic 10 : (9, 10.200000) count=3.999997
                                    184 ;	skipping generated iCode
                                    185 ;	Raw cost for generated ic 11 : (0, 0.000000) count=3.999997
                                    186 ;	../__ltoa.c: 66: c += 'A' - '9' - 1;
                                    187 ;	genCast
                                    188 ;	genCopy
      000056 98               [ 2]  189 	tya
                                    190 ;	Raw cost for generated ic 14 : (1, 2.000000) count=2.999997
                                    191 ;	genPlus
                                    192 ;	  genPlusInc
      000057 18               [ 2]  193 	clc
      000058 69 07            [ 3]  194 	adc	#0x07
      00005A A8               [ 2]  195 	tay
                                    196 ;	Raw cost for generated ic 15 : (4, 6.000000) count=2.999997
                                    197 ;	genLabel
      00005B                        198 00102$:
                                    199 ;	Raw cost for generated ic 17 : (0, 0.000000) count=3.999996
                                    200 ;	../__ltoa.c: 67: buffer[--index] = c;
                                    201 ;	genMinus
                                    202 ;	  genMinusDec - size=1  icount=1
      00005B C6*00            [ 5]  203 	dec	*___ultoa_sloc0_1_0
                                    204 ;	Raw cost for generated ic 19 : (2, 5.000000) count=3.999996
                                    205 ;	genAssign
                                    206 ;	genCopy
                                    207 ;	Raw cost for generated ic 21 : (4, 5.000000) count=3.999996
                                    208 ;	genPointerSet
      00005D A5*00            [ 3]  209 	lda	*___ultoa_sloc0_1_0
      00005F AA               [ 2]  210 	tax
      000060 98               [ 2]  211 	tya
      000061 9Dr07r00         [ 5]  212 	sta	(___ultoa_buffer_10000_43+0+0x0000),x
                                    213 ;	Raw cost for generated ic 22 : (5, 8.000000) count=3.999996
                                    214 ;	../__ltoa.c: 68: value /= radix;
                                    215 ;	genAssign
                                    216 ;	genCopy
      000064 ADr03r00         [ 4]  217 	lda	(___ultoa_PARM_1 + 3)
      000067 8Dr03r00         [ 4]  218 	sta	(__divulong_PARM_1 + 3)
      00006A ADr02r00         [ 4]  219 	lda	(___ultoa_PARM_1 + 2)
      00006D 8Dr02r00         [ 4]  220 	sta	(__divulong_PARM_1 + 2)
      000070 ADr01r00         [ 4]  221 	lda	(___ultoa_PARM_1 + 1)
      000073 8Dr01r00         [ 4]  222 	sta	(__divulong_PARM_1 + 1)
      000076 ADr00r00         [ 4]  223 	lda	___ultoa_PARM_1
      000079 8Dr00r00         [ 4]  224 	sta	__divulong_PARM_1
                                    225 ;	Raw cost for generated ic 68 : (24, 32.000000) count=3.999996
                                    226 ;	genAssign
                                    227 ;	genCopy
      00007C A5*04            [ 3]  228 	lda	*(___ultoa_sloc1_1_0 + 3)
      00007E 8Dr03r00         [ 4]  229 	sta	(__divulong_PARM_2 + 3)
      000081 A5*03            [ 3]  230 	lda	*(___ultoa_sloc1_1_0 + 2)
      000083 8Dr02r00         [ 4]  231 	sta	(__divulong_PARM_2 + 2)
      000086 A5*02            [ 3]  232 	lda	*(___ultoa_sloc1_1_0 + 1)
      000088 8Dr01r00         [ 4]  233 	sta	(__divulong_PARM_2 + 1)
      00008B A5*01            [ 3]  234 	lda	*___ultoa_sloc1_1_0
      00008D 8Dr00r00         [ 4]  235 	sta	__divulong_PARM_2
                                    236 ;	Raw cost for generated ic 69 : (20, 28.000000) count=3.999996
                                    237 ;	genCall
      000090 20r00r00         [ 6]  238 	jsr	__divulong
                                    239 ;	assignResultValue
      000093 8Dr00r00         [ 4]  240 	sta	___ultoa_PARM_1
      000096 8Er01r00         [ 4]  241 	stx	(___ultoa_PARM_1 + 1)
      000099 A5*00            [ 3]  242 	lda	*___SDCC_m6502_ret2
      00009B 8Dr02r00         [ 4]  243 	sta	(___ultoa_PARM_1 + 2)
      00009E A5*00            [ 3]  244 	lda	*___SDCC_m6502_ret3
      0000A0 8Dr03r00         [ 4]  245 	sta	(___ultoa_PARM_1 + 3)
                                    246 ;	Raw cost for generated ic 70 : (19, 28.000000) count=3.999996
                                    247 ;	../__ltoa.c: 69: } while (value);
                                    248 ;	genIfx
      0000A3 0Dr02r00         [ 4]  249 	ora	(___ultoa_PARM_1 + 2)
      0000A6 0Dr01r00         [ 4]  250 	ora	(___ultoa_PARM_1 + 1)
      0000A9 0Dr00r00         [ 4]  251 	ora	___ultoa_PARM_1
                                    252 ;	genIfxJump : z
      0000AC F0 03            [ 4]  253 	beq	00145$
      0000AE 4Cr04r00         [ 3]  254 	jmp	00103$
      0000B1                        255 00145$:
                                    256 ;	Raw cost for generated ic 27 : (14, 17.600000) count=3.999996
                                    257 ;	../__ltoa.c: 71: do {
                                    258 ;	genAssign
                                    259 ;	genCopy
      0000B1 ADr05r00         [ 4]  260 	lda	(___ultoa_PARM_2 + 1)
      0000B4 85*06            [ 3]  261 	sta	*(___ultoa_sloc2_1_0 + 1)
      0000B6 ADr04r00         [ 4]  262 	lda	___ultoa_PARM_2
      0000B9 85*05            [ 3]  263 	sta	*___ultoa_sloc2_1_0
                                    264 ;	Raw cost for generated ic 54 : (10, 14.000000) count=0.999998
                                    265 ;	genAssign
                                    266 ;	genCopy
      0000BB A6*00            [ 3]  267 	ldx	*___ultoa_sloc0_1_0
                                    268 ;	Raw cost for generated ic 57 : (2, 3.000000) count=0.999998
                                    269 ;	genLabel
      0000BD                        270 00106$:
                                    271 ;	Raw cost for generated ic 30 : (0, 0.000000) count=3.999988
                                    272 ;	../__ltoa.c: 72: *string++ = buffer[index];
                                    273 ;	genAssign
                                    274 ;	genCopy
      0000BD 64*02            [ 3]  275 	stz	*(___ultoa_sloc1_1_0 + 1)
      0000BF 86*01            [ 3]  276 	stx	*___ultoa_sloc1_1_0
                                    277 ;	Raw cost for generated ic 35 : (5, 7.000000) count=3.999988
                                    278 ;	genPointerGet
                                    279 ;	  setupDPTR - off=0 remat=___ultoa_buffer_10000_43 savea=0
      0000C1 18               [ 2]  280 	clc
      0000C2 8A               [ 2]  281 	txa
      0000C3 69r07            [ 3]  282 	adc	#<(___ultoa_buffer_10000_43+0)
      0000C5 85*00            [ 3]  283 	sta	*(DPTR+0)
      0000C7 A5*02            [ 3]  284 	lda	*(___ultoa_sloc1_1_0 + 1)
      0000C9 69s00            [ 3]  285 	adc	#>(___ultoa_buffer_10000_43+0)
      0000CB 85*01            [ 3]  286 	sta	*(DPTR+1)
      0000CD A0 00            [ 2]  287 	ldy	#0x00
      0000CF B1*00            [ 6]  288 	lda	[DPTR],y
                                    289 ;	Raw cost for generated ic 36 : (16, 24.000000) count=3.999988
                                    290 ;	genPointerSet
      0000D1 91*05            [ 6]  291 	sta	[*___ultoa_sloc2_1_0],y
                                    292 ;	Raw cost for generated ic 37 : (2, 6.000000) count=3.999988
                                    293 ;	genPlus
                                    294 ;	  genPlusInc
      0000D3 E6*05            [ 5]  295 	inc	*___ultoa_sloc2_1_0
      0000D5 D0 02            [ 4]  296 	bne	00146$
      0000D7 E6*06            [ 5]  297 	inc	*(___ultoa_sloc2_1_0 + 1)
      0000D9                        298 00146$:
                                    299 ;	Raw cost for generated ic 32 : (6, 12.600000) count=3.999988
                                    300 ;	../__ltoa.c: 73: } while ( ++index != NUMBER_OF_DIGITS );
                                    301 ;	genPlus
                                    302 ;	  genPlusInc
      0000D9 E8               [ 2]  303 	inx
                                    304 ;	Raw cost for generated ic 39 : (1, 2.000000) count=3.999988
                                    305 ;	genCmpEQorNE
      0000DA E0 20            [ 2]  306 	cpx	#0x20
      0000DC D0 DF            [ 4]  307 	bne	00106$
                                    308 ;	Raw cost for generated ic 41 : (7, 7.600000) count=3.999988
                                    309 ;	skipping generated iCode
                                    310 ;	Raw cost for generated ic 42 : (0, 0.000000) count=3.999988
                                    311 ;	../__ltoa.c: 75: *string = 0;  /* string terminator */
                                    312 ;	genPointerSet
      0000DE 98               [ 2]  313 	tya
      0000DF 91*05            [ 6]  314 	sta	[*___ultoa_sloc2_1_0],y
                                    315 ;	Raw cost for generated ic 46 : (3, 8.000000) count=0.999997
                                    316 ;	genLabel
                                    317 ;	Raw cost for generated ic 47 : (0, 0.000000) count=0.999997
                                    318 ;	../__ltoa.c: 76: }
                                    319 ;	genEndFunction
      0000E1 60               [ 6]  320 	rts
                                    321 ;	Raw cost for generated ic 48 : (1, 6.000000) count=0.999997
                                    322 ;------------------------------------------------------------
                                    323 ;Allocation info for local variables in function '__ltoa'
                                    324 ;------------------------------------------------------------
                                    325 ;value         Allocated with name '___ltoa_PARM_1'
                                    326 ;string        Allocated with name '___ltoa_PARM_2'
                                    327 ;radix         Allocated with name '___ltoa_PARM_3'
                                    328 ;------------------------------------------------------------
                                    329 ;	../__ltoa.c: 78: void __ltoa(long value, char* string, unsigned char radix)
                                    330 ;	genLabel
                                    331 ;	Raw cost for generated ic 0 : (0, 0.000000) count=1.000000
                                    332 ;	-----------------------------------------
                                    333 ;	 function __ltoa
                                    334 ;	-----------------------------------------
                                    335 ;	Register assignment is optimal.
                                    336 ;	Stack space usage: 0 bytes.
      0000E2                        337 ___ltoa:
                                    338 ;	Raw cost for generated ic 1 : (0, 0.000000) count=1.000000
                                    339 ;	../__ltoa.c: 80: if (value < 0 && radix == 10) {
                                    340 ;	genCmp
      0000E2 2Cr2Ar00         [ 4]  341 	bit	(___ltoa_PARM_1 + 3)
      0000E5 10 42            [ 4]  342 	bpl	00102$
                                    343 ;	Raw cost for generated ic 2 : (8, 9.600000) count=1.000000
                                    344 ;	skipping generated iCode
                                    345 ;	Raw cost for generated ic 3 : (0, 0.000000) count=1.000000
                                    346 ;	genCmpEQorNE
      0000E7 ADr2Dr00         [ 4]  347 	lda	___ltoa_PARM_3
      0000EA C9 0A            [ 2]  348 	cmp	#0x0a
      0000EC D0 3B            [ 4]  349 	bne	00102$
                                    350 ;	Raw cost for generated ic 6 : (10, 11.600000) count=0.750000
                                    351 ;	skipping generated iCode
                                    352 ;	Raw cost for generated ic 7 : (0, 0.000000) count=0.750000
                                    353 ;	../__ltoa.c: 81: *string++ = '-';
                                    354 ;	genAssign
                                    355 ;	genCopy
      0000EE AEr2Cr00         [ 4]  356 	ldx	(___ltoa_PARM_2 + 1)
      0000F1 ADr2Br00         [ 4]  357 	lda	___ltoa_PARM_2
                                    358 ;	Raw cost for generated ic 10 : (6, 8.000000) count=0.562500
                                    359 ;	genPointerSet
                                    360 ;	  setupDPTR - off=0 remat=(null) savea=0
      0000F4 85*00            [ 3]  361 	sta	*(DPTR+0)
      0000F6 86*01            [ 3]  362 	stx	*(DPTR+1)
      0000F8 A9 2D            [ 2]  363 	lda	#0x2d
      0000FA A0 00            [ 2]  364 	ldy	#0x00
      0000FC 91*00            [ 6]  365 	sta	[DPTR],y
      0000FE A5*00            [ 3]  366 	lda	*(DPTR+0)
                                    367 ;	Raw cost for generated ic 13 : (12, 19.000000) count=0.562500
                                    368 ;	genPlus
                                    369 ;	  genPlusInc
      000100 18               [ 2]  370 	clc
      000101 69 01            [ 3]  371 	adc	#0x01
      000103 8Dr2Br00         [ 4]  372 	sta	___ltoa_PARM_2
      000106 8A               [ 2]  373 	txa
      000107 69 00            [ 3]  374 	adc	#0x00
      000109 8Dr2Cr00         [ 4]  375 	sta	(___ltoa_PARM_2 + 1)
                                    376 ;	Raw cost for generated ic 11 : (12, 16.000000) count=0.562500
                                    377 ;	../__ltoa.c: 82: value = -value;
                                    378 ;	genUminus
      00010C 98               [ 2]  379 	tya
      00010D 38               [ 2]  380 	sec
      00010E EDr27r00         [ 5]  381 	sbc	___ltoa_PARM_1
      000111 8Dr27r00         [ 4]  382 	sta	___ltoa_PARM_1
      000114 98               [ 2]  383 	tya
      000115 EDr28r00         [ 5]  384 	sbc	(___ltoa_PARM_1 + 1)
      000118 8Dr28r00         [ 4]  385 	sta	(___ltoa_PARM_1 + 1)
      00011B 98               [ 2]  386 	tya
      00011C EDr29r00         [ 5]  387 	sbc	(___ltoa_PARM_1 + 2)
      00011F 8Dr29r00         [ 4]  388 	sta	(___ltoa_PARM_1 + 2)
      000122 98               [ 2]  389 	tya
      000123 EDr2Ar00         [ 5]  390 	sbc	(___ltoa_PARM_1 + 3)
      000126 8Dr2Ar00         [ 4]  391 	sta	(___ltoa_PARM_1 + 3)
                                    392 ;	Raw cost for generated ic 14 : (29, 42.000000) count=0.562500
                                    393 ;	genLabel
      000129                        394 00102$:
                                    395 ;	Raw cost for generated ic 16 : (0, 0.000000) count=1.000000
                                    396 ;	../__ltoa.c: 84: __ultoa(value, string, radix);
                                    397 ;	genAssign
                                    398 ;	genCopy
      000129 ADr2Ar00         [ 4]  399 	lda	(___ltoa_PARM_1 + 3)
      00012C 8Dr03r00         [ 4]  400 	sta	(___ultoa_PARM_1 + 3)
      00012F ADr29r00         [ 4]  401 	lda	(___ltoa_PARM_1 + 2)
      000132 8Dr02r00         [ 4]  402 	sta	(___ultoa_PARM_1 + 2)
      000135 ADr28r00         [ 4]  403 	lda	(___ltoa_PARM_1 + 1)
      000138 8Dr01r00         [ 4]  404 	sta	(___ultoa_PARM_1 + 1)
      00013B ADr27r00         [ 4]  405 	lda	___ltoa_PARM_1
      00013E 8Dr00r00         [ 4]  406 	sta	___ultoa_PARM_1
                                    407 ;	Raw cost for generated ic 17 : (24, 32.000000) count=1.000000
                                    408 ;	genAssign
                                    409 ;	genCopy
      000141 ADr2Cr00         [ 4]  410 	lda	(___ltoa_PARM_2 + 1)
      000144 8Dr05r00         [ 4]  411 	sta	(___ultoa_PARM_2 + 1)
      000147 ADr2Br00         [ 4]  412 	lda	___ltoa_PARM_2
      00014A 8Dr04r00         [ 4]  413 	sta	___ultoa_PARM_2
                                    414 ;	Raw cost for generated ic 18 : (12, 16.000000) count=1.000000
                                    415 ;	genAssign
                                    416 ;	genCopy
      00014D ADr2Dr00         [ 4]  417 	lda	___ltoa_PARM_3
      000150 8Dr06r00         [ 4]  418 	sta	___ultoa_PARM_3
                                    419 ;	Raw cost for generated ic 19 : (6, 8.000000) count=1.000000
                                    420 ;	genCall
                                    421 ;	Raw cost for generated ic 20 : (3, 6.000000) count=1.000000
                                    422 ;	genLabel
                                    423 ;	Raw cost for generated ic 21 : (0, 0.000000) count=1.000000
                                    424 ;	../__ltoa.c: 85: }
                                    425 ;	genEndFunction
      000153 4Cr00r00         [ 3]  426 	jmp	___ultoa
                                    427 ;	Raw cost for generated ic 22 : (1, 6.000000) count=1.000000
                                    428 	.area CODE
                                    429 	.area RODATA
                                    430 	.area XINIT
                                    431 	.area CABS    (ABS)
