                                      1 ;--------------------------------------------------------
                                      2 ; File Created by SDCC : free open source ISO C Compiler
                                      3 ; Version 4.5.10 #15691 (Linux)
                                      4 ;--------------------------------------------------------
                                      5 	.module __stdc_leading_zeros
                                      6 	
      000000                          7 	.r65c02
                                      8 	.optsdcc -mmos65c02
                                      9 
                                     10 ;--------------------------------------------------------
                                     11 ;  Ordering of segments for the linker.
                                     12 ;--------------------------------------------------------
                                     13 	.area ZP      (PAG)
                                     14 	.area OSEG    (PAG, OVR)
                                     15 	.area _CODE
                                     16 	.area GSINIT
                                     17 	.area GSFINAL
                                     18 	.area CODE
                                     19 	.area RODATA
                                     20 	.area XINIT
                                     21 	.area _DATA
                                     22 	.area DATA
                                     23 	.area BSS
                                     24 ;--------------------------------------------------------
                                     25 ; Public variables in this module
                                     26 ;--------------------------------------------------------
                                     27 	.globl ___stdc_leading_zeros_PARM_2
                                     28 	.globl ___stdc_leading_zeros_PARM_1
                                     29 	.globl ___stdc_leading_zeros
                                     30 ;--------------------------------------------------------
                                     31 ; ZP ram data
                                     32 ;--------------------------------------------------------
                                     33 	.area ZP      (PAG)
      000000                         34 ___stdc_leading_zeros_sloc0_1_0:
      000000                         35 	.ds 1
      000001                         36 ___stdc_leading_zeros_sloc1_1_0:
      000001                         37 	.ds 8
                                     38 ;--------------------------------------------------------
                                     39 ; overlayable items in ram
                                     40 ;--------------------------------------------------------
                                     41 ;--------------------------------------------------------
                                     42 ; uninitialized external ram data
                                     43 ;--------------------------------------------------------
                                     44 	.area BSS
      000000                         45 ___stdc_leading_zeros_PARM_1:
      000000                         46 	.ds 8
      000008                         47 ___stdc_leading_zeros_PARM_2:
      000008                         48 	.ds 1
                                     49 ;--------------------------------------------------------
                                     50 ; absolute external ram data
                                     51 ;--------------------------------------------------------
                                     52 	.area DABS    (ABS)
                                     53 ;--------------------------------------------------------
                                     54 ; initialized external ram data
                                     55 ;--------------------------------------------------------
                                     56 	.area DATA
                                     57 ;--------------------------------------------------------
                                     58 ; global & static initialisations
                                     59 ;--------------------------------------------------------
                                     60 	.area _CODE
                                     61 	.area GSINIT
                                     62 	.area GSFINAL
                                     63 	.area GSINIT
                                     64 ;--------------------------------------------------------
                                     65 ; Home
                                     66 ;--------------------------------------------------------
                                     67 	.area _CODE
                                     68 	.area _CODE
                                     69 ;--------------------------------------------------------
                                     70 ; code
                                     71 ;--------------------------------------------------------
                                     72 	.area CODE
                                     73 ;------------------------------------------------------------
                                     74 ;Allocation info for local variables in function '__stdc_leading_zeros'
                                     75 ;------------------------------------------------------------
                                     76 ;sloc0         Allocated with name '___stdc_leading_zeros_sloc0_1_0'
                                     77 ;sloc1         Allocated with name '___stdc_leading_zeros_sloc1_1_0'
                                     78 ;value         Allocated with name '___stdc_leading_zeros_PARM_1'
                                     79 ;width         Allocated with name '___stdc_leading_zeros_PARM_2'
                                     80 ;i             Allocated to registers x 
                                     81 ;------------------------------------------------------------
                                     82 ;	../__stdc_leading_zeros.c: 36: unsigned _BitInt(8) __stdc_leading_zeros(unsigned long long value, uint_fast8_t width)
                                     83 ;	genLabel
                                     84 ;	Raw cost for generated ic 0 : (0, 0.000000) count=1.000000
                                     85 ;	-----------------------------------------
                                     86 ;	 function __stdc_leading_zeros
                                     87 ;	-----------------------------------------
                                     88 ;	Register assignment is optimal.
                                     89 ;	Stack space usage: 0 bytes.
      000000                         90 ___stdc_leading_zeros:
                                     91 ;	Raw cost for generated ic 1 : (0, 0.000000) count=1.000000
                                     92 ;	../__stdc_leading_zeros.c: 38: for(int_fast8_t i = width - 1; i >= 0; i--)
                                     93 ;	genCast
                                     94 ;	genCopy
      000000 AEr08r00         [ 4]   95 	ldx	___stdc_leading_zeros_PARM_2
                                     96 ;	Raw cost for generated ic 2 : (3, 4.000000) count=1.000000
                                     97 ;	genMinus
                                     98 ;	  genMinusDec - size=1  icount=1
      000003 CA               [ 2]   99 	dex
                                    100 ;	Raw cost for generated ic 3 : (1, 2.000000) count=1.000000
                                    101 ;	genAssign
                                    102 ;	genCopy
      000004 86*00            [ 3]  103 	stx	*___stdc_leading_zeros_sloc0_1_0
                                    104 ;	Raw cost for generated ic 36 : (2, 3.000000) count=1.000000
                                    105 ;	genLabel
      000006                        106 00105$:
                                    107 ;	Raw cost for generated ic 5 : (0, 0.000000) count=3.999596
                                    108 ;	genCmp
      000006 24*00            [ 3]  109 	bit	*___stdc_leading_zeros_sloc0_1_0
      000008 10 03            [ 4]  110 	bpl	00127$
      00000A 4Cr96r00         [ 3]  111 	jmp	00103$
      00000D                        112 00127$:
                                    113 ;	Raw cost for generated ic 6 : (7, 8.600000) count=3.999596
                                    114 ;	skipping generated iCode
                                    115 ;	Raw cost for generated ic 7 : (0, 0.000000) count=3.999596
                                    116 ;	../__stdc_leading_zeros.c: 39: if(value & (1ull << i))
                                    117 ;	genCast
                                    118 ;	genCopy
      00000D A5*00            [ 3]  119 	lda	*___stdc_leading_zeros_sloc0_1_0
      00000F 8Dr00r00         [ 4]  120 	sta	__slulonglong_PARM_2
                                    121 ;	Raw cost for generated ic 40 : (5, 7.000000) count=2.999697
                                    122 ;	genAssign
                                    123 ;	genAssignLit
      000012 A0 01            [ 2]  124 	ldy	#0x01
      000014 8Cr00r00         [ 4]  125 	sty	__slulonglong_PARM_1
      000017 9Cr01r00         [ 4]  126 	stz	(__slulonglong_PARM_1 + 1)
      00001A 9Cr02r00         [ 4]  127 	stz	(__slulonglong_PARM_1 + 2)
      00001D 9Cr03r00         [ 4]  128 	stz	(__slulonglong_PARM_1 + 3)
      000020 9Cr04r00         [ 4]  129 	stz	(__slulonglong_PARM_1 + 4)
      000023 9Cr05r00         [ 4]  130 	stz	(__slulonglong_PARM_1 + 5)
      000026 9Cr06r00         [ 4]  131 	stz	(__slulonglong_PARM_1 + 6)
      000029 9Cr07r00         [ 4]  132 	stz	(__slulonglong_PARM_1 + 7)
                                    133 ;	Raw cost for generated ic 41 : (26, 34.000000) count=2.999697
                                    134 ;	genCall
      00002C DA               [ 3]  135 	phx
      00002D 20r00r00         [ 6]  136 	jsr	__slulonglong
                                    137 ;	assignResultValue
      000030 85*01            [ 3]  138 	sta	*___stdc_leading_zeros_sloc1_1_0
      000032 86*02            [ 3]  139 	stx	*(___stdc_leading_zeros_sloc1_1_0 + 1)
      000034 A5*00            [ 3]  140 	lda	*___SDCC_m6502_ret2
      000036 85*03            [ 3]  141 	sta	*(___stdc_leading_zeros_sloc1_1_0 + 2)
      000038 A5*00            [ 3]  142 	lda	*___SDCC_m6502_ret3
      00003A 85*04            [ 3]  143 	sta	*(___stdc_leading_zeros_sloc1_1_0 + 3)
      00003C A5*00            [ 3]  144 	lda	*___SDCC_m6502_ret4
      00003E 85*05            [ 3]  145 	sta	*(___stdc_leading_zeros_sloc1_1_0 + 4)
      000040 A5*00            [ 3]  146 	lda	*___SDCC_m6502_ret5
      000042 85*06            [ 3]  147 	sta	*(___stdc_leading_zeros_sloc1_1_0 + 5)
      000044 A5*00            [ 3]  148 	lda	*___SDCC_m6502_ret6
      000046 85*07            [ 3]  149 	sta	*(___stdc_leading_zeros_sloc1_1_0 + 6)
      000048 A5*00            [ 3]  150 	lda	*___SDCC_m6502_ret7
      00004A 85*08            [ 3]  151 	sta	*(___stdc_leading_zeros_sloc1_1_0 + 7)
      00004C FA               [ 4]  152 	plx
                                    153 ;	Raw cost for generated ic 43 : (33, 55.000000) count=2.999697
                                    154 ;	genAnd
      00004D ADr00r00         [ 4]  155 	lda	___stdc_leading_zeros_PARM_1
      000050 25*01            [ 3]  156 	and	*___stdc_leading_zeros_sloc1_1_0
      000052 D0 2F            [ 4]  157 	bne	00128$
      000054 ADr01r00         [ 4]  158 	lda	(___stdc_leading_zeros_PARM_1 + 1)
      000057 25*02            [ 3]  159 	and	*(___stdc_leading_zeros_sloc1_1_0 + 1)
      000059 D0 28            [ 4]  160 	bne	00128$
      00005B ADr02r00         [ 4]  161 	lda	(___stdc_leading_zeros_PARM_1 + 2)
      00005E 25*03            [ 3]  162 	and	*(___stdc_leading_zeros_sloc1_1_0 + 2)
      000060 D0 21            [ 4]  163 	bne	00128$
      000062 ADr03r00         [ 4]  164 	lda	(___stdc_leading_zeros_PARM_1 + 3)
      000065 25*04            [ 3]  165 	and	*(___stdc_leading_zeros_sloc1_1_0 + 3)
      000067 D0 1A            [ 4]  166 	bne	00128$
      000069 ADr04r00         [ 4]  167 	lda	(___stdc_leading_zeros_PARM_1 + 4)
      00006C 25*05            [ 3]  168 	and	*(___stdc_leading_zeros_sloc1_1_0 + 4)
      00006E D0 13            [ 4]  169 	bne	00128$
      000070 ADr05r00         [ 4]  170 	lda	(___stdc_leading_zeros_PARM_1 + 5)
      000073 25*06            [ 3]  171 	and	*(___stdc_leading_zeros_sloc1_1_0 + 5)
      000075 D0 0C            [ 4]  172 	bne	00128$
      000077 ADr06r00         [ 4]  173 	lda	(___stdc_leading_zeros_PARM_1 + 6)
      00007A 25*07            [ 3]  174 	and	*(___stdc_leading_zeros_sloc1_1_0 + 6)
      00007C D0 05            [ 4]  175 	bne	00128$
      00007E ADr07r00         [ 4]  176 	lda	(___stdc_leading_zeros_PARM_1 + 7)
      000081 25*08            [ 3]  177 	and	*(___stdc_leading_zeros_sloc1_1_0 + 7)
      000083                        178 00128$:
                                    179 ;	genIfxJump : z
      000083 F0 0A            [ 4]  180 	beq	00106$
                                    181 ;	Raw cost for generated ic 11 : (59, 79.799995) count=2.999697
                                    182 ;	skipping generated iCode
                                    183 ;	Raw cost for generated ic 12 : (0, 0.000000) count=2.999697
                                    184 ;	../__stdc_leading_zeros.c: 40: return (width - i - 1);
                                    185 ;	genCast
                                    186 ;	genCopy
      000085 ADr08r00         [ 4]  187 	lda	___stdc_leading_zeros_PARM_2
                                    188 ;	Raw cost for generated ic 34 : (3, 4.000000) count=2.249697
                                    189 ;	genCast
                                    190 ;	genCopy
                                    191 ;	Raw cost for generated ic 16 : (0, 0.000000) count=2.249697
                                    192 ;	genMinus
      000088 38               [ 2]  193 	sec
      000089 86*00            [ 3]  194 	stx	*(REGTEMP+0)
      00008B E5*00            [ 4]  195 	sbc	*(REGTEMP+0)
                                    196 ;	Raw cost for generated ic 17 : (5, 8.000000) count=2.249697
                                    197 ;	genMinus
                                    198 ;	  genMinusDec - size=1  icount=1
      00008D 3A               [ 2]  199 	dec	a
                                    200 ;	Raw cost for generated ic 18 : (1, 2.000000) count=2.249697
                                    201 ;	genRet
      00008E 60               [ 6]  202 	rts
                                    203 ;	Raw cost for generated ic 20 : (3, 3.000000) count=2.249697
                                    204 ;	genLabel
      00008F                        205 00106$:
                                    206 ;	Raw cost for generated ic 22 : (0, 0.000000) count=2.999596
                                    207 ;	../__stdc_leading_zeros.c: 38: for(int_fast8_t i = width - 1; i >= 0; i--)
                                    208 ;	genMinus
                                    209 ;	  genMinusDec - size=1  icount=1
      00008F C6*00            [ 5]  210 	dec	*___stdc_leading_zeros_sloc0_1_0
                                    211 ;	Raw cost for generated ic 24 : (2, 5.000000) count=2.999596
                                    212 ;	genAssign
                                    213 ;	genCopy
      000091 A6*00            [ 3]  214 	ldx	*___stdc_leading_zeros_sloc0_1_0
                                    215 ;	Raw cost for generated ic 25 : (2, 3.000000) count=2.999596
                                    216 ;	genGoto
      000093 4Cr06r00         [ 3]  217 	jmp	00105$
                                    218 ;	Raw cost for generated ic 26 : (3, 3.000000) count=2.999596
                                    219 ;	genLabel
      000096                        220 00103$:
                                    221 ;	Raw cost for generated ic 27 : (0, 0.000000) count=0.999821
                                    222 ;	../__stdc_leading_zeros.c: 41: return width;
                                    223 ;	genCast
                                    224 ;	genCopy
      000096 ADr08r00         [ 4]  225 	lda	___stdc_leading_zeros_PARM_2
                                    226 ;	Raw cost for generated ic 28 : (3, 4.000000) count=0.999821
                                    227 ;	genRet
                                    228 ;	Raw cost for generated ic 29 : (0, 0.000000) count=0.999821
                                    229 ;	genLabel
                                    230 ;	Raw cost for generated ic 30 : (0, 0.000000) count=0.999821
                                    231 ;	../__stdc_leading_zeros.c: 42: }
                                    232 ;	genEndFunction
      000099 60               [ 6]  233 	rts
                                    234 ;	Raw cost for generated ic 31 : (1, 6.000000) count=0.999821
                                    235 	.area CODE
                                    236 	.area RODATA
                                    237 	.area XINIT
                                    238 	.area CABS    (ABS)
