                                      1 ;--------------------------------------------------------
                                      2 ; File Created by SDCC : free open source ISO C Compiler
                                      3 ; Version 4.5.10 #15691 (Linux)
                                      4 ;--------------------------------------------------------
                                      5 	.module __stdc_count_ones
                                      6 	
      000000                          7 	.r65c02
                                      8 	.optsdcc -mmos65c02
                                      9 
                                     10 ;--------------------------------------------------------
                                     11 ;  Ordering of segments for the linker.
                                     12 ;--------------------------------------------------------
                                     13 	.area ZP      (PAG)
                                     14 	.area OSEG    (PAG, OVR)
                                     15 	.area _CODE
                                     16 	.area GSINIT
                                     17 	.area GSFINAL
                                     18 	.area CODE
                                     19 	.area RODATA
                                     20 	.area XINIT
                                     21 	.area _DATA
                                     22 	.area DATA
                                     23 	.area BSS
                                     24 ;--------------------------------------------------------
                                     25 ; Public variables in this module
                                     26 ;--------------------------------------------------------
                                     27 	.globl ___stdc_count_ones_PARM_1
                                     28 	.globl ___stdc_count_ones
                                     29 ;--------------------------------------------------------
                                     30 ; ZP ram data
                                     31 ;--------------------------------------------------------
                                     32 	.area ZP      (PAG)
      000000                         33 ___stdc_count_ones_sloc0_1_0:
      000000                         34 	.ds 8
                                     35 ;--------------------------------------------------------
                                     36 ; overlayable items in ram
                                     37 ;--------------------------------------------------------
                                     38 ;--------------------------------------------------------
                                     39 ; uninitialized external ram data
                                     40 ;--------------------------------------------------------
                                     41 	.area BSS
      000000                         42 ___stdc_count_ones_PARM_1:
      000000                         43 	.ds 8
                                     44 ;--------------------------------------------------------
                                     45 ; absolute external ram data
                                     46 ;--------------------------------------------------------
                                     47 	.area DABS    (ABS)
                                     48 ;--------------------------------------------------------
                                     49 ; initialized external ram data
                                     50 ;--------------------------------------------------------
                                     51 	.area DATA
                                     52 ;--------------------------------------------------------
                                     53 ; global & static initialisations
                                     54 ;--------------------------------------------------------
                                     55 	.area _CODE
                                     56 	.area GSINIT
                                     57 	.area GSFINAL
                                     58 	.area GSINIT
                                     59 ;--------------------------------------------------------
                                     60 ; Home
                                     61 ;--------------------------------------------------------
                                     62 	.area _CODE
                                     63 	.area _CODE
                                     64 ;--------------------------------------------------------
                                     65 ; code
                                     66 ;--------------------------------------------------------
                                     67 	.area CODE
                                     68 ;------------------------------------------------------------
                                     69 ;Allocation info for local variables in function '__stdc_count_ones'
                                     70 ;------------------------------------------------------------
                                     71 ;sloc0         Allocated with name '___stdc_count_ones_sloc0_1_0'
                                     72 ;value         Allocated with name '___stdc_count_ones_PARM_1'
                                     73 ;count         Allocated to registers 
                                     74 ;i             Allocated to registers 
                                     75 ;------------------------------------------------------------
                                     76 ;	../__stdc_count_ones.c: 37: unsigned _BitInt(8) __stdc_count_ones(unsigned long long value)
                                     77 ;	genLabel
                                     78 ;	Raw cost for generated ic 0 : (0, 0.000000) count=1.000000
                                     79 ;	-----------------------------------------
                                     80 ;	 function __stdc_count_ones
                                     81 ;	-----------------------------------------
                                     82 ;	Register assignment is optimal.
                                     83 ;	Stack space usage: 0 bytes.
      000000                         84 ___stdc_count_ones:
                                     85 ;	Raw cost for generated ic 1 : (0, 0.000000) count=1.000000
                                     86 ;	../__stdc_count_ones.c: 40: for(uint_fast8_t i = 0; i < ULLONG_WIDTH; i++)
                                     87 ;	genAssign
                                     88 ;	genCopy
      000000 A2 00            [ 2]   89 	ldx	#0x00
                                     90 ;	Raw cost for generated ic 29 : (2, 2.000000) count=1.000000
                                     91 ;	genAssign
                                     92 ;	genCopy
      000002 A0 00            [ 2]   93 	ldy	#0x00
                                     94 ;	Raw cost for generated ic 32 : (2, 2.000000) count=1.000000
                                     95 ;	genLabel
      000004                         96 00105$:
                                     97 ;	Raw cost for generated ic 4 : (0, 0.000000) count=3.999993
                                     98 ;	genCmp
      000004 C0 40            [ 2]   99 	cpy	#0x40
      000006 90 03            [ 4]  100 	bcc	00128$
      000008 4Cr88r00         [ 3]  101 	jmp	00103$
      00000B                        102 00128$:
                                    103 ;	Raw cost for generated ic 5 : (7, 7.600000) count=3.999993
                                    104 ;	skipping generated iCode
                                    105 ;	Raw cost for generated ic 6 : (0, 0.000000) count=3.999993
                                    106 ;	../__stdc_count_ones.c: 41: if(value & (1ull << i))
                                    107 ;	genCast
                                    108 ;	genCopy
      00000B 8Cr00r00         [ 4]  109 	sty	__slulonglong_PARM_2
                                    110 ;	Raw cost for generated ic 37 : (3, 4.000000) count=2.999995
                                    111 ;	genAssign
                                    112 ;	genAssignLit
      00000E A9 01            [ 2]  113 	lda	#0x01
      000010 8Dr00r00         [ 4]  114 	sta	__slulonglong_PARM_1
      000013 9Cr01r00         [ 4]  115 	stz	(__slulonglong_PARM_1 + 1)
      000016 9Cr02r00         [ 4]  116 	stz	(__slulonglong_PARM_1 + 2)
      000019 9Cr03r00         [ 4]  117 	stz	(__slulonglong_PARM_1 + 3)
      00001C 9Cr04r00         [ 4]  118 	stz	(__slulonglong_PARM_1 + 4)
      00001F 9Cr05r00         [ 4]  119 	stz	(__slulonglong_PARM_1 + 5)
      000022 9Cr06r00         [ 4]  120 	stz	(__slulonglong_PARM_1 + 6)
      000025 9Cr07r00         [ 4]  121 	stz	(__slulonglong_PARM_1 + 7)
                                    122 ;	Raw cost for generated ic 38 : (26, 34.000000) count=2.999995
                                    123 ;	genCall
      000028 DA               [ 3]  124 	phx
      000029 5A               [ 3]  125 	phy
      00002A 20r00r00         [ 6]  126 	jsr	__slulonglong
                                    127 ;	assignResultValue
      00002D 85*00            [ 3]  128 	sta	*___stdc_count_ones_sloc0_1_0
      00002F 86*01            [ 3]  129 	stx	*(___stdc_count_ones_sloc0_1_0 + 1)
      000031 A5*00            [ 3]  130 	lda	*___SDCC_m6502_ret2
      000033 85*02            [ 3]  131 	sta	*(___stdc_count_ones_sloc0_1_0 + 2)
      000035 A5*00            [ 3]  132 	lda	*___SDCC_m6502_ret3
      000037 85*03            [ 3]  133 	sta	*(___stdc_count_ones_sloc0_1_0 + 3)
      000039 A5*00            [ 3]  134 	lda	*___SDCC_m6502_ret4
      00003B 85*04            [ 3]  135 	sta	*(___stdc_count_ones_sloc0_1_0 + 4)
      00003D A5*00            [ 3]  136 	lda	*___SDCC_m6502_ret5
      00003F 85*05            [ 3]  137 	sta	*(___stdc_count_ones_sloc0_1_0 + 5)
      000041 A5*00            [ 3]  138 	lda	*___SDCC_m6502_ret6
      000043 85*06            [ 3]  139 	sta	*(___stdc_count_ones_sloc0_1_0 + 6)
      000045 A5*00            [ 3]  140 	lda	*___SDCC_m6502_ret7
      000047 85*07            [ 3]  141 	sta	*(___stdc_count_ones_sloc0_1_0 + 7)
      000049 7A               [ 4]  142 	ply
      00004A FA               [ 4]  143 	plx
                                    144 ;	Raw cost for generated ic 40 : (35, 62.000000) count=2.999995
                                    145 ;	genAnd
      00004B ADr00r00         [ 4]  146 	lda	___stdc_count_ones_PARM_1
      00004E 25*00            [ 3]  147 	and	*___stdc_count_ones_sloc0_1_0
      000050 D0 2F            [ 4]  148 	bne	00129$
      000052 ADr01r00         [ 4]  149 	lda	(___stdc_count_ones_PARM_1 + 1)
      000055 25*01            [ 3]  150 	and	*(___stdc_count_ones_sloc0_1_0 + 1)
      000057 D0 28            [ 4]  151 	bne	00129$
      000059 ADr02r00         [ 4]  152 	lda	(___stdc_count_ones_PARM_1 + 2)
      00005C 25*02            [ 3]  153 	and	*(___stdc_count_ones_sloc0_1_0 + 2)
      00005E D0 21            [ 4]  154 	bne	00129$
      000060 ADr03r00         [ 4]  155 	lda	(___stdc_count_ones_PARM_1 + 3)
      000063 25*03            [ 3]  156 	and	*(___stdc_count_ones_sloc0_1_0 + 3)
      000065 D0 1A            [ 4]  157 	bne	00129$
      000067 ADr04r00         [ 4]  158 	lda	(___stdc_count_ones_PARM_1 + 4)
      00006A 25*04            [ 3]  159 	and	*(___stdc_count_ones_sloc0_1_0 + 4)
      00006C D0 13            [ 4]  160 	bne	00129$
      00006E ADr05r00         [ 4]  161 	lda	(___stdc_count_ones_PARM_1 + 5)
      000071 25*05            [ 3]  162 	and	*(___stdc_count_ones_sloc0_1_0 + 5)
      000073 D0 0C            [ 4]  163 	bne	00129$
      000075 ADr06r00         [ 4]  164 	lda	(___stdc_count_ones_PARM_1 + 6)
      000078 25*06            [ 3]  165 	and	*(___stdc_count_ones_sloc0_1_0 + 6)
      00007A D0 05            [ 4]  166 	bne	00129$
      00007C ADr07r00         [ 4]  167 	lda	(___stdc_count_ones_PARM_1 + 7)
      00007F 25*07            [ 3]  168 	and	*(___stdc_count_ones_sloc0_1_0 + 7)
      000081                        169 00129$:
                                    170 ;	genIfxJump : z
      000081 F0 01            [ 4]  171 	beq	00106$
                                    172 ;	Raw cost for generated ic 10 : (59, 79.799995) count=2.999995
                                    173 ;	skipping generated iCode
                                    174 ;	Raw cost for generated ic 11 : (0, 0.000000) count=2.999995
                                    175 ;	../__stdc_count_ones.c: 42: count++;
                                    176 ;	genPlus
                                    177 ;	  genPlusInc
      000083 E8               [ 2]  178 	inx
                                    179 ;	Raw cost for generated ic 15 : (1, 2.000000) count=2.249995
                                    180 ;	genLabel
      000084                        181 00106$:
                                    182 ;	Raw cost for generated ic 18 : (0, 0.000000) count=2.999993
                                    183 ;	../__stdc_count_ones.c: 40: for(uint_fast8_t i = 0; i < ULLONG_WIDTH; i++)
                                    184 ;	genPlus
                                    185 ;	  genPlusInc
      000084 C8               [ 2]  186 	iny
                                    187 ;	Raw cost for generated ic 20 : (1, 2.000000) count=2.999993
                                    188 ;	genGoto
      000085 4Cr04r00         [ 3]  189 	jmp	00105$
                                    190 ;	Raw cost for generated ic 22 : (3, 3.000000) count=2.999993
                                    191 ;	genLabel
      000088                        192 00103$:
                                    193 ;	Raw cost for generated ic 23 : (0, 0.000000) count=0.999997
                                    194 ;	../__stdc_count_ones.c: 43: return count;
                                    195 ;	genCast
                                    196 ;	genCopy
      000088 8A               [ 2]  197 	txa
                                    198 ;	Raw cost for generated ic 24 : (1, 2.000000) count=0.999997
                                    199 ;	genRet
                                    200 ;	Raw cost for generated ic 25 : (0, 0.000000) count=0.999997
                                    201 ;	genLabel
                                    202 ;	Raw cost for generated ic 26 : (0, 0.000000) count=0.999997
                                    203 ;	../__stdc_count_ones.c: 44: }
                                    204 ;	genEndFunction
      000089 60               [ 6]  205 	rts
                                    206 ;	Raw cost for generated ic 27 : (1, 6.000000) count=0.999997
                                    207 	.area CODE
                                    208 	.area RODATA
                                    209 	.area XINIT
                                    210 	.area CABS    (ABS)
