                                      1 ;--------------------------------------------------------
                                      2 ; File Created by SDCC : free open source ISO C Compiler
                                      3 ; Version 4.5.10 #15691 (Linux)
                                      4 ;--------------------------------------------------------
                                      5 	.module _fs2ulong
                                      6 	
      000000                          7 	.r65c02
                                      8 	.optsdcc -mmos65c02
                                      9 
                                     10 ;--------------------------------------------------------
                                     11 ;  Ordering of segments for the linker.
                                     12 ;--------------------------------------------------------
                                     13 	.area ZP      (PAG)
                                     14 	.area OSEG    (PAG, OVR)
                                     15 	.area _CODE
                                     16 	.area GSINIT
                                     17 	.area GSFINAL
                                     18 	.area CODE
                                     19 	.area RODATA
                                     20 	.area XINIT
                                     21 	.area _DATA
                                     22 	.area DATA
                                     23 	.area BSS
                                     24 ;--------------------------------------------------------
                                     25 ; Public variables in this module
                                     26 ;--------------------------------------------------------
                                     27 	.globl ___fs2ulong_PARM_1
                                     28 	.globl ___fs2ulong
                                     29 ;--------------------------------------------------------
                                     30 ; ZP ram data
                                     31 ;--------------------------------------------------------
                                     32 	.area ZP      (PAG)
                                     33 ;--------------------------------------------------------
                                     34 ; overlayable items in ram
                                     35 ;--------------------------------------------------------
                                     36 	.area	OSEG    (PAG, OVR)
      000000                         37 ___fs2ulong_sloc0_1_0:
      000000                         38 	.ds 4
                                     39 ;--------------------------------------------------------
                                     40 ; uninitialized external ram data
                                     41 ;--------------------------------------------------------
                                     42 	.area BSS
      000000                         43 ___fs2ulong_PARM_1:
      000000                         44 	.ds 4
      000004                         45 ___fs2ulong_fl1_10000_21:
      000004                         46 	.ds 4
      000008                         47 ___fs2ulong_exp_10000_21:
      000008                         48 	.ds 2
      00000A                         49 ___fs2ulong_l_10000_21:
      00000A                         50 	.ds 4
                                     51 ;--------------------------------------------------------
                                     52 ; absolute external ram data
                                     53 ;--------------------------------------------------------
                                     54 	.area DABS    (ABS)
                                     55 ;--------------------------------------------------------
                                     56 ; initialized external ram data
                                     57 ;--------------------------------------------------------
                                     58 	.area DATA
                                     59 ;--------------------------------------------------------
                                     60 ; global & static initialisations
                                     61 ;--------------------------------------------------------
                                     62 	.area _CODE
                                     63 	.area GSINIT
                                     64 	.area GSFINAL
                                     65 	.area GSINIT
                                     66 ;--------------------------------------------------------
                                     67 ; Home
                                     68 ;--------------------------------------------------------
                                     69 	.area _CODE
                                     70 	.area _CODE
                                     71 ;--------------------------------------------------------
                                     72 ; code
                                     73 ;--------------------------------------------------------
                                     74 	.area CODE
                                     75 ;------------------------------------------------------------
                                     76 ;Allocation info for local variables in function '__fs2ulong'
                                     77 ;------------------------------------------------------------
                                     78 ;a1            Allocated with name '___fs2ulong_PARM_1'
                                     79 ;fl1           Allocated with name '___fs2ulong_fl1_10000_21'
                                     80 ;exp           Allocated with name '___fs2ulong_exp_10000_21'
                                     81 ;l             Allocated with name '___fs2ulong_l_10000_21'
                                     82 ;sloc0         Allocated with name '___fs2ulong_sloc0_1_0'
                                     83 ;------------------------------------------------------------
                                     84 ;	../_fs2ulong.c: 103: unsigned long __fs2ulong (float a1) __SDCC_FLOAT_NONBANKED
                                     85 ;	genLabel
                                     86 ;	Raw cost for generated ic 0 : (0, 0.000000) count=1.000000
                                     87 ;	-----------------------------------------
                                     88 ;	 function __fs2ulong
                                     89 ;	-----------------------------------------
                                     90 ;	Register assignment is optimal.
                                     91 ;	Stack space usage: 0 bytes.
      000000                         92 ___fs2ulong:
                                     93 ;	Raw cost for generated ic 1 : (0, 0.000000) count=1.000000
                                     94 ;	../_fs2ulong.c: 109: fl1.f = a1;
                                     95 ;	skipping iCode since result will be rematerialized
                                     96 ;	Raw cost for generated ic 2 : (0, 0.000000) count=1.000000
                                     97 ;	genPointerSet
                                     98 ;	genDataPointerSet
      000000 ADr03r00         [ 4]   99 	lda	(___fs2ulong_PARM_1 + 3)
      000003 8Dr07r00         [ 4]  100 	sta	(___fs2ulong_fl1_10000_21 + 3)
      000006 ADr02r00         [ 4]  101 	lda	(___fs2ulong_PARM_1 + 2)
      000009 8Dr06r00         [ 4]  102 	sta	(___fs2ulong_fl1_10000_21 + 2)
      00000C ADr01r00         [ 4]  103 	lda	(___fs2ulong_PARM_1 + 1)
      00000F 8Dr05r00         [ 4]  104 	sta	(___fs2ulong_fl1_10000_21 + 1)
      000012 ADr00r00         [ 4]  105 	lda	___fs2ulong_PARM_1
      000015 8Dr04r00         [ 4]  106 	sta	___fs2ulong_fl1_10000_21
                                    107 ;	Raw cost for generated ic 4 : (24, 32.000000) count=1.000000
                                    108 ;	../_fs2ulong.c: 111: if (!fl1.l || SIGN(fl1.l))
                                    109 ;	skipping iCode since result will be rematerialized
                                    110 ;	Raw cost for generated ic 5 : (0, 0.000000) count=1.000000
                                    111 ;	genPointerGet
                                    112 ;	genDataPointerGet
      000018 ADr07r00         [ 4]  113 	lda	(___fs2ulong_fl1_10000_21 + 3)
      00001B 85*03            [ 3]  114 	sta	*(___fs2ulong_sloc0_1_0 + 3)
      00001D ADr06r00         [ 4]  115 	lda	(___fs2ulong_fl1_10000_21 + 2)
      000020 85*02            [ 3]  116 	sta	*(___fs2ulong_sloc0_1_0 + 2)
      000022 ADr05r00         [ 4]  117 	lda	(___fs2ulong_fl1_10000_21 + 1)
      000025 85*01            [ 3]  118 	sta	*(___fs2ulong_sloc0_1_0 + 1)
      000027 ADr04r00         [ 4]  119 	lda	___fs2ulong_fl1_10000_21
      00002A 85*00            [ 3]  120 	sta	*___fs2ulong_sloc0_1_0
                                    121 ;	Raw cost for generated ic 7 : (20, 28.000000) count=1.000000
                                    122 ;	genIfx
      00002C A5*03            [ 3]  123 	lda	*(___fs2ulong_sloc0_1_0 + 3)
      00002E 05*02            [ 3]  124 	ora	*(___fs2ulong_sloc0_1_0 + 2)
      000030 05*01            [ 3]  125 	ora	*(___fs2ulong_sloc0_1_0 + 1)
      000032 05*00            [ 3]  126 	ora	*___fs2ulong_sloc0_1_0
                                    127 ;	genIfxJump : z
      000034 F0 26            [ 4]  128 	beq	00101$
                                    129 ;	Raw cost for generated ic 8 : (13, 17.600000) count=1.000000
                                    130 ;	skipping iCode since result will be rematerialized
                                    131 ;	Raw cost for generated ic 11 : (0, 0.000000) count=0.750000
                                    132 ;	genPointerGet
                                    133 ;	genDataPointerGet
      000036 ADr07r00         [ 4]  134 	lda	(___fs2ulong_fl1_10000_21 + 3)
      000039 85*03            [ 3]  135 	sta	*(___fs2ulong_sloc0_1_0 + 3)
      00003B ADr06r00         [ 4]  136 	lda	(___fs2ulong_fl1_10000_21 + 2)
      00003E 85*02            [ 3]  137 	sta	*(___fs2ulong_sloc0_1_0 + 2)
      000040 ADr05r00         [ 4]  138 	lda	(___fs2ulong_fl1_10000_21 + 1)
      000043 85*01            [ 3]  139 	sta	*(___fs2ulong_sloc0_1_0 + 1)
      000045 ADr04r00         [ 4]  140 	lda	___fs2ulong_fl1_10000_21
      000048 85*00            [ 3]  141 	sta	*___fs2ulong_sloc0_1_0
                                    142 ;	Raw cost for generated ic 13 : (20, 28.000000) count=0.750000
                                    143 ;	genCast
                                    144 ;	genCopy
                                    145 ;	Raw cost for generated ic 14 : (0, 0.000000) count=0.750000
                                    146 ;	genRightShift
                                    147 ;	genRightShiftLiteral
                                    148 ;	  genrsh32 - shift=31
      00004A A5*03            [ 3]  149 	lda	*(___fs2ulong_sloc0_1_0 + 3)
      00004C 0A               [ 2]  150 	asl	a
      00004D A9 00            [ 2]  151 	lda	#0x00
      00004F 85*03            [ 3]  152 	sta	*(___fs2ulong_sloc0_1_0 + 3)
      000051 85*02            [ 3]  153 	sta	*(___fs2ulong_sloc0_1_0 + 2)
      000053 85*01            [ 3]  154 	sta	*(___fs2ulong_sloc0_1_0 + 1)
      000055 2A               [ 2]  155 	rol	a
      000056 85*00            [ 3]  156 	sta	*___fs2ulong_sloc0_1_0
                                    157 ;	Raw cost for generated ic 15 : (14, 21.000000) count=0.750000
                                    158 ;	genAnd
      000058 29 01            [ 2]  159 	and	#0x01
                                    160 ;	genIfxJump : z
      00005A F0 08            [ 4]  161 	beq	00102$
                                    162 ;	Raw cost for generated ic 16 : (9, 10.200000) count=0.750000
                                    163 ;	skipping generated iCode
                                    164 ;	Raw cost for generated ic 17 : (0, 0.000000) count=0.750000
                                    165 ;	genLabel
      00005C                        166 00101$:
                                    167 ;	Raw cost for generated ic 19 : (0, 0.000000) count=0.812500
                                    168 ;	../_fs2ulong.c: 112: return (0);
                                    169 ;	genRet
      00005C A9 00            [ 2]  170 	lda	#0x00
      00005E AA               [ 2]  171 	tax
      00005F 85*00            [ 3]  172 	sta	*___SDCC_m6502_ret2
      000061 85*00            [ 3]  173 	sta	*___SDCC_m6502_ret3
      000063 60               [ 6]  174 	rts
                                    175 ;	Raw cost for generated ic 20 : (10, 13.000000) count=0.812500
                                    176 ;	genLabel
      000064                        177 00102$:
                                    178 ;	Raw cost for generated ic 21 : (0, 0.000000) count=1.000000
                                    179 ;	../_fs2ulong.c: 114: exp = EXP (fl1.l) - EXCESS - 24;
                                    180 ;	skipping iCode since result will be rematerialized
                                    181 ;	Raw cost for generated ic 22 : (0, 0.000000) count=1.000000
                                    182 ;	genPointerGet
                                    183 ;	genDataPointerGet
      000064 ADr07r00         [ 4]  184 	lda	(___fs2ulong_fl1_10000_21 + 3)
      000067 85*03            [ 3]  185 	sta	*(___fs2ulong_sloc0_1_0 + 3)
      000069 ADr06r00         [ 4]  186 	lda	(___fs2ulong_fl1_10000_21 + 2)
      00006C 85*02            [ 3]  187 	sta	*(___fs2ulong_sloc0_1_0 + 2)
      00006E ADr05r00         [ 4]  188 	lda	(___fs2ulong_fl1_10000_21 + 1)
      000071 85*01            [ 3]  189 	sta	*(___fs2ulong_sloc0_1_0 + 1)
      000073 ADr04r00         [ 4]  190 	lda	___fs2ulong_fl1_10000_21
      000076 85*00            [ 3]  191 	sta	*___fs2ulong_sloc0_1_0
                                    192 ;	Raw cost for generated ic 24 : (20, 28.000000) count=1.000000
                                    193 ;	genCast
                                    194 ;	genCopy
                                    195 ;	Raw cost for generated ic 25 : (0, 0.000000) count=1.000000
                                    196 ;	genRightShift
                                    197 ;	genRightShiftLiteral
                                    198 ;	  genrsh32 - shift=23
      000078 A5*02            [ 3]  199 	lda	*(___fs2ulong_sloc0_1_0 + 2)
      00007A 2A               [ 2]  200 	rol	a
      00007B A5*03            [ 3]  201 	lda	*(___fs2ulong_sloc0_1_0 + 3)
      00007D 2A               [ 2]  202 	rol	a
      00007E 85*00            [ 3]  203 	sta	*___fs2ulong_sloc0_1_0
      000080 A9 00            [ 2]  204 	lda	#0x00
      000082 85*02            [ 3]  205 	sta	*(___fs2ulong_sloc0_1_0 + 2)
      000084 85*03            [ 3]  206 	sta	*(___fs2ulong_sloc0_1_0 + 3)
      000086 2A               [ 2]  207 	rol	a
      000087 85*01            [ 3]  208 	sta	*(___fs2ulong_sloc0_1_0 + 1)
                                    209 ;	Raw cost for generated ic 26 : (17, 26.000000) count=1.000000
                                    210 ;	genCast
                                    211 ;	genCopy
                                    212 ;	Raw cost for generated ic 60 : (3, 5.000000) count=1.000000
                                    213 ;	genAnd
      000089 A5*00            [ 3]  214 	lda *___fs2ulong_sloc0_1_0
      00008B A2 00            [ 2]  215 	ldx #0x00
                                    216 ;	Raw cost for generated ic 27 : (2, 2.000000) count=1.000000
                                    217 ;	genMinus
                                    218 ;	  genMinusDec - size=2  icount=150
      00008D 38               [ 2]  219 	sec
      00008E E9 96            [ 3]  220 	sbc	#0x96
      000090 8Dr08r00         [ 4]  221 	sta	___fs2ulong_exp_10000_21
      000093 8A               [ 2]  222 	txa
      000094 E9 00            [ 3]  223 	sbc	#0x00
      000096 8Dr09r00         [ 4]  224 	sta	(___fs2ulong_exp_10000_21 + 1)
                                    225 ;	Raw cost for generated ic 28 : (12, 16.000000) count=1.000000
                                    226 ;	../_fs2ulong.c: 115: l = MANT (fl1.l);
                                    227 ;	skipping iCode since result will be rematerialized
                                    228 ;	Raw cost for generated ic 31 : (0, 0.000000) count=1.000000
                                    229 ;	genPointerGet
                                    230 ;	genDataPointerGet
      000099 ADr07r00         [ 4]  231 	lda	(___fs2ulong_fl1_10000_21 + 3)
      00009C 85*03            [ 3]  232 	sta	*(___fs2ulong_sloc0_1_0 + 3)
      00009E ADr06r00         [ 4]  233 	lda	(___fs2ulong_fl1_10000_21 + 2)
      0000A1 85*02            [ 3]  234 	sta	*(___fs2ulong_sloc0_1_0 + 2)
      0000A3 ADr05r00         [ 4]  235 	lda	(___fs2ulong_fl1_10000_21 + 1)
      0000A6 85*01            [ 3]  236 	sta	*(___fs2ulong_sloc0_1_0 + 1)
      0000A8 ADr04r00         [ 4]  237 	lda	___fs2ulong_fl1_10000_21
      0000AB 85*00            [ 3]  238 	sta	*___fs2ulong_sloc0_1_0
                                    239 ;	Raw cost for generated ic 33 : (20, 28.000000) count=1.000000
                                    240 ;	genAnd
      0000AD 86*03            [ 3]  241 	stx	*(___fs2ulong_sloc0_1_0 + 3)
                                    242 ;	Raw cost for generated ic 34 : (2, 3.000000) count=1.000000
                                    243 ;	genOr
      0000AF A5*02            [ 3]  244 	lda	*(___fs2ulong_sloc0_1_0 + 2)
      0000B1 09 80            [ 2]  245 	ora	#0x80
      0000B3 85*02            [ 3]  246 	sta	*(___fs2ulong_sloc0_1_0 + 2)
                                    247 ;	Raw cost for generated ic 35 : (6, 8.000000) count=1.000000
                                    248 ;	genAssign
                                    249 ;	genCopy
      0000B5 A5*03            [ 3]  250 	lda	*(___fs2ulong_sloc0_1_0 + 3)
      0000B7 8Dr0Dr00         [ 4]  251 	sta	(___fs2ulong_l_10000_21 + 3)
      0000BA A5*02            [ 3]  252 	lda	*(___fs2ulong_sloc0_1_0 + 2)
      0000BC 8Dr0Cr00         [ 4]  253 	sta	(___fs2ulong_l_10000_21 + 2)
      0000BF A5*01            [ 3]  254 	lda	*(___fs2ulong_sloc0_1_0 + 1)
      0000C1 8Dr0Br00         [ 4]  255 	sta	(___fs2ulong_l_10000_21 + 1)
      0000C4 A5*00            [ 3]  256 	lda	*___fs2ulong_sloc0_1_0
      0000C6 8Dr0Ar00         [ 4]  257 	sta	___fs2ulong_l_10000_21
                                    258 ;	Raw cost for generated ic 36 : (20, 28.000000) count=1.000000
                                    259 ;	../_fs2ulong.c: 117: if (exp > 8)
                                    260 ;	genCmp
      0000C9 A9 08            [ 2]  261 	lda	#0x08
      0000CB 38               [ 2]  262 	sec
      0000CC EDr08r00         [ 5]  263 	sbc	___fs2ulong_exp_10000_21
      0000CF 8A               [ 2]  264 	txa
      0000D0 EDr09r00         [ 5]  265 	sbc	(___fs2ulong_exp_10000_21 + 1)
      0000D3 50 04            [ 4]  266 	bvc	00134$
      0000D5 10 04            [ 4]  267 	bpl	00133$
      0000D7 30 0A            [ 4]  268 	bmi	00105$
      0000D9                        269 00134$:
      0000D9 10 08            [ 4]  270 	bpl	00105$
      0000DB                        271 00133$:
                                    272 ;	Raw cost for generated ic 37 : (21, 27.400002) count=1.000000
                                    273 ;	skipping generated iCode
                                    274 ;	Raw cost for generated ic 38 : (0, 0.000000) count=1.000000
                                    275 ;	../_fs2ulong.c: 118: return 0xfffffffful;
                                    276 ;	genRet
      0000DB A9 FF            [ 2]  277 	lda	#0xff
      0000DD AA               [ 2]  278 	tax
      0000DE 85*00            [ 3]  279 	sta	*___SDCC_m6502_ret2
      0000E0 85*00            [ 3]  280 	sta	*___SDCC_m6502_ret3
      0000E2 60               [ 6]  281 	rts
                                    282 ;	Raw cost for generated ic 41 : (10, 13.000000) count=0.750000
                                    283 ;	genLabel
      0000E3                        284 00105$:
                                    285 ;	Raw cost for generated ic 42 : (0, 0.000000) count=1.000000
                                    286 ;	../_fs2ulong.c: 120: if (exp < 0)
                                    287 ;	genCmp
      0000E3 2Cr09r00         [ 4]  288 	bit	(___fs2ulong_exp_10000_21 + 1)
      0000E6 10 21            [ 4]  289 	bpl	00107$
                                    290 ;	Raw cost for generated ic 43 : (8, 9.600000) count=1.000000
                                    291 ;	skipping generated iCode
                                    292 ;	Raw cost for generated ic 44 : (0, 0.000000) count=1.000000
                                    293 ;	../_fs2ulong.c: 121: l >>= -exp;
                                    294 ;	genCast
                                    295 ;	genCopy
      0000E8 ADr08r00         [ 4]  296 	lda	___fs2ulong_exp_10000_21
                                    297 ;	Raw cost for generated ic 59 : (3, 4.000000) count=0.750000
                                    298 ;	genUminus
      0000EB 49 FF            [ 2]  299 	eor	#0xff
      0000ED 18               [ 2]  300 	clc
      0000EE 69 01            [ 3]  301 	adc	#0x01
                                    302 ;	Raw cost for generated ic 47 : (5, 6.000000) count=0.750000
                                    303 ;	genRightShift
      0000F0 A8               [ 2]  304 	tay
      0000F1 F0 40            [ 4]  305 	beq	00108$
      0000F3 ADr0Dr00         [ 4]  306 	lda	(___fs2ulong_l_10000_21 + 3)
      0000F6                        307 00137$:
      0000F6 4A               [ 2]  308 	lsr	a
      0000F7 6Er0Cr00         [ 6]  309 	ror	(___fs2ulong_l_10000_21 + 2)
      0000FA 6Er0Br00         [ 6]  310 	ror	(___fs2ulong_l_10000_21 + 1)
      0000FD 6Er0Ar00         [ 6]  311 	ror	___fs2ulong_l_10000_21
      000100 88               [ 2]  312 	dey
      000101 D0 F3            [ 4]  313 	bne	00137$
      000103 8Dr0Dr00         [ 4]  314 	sta	(___fs2ulong_l_10000_21 + 3)
                                    315 ;	Raw cost for generated ic 48 : (22, 37.200001) count=0.750000
                                    316 ;	genGoto
      000106 4Cr33r01         [ 3]  317 	jmp	00108$
                                    318 ;	Raw cost for generated ic 50 : (3, 3.000000) count=0.750000
                                    319 ;	genLabel
      000109                        320 00107$:
                                    321 ;	Raw cost for generated ic 51 : (0, 0.000000) count=0.250000
                                    322 ;	../_fs2ulong.c: 123: l <<= exp;
                                    323 ;	genLeftShift
      000109 ACr08r00         [ 4]  324 	ldy	___fs2ulong_exp_10000_21
      00010C A5*00            [ 3]  325 	lda	*___fs2ulong_sloc0_1_0
      00010E 8Dr0Ar00         [ 4]  326 	sta	___fs2ulong_l_10000_21
      000111 A5*01            [ 3]  327 	lda	*(___fs2ulong_sloc0_1_0 + 1)
      000113 8Dr0Br00         [ 4]  328 	sta	(___fs2ulong_l_10000_21 + 1)
      000116 A5*02            [ 3]  329 	lda	*(___fs2ulong_sloc0_1_0 + 2)
      000118 8Dr0Cr00         [ 4]  330 	sta	(___fs2ulong_l_10000_21 + 2)
      00011B A5*03            [ 3]  331 	lda	*(___fs2ulong_sloc0_1_0 + 3)
      00011D 8Dr0Dr00         [ 4]  332 	sta	(___fs2ulong_l_10000_21 + 3)
      000120 C0 00            [ 2]  333 	cpy	#0x00
      000122 F0 0F            [ 4]  334 	beq	00140$
      000124                        335 00139$:
      000124 0Er0Ar00         [ 6]  336 	asl	___fs2ulong_l_10000_21
      000127 2Er0Br00         [ 6]  337 	rol	(___fs2ulong_l_10000_21 + 1)
      00012A 2Er0Cr00         [ 6]  338 	rol	(___fs2ulong_l_10000_21 + 2)
      00012D 2Er0Dr00         [ 6]  339 	rol	(___fs2ulong_l_10000_21 + 3)
      000130 88               [ 2]  340 	dey
      000131 D0 F1            [ 4]  341 	bne	00139$
      000133                        342 00140$:
                                    343 ;	Raw cost for generated ic 52 : (42, 65.199997) count=0.250000
                                    344 ;	genLabel
      000133                        345 00108$:
                                    346 ;	Raw cost for generated ic 54 : (0, 0.000000) count=1.000000
                                    347 ;	../_fs2ulong.c: 125: return l;
                                    348 ;	genRet
      000133 ADr0Dr00         [ 4]  349 	lda	(___fs2ulong_l_10000_21 + 3)
      000136 85*00            [ 3]  350 	sta	*___SDCC_m6502_ret3
      000138 ADr0Cr00         [ 4]  351 	lda	(___fs2ulong_l_10000_21 + 2)
      00013B 85*00            [ 3]  352 	sta	*___SDCC_m6502_ret2
      00013D AEr0Br00         [ 4]  353 	ldx	(___fs2ulong_l_10000_21 + 1)
      000140 ADr0Ar00         [ 4]  354 	lda	___fs2ulong_l_10000_21
                                    355 ;	Raw cost for generated ic 55 : (16, 22.000000) count=1.000000
                                    356 ;	genLabel
                                    357 ;	Raw cost for generated ic 56 : (0, 0.000000) count=1.000000
                                    358 ;	../_fs2ulong.c: 126: }
                                    359 ;	genEndFunction
      000143 60               [ 6]  360 	rts
                                    361 ;	Raw cost for generated ic 57 : (1, 6.000000) count=1.000000
                                    362 	.area CODE
                                    363 	.area RODATA
                                    364 	.area XINIT
                                    365 	.area CABS    (ABS)
