                                      1 ;--------------------------------------------------------
                                      2 ; File Created by SDCC : free open source ISO C Compiler
                                      3 ; Version 4.5.10 #15691 (Linux)
                                      4 ;--------------------------------------------------------
                                      5 	.module _fsadd
                                      6 	
      000000                          7 	.r65c02
                                      8 	.optsdcc -mmos65c02
                                      9 
                                     10 ;--------------------------------------------------------
                                     11 ;  Ordering of segments for the linker.
                                     12 ;--------------------------------------------------------
                                     13 	.area ZP      (PAG)
                                     14 	.area OSEG    (PAG, OVR)
                                     15 	.area _CODE
                                     16 	.area GSINIT
                                     17 	.area GSFINAL
                                     18 	.area CODE
                                     19 	.area RODATA
                                     20 	.area XINIT
                                     21 	.area _DATA
                                     22 	.area DATA
                                     23 	.area BSS
                                     24 ;--------------------------------------------------------
                                     25 ; Public variables in this module
                                     26 ;--------------------------------------------------------
                                     27 	.globl ___fsadd_PARM_2
                                     28 	.globl ___fsadd_PARM_1
                                     29 	.globl ___fsadd
                                     30 ;--------------------------------------------------------
                                     31 ; ZP ram data
                                     32 ;--------------------------------------------------------
                                     33 	.area ZP      (PAG)
                                     34 ;--------------------------------------------------------
                                     35 ; overlayable items in ram
                                     36 ;--------------------------------------------------------
                                     37 	.area	OSEG    (PAG, OVR)
      000000                         38 ___fsadd_sloc0_1_0:
      000000                         39 	.ds 4
      000004                         40 ___fsadd_sloc1_1_0:
      000004                         41 	.ds 4
      000008                         42 ___fsadd_sloc2_1_0:
      000008                         43 	.ds 4
      00000C                         44 ___fsadd_sloc3_1_0:
      00000C                         45 	.ds 4
                                     46 ;--------------------------------------------------------
                                     47 ; uninitialized external ram data
                                     48 ;--------------------------------------------------------
                                     49 	.area BSS
      000000                         50 ___fsadd_PARM_1:
      000000                         51 	.ds 4
      000004                         52 ___fsadd_PARM_2:
      000004                         53 	.ds 4
      000008                         54 ___fsadd_mant1_10000_21:
      000008                         55 	.ds 4
      00000C                         56 ___fsadd_mant2_10000_21:
      00000C                         57 	.ds 4
      000010                         58 ___fsadd_exp1_10000_21:
      000010                         59 	.ds 2
      000012                         60 ___fsadd_exp2_10000_21:
      000012                         61 	.ds 2
      000014                         62 ___fsadd_expd_10000_21:
      000014                         63 	.ds 2
                                     64 ;--------------------------------------------------------
                                     65 ; absolute external ram data
                                     66 ;--------------------------------------------------------
                                     67 	.area DABS    (ABS)
                                     68 ;--------------------------------------------------------
                                     69 ; initialized external ram data
                                     70 ;--------------------------------------------------------
                                     71 	.area DATA
                                     72 ;--------------------------------------------------------
                                     73 ; global & static initialisations
                                     74 ;--------------------------------------------------------
                                     75 	.area _CODE
                                     76 	.area GSINIT
                                     77 	.area GSFINAL
                                     78 	.area GSINIT
                                     79 ;--------------------------------------------------------
                                     80 ; Home
                                     81 ;--------------------------------------------------------
                                     82 	.area _CODE
                                     83 	.area _CODE
                                     84 ;--------------------------------------------------------
                                     85 ; code
                                     86 ;--------------------------------------------------------
                                     87 	.area CODE
                                     88 ;------------------------------------------------------------
                                     89 ;Allocation info for local variables in function '__fsadd'
                                     90 ;------------------------------------------------------------
                                     91 ;a1            Allocated with name '___fsadd_PARM_1'
                                     92 ;a2            Allocated with name '___fsadd_PARM_2'
                                     93 ;mant1         Allocated with name '___fsadd_mant1_10000_21'
                                     94 ;mant2         Allocated with name '___fsadd_mant2_10000_21'
                                     95 ;pfl1          Allocated to registers 
                                     96 ;pfl2          Allocated to registers 
                                     97 ;exp1          Allocated with name '___fsadd_exp1_10000_21'
                                     98 ;exp2          Allocated with name '___fsadd_exp2_10000_21'
                                     99 ;expd          Allocated with name '___fsadd_expd_10000_21'
                                    100 ;sign          Allocated to registers x 
                                    101 ;sloc0         Allocated with name '___fsadd_sloc0_1_0'
                                    102 ;sloc1         Allocated with name '___fsadd_sloc1_1_0'
                                    103 ;sloc2         Allocated with name '___fsadd_sloc2_1_0'
                                    104 ;sloc3         Allocated with name '___fsadd_sloc3_1_0'
                                    105 ;------------------------------------------------------------
                                    106 ;	../_fsadd.c: 170: float __fsadd (float a1, float a2) __SDCC_FLOAT_NONBANKED
                                    107 ;	genLabel
                                    108 ;	Raw cost for generated ic 0 : (0, 0.000000) count=1.000000
                                    109 ;	-----------------------------------------
                                    110 ;	 function __fsadd
                                    111 ;	-----------------------------------------
                                    112 ;	Register assignment is optimal.
                                    113 ;	Stack space usage: 0 bytes.
      000000                        114 ___fsadd:
                                    115 ;	Raw cost for generated ic 1 : (0, 0.000000) count=1.000000
                                    116 ;	../_fsadd.c: 178: pfl2 = (long _AUTOMEM *)&a2;
                                    117 ;	skipping iCode since result will be rematerialized
                                    118 ;	Raw cost for generated ic 3 : (0, 0.000000) count=1.000000
                                    119 ;	skipping iCode since result will be rematerialized
                                    120 ;	Raw cost for generated ic 4 : (0, 0.000000) count=1.000000
                                    121 ;	../_fsadd.c: 179: exp2 = EXP (*pfl2);
                                    122 ;	genPointerGet
                                    123 ;	genDataPointerGet
      000000 ADr07r00         [ 4]  124 	lda	(___fsadd_PARM_2 + 3)
      000003 85*03            [ 3]  125 	sta	*(___fsadd_sloc0_1_0 + 3)
      000005 ADr06r00         [ 4]  126 	lda	(___fsadd_PARM_2 + 2)
      000008 85*02            [ 3]  127 	sta	*(___fsadd_sloc0_1_0 + 2)
      00000A ADr05r00         [ 4]  128 	lda	(___fsadd_PARM_2 + 1)
      00000D 85*01            [ 3]  129 	sta	*(___fsadd_sloc0_1_0 + 1)
      00000F ADr04r00         [ 4]  130 	lda	___fsadd_PARM_2
      000012 85*00            [ 3]  131 	sta	*___fsadd_sloc0_1_0
                                    132 ;	Raw cost for generated ic 7 : (20, 28.000000) count=1.000000
                                    133 ;	genCast
                                    134 ;	genCopy
      000014 A5*03            [ 3]  135 	lda	*(___fsadd_sloc0_1_0 + 3)
      000016 85*07            [ 3]  136 	sta	*(___fsadd_sloc1_1_0 + 3)
      000018 A5*02            [ 3]  137 	lda	*(___fsadd_sloc0_1_0 + 2)
      00001A 85*06            [ 3]  138 	sta	*(___fsadd_sloc1_1_0 + 2)
      00001C A5*01            [ 3]  139 	lda	*(___fsadd_sloc0_1_0 + 1)
      00001E 85*05            [ 3]  140 	sta	*(___fsadd_sloc1_1_0 + 1)
      000020 A5*00            [ 3]  141 	lda	*___fsadd_sloc0_1_0
      000022 85*04            [ 3]  142 	sta	*___fsadd_sloc1_1_0
                                    143 ;	Raw cost for generated ic 8 : (16, 24.000000) count=1.000000
                                    144 ;	genRightShift
                                    145 ;	genRightShiftLiteral
                                    146 ;	  genrsh32 - shift=23
      000024 A5*06            [ 3]  147 	lda	*(___fsadd_sloc1_1_0 + 2)
      000026 2A               [ 2]  148 	rol	a
      000027 A5*07            [ 3]  149 	lda	*(___fsadd_sloc1_1_0 + 3)
      000029 2A               [ 2]  150 	rol	a
      00002A 85*08            [ 3]  151 	sta	*___fsadd_sloc2_1_0
      00002C A9 00            [ 2]  152 	lda	#0x00
      00002E 85*0A            [ 3]  153 	sta	*(___fsadd_sloc2_1_0 + 2)
      000030 85*0B            [ 3]  154 	sta	*(___fsadd_sloc2_1_0 + 3)
      000032 2A               [ 2]  155 	rol	a
      000033 85*09            [ 3]  156 	sta	*(___fsadd_sloc2_1_0 + 1)
                                    157 ;	Raw cost for generated ic 9 : (17, 26.000000) count=1.000000
                                    158 ;	genCast
                                    159 ;	genCopy
      000035 AA               [ 2]  160 	tax
      000036 A5*08            [ 3]  161 	lda	*___fsadd_sloc2_1_0
                                    162 ;	Raw cost for generated ic 194 : (3, 5.000000) count=1.000000
                                    163 ;	genAnd
      000038 8Dr12r00         [ 4]  164 	sta	___fsadd_exp2_10000_21
      00003B 9Cr13r00         [ 4]  165 	stz	(___fsadd_exp2_10000_21 + 1)
                                    166 ;	Raw cost for generated ic 10 : (6, 8.000000) count=1.000000
                                    167 ;	../_fsadd.c: 180: mant2 = MANT (*pfl2) << 4;
                                    168 ;	genAnd
      00003E A5*00            [ 3]  169 	lda	*___fsadd_sloc0_1_0
      000040 85*08            [ 3]  170 	sta	*___fsadd_sloc2_1_0
      000042 A5*01            [ 3]  171 	lda	*(___fsadd_sloc0_1_0 + 1)
      000044 85*09            [ 3]  172 	sta	*(___fsadd_sloc2_1_0 + 1)
      000046 A5*02            [ 3]  173 	lda	*(___fsadd_sloc0_1_0 + 2)
      000048 85*0A            [ 3]  174 	sta	*(___fsadd_sloc2_1_0 + 2)
      00004A 64*0B            [ 3]  175 	stz	*(___fsadd_sloc2_1_0 + 3)
                                    176 ;	Raw cost for generated ic 15 : (15, 22.000000) count=1.000000
                                    177 ;	genOr
      00004C A5*0A            [ 3]  178 	lda	*(___fsadd_sloc2_1_0 + 2)
      00004E 09 80            [ 2]  179 	ora	#0x80
      000050 85*0A            [ 3]  180 	sta	*(___fsadd_sloc2_1_0 + 2)
                                    181 ;	Raw cost for generated ic 16 : (6, 8.000000) count=1.000000
                                    182 ;	genLeftShift
                                    183 ;	genLeftShiftLiteral
                                    184 ;	  genlsh32 - shift=4
      000052 A5*0B            [ 3]  185 	lda	*(___fsadd_sloc2_1_0 + 3)
      000054 06*08            [ 5]  186 	asl	*___fsadd_sloc2_1_0
      000056 26*09            [ 5]  187 	rol	*(___fsadd_sloc2_1_0 + 1)
      000058 26*0A            [ 5]  188 	rol	*(___fsadd_sloc2_1_0 + 2)
      00005A 2A               [ 2]  189 	rol	a
      00005B 06*08            [ 5]  190 	asl	*___fsadd_sloc2_1_0
      00005D 26*09            [ 5]  191 	rol	*(___fsadd_sloc2_1_0 + 1)
      00005F 26*0A            [ 5]  192 	rol	*(___fsadd_sloc2_1_0 + 2)
      000061 2A               [ 2]  193 	rol	a
      000062 06*08            [ 5]  194 	asl	*___fsadd_sloc2_1_0
      000064 26*09            [ 5]  195 	rol	*(___fsadd_sloc2_1_0 + 1)
      000066 26*0A            [ 5]  196 	rol	*(___fsadd_sloc2_1_0 + 2)
      000068 2A               [ 2]  197 	rol	a
      000069 06*08            [ 5]  198 	asl	*___fsadd_sloc2_1_0
      00006B 26*09            [ 5]  199 	rol	*(___fsadd_sloc2_1_0 + 1)
      00006D 26*0A            [ 5]  200 	rol	*(___fsadd_sloc2_1_0 + 2)
      00006F 2A               [ 2]  201 	rol	a
      000070 85*0B            [ 3]  202 	sta	*(___fsadd_sloc2_1_0 + 3)
                                    203 ;	Raw cost for generated ic 17 : (32, 74.000000) count=1.000000
                                    204 ;	genAssign
                                    205 ;	genCopy
      000072 8Dr0Fr00         [ 4]  206 	sta	(___fsadd_mant2_10000_21 + 3)
      000075 A5*0A            [ 3]  207 	lda	*(___fsadd_sloc2_1_0 + 2)
      000077 8Dr0Er00         [ 4]  208 	sta	(___fsadd_mant2_10000_21 + 2)
      00007A A5*09            [ 3]  209 	lda	*(___fsadd_sloc2_1_0 + 1)
      00007C 8Dr0Dr00         [ 4]  210 	sta	(___fsadd_mant2_10000_21 + 1)
      00007F A5*08            [ 3]  211 	lda	*___fsadd_sloc2_1_0
      000081 8Dr0Cr00         [ 4]  212 	sta	___fsadd_mant2_10000_21
                                    213 ;	Raw cost for generated ic 18 : (18, 25.000000) count=1.000000
                                    214 ;	../_fsadd.c: 181: if (SIGN (*pfl2))
                                    215 ;	genRightShift
                                    216 ;	genRightShiftLiteral
                                    217 ;	  genrsh32 - shift=31
      000084 A5*07            [ 3]  218 	lda	*(___fsadd_sloc1_1_0 + 3)
      000086 0A               [ 2]  219 	asl	a
      000087 A9 00            [ 2]  220 	lda	#0x00
      000089 85*07            [ 3]  221 	sta	*(___fsadd_sloc1_1_0 + 3)
      00008B 85*06            [ 3]  222 	sta	*(___fsadd_sloc1_1_0 + 2)
      00008D 85*05            [ 3]  223 	sta	*(___fsadd_sloc1_1_0 + 1)
      00008F 2A               [ 2]  224 	rol	a
      000090 85*04            [ 3]  225 	sta	*___fsadd_sloc1_1_0
                                    226 ;	Raw cost for generated ic 22 : (14, 21.000000) count=1.000000
                                    227 ;	genAnd
      000092 29 01            [ 2]  228 	and	#0x01
                                    229 ;	genIfxJump : z
      000094 F0 1D            [ 4]  230 	beq	00102$
                                    231 ;	Raw cost for generated ic 23 : (9, 10.200000) count=1.000000
                                    232 ;	skipping generated iCode
                                    233 ;	Raw cost for generated ic 24 : (0, 0.000000) count=1.000000
                                    234 ;	../_fsadd.c: 182: mant2 = -mant2;
                                    235 ;	genUminus
      000096 A9 00            [ 2]  236 	lda	#0x00
      000098 38               [ 2]  237 	sec
      000099 E5*08            [ 4]  238 	sbc	*___fsadd_sloc2_1_0
      00009B 8Dr0Cr00         [ 4]  239 	sta	___fsadd_mant2_10000_21
      00009E A9 00            [ 2]  240 	lda	#0x00
      0000A0 E5*09            [ 4]  241 	sbc	*(___fsadd_sloc2_1_0 + 1)
      0000A2 8Dr0Dr00         [ 4]  242 	sta	(___fsadd_mant2_10000_21 + 1)
      0000A5 A9 00            [ 2]  243 	lda	#0x00
      0000A7 E5*0A            [ 4]  244 	sbc	*(___fsadd_sloc2_1_0 + 2)
      0000A9 8Dr0Er00         [ 4]  245 	sta	(___fsadd_mant2_10000_21 + 2)
      0000AC A9 00            [ 2]  246 	lda	#0x00
      0000AE E5*0B            [ 4]  247 	sbc	*(___fsadd_sloc2_1_0 + 3)
      0000B0 8Dr0Fr00         [ 4]  248 	sta	(___fsadd_mant2_10000_21 + 3)
                                    249 ;	Raw cost for generated ic 27 : (29, 38.000000) count=0.750000
                                    250 ;	genLabel
      0000B3                        251 00102$:
                                    252 ;	Raw cost for generated ic 29 : (0, 0.000000) count=1.000000
                                    253 ;	../_fsadd.c: 184: if (!*pfl2)
                                    254 ;	genIfx
      0000B3 A5*03            [ 3]  255 	lda	*(___fsadd_sloc0_1_0 + 3)
      0000B5 05*02            [ 3]  256 	ora	*(___fsadd_sloc0_1_0 + 2)
      0000B7 05*01            [ 3]  257 	ora	*(___fsadd_sloc0_1_0 + 1)
      0000B9 05*00            [ 3]  258 	ora	*___fsadd_sloc0_1_0
                                    259 ;	genIfxJump : z
      0000BB D0 11            [ 4]  260 	bne	00104$
                                    261 ;	Raw cost for generated ic 32 : (13, 17.600000) count=1.000000
                                    262 ;	../_fsadd.c: 185: return (a1);
                                    263 ;	genRet
      0000BD ADr03r00         [ 4]  264 	lda	(___fsadd_PARM_1 + 3)
      0000C0 85*00            [ 3]  265 	sta	*___SDCC_m6502_ret3
      0000C2 ADr02r00         [ 4]  266 	lda	(___fsadd_PARM_1 + 2)
      0000C5 85*00            [ 3]  267 	sta	*___SDCC_m6502_ret2
      0000C7 AEr01r00         [ 4]  268 	ldx	(___fsadd_PARM_1 + 1)
      0000CA ADr00r00         [ 4]  269 	lda	___fsadd_PARM_1
      0000CD 60               [ 6]  270 	rts
                                    271 ;	Raw cost for generated ic 35 : (19, 25.000000) count=0.750000
                                    272 ;	genLabel
      0000CE                        273 00104$:
                                    274 ;	Raw cost for generated ic 36 : (0, 0.000000) count=1.000000
                                    275 ;	../_fsadd.c: 187: pfl1 = (long _AUTOMEM *)&a1;
                                    276 ;	skipping iCode since result will be rematerialized
                                    277 ;	Raw cost for generated ic 37 : (0, 0.000000) count=1.000000
                                    278 ;	skipping iCode since result will be rematerialized
                                    279 ;	Raw cost for generated ic 38 : (0, 0.000000) count=1.000000
                                    280 ;	../_fsadd.c: 188: exp1 = EXP (*pfl1);
                                    281 ;	genPointerGet
                                    282 ;	genDataPointerGet
      0000CE ADr03r00         [ 4]  283 	lda	(___fsadd_PARM_1 + 3)
      0000D1 85*0B            [ 3]  284 	sta	*(___fsadd_sloc2_1_0 + 3)
      0000D3 ADr02r00         [ 4]  285 	lda	(___fsadd_PARM_1 + 2)
      0000D6 85*0A            [ 3]  286 	sta	*(___fsadd_sloc2_1_0 + 2)
      0000D8 ADr01r00         [ 4]  287 	lda	(___fsadd_PARM_1 + 1)
      0000DB 85*09            [ 3]  288 	sta	*(___fsadd_sloc2_1_0 + 1)
      0000DD ADr00r00         [ 4]  289 	lda	___fsadd_PARM_1
      0000E0 85*08            [ 3]  290 	sta	*___fsadd_sloc2_1_0
                                    291 ;	Raw cost for generated ic 41 : (20, 28.000000) count=1.000000
                                    292 ;	genCast
                                    293 ;	genCopy
      0000E2 A5*0B            [ 3]  294 	lda	*(___fsadd_sloc2_1_0 + 3)
      0000E4 85*07            [ 3]  295 	sta	*(___fsadd_sloc1_1_0 + 3)
      0000E6 A5*0A            [ 3]  296 	lda	*(___fsadd_sloc2_1_0 + 2)
      0000E8 85*06            [ 3]  297 	sta	*(___fsadd_sloc1_1_0 + 2)
      0000EA A5*09            [ 3]  298 	lda	*(___fsadd_sloc2_1_0 + 1)
      0000EC 85*05            [ 3]  299 	sta	*(___fsadd_sloc1_1_0 + 1)
      0000EE A5*08            [ 3]  300 	lda	*___fsadd_sloc2_1_0
      0000F0 85*04            [ 3]  301 	sta	*___fsadd_sloc1_1_0
                                    302 ;	Raw cost for generated ic 42 : (16, 24.000000) count=1.000000
                                    303 ;	genRightShift
                                    304 ;	genRightShiftLiteral
                                    305 ;	  genrsh32 - shift=23
      0000F2 A5*06            [ 3]  306 	lda	*(___fsadd_sloc1_1_0 + 2)
      0000F4 2A               [ 2]  307 	rol	a
      0000F5 A5*07            [ 3]  308 	lda	*(___fsadd_sloc1_1_0 + 3)
      0000F7 2A               [ 2]  309 	rol	a
      0000F8 85*00            [ 3]  310 	sta	*___fsadd_sloc0_1_0
      0000FA A9 00            [ 2]  311 	lda	#0x00
      0000FC 85*02            [ 3]  312 	sta	*(___fsadd_sloc0_1_0 + 2)
      0000FE 85*03            [ 3]  313 	sta	*(___fsadd_sloc0_1_0 + 3)
      000100 2A               [ 2]  314 	rol	a
      000101 85*01            [ 3]  315 	sta	*(___fsadd_sloc0_1_0 + 1)
                                    316 ;	Raw cost for generated ic 43 : (17, 26.000000) count=1.000000
                                    317 ;	genCast
                                    318 ;	genCopy
      000103 AA               [ 2]  319 	tax
                                    320 ;	Raw cost for generated ic 195 : (3, 5.000000) count=1.000000
                                    321 ;	genAnd
                                    322 ;	Raw cost for generated ic 44 : (5, 7.000000) count=1.000000
                                    323 ;	../_fsadd.c: 189: mant1 = MANT (*pfl1) << 4;
                                    324 ;	genAnd
      000104 64*01            [ 3]  325 	stz	*(___fsadd_sloc0_1_0 + 1)
      000106 A5*08            [ 3]  326 	lda	*___fsadd_sloc2_1_0
      000108 85*0C            [ 3]  327 	sta	*___fsadd_sloc3_1_0
      00010A A5*09            [ 3]  328 	lda	*(___fsadd_sloc2_1_0 + 1)
      00010C 85*0D            [ 3]  329 	sta	*(___fsadd_sloc3_1_0 + 1)
      00010E A5*0A            [ 3]  330 	lda	*(___fsadd_sloc2_1_0 + 2)
      000110 85*0E            [ 3]  331 	sta	*(___fsadd_sloc3_1_0 + 2)
      000112 64*0F            [ 3]  332 	stz	*(___fsadd_sloc3_1_0 + 3)
                                    333 ;	Raw cost for generated ic 49 : (15, 22.000000) count=1.000000
                                    334 ;	genOr
      000114 A5*0E            [ 3]  335 	lda	*(___fsadd_sloc3_1_0 + 2)
      000116 09 80            [ 2]  336 	ora	#0x80
      000118 85*0E            [ 3]  337 	sta	*(___fsadd_sloc3_1_0 + 2)
                                    338 ;	Raw cost for generated ic 50 : (6, 8.000000) count=1.000000
                                    339 ;	genLeftShift
                                    340 ;	genLeftShiftLiteral
                                    341 ;	  genlsh32 - shift=4
      00011A A5*0F            [ 3]  342 	lda	*(___fsadd_sloc3_1_0 + 3)
      00011C 06*0C            [ 5]  343 	asl	*___fsadd_sloc3_1_0
      00011E 26*0D            [ 5]  344 	rol	*(___fsadd_sloc3_1_0 + 1)
      000120 26*0E            [ 5]  345 	rol	*(___fsadd_sloc3_1_0 + 2)
      000122 2A               [ 2]  346 	rol	a
      000123 06*0C            [ 5]  347 	asl	*___fsadd_sloc3_1_0
      000125 26*0D            [ 5]  348 	rol	*(___fsadd_sloc3_1_0 + 1)
      000127 26*0E            [ 5]  349 	rol	*(___fsadd_sloc3_1_0 + 2)
      000129 2A               [ 2]  350 	rol	a
      00012A 06*0C            [ 5]  351 	asl	*___fsadd_sloc3_1_0
      00012C 26*0D            [ 5]  352 	rol	*(___fsadd_sloc3_1_0 + 1)
      00012E 26*0E            [ 5]  353 	rol	*(___fsadd_sloc3_1_0 + 2)
      000130 2A               [ 2]  354 	rol	a
      000131 06*0C            [ 5]  355 	asl	*___fsadd_sloc3_1_0
      000133 26*0D            [ 5]  356 	rol	*(___fsadd_sloc3_1_0 + 1)
      000135 26*0E            [ 5]  357 	rol	*(___fsadd_sloc3_1_0 + 2)
      000137 2A               [ 2]  358 	rol	a
      000138 85*0F            [ 3]  359 	sta	*(___fsadd_sloc3_1_0 + 3)
                                    360 ;	Raw cost for generated ic 51 : (32, 74.000000) count=1.000000
                                    361 ;	genAssign
                                    362 ;	genCopy
      00013A 8Dr0Br00         [ 4]  363 	sta	(___fsadd_mant1_10000_21 + 3)
      00013D A5*0E            [ 3]  364 	lda	*(___fsadd_sloc3_1_0 + 2)
      00013F 8Dr0Ar00         [ 4]  365 	sta	(___fsadd_mant1_10000_21 + 2)
      000142 A5*0D            [ 3]  366 	lda	*(___fsadd_sloc3_1_0 + 1)
      000144 8Dr09r00         [ 4]  367 	sta	(___fsadd_mant1_10000_21 + 1)
      000147 A5*0C            [ 3]  368 	lda	*___fsadd_sloc3_1_0
      000149 8Dr08r00         [ 4]  369 	sta	___fsadd_mant1_10000_21
                                    370 ;	Raw cost for generated ic 52 : (18, 25.000000) count=1.000000
                                    371 ;	../_fsadd.c: 190: if (SIGN(*pfl1))
                                    372 ;	genRightShift
                                    373 ;	genRightShiftLiteral
                                    374 ;	  genrsh32 - shift=31
      00014C A5*07            [ 3]  375 	lda	*(___fsadd_sloc1_1_0 + 3)
      00014E 0A               [ 2]  376 	asl	a
      00014F A9 00            [ 2]  377 	lda	#0x00
      000151 85*07            [ 3]  378 	sta	*(___fsadd_sloc1_1_0 + 3)
      000153 85*06            [ 3]  379 	sta	*(___fsadd_sloc1_1_0 + 2)
      000155 85*05            [ 3]  380 	sta	*(___fsadd_sloc1_1_0 + 1)
      000157 2A               [ 2]  381 	rol	a
      000158 85*04            [ 3]  382 	sta	*___fsadd_sloc1_1_0
                                    383 ;	Raw cost for generated ic 56 : (14, 21.000000) count=1.000000
                                    384 ;	genAnd
      00015A 29 01            [ 2]  385 	and	#0x01
                                    386 ;	genIfxJump : z
      00015C F0 1D            [ 4]  387 	beq	00106$
                                    388 ;	Raw cost for generated ic 57 : (9, 10.200000) count=1.000000
                                    389 ;	skipping generated iCode
                                    390 ;	Raw cost for generated ic 58 : (0, 0.000000) count=1.000000
                                    391 ;	../_fsadd.c: 191: mant1 = -mant1;
                                    392 ;	genUminus
      00015E A9 00            [ 2]  393 	lda	#0x00
      000160 38               [ 2]  394 	sec
      000161 E5*0C            [ 4]  395 	sbc	*___fsadd_sloc3_1_0
      000163 8Dr08r00         [ 4]  396 	sta	___fsadd_mant1_10000_21
      000166 A9 00            [ 2]  397 	lda	#0x00
      000168 E5*0D            [ 4]  398 	sbc	*(___fsadd_sloc3_1_0 + 1)
      00016A 8Dr09r00         [ 4]  399 	sta	(___fsadd_mant1_10000_21 + 1)
      00016D A9 00            [ 2]  400 	lda	#0x00
      00016F E5*0E            [ 4]  401 	sbc	*(___fsadd_sloc3_1_0 + 2)
      000171 8Dr0Ar00         [ 4]  402 	sta	(___fsadd_mant1_10000_21 + 2)
      000174 A9 00            [ 2]  403 	lda	#0x00
      000176 E5*0F            [ 4]  404 	sbc	*(___fsadd_sloc3_1_0 + 3)
      000178 8Dr0Br00         [ 4]  405 	sta	(___fsadd_mant1_10000_21 + 3)
                                    406 ;	Raw cost for generated ic 61 : (29, 38.000000) count=0.750000
                                    407 ;	genLabel
      00017B                        408 00106$:
                                    409 ;	Raw cost for generated ic 63 : (0, 0.000000) count=1.000000
                                    410 ;	../_fsadd.c: 193: if (!*pfl1)
                                    411 ;	genIfx
      00017B A5*0B            [ 3]  412 	lda	*(___fsadd_sloc2_1_0 + 3)
      00017D 05*0A            [ 3]  413 	ora	*(___fsadd_sloc2_1_0 + 2)
      00017F 05*09            [ 3]  414 	ora	*(___fsadd_sloc2_1_0 + 1)
      000181 05*08            [ 3]  415 	ora	*___fsadd_sloc2_1_0
                                    416 ;	genIfxJump : z
      000183 D0 11            [ 4]  417 	bne	00108$
                                    418 ;	Raw cost for generated ic 66 : (13, 17.600000) count=1.000000
                                    419 ;	../_fsadd.c: 194: return (a2);
                                    420 ;	genRet
      000185 ADr07r00         [ 4]  421 	lda	(___fsadd_PARM_2 + 3)
      000188 85*00            [ 3]  422 	sta	*___SDCC_m6502_ret3
      00018A ADr06r00         [ 4]  423 	lda	(___fsadd_PARM_2 + 2)
      00018D 85*00            [ 3]  424 	sta	*___SDCC_m6502_ret2
      00018F AEr05r00         [ 4]  425 	ldx	(___fsadd_PARM_2 + 1)
      000192 ADr04r00         [ 4]  426 	lda	___fsadd_PARM_2
      000195 60               [ 6]  427 	rts
                                    428 ;	Raw cost for generated ic 69 : (19, 25.000000) count=0.750000
                                    429 ;	genLabel
      000196                        430 00108$:
                                    431 ;	Raw cost for generated ic 70 : (0, 0.000000) count=1.000000
                                    432 ;	../_fsadd.c: 196: expd = exp1 - exp2;
                                    433 ;	genMinus
      000196 A5*00            [ 3]  434 	lda	*___fsadd_sloc0_1_0
      000198 38               [ 2]  435 	sec
      000199 EDr12r00         [ 5]  436 	sbc	___fsadd_exp2_10000_21
      00019C 8Dr14r00         [ 4]  437 	sta	___fsadd_expd_10000_21
      00019F A5*01            [ 3]  438 	lda	*(___fsadd_sloc0_1_0 + 1)
      0001A1 EDr13r00         [ 5]  439 	sbc	(___fsadd_exp2_10000_21 + 1)
      0001A4 8Dr15r00         [ 4]  440 	sta	(___fsadd_expd_10000_21 + 1)
                                    441 ;	Raw cost for generated ic 71 : (17, 24.000000) count=1.000000
                                    442 ;	../_fsadd.c: 197: if (expd > 25)
                                    443 ;	genCmp
      0001A7 A9 19            [ 2]  444 	lda	#0x19
      0001A9 38               [ 2]  445 	sec
      0001AA EDr14r00         [ 5]  446 	sbc	___fsadd_expd_10000_21
      0001AD A9 00            [ 2]  447 	lda	#0x00
      0001AF EDr15r00         [ 5]  448 	sbc	(___fsadd_expd_10000_21 + 1)
      0001B2 50 04            [ 4]  449 	bvc	00278$
      0001B4 10 04            [ 4]  450 	bpl	00277$
      0001B6 30 13            [ 4]  451 	bmi	00110$
      0001B8                        452 00278$:
      0001B8 10 11            [ 4]  453 	bpl	00110$
      0001BA                        454 00277$:
                                    455 ;	Raw cost for generated ic 73 : (22, 27.400002) count=1.000000
                                    456 ;	skipping generated iCode
                                    457 ;	Raw cost for generated ic 74 : (0, 0.000000) count=1.000000
                                    458 ;	../_fsadd.c: 198: return (a1);
                                    459 ;	genRet
      0001BA ADr03r00         [ 4]  460 	lda	(___fsadd_PARM_1 + 3)
      0001BD 85*00            [ 3]  461 	sta	*___SDCC_m6502_ret3
      0001BF ADr02r00         [ 4]  462 	lda	(___fsadd_PARM_1 + 2)
      0001C2 85*00            [ 3]  463 	sta	*___SDCC_m6502_ret2
      0001C4 AEr01r00         [ 4]  464 	ldx	(___fsadd_PARM_1 + 1)
      0001C7 ADr00r00         [ 4]  465 	lda	___fsadd_PARM_1
      0001CA 60               [ 6]  466 	rts
                                    467 ;	Raw cost for generated ic 77 : (19, 25.000000) count=0.750000
                                    468 ;	genLabel
      0001CB                        469 00110$:
                                    470 ;	Raw cost for generated ic 78 : (0, 0.000000) count=1.000000
                                    471 ;	../_fsadd.c: 199: if (expd < -25)
                                    472 ;	genCmp
      0001CB ADr14r00         [ 4]  473 	lda	___fsadd_expd_10000_21
      0001CE 38               [ 2]  474 	sec
      0001CF E9 E7            [ 3]  475 	sbc	#0xe7
      0001D1 ADr15r00         [ 4]  476 	lda	(___fsadd_expd_10000_21 + 1)
      0001D4 E9 FF            [ 3]  477 	sbc	#0xff
      0001D6 50 04            [ 4]  478 	bvc	00281$
      0001D8 10 04            [ 4]  479 	bpl	00280$
      0001DA 30 13            [ 4]  480 	bmi	00112$
      0001DC                        481 00281$:
      0001DC 10 11            [ 4]  482 	bpl	00112$
      0001DE                        483 00280$:
                                    484 ;	Raw cost for generated ic 79 : (22, 27.400002) count=1.000000
                                    485 ;	skipping generated iCode
                                    486 ;	Raw cost for generated ic 80 : (0, 0.000000) count=1.000000
                                    487 ;	../_fsadd.c: 200: return (a2);
                                    488 ;	genRet
      0001DE ADr07r00         [ 4]  489 	lda	(___fsadd_PARM_2 + 3)
      0001E1 85*00            [ 3]  490 	sta	*___SDCC_m6502_ret3
      0001E3 ADr06r00         [ 4]  491 	lda	(___fsadd_PARM_2 + 2)
      0001E6 85*00            [ 3]  492 	sta	*___SDCC_m6502_ret2
      0001E8 AEr05r00         [ 4]  493 	ldx	(___fsadd_PARM_2 + 1)
      0001EB ADr04r00         [ 4]  494 	lda	___fsadd_PARM_2
      0001EE 60               [ 6]  495 	rts
                                    496 ;	Raw cost for generated ic 83 : (19, 25.000000) count=0.750000
                                    497 ;	genLabel
      0001EF                        498 00112$:
                                    499 ;	Raw cost for generated ic 84 : (0, 0.000000) count=1.000000
                                    500 ;	../_fsadd.c: 202: if (expd < 0)
                                    501 ;	genCmp
      0001EF 2Cr15r00         [ 4]  502 	bit	(___fsadd_expd_10000_21 + 1)
      0001F2 10 3D            [ 4]  503 	bpl	00114$
                                    504 ;	Raw cost for generated ic 85 : (8, 9.600000) count=1.000000
                                    505 ;	skipping generated iCode
                                    506 ;	Raw cost for generated ic 86 : (0, 0.000000) count=1.000000
                                    507 ;	../_fsadd.c: 204: expd = -expd;
                                    508 ;	genUminus
      0001F4 A9 00            [ 2]  509 	lda	#0x00
      0001F6 38               [ 2]  510 	sec
      0001F7 EDr14r00         [ 5]  511 	sbc	___fsadd_expd_10000_21
      0001FA 8Dr14r00         [ 4]  512 	sta	___fsadd_expd_10000_21
      0001FD A9 00            [ 2]  513 	lda	#0x00
      0001FF EDr15r00         [ 5]  514 	sbc	(___fsadd_expd_10000_21 + 1)
      000202 8Dr15r00         [ 4]  515 	sta	(___fsadd_expd_10000_21 + 1)
                                    516 ;	Raw cost for generated ic 89 : (17, 22.000000) count=0.750000
                                    517 ;	../_fsadd.c: 205: exp1 += expd;
                                    518 ;	genPlus
      000205 A5*00            [ 3]  519 	lda	*___fsadd_sloc0_1_0
      000207 18               [ 2]  520 	clc
      000208 6Dr14r00         [ 5]  521 	adc	___fsadd_expd_10000_21
      00020B 85*00            [ 3]  522 	sta	*___fsadd_sloc0_1_0
      00020D A5*01            [ 3]  523 	lda	*(___fsadd_sloc0_1_0 + 1)
      00020F 6Dr15r00         [ 5]  524 	adc	(___fsadd_expd_10000_21 + 1)
      000212 85*01            [ 3]  525 	sta	*(___fsadd_sloc0_1_0 + 1)
                                    526 ;	Raw cost for generated ic 91 : (15, 22.000000) count=0.750000
                                    527 ;	../_fsadd.c: 206: mant1 >>= expd;
                                    528 ;	genRightShift
      000214 ACr14r00         [ 4]  529 	ldy	___fsadd_expd_10000_21
      000217 F0 32            [ 4]  530 	beq	00115$
      000219 ADr0Br00         [ 4]  531 	lda	(___fsadd_mant1_10000_21 + 3)
      00021C                        532 00284$:
      00021C C9 80            [ 2]  533 	cmp	#0x80
      00021E 6A               [ 2]  534 	ror	a
      00021F 6Er0Ar00         [ 6]  535 	ror	(___fsadd_mant1_10000_21 + 2)
      000222 6Er09r00         [ 6]  536 	ror	(___fsadd_mant1_10000_21 + 1)
      000225 6Er08r00         [ 6]  537 	ror	___fsadd_mant1_10000_21
      000228 88               [ 2]  538 	dey
      000229 D0 F1            [ 4]  539 	bne	00284$
      00022B 8Dr0Br00         [ 4]  540 	sta	(___fsadd_mant1_10000_21 + 3)
                                    541 ;	Raw cost for generated ic 93 : (26, 41.199997) count=0.750000
                                    542 ;	genGoto
      00022E 4Cr4Br02         [ 3]  543 	jmp	00115$
                                    544 ;	Raw cost for generated ic 95 : (3, 3.000000) count=0.750000
                                    545 ;	genLabel
      000231                        546 00114$:
                                    547 ;	Raw cost for generated ic 96 : (0, 0.000000) count=0.250000
                                    548 ;	../_fsadd.c: 210: mant2 >>= expd;
                                    549 ;	genRightShift
      000231 ACr14r00         [ 4]  550 	ldy	___fsadd_expd_10000_21
      000234 F0 15            [ 4]  551 	beq	00287$
      000236 ADr0Fr00         [ 4]  552 	lda	(___fsadd_mant2_10000_21 + 3)
      000239                        553 00286$:
      000239 C9 80            [ 2]  554 	cmp	#0x80
      00023B 6A               [ 2]  555 	ror	a
      00023C 6Er0Er00         [ 6]  556 	ror	(___fsadd_mant2_10000_21 + 2)
      00023F 6Er0Dr00         [ 6]  557 	ror	(___fsadd_mant2_10000_21 + 1)
      000242 6Er0Cr00         [ 6]  558 	ror	___fsadd_mant2_10000_21
      000245 88               [ 2]  559 	dey
      000246 D0 F1            [ 4]  560 	bne	00286$
      000248 8Dr0Fr00         [ 4]  561 	sta	(___fsadd_mant2_10000_21 + 3)
      00024B                        562 00287$:
                                    563 ;	Raw cost for generated ic 97 : (26, 41.199997) count=0.250000
                                    564 ;	genLabel
      00024B                        565 00115$:
                                    566 ;	Raw cost for generated ic 99 : (0, 0.000000) count=1.000000
                                    567 ;	../_fsadd.c: 212: mant1 += mant2;
                                    568 ;	genPlus
      00024B ADr08r00         [ 4]  569 	lda	___fsadd_mant1_10000_21
      00024E 18               [ 2]  570 	clc
      00024F 6Dr0Cr00         [ 5]  571 	adc	___fsadd_mant2_10000_21
      000252 8Dr08r00         [ 4]  572 	sta	___fsadd_mant1_10000_21
      000255 ADr09r00         [ 4]  573 	lda	(___fsadd_mant1_10000_21 + 1)
      000258 6Dr0Dr00         [ 5]  574 	adc	(___fsadd_mant2_10000_21 + 1)
      00025B 8Dr09r00         [ 4]  575 	sta	(___fsadd_mant1_10000_21 + 1)
      00025E ADr0Ar00         [ 4]  576 	lda	(___fsadd_mant1_10000_21 + 2)
      000261 6Dr0Er00         [ 5]  577 	adc	(___fsadd_mant2_10000_21 + 2)
      000264 8Dr0Ar00         [ 4]  578 	sta	(___fsadd_mant1_10000_21 + 2)
      000267 ADr0Br00         [ 4]  579 	lda	(___fsadd_mant1_10000_21 + 3)
      00026A 6Dr0Fr00         [ 5]  580 	adc	(___fsadd_mant2_10000_21 + 3)
      00026D 8Dr0Br00         [ 4]  581 	sta	(___fsadd_mant1_10000_21 + 3)
                                    582 ;	Raw cost for generated ic 100 : (37, 50.000000) count=1.000000
                                    583 ;	../_fsadd.c: 214: sign = false;
                                    584 ;	genAssign
                                    585 ;	genCopy
      000270 A2 00            [ 2]  586 	ldx	#0x00
                                    587 ;	Raw cost for generated ic 102 : (2, 2.000000) count=1.000000
                                    588 ;	../_fsadd.c: 216: if (mant1 < 0)
                                    589 ;	genCmp
      000272 2Cr0Br00         [ 4]  590 	bit	(___fsadd_mant1_10000_21 + 3)
      000275 10 21            [ 4]  591 	bpl	00119$
                                    592 ;	Raw cost for generated ic 103 : (8, 9.600000) count=1.000000
                                    593 ;	skipping generated iCode
                                    594 ;	Raw cost for generated ic 104 : (0, 0.000000) count=1.000000
                                    595 ;	../_fsadd.c: 218: mant1 = -mant1;
                                    596 ;	genUminus
      000277 8A               [ 2]  597 	txa
      000278 38               [ 2]  598 	sec
      000279 EDr08r00         [ 5]  599 	sbc	___fsadd_mant1_10000_21
      00027C 8Dr08r00         [ 4]  600 	sta	___fsadd_mant1_10000_21
      00027F 8A               [ 2]  601 	txa
      000280 EDr09r00         [ 5]  602 	sbc	(___fsadd_mant1_10000_21 + 1)
      000283 8Dr09r00         [ 4]  603 	sta	(___fsadd_mant1_10000_21 + 1)
      000286 8A               [ 2]  604 	txa
      000287 EDr0Ar00         [ 5]  605 	sbc	(___fsadd_mant1_10000_21 + 2)
      00028A 8Dr0Ar00         [ 4]  606 	sta	(___fsadd_mant1_10000_21 + 2)
      00028D 8A               [ 2]  607 	txa
      00028E EDr0Br00         [ 5]  608 	sbc	(___fsadd_mant1_10000_21 + 3)
      000291 8Dr0Br00         [ 4]  609 	sta	(___fsadd_mant1_10000_21 + 3)
                                    610 ;	Raw cost for generated ic 107 : (29, 42.000000) count=0.750000
                                    611 ;	../_fsadd.c: 219: sign = true;
                                    612 ;	genAssign
                                    613 ;	genCopy
      000294 E8               [ 2]  614 	inx
                                    615 ;	Raw cost for generated ic 109 : (1, 2.000000) count=0.750000
                                    616 ;	genGoto
      000295 4CrAEr02         [ 3]  617 	jmp	00151$
                                    618 ;	Raw cost for generated ic 110 : (3, 3.000000) count=0.750000
                                    619 ;	genLabel
      000298                        620 00119$:
                                    621 ;	Raw cost for generated ic 111 : (0, 0.000000) count=0.250000
                                    622 ;	../_fsadd.c: 221: else if (!mant1)
                                    623 ;	genIfx
      000298 ADr0Br00         [ 4]  624 	lda	(___fsadd_mant1_10000_21 + 3)
      00029B 0Dr0Ar00         [ 4]  625 	ora	(___fsadd_mant1_10000_21 + 2)
      00029E 0Dr09r00         [ 4]  626 	ora	(___fsadd_mant1_10000_21 + 1)
      0002A1 0Dr08r00         [ 4]  627 	ora	___fsadd_mant1_10000_21
                                    628 ;	genIfxJump : z
      0002A4 D0 08            [ 4]  629 	bne	00151$
                                    630 ;	Raw cost for generated ic 112 : (17, 21.600000) count=0.250000
                                    631 ;	../_fsadd.c: 222: return (0);
                                    632 ;	genRet
      0002A6 A9 00            [ 2]  633 	lda	#0x00
      0002A8 AA               [ 2]  634 	tax
      0002A9 85*00            [ 3]  635 	sta	*___SDCC_m6502_ret2
      0002AB 85*00            [ 3]  636 	sta	*___SDCC_m6502_ret3
      0002AD 60               [ 6]  637 	rts
                                    638 ;	Raw cost for generated ic 115 : (10, 13.000000) count=0.187500
                                    639 ;	../_fsadd.c: 225: while (mant1 < (HIDDEN<<4)) {
                                    640 ;	genLabel
      0002AE                        641 00151$:
                                    642 ;	Raw cost for generated ic 192 : (0, 0.000000) count=1.000000
                                    643 ;	genAssign
                                    644 ;	genCopy
      0002AE A5*01            [ 3]  645 	lda	*(___fsadd_sloc0_1_0 + 1)
      0002B0 85*0D            [ 3]  646 	sta	*(___fsadd_sloc3_1_0 + 1)
      0002B2 A5*00            [ 3]  647 	lda	*___fsadd_sloc0_1_0
      0002B4 85*0C            [ 3]  648 	sta	*___fsadd_sloc3_1_0
                                    649 ;	Raw cost for generated ic 196 : (8, 12.000000) count=1.000000
                                    650 ;	genLabel
      0002B6                        651 00121$:
                                    652 ;	Raw cost for generated ic 118 : (0, 0.000000) count=3.999997
                                    653 ;	genCast
                                    654 ;	genCopy
      0002B6 ADr0Br00         [ 4]  655 	lda	(___fsadd_mant1_10000_21 + 3)
      0002B9 85*0B            [ 3]  656 	sta	*(___fsadd_sloc2_1_0 + 3)
      0002BB ADr0Ar00         [ 4]  657 	lda	(___fsadd_mant1_10000_21 + 2)
      0002BE 85*0A            [ 3]  658 	sta	*(___fsadd_sloc2_1_0 + 2)
      0002C0 ADr09r00         [ 4]  659 	lda	(___fsadd_mant1_10000_21 + 1)
      0002C3 85*09            [ 3]  660 	sta	*(___fsadd_sloc2_1_0 + 1)
      0002C5 ADr08r00         [ 4]  661 	lda	___fsadd_mant1_10000_21
      0002C8 85*08            [ 3]  662 	sta	*___fsadd_sloc2_1_0
                                    663 ;	Raw cost for generated ic 119 : (20, 28.000000) count=3.999997
                                    664 ;	genCmp
      0002CA A5*0B            [ 3]  665 	lda	*(___fsadd_sloc2_1_0 + 3)
      0002CC 38               [ 2]  666 	sec
      0002CD E9 08            [ 3]  667 	sbc	#0x08
      0002CF B0 17            [ 4]  668 	bcs	00154$
                                    669 ;	Raw cost for generated ic 120 : (10, 12.600000) count=3.999997
                                    670 ;	skipping generated iCode
                                    671 ;	Raw cost for generated ic 121 : (0, 0.000000) count=3.999997
                                    672 ;	../_fsadd.c: 226: mant1 <<= 1;
                                    673 ;	genLeftShift
                                    674 ;	genLeftShiftLiteral
                                    675 ;	  genlsh32 - shift=1
      0002D1 0Er08r00         [ 6]  676 	asl	___fsadd_mant1_10000_21
      0002D4 2Er09r00         [ 6]  677 	rol	(___fsadd_mant1_10000_21 + 1)
      0002D7 2Er0Ar00         [ 6]  678 	rol	(___fsadd_mant1_10000_21 + 2)
      0002DA 2Er0Br00         [ 6]  679 	rol	(___fsadd_mant1_10000_21 + 3)
                                    680 ;	Raw cost for generated ic 124 : (12, 24.000000) count=2.999997
                                    681 ;	../_fsadd.c: 227: exp1--;
                                    682 ;	genMinus
                                    683 ;	  genMinusDec - size=2  icount=1
      0002DD A5*0C            [ 3]  684 	lda	*___fsadd_sloc3_1_0
      0002DF D0 02            [ 4]  685 	bne	00292$
      0002E1 C6*0D            [ 5]  686 	dec	*(___fsadd_sloc3_1_0 + 1)
      0002E3                        687 00292$:
      0002E3 C6*0C            [ 5]  688 	dec	*___fsadd_sloc3_1_0
                                    689 ;	Raw cost for generated ic 127 : (8, 15.600000) count=2.999997
                                    690 ;	genGoto
      0002E5 4CrB6r02         [ 3]  691 	jmp	00121$
                                    692 ;	Raw cost for generated ic 129 : (3, 3.000000) count=2.999997
                                    693 ;	../_fsadd.c: 231: while (mant1 & 0xf0000000) {
                                    694 ;	genLabel
      0002E8                        695 00154$:
                                    696 ;	Raw cost for generated ic 193 : (0, 0.000000) count=0.999999
                                    697 ;	genAssign
                                    698 ;	genCopy
                                    699 ;	Raw cost for generated ic 199 : (0, 0.000000) count=0.999999
                                    700 ;	genLabel
      0002E8                        701 00126$:
                                    702 ;	Raw cost for generated ic 131 : (0, 0.000000) count=3.999991
                                    703 ;	genAnd
      0002E8 ADr0Br00         [ 4]  704 	lda	(___fsadd_mant1_10000_21 + 3)
      0002EB 29 F0            [ 2]  705 	and	#0xf0
                                    706 ;	genIfxJump : z
      0002ED F0 3A            [ 4]  707 	beq	00160$
                                    708 ;	Raw cost for generated ic 132 : (10, 11.600000) count=3.999991
                                    709 ;	skipping generated iCode
                                    710 ;	Raw cost for generated ic 133 : (0, 0.000000) count=3.999991
                                    711 ;	../_fsadd.c: 232: if (mant1&1)
                                    712 ;	genAnd
      0002EF ADr08r00         [ 4]  713 	lda	___fsadd_mant1_10000_21
      0002F2 29 01            [ 2]  714 	and	#0x01
                                    715 ;	genIfxJump : z
      0002F4 F0 18            [ 4]  716 	beq	00125$
                                    717 ;	Raw cost for generated ic 136 : (12, 14.200001) count=2.999994
                                    718 ;	skipping generated iCode
                                    719 ;	Raw cost for generated ic 137 : (0, 0.000000) count=2.999994
                                    720 ;	../_fsadd.c: 233: mant1 += 2;
                                    721 ;	genPlus
                                    722 ;	  genPlusInc
      0002F6 ADr08r00         [ 4]  723 	lda	___fsadd_mant1_10000_21
      0002F9 18               [ 2]  724 	clc
      0002FA 69 02            [ 3]  725 	adc	#0x02
      0002FC 8Dr08r00         [ 4]  726 	sta	___fsadd_mant1_10000_21
      0002FF 90 0D            [ 4]  727 	bcc	00297$
      000301 EEr09r00         [ 6]  728 	inc	(___fsadd_mant1_10000_21 + 1)
      000304 D0 08            [ 4]  729 	bne	00297$
      000306 EEr0Ar00         [ 6]  730 	inc	(___fsadd_mant1_10000_21 + 2)
      000309 D0 03            [ 4]  731 	bne	00297$
      00030B EEr0Br00         [ 6]  732 	inc	(___fsadd_mant1_10000_21 + 3)
      00030E                        733 00297$:
                                    734 ;	Raw cost for generated ic 140 : (24, 37.800003) count=2.249994
                                    735 ;	genLabel
      00030E                        736 00125$:
                                    737 ;	Raw cost for generated ic 142 : (0, 0.000000) count=2.999992
                                    738 ;	../_fsadd.c: 234: mant1 >>= 1;
                                    739 ;	genRightShift
                                    740 ;	genRightShiftLiteral
                                    741 ;	  genrsh32 - shift=1
      00030E ADr0Br00         [ 4]  742 	lda	(___fsadd_mant1_10000_21 + 3)
      000311 C9 80            [ 2]  743 	cmp	#0x80
      000313 6A               [ 2]  744 	ror	a
      000314 6Er0Ar00         [ 6]  745 	ror	(___fsadd_mant1_10000_21 + 2)
      000317 6Er09r00         [ 6]  746 	ror	(___fsadd_mant1_10000_21 + 1)
      00031A 6Er08r00         [ 6]  747 	ror	___fsadd_mant1_10000_21
      00031D 8Dr0Br00         [ 4]  748 	sta	(___fsadd_mant1_10000_21 + 3)
                                    749 ;	Raw cost for generated ic 143 : (18, 30.000000) count=2.999992
                                    750 ;	../_fsadd.c: 235: exp1++;
                                    751 ;	genPlus
                                    752 ;	  genPlusInc
      000320 E6*0C            [ 5]  753 	inc	*___fsadd_sloc3_1_0
      000322 D0 C4            [ 4]  754 	bne	00126$
      000324 E6*0D            [ 5]  755 	inc	*(___fsadd_sloc3_1_0 + 1)
                                    756 ;	Raw cost for generated ic 146 : (6, 12.600000) count=2.999992
                                    757 ;	genGoto
      000326 4CrE8r02         [ 3]  758 	jmp	00126$
                                    759 ;	Raw cost for generated ic 148 : (3, 3.000000) count=2.999992
                                    760 ;	genLabel
      000329                        761 00160$:
                                    762 ;	Raw cost for generated ic 200 : (0, 0.000000) count=0.999997
                                    763 ;	genAssign
                                    764 ;	genCopy
      000329 A5*0D            [ 3]  765 	lda	*(___fsadd_sloc3_1_0 + 1)
      00032B 8Dr11r00         [ 4]  766 	sta	(___fsadd_exp1_10000_21 + 1)
      00032E A5*0C            [ 3]  767 	lda	*___fsadd_sloc3_1_0
      000330 8Dr10r00         [ 4]  768 	sta	___fsadd_exp1_10000_21
                                    769 ;	Raw cost for generated ic 201 : (10, 14.000000) count=0.999997
                                    770 ;	../_fsadd.c: 239: mant1 &= ~(HIDDEN<<4);
                                    771 ;	genAnd
      000333 ADr0Br00         [ 4]  772 	lda	(___fsadd_mant1_10000_21 + 3)
      000336 29 F7            [ 2]  773 	and	#0xf7
      000338 8Dr0Br00         [ 4]  774 	sta	(___fsadd_mant1_10000_21 + 3)
                                    775 ;	Raw cost for generated ic 150 : (8, 10.000000) count=0.999997
                                    776 ;	../_fsadd.c: 242: if (exp1 >= 0x100)
                                    777 ;	genCmp
      00033B A5*0D            [ 3]  778 	lda	*(___fsadd_sloc3_1_0 + 1)
      00033D 38               [ 2]  779 	sec
      00033E E9 01            [ 3]  780 	sbc	#0x01
      000340 70 04            [ 4]  781 	bvs	00300$
      000342 10 04            [ 4]  782 	bpl	00299$
      000344 30 37            [ 4]  783 	bmi	00133$
      000346                        784 00300$:
      000346 10 35            [ 4]  785 	bpl	00133$
      000348                        786 00299$:
                                    787 ;	Raw cost for generated ic 152 : (16, 20.400002) count=0.999997
                                    788 ;	skipping generated iCode
                                    789 ;	Raw cost for generated ic 153 : (0, 0.000000) count=0.999997
                                    790 ;	../_fsadd.c: 243: *pfl1 = (sign ? (SIGNBIT | __INFINITY) : __INFINITY);
                                    791 ;	genIfx
      000348 E0 00            [ 2]  792 	cpx	#0x00
                                    793 ;	genIfxJump : z
      00034A F0 0F            [ 4]  794 	beq	00137$
                                    795 ;	Raw cost for generated ic 157 : (7, 7.600000) count=0.749997
                                    796 ;	genAssign
                                    797 ;	genAssignLit
      00034C 64*08            [ 3]  798 	stz	*___fsadd_sloc2_1_0
      00034E 64*09            [ 3]  799 	stz	*(___fsadd_sloc2_1_0 + 1)
      000350 A2 80            [ 2]  800 	ldx	#0x80
      000352 86*0A            [ 3]  801 	stx	*(___fsadd_sloc2_1_0 + 2)
      000354 A2 FF            [ 2]  802 	ldx	#0xff
      000356 86*0B            [ 3]  803 	stx	*(___fsadd_sloc2_1_0 + 3)
                                    804 ;	Raw cost for generated ic 158 : (14, 18.000000) count=0.562497
                                    805 ;	genGoto
      000358 4Cr66r03         [ 3]  806 	jmp	00138$
                                    807 ;	Raw cost for generated ic 159 : (3, 3.000000) count=0.562497
                                    808 ;	genLabel
      00035B                        809 00137$:
                                    810 ;	Raw cost for generated ic 160 : (0, 0.000000) count=0.187499
                                    811 ;	genAssign
                                    812 ;	genAssignLit
      00035B 64*08            [ 3]  813 	stz	*___fsadd_sloc2_1_0
      00035D 64*09            [ 3]  814 	stz	*(___fsadd_sloc2_1_0 + 1)
      00035F A2 80            [ 2]  815 	ldx	#0x80
      000361 86*0A            [ 3]  816 	stx	*(___fsadd_sloc2_1_0 + 2)
      000363 CA               [ 2]  817 	dex
      000364 86*0B            [ 3]  818 	stx	*(___fsadd_sloc2_1_0 + 3)
                                    819 ;	Raw cost for generated ic 161 : (13, 18.000000) count=0.187499
                                    820 ;	genLabel
      000366                        821 00138$:
                                    822 ;	Raw cost for generated ic 162 : (0, 0.000000) count=0.749996
                                    823 ;	genPointerSet
                                    824 ;	genDataPointerSet
      000366 A5*0B            [ 3]  825 	lda	*(___fsadd_sloc2_1_0 + 3)
      000368 8Dr03r00         [ 4]  826 	sta	(___fsadd_PARM_1 + 3)
      00036B A5*0A            [ 3]  827 	lda	*(___fsadd_sloc2_1_0 + 2)
      00036D 8Dr02r00         [ 4]  828 	sta	(___fsadd_PARM_1 + 2)
      000370 A5*09            [ 3]  829 	lda	*(___fsadd_sloc2_1_0 + 1)
      000372 8Dr01r00         [ 4]  830 	sta	(___fsadd_PARM_1 + 1)
      000375 A5*08            [ 3]  831 	lda	*___fsadd_sloc2_1_0
      000377 8Dr00r00         [ 4]  832 	sta	___fsadd_PARM_1
                                    833 ;	Raw cost for generated ic 163 : (20, 28.000000) count=0.749996
                                    834 ;	genGoto
      00037A 4Cr4Ar04         [ 3]  835 	jmp	00134$
                                    836 ;	Raw cost for generated ic 164 : (3, 3.000000) count=0.749996
                                    837 ;	genLabel
      00037D                        838 00133$:
                                    839 ;	Raw cost for generated ic 165 : (0, 0.000000) count=0.249999
                                    840 ;	../_fsadd.c: 244: else if (exp1 < 0)
                                    841 ;	genCmp
      00037D 24*0D            [ 3]  842 	bit	*(___fsadd_sloc3_1_0 + 1)
      00037F 10 0F            [ 4]  843 	bpl	00130$
                                    844 ;	Raw cost for generated ic 166 : (7, 8.600000) count=0.249999
                                    845 ;	skipping generated iCode
                                    846 ;	Raw cost for generated ic 167 : (0, 0.000000) count=0.249999
                                    847 ;	../_fsadd.c: 245: *pfl1 = 0;
                                    848 ;	genPointerSet
                                    849 ;	genDataPointerSet
      000381 9Cr03r00         [ 4]  850 	stz	(___fsadd_PARM_1 + 3)
      000384 9Cr02r00         [ 4]  851 	stz	(___fsadd_PARM_1 + 2)
      000387 9Cr01r00         [ 4]  852 	stz	(___fsadd_PARM_1 + 1)
      00038A 9Cr00r00         [ 4]  853 	stz	___fsadd_PARM_1
                                    854 ;	Raw cost for generated ic 171 : (12, 16.000000) count=0.187499
                                    855 ;	genGoto
      00038D 4Cr4Ar04         [ 3]  856 	jmp	00134$
                                    857 ;	Raw cost for generated ic 172 : (3, 3.000000) count=0.187499
                                    858 ;	genLabel
      000390                        859 00130$:
                                    860 ;	Raw cost for generated ic 173 : (0, 0.000000) count=0.062499
                                    861 ;	../_fsadd.c: 247: *pfl1 = PACK (sign ? SIGNBIT : 0 , exp1, mant1>>4);
                                    862 ;	genIfx
      000390 E0 00            [ 2]  863 	cpx	#0x00
                                    864 ;	genIfxJump : z
      000392 F0 0D            [ 4]  865 	beq	00139$
                                    866 ;	Raw cost for generated ic 175 : (7, 7.600000) count=0.062499
                                    867 ;	genAssign
                                    868 ;	genAssignLit
      000394 64*0C            [ 3]  869 	stz	*___fsadd_sloc3_1_0
      000396 64*0D            [ 3]  870 	stz	*(___fsadd_sloc3_1_0 + 1)
      000398 64*0E            [ 3]  871 	stz	*(___fsadd_sloc3_1_0 + 2)
      00039A A2 80            [ 2]  872 	ldx	#0x80
      00039C 86*0F            [ 3]  873 	stx	*(___fsadd_sloc3_1_0 + 3)
                                    874 ;	Raw cost for generated ic 176 : (13, 17.000000) count=0.046873
                                    875 ;	genGoto
      00039E 4CrA9r03         [ 3]  876 	jmp	00140$
                                    877 ;	Raw cost for generated ic 177 : (3, 3.000000) count=0.046873
                                    878 ;	genLabel
      0003A1                        879 00139$:
                                    880 ;	Raw cost for generated ic 178 : (0, 0.000000) count=0.012632
                                    881 ;	genAssign
                                    882 ;	genAssignLit
      0003A1 64*0C            [ 3]  883 	stz	*___fsadd_sloc3_1_0
      0003A3 64*0D            [ 3]  884 	stz	*(___fsadd_sloc3_1_0 + 1)
      0003A5 64*0E            [ 3]  885 	stz	*(___fsadd_sloc3_1_0 + 2)
      0003A7 64*0F            [ 3]  886 	stz	*(___fsadd_sloc3_1_0 + 3)
                                    887 ;	Raw cost for generated ic 179 : (12, 16.000000) count=0.012632
                                    888 ;	genLabel
      0003A9                        889 00140$:
                                    890 ;	Raw cost for generated ic 180 : (0, 0.000000) count=0.059505
                                    891 ;	genCast
      0003A9 ADr10r00         [ 4]  892 	lda	___fsadd_exp1_10000_21
      0003AC 85*08            [ 3]  893 	sta	*___fsadd_sloc2_1_0
      0003AE ADr11r00         [ 4]  894 	lda	(___fsadd_exp1_10000_21 + 1)
      0003B1 85*09            [ 3]  895 	sta	*(___fsadd_sloc2_1_0 + 1)
      0003B3 0A               [ 2]  896 	asl	a
      0003B4 A9 00            [ 2]  897 	lda	#0x00
      0003B6 69 FF            [ 3]  898 	adc	#0xff
      0003B8 49 FF            [ 2]  899 	eor	#0xff
      0003BA 85*0A            [ 3]  900 	sta	*(___fsadd_sloc2_1_0 + 2)
      0003BC 85*0B            [ 3]  901 	sta	*(___fsadd_sloc2_1_0 + 3)
                                    902 ;	Raw cost for generated ic 181 : (21, 28.000000) count=0.059505
                                    903 ;	genLeftShift
                                    904 ;	genLeftShiftLiteral
                                    905 ;	  genlsh32 - shift=23
      0003BE A5*09            [ 3]  906 	lda	*(___fsadd_sloc2_1_0 + 1)
      0003C0 4A               [ 2]  907 	lsr	a
      0003C1 A5*08            [ 3]  908 	lda	*___fsadd_sloc2_1_0
      0003C3 6A               [ 2]  909 	ror	a
      0003C4 85*0B            [ 3]  910 	sta	*(___fsadd_sloc2_1_0 + 3)
      0003C6 A9 00            [ 2]  911 	lda	#0x00
      0003C8 85*09            [ 3]  912 	sta	*(___fsadd_sloc2_1_0 + 1)
      0003CA 85*08            [ 3]  913 	sta	*___fsadd_sloc2_1_0
      0003CC 6A               [ 2]  914 	ror	a
      0003CD 85*0A            [ 3]  915 	sta	*(___fsadd_sloc2_1_0 + 2)
                                    916 ;	Raw cost for generated ic 182 : (17, 26.000000) count=0.059505
                                    917 ;	genOr
      0003CF A5*0C            [ 3]  918 	lda	*___fsadd_sloc3_1_0
      0003D1 05*08            [ 3]  919 	ora	*___fsadd_sloc2_1_0
      0003D3 85*0C            [ 3]  920 	sta	*___fsadd_sloc3_1_0
      0003D5 A5*0D            [ 3]  921 	lda	*(___fsadd_sloc3_1_0 + 1)
      0003D7 05*09            [ 3]  922 	ora	*(___fsadd_sloc2_1_0 + 1)
      0003D9 85*0D            [ 3]  923 	sta	*(___fsadd_sloc3_1_0 + 1)
      0003DB A5*0E            [ 3]  924 	lda	*(___fsadd_sloc3_1_0 + 2)
      0003DD 05*0A            [ 3]  925 	ora	*(___fsadd_sloc2_1_0 + 2)
      0003DF 85*0E            [ 3]  926 	sta	*(___fsadd_sloc3_1_0 + 2)
      0003E1 A5*0F            [ 3]  927 	lda	*(___fsadd_sloc3_1_0 + 3)
      0003E3 05*0B            [ 3]  928 	ora	*(___fsadd_sloc2_1_0 + 3)
      0003E5 85*0F            [ 3]  929 	sta	*(___fsadd_sloc3_1_0 + 3)
                                    930 ;	Raw cost for generated ic 183 : (24, 36.000000) count=0.059505
                                    931 ;	genRightShift
                                    932 ;	genRightShiftLiteral
                                    933 ;	  genrsh32 - shift=4
      0003E7 ADr0Br00         [ 4]  934 	lda	(___fsadd_mant1_10000_21 + 3)
      0003EA C9 80            [ 2]  935 	cmp	#0x80
      0003EC 6A               [ 2]  936 	ror	a
      0003ED 85*0B            [ 3]  937 	sta	*(___fsadd_sloc2_1_0 + 3)
      0003EF ADr0Ar00         [ 4]  938 	lda	(___fsadd_mant1_10000_21 + 2)
      0003F2 6A               [ 2]  939 	ror	a
      0003F3 85*0A            [ 3]  940 	sta	*(___fsadd_sloc2_1_0 + 2)
      0003F5 ADr09r00         [ 4]  941 	lda	(___fsadd_mant1_10000_21 + 1)
      0003F8 6A               [ 2]  942 	ror	a
      0003F9 85*09            [ 3]  943 	sta	*(___fsadd_sloc2_1_0 + 1)
      0003FB ADr08r00         [ 4]  944 	lda	___fsadd_mant1_10000_21
      0003FE 6A               [ 2]  945 	ror	a
      0003FF 85*08            [ 3]  946 	sta	*___fsadd_sloc2_1_0
      000401 A5*0B            [ 3]  947 	lda	*(___fsadd_sloc2_1_0 + 3)
      000403 C9 80            [ 2]  948 	cmp	#0x80
      000405 6A               [ 2]  949 	ror	a
      000406 66*0A            [ 5]  950 	ror	*(___fsadd_sloc2_1_0 + 2)
      000408 66*09            [ 5]  951 	ror	*(___fsadd_sloc2_1_0 + 1)
      00040A 66*08            [ 5]  952 	ror	*___fsadd_sloc2_1_0
      00040C C9 80            [ 2]  953 	cmp	#0x80
      00040E 6A               [ 2]  954 	ror	a
      00040F 66*0A            [ 5]  955 	ror	*(___fsadd_sloc2_1_0 + 2)
      000411 66*09            [ 5]  956 	ror	*(___fsadd_sloc2_1_0 + 1)
      000413 66*08            [ 5]  957 	ror	*___fsadd_sloc2_1_0
      000415 C9 80            [ 2]  958 	cmp	#0x80
      000417 6A               [ 2]  959 	ror	a
      000418 66*0A            [ 5]  960 	ror	*(___fsadd_sloc2_1_0 + 2)
      00041A 66*09            [ 5]  961 	ror	*(___fsadd_sloc2_1_0 + 1)
      00041C 66*08            [ 5]  962 	ror	*___fsadd_sloc2_1_0
      00041E 85*0B            [ 3]  963 	sta	*(___fsadd_sloc2_1_0 + 3)
                                    964 ;	Raw cost for generated ic 184 : (57, 101.000000) count=0.059505
                                    965 ;	genOr
      000420 A5*0C            [ 3]  966 	lda	*___fsadd_sloc3_1_0
      000422 05*08            [ 3]  967 	ora	*___fsadd_sloc2_1_0
      000424 85*0C            [ 3]  968 	sta	*___fsadd_sloc3_1_0
      000426 A5*0D            [ 3]  969 	lda	*(___fsadd_sloc3_1_0 + 1)
      000428 05*09            [ 3]  970 	ora	*(___fsadd_sloc2_1_0 + 1)
      00042A 85*0D            [ 3]  971 	sta	*(___fsadd_sloc3_1_0 + 1)
      00042C A5*0E            [ 3]  972 	lda	*(___fsadd_sloc3_1_0 + 2)
      00042E 05*0A            [ 3]  973 	ora	*(___fsadd_sloc2_1_0 + 2)
      000430 85*0E            [ 3]  974 	sta	*(___fsadd_sloc3_1_0 + 2)
      000432 A5*0F            [ 3]  975 	lda	*(___fsadd_sloc3_1_0 + 3)
      000434 05*0B            [ 3]  976 	ora	*(___fsadd_sloc2_1_0 + 3)
      000436 85*0F            [ 3]  977 	sta	*(___fsadd_sloc3_1_0 + 3)
                                    978 ;	Raw cost for generated ic 185 : (24, 36.000000) count=0.059505
                                    979 ;	genPointerSet
                                    980 ;	genDataPointerSet
      000438 8Dr03r00         [ 4]  981 	sta	(___fsadd_PARM_1 + 3)
      00043B A5*0E            [ 3]  982 	lda	*(___fsadd_sloc3_1_0 + 2)
      00043D 8Dr02r00         [ 4]  983 	sta	(___fsadd_PARM_1 + 2)
      000440 A5*0D            [ 3]  984 	lda	*(___fsadd_sloc3_1_0 + 1)
      000442 8Dr01r00         [ 4]  985 	sta	(___fsadd_PARM_1 + 1)
      000445 A5*0C            [ 3]  986 	lda	*___fsadd_sloc3_1_0
      000447 8Dr00r00         [ 4]  987 	sta	___fsadd_PARM_1
                                    988 ;	Raw cost for generated ic 186 : (18, 25.000000) count=0.059505
                                    989 ;	genLabel
      00044A                        990 00134$:
                                    991 ;	Raw cost for generated ic 188 : (0, 0.000000) count=0.997000
                                    992 ;	../_fsadd.c: 248: return (a1);
                                    993 ;	genRet
      00044A ADr03r00         [ 4]  994 	lda	(___fsadd_PARM_1 + 3)
      00044D 85*00            [ 3]  995 	sta	*___SDCC_m6502_ret3
      00044F ADr02r00         [ 4]  996 	lda	(___fsadd_PARM_1 + 2)
      000452 85*00            [ 3]  997 	sta	*___SDCC_m6502_ret2
      000454 AEr01r00         [ 4]  998 	ldx	(___fsadd_PARM_1 + 1)
      000457 ADr00r00         [ 4]  999 	lda	___fsadd_PARM_1
                                   1000 ;	Raw cost for generated ic 189 : (16, 22.000000) count=0.997000
                                   1001 ;	genLabel
                                   1002 ;	Raw cost for generated ic 190 : (0, 0.000000) count=0.997000
                                   1003 ;	../_fsadd.c: 249: }
                                   1004 ;	genEndFunction
      00045A 60               [ 6] 1005 	rts
                                   1006 ;	Raw cost for generated ic 191 : (1, 6.000000) count=0.997000
                                   1007 	.area CODE
                                   1008 	.area RODATA
                                   1009 	.area XINIT
                                   1010 	.area CABS    (ABS)
