                                      1 ;--------------------------------------------------------
                                      2 ; File Created by SDCC : free open source ISO C Compiler
                                      3 ; Version 4.5.10 #15691 (Linux)
                                      4 ;--------------------------------------------------------
                                      5 	.module _fslt
                                      6 	
      000000                          7 	.r65c02
                                      8 	.optsdcc -mmos65c02
                                      9 
                                     10 ;--------------------------------------------------------
                                     11 ;  Ordering of segments for the linker.
                                     12 ;--------------------------------------------------------
                                     13 	.area ZP      (PAG)
                                     14 	.area OSEG    (PAG, OVR)
                                     15 	.area _CODE
                                     16 	.area GSINIT
                                     17 	.area GSFINAL
                                     18 	.area CODE
                                     19 	.area RODATA
                                     20 	.area XINIT
                                     21 	.area _DATA
                                     22 	.area DATA
                                     23 	.area BSS
                                     24 ;--------------------------------------------------------
                                     25 ; Public variables in this module
                                     26 ;--------------------------------------------------------
                                     27 	.globl ___fslt_PARM_2
                                     28 	.globl ___fslt_PARM_1
                                     29 	.globl ___fslt
                                     30 ;--------------------------------------------------------
                                     31 ; ZP ram data
                                     32 ;--------------------------------------------------------
                                     33 	.area ZP      (PAG)
                                     34 ;--------------------------------------------------------
                                     35 ; overlayable items in ram
                                     36 ;--------------------------------------------------------
                                     37 	.area	OSEG    (PAG, OVR)
      000000                         38 ___fslt_sloc0_1_0:
      000000                         39 	.ds 4
      000004                         40 ___fslt_sloc1_1_0:
      000004                         41 	.ds 4
                                     42 ;--------------------------------------------------------
                                     43 ; uninitialized external ram data
                                     44 ;--------------------------------------------------------
                                     45 	.area BSS
      000000                         46 ___fslt_PARM_1:
      000000                         47 	.ds 4
      000004                         48 ___fslt_PARM_2:
      000004                         49 	.ds 4
      000008                         50 ___fslt_fl1_10000_21:
      000008                         51 	.ds 4
      00000C                         52 ___fslt_fl2_10000_21:
      00000C                         53 	.ds 4
                                     54 ;--------------------------------------------------------
                                     55 ; absolute external ram data
                                     56 ;--------------------------------------------------------
                                     57 	.area DABS    (ABS)
                                     58 ;--------------------------------------------------------
                                     59 ; initialized external ram data
                                     60 ;--------------------------------------------------------
                                     61 	.area DATA
                                     62 ;--------------------------------------------------------
                                     63 ; global & static initialisations
                                     64 ;--------------------------------------------------------
                                     65 	.area _CODE
                                     66 	.area GSINIT
                                     67 	.area GSFINAL
                                     68 	.area GSINIT
                                     69 ;--------------------------------------------------------
                                     70 ; Home
                                     71 ;--------------------------------------------------------
                                     72 	.area _CODE
                                     73 	.area _CODE
                                     74 ;--------------------------------------------------------
                                     75 ; code
                                     76 ;--------------------------------------------------------
                                     77 	.area CODE
                                     78 ;------------------------------------------------------------
                                     79 ;Allocation info for local variables in function '__fslt'
                                     80 ;------------------------------------------------------------
                                     81 ;a1            Allocated with name '___fslt_PARM_1'
                                     82 ;a2            Allocated with name '___fslt_PARM_2'
                                     83 ;fl1           Allocated with name '___fslt_fl1_10000_21'
                                     84 ;fl2           Allocated with name '___fslt_fl2_10000_21'
                                     85 ;sloc0         Allocated with name '___fslt_sloc0_1_0'
                                     86 ;sloc1         Allocated with name '___fslt_sloc1_1_0'
                                     87 ;------------------------------------------------------------
                                     88 ;	../_fslt.c: 108: _Bool __fslt (float a1, float a2) __SDCC_FLOAT_NONBANKED
                                     89 ;	genLabel
                                     90 ;	Raw cost for generated ic 0 : (0, 0.000000) count=1.000000
                                     91 ;	-----------------------------------------
                                     92 ;	 function __fslt
                                     93 ;	-----------------------------------------
                                     94 ;	Register assignment is optimal.
                                     95 ;	Stack space usage: 0 bytes.
      000000                         96 ___fslt:
                                     97 ;	Raw cost for generated ic 1 : (0, 0.000000) count=1.000000
                                     98 ;	../_fslt.c: 112: fl1.f = a1;
                                     99 ;	skipping iCode since result will be rematerialized
                                    100 ;	Raw cost for generated ic 2 : (0, 0.000000) count=1.000000
                                    101 ;	genPointerSet
                                    102 ;	genDataPointerSet
      000000 ADr03r00         [ 4]  103 	lda	(___fslt_PARM_1 + 3)
      000003 8Dr0Br00         [ 4]  104 	sta	(___fslt_fl1_10000_21 + 3)
      000006 ADr02r00         [ 4]  105 	lda	(___fslt_PARM_1 + 2)
      000009 8Dr0Ar00         [ 4]  106 	sta	(___fslt_fl1_10000_21 + 2)
      00000C ADr01r00         [ 4]  107 	lda	(___fslt_PARM_1 + 1)
      00000F 8Dr09r00         [ 4]  108 	sta	(___fslt_fl1_10000_21 + 1)
      000012 ADr00r00         [ 4]  109 	lda	___fslt_PARM_1
      000015 8Dr08r00         [ 4]  110 	sta	___fslt_fl1_10000_21
                                    111 ;	Raw cost for generated ic 4 : (24, 32.000000) count=1.000000
                                    112 ;	../_fslt.c: 113: fl2.f = a2;
                                    113 ;	skipping iCode since result will be rematerialized
                                    114 ;	Raw cost for generated ic 5 : (0, 0.000000) count=1.000000
                                    115 ;	genPointerSet
                                    116 ;	genDataPointerSet
      000018 ADr07r00         [ 4]  117 	lda	(___fslt_PARM_2 + 3)
      00001B 8Dr0Fr00         [ 4]  118 	sta	(___fslt_fl2_10000_21 + 3)
      00001E ADr06r00         [ 4]  119 	lda	(___fslt_PARM_2 + 2)
      000021 8Dr0Er00         [ 4]  120 	sta	(___fslt_fl2_10000_21 + 2)
      000024 ADr05r00         [ 4]  121 	lda	(___fslt_PARM_2 + 1)
      000027 8Dr0Dr00         [ 4]  122 	sta	(___fslt_fl2_10000_21 + 1)
      00002A ADr04r00         [ 4]  123 	lda	___fslt_PARM_2
      00002D 8Dr0Cr00         [ 4]  124 	sta	___fslt_fl2_10000_21
                                    125 ;	Raw cost for generated ic 7 : (24, 32.000000) count=1.000000
                                    126 ;	../_fslt.c: 115: if (((fl1.l | fl2.l) & 0x7FFFFFFF) == 0)
                                    127 ;	skipping iCode since result will be rematerialized
                                    128 ;	Raw cost for generated ic 8 : (0, 0.000000) count=1.000000
                                    129 ;	genPointerGet
                                    130 ;	genDataPointerGet
      000030 ADr0Br00         [ 4]  131 	lda	(___fslt_fl1_10000_21 + 3)
      000033 85*03            [ 3]  132 	sta	*(___fslt_sloc0_1_0 + 3)
      000035 ADr0Ar00         [ 4]  133 	lda	(___fslt_fl1_10000_21 + 2)
      000038 85*02            [ 3]  134 	sta	*(___fslt_sloc0_1_0 + 2)
      00003A ADr09r00         [ 4]  135 	lda	(___fslt_fl1_10000_21 + 1)
      00003D 85*01            [ 3]  136 	sta	*(___fslt_sloc0_1_0 + 1)
      00003F ADr08r00         [ 4]  137 	lda	___fslt_fl1_10000_21
      000042 85*00            [ 3]  138 	sta	*___fslt_sloc0_1_0
                                    139 ;	Raw cost for generated ic 10 : (20, 28.000000) count=1.000000
                                    140 ;	skipping iCode since result will be rematerialized
                                    141 ;	Raw cost for generated ic 11 : (0, 0.000000) count=1.000000
                                    142 ;	genPointerGet
                                    143 ;	genDataPointerGet
      000044 ADr0Fr00         [ 4]  144 	lda	(___fslt_fl2_10000_21 + 3)
      000047 85*07            [ 3]  145 	sta	*(___fslt_sloc1_1_0 + 3)
      000049 ADr0Er00         [ 4]  146 	lda	(___fslt_fl2_10000_21 + 2)
      00004C 85*06            [ 3]  147 	sta	*(___fslt_sloc1_1_0 + 2)
      00004E ADr0Dr00         [ 4]  148 	lda	(___fslt_fl2_10000_21 + 1)
      000051 85*05            [ 3]  149 	sta	*(___fslt_sloc1_1_0 + 1)
      000053 ADr0Cr00         [ 4]  150 	lda	___fslt_fl2_10000_21
      000056 85*04            [ 3]  151 	sta	*___fslt_sloc1_1_0
                                    152 ;	Raw cost for generated ic 13 : (20, 28.000000) count=1.000000
                                    153 ;	genOr
      000058 A5*00            [ 3]  154 	lda	*___fslt_sloc0_1_0
      00005A 05*04            [ 3]  155 	ora	*___fslt_sloc1_1_0
      00005C 85*04            [ 3]  156 	sta	*___fslt_sloc1_1_0
      00005E A5*01            [ 3]  157 	lda	*(___fslt_sloc0_1_0 + 1)
      000060 05*05            [ 3]  158 	ora	*(___fslt_sloc1_1_0 + 1)
      000062 85*05            [ 3]  159 	sta	*(___fslt_sloc1_1_0 + 1)
      000064 A5*02            [ 3]  160 	lda	*(___fslt_sloc0_1_0 + 2)
      000066 05*06            [ 3]  161 	ora	*(___fslt_sloc1_1_0 + 2)
      000068 85*06            [ 3]  162 	sta	*(___fslt_sloc1_1_0 + 2)
      00006A A5*03            [ 3]  163 	lda	*(___fslt_sloc0_1_0 + 3)
      00006C 05*07            [ 3]  164 	ora	*(___fslt_sloc1_1_0 + 3)
      00006E 85*07            [ 3]  165 	sta	*(___fslt_sloc1_1_0 + 3)
                                    166 ;	Raw cost for generated ic 14 : (24, 36.000000) count=1.000000
                                    167 ;	genAnd
      000070 A5*04            [ 3]  168 	lda	*___fslt_sloc1_1_0
      000072 D0 0C            [ 4]  169 	bne	00142$
      000074 A5*05            [ 3]  170 	lda	*(___fslt_sloc1_1_0 + 1)
      000076 D0 08            [ 4]  171 	bne	00142$
      000078 A5*06            [ 3]  172 	lda	*(___fslt_sloc1_1_0 + 2)
      00007A D0 04            [ 4]  173 	bne	00142$
      00007C A5*07            [ 3]  174 	lda	*(___fslt_sloc1_1_0 + 3)
      00007E 29 7F            [ 2]  175 	and	#0x7f
      000080                        176 00142$:
                                    177 ;	genIfxJump : z
      000080 D0 03            [ 4]  178 	bne	00102$
                                    179 ;	Raw cost for generated ic 15 : (21, 27.400002) count=1.000000
                                    180 ;	skipping generated iCode
                                    181 ;	Raw cost for generated ic 16 : (0, 0.000000) count=1.000000
                                    182 ;	../_fslt.c: 116: return (0);
                                    183 ;	genRet
      000082 A9 00            [ 2]  184 	lda	#0x00
      000084 60               [ 6]  185 	rts
                                    186 ;	Raw cost for generated ic 19 : (5, 5.000000) count=0.750000
                                    187 ;	genLabel
      000085                        188 00102$:
                                    189 ;	Raw cost for generated ic 20 : (0, 0.000000) count=1.000000
                                    190 ;	../_fslt.c: 118: if (fl1.l<0 && fl2.l<0) {
                                    191 ;	skipping iCode since result will be rematerialized
                                    192 ;	Raw cost for generated ic 21 : (0, 0.000000) count=1.000000
                                    193 ;	genPointerGet
                                    194 ;	genDataPointerGet
      000085 ADr0Br00         [ 4]  195 	lda	(___fslt_fl1_10000_21 + 3)
      000088 85*07            [ 3]  196 	sta	*(___fslt_sloc1_1_0 + 3)
      00008A ADr0Ar00         [ 4]  197 	lda	(___fslt_fl1_10000_21 + 2)
      00008D 85*06            [ 3]  198 	sta	*(___fslt_sloc1_1_0 + 2)
      00008F ADr09r00         [ 4]  199 	lda	(___fslt_fl1_10000_21 + 1)
      000092 85*05            [ 3]  200 	sta	*(___fslt_sloc1_1_0 + 1)
      000094 ADr08r00         [ 4]  201 	lda	___fslt_fl1_10000_21
      000097 85*04            [ 3]  202 	sta	*___fslt_sloc1_1_0
                                    203 ;	Raw cost for generated ic 23 : (20, 28.000000) count=1.000000
                                    204 ;	genCmp
      000099 24*07            [ 3]  205 	bit	*(___fslt_sloc1_1_0 + 3)
      00009B 10 5F            [ 4]  206 	bpl	00106$
                                    207 ;	Raw cost for generated ic 24 : (7, 8.600000) count=1.000000
                                    208 ;	skipping generated iCode
                                    209 ;	Raw cost for generated ic 25 : (0, 0.000000) count=1.000000
                                    210 ;	skipping iCode since result will be rematerialized
                                    211 ;	Raw cost for generated ic 28 : (0, 0.000000) count=0.750000
                                    212 ;	genPointerGet
                                    213 ;	genDataPointerGet
      00009D ADr0Fr00         [ 4]  214 	lda	(___fslt_fl2_10000_21 + 3)
      0000A0 85*07            [ 3]  215 	sta	*(___fslt_sloc1_1_0 + 3)
      0000A2 ADr0Er00         [ 4]  216 	lda	(___fslt_fl2_10000_21 + 2)
      0000A5 85*06            [ 3]  217 	sta	*(___fslt_sloc1_1_0 + 2)
      0000A7 ADr0Dr00         [ 4]  218 	lda	(___fslt_fl2_10000_21 + 1)
      0000AA 85*05            [ 3]  219 	sta	*(___fslt_sloc1_1_0 + 1)
      0000AC ADr0Cr00         [ 4]  220 	lda	___fslt_fl2_10000_21
      0000AF 85*04            [ 3]  221 	sta	*___fslt_sloc1_1_0
                                    222 ;	Raw cost for generated ic 30 : (20, 28.000000) count=0.750000
                                    223 ;	genCmp
      0000B1 24*07            [ 3]  224 	bit	*(___fslt_sloc1_1_0 + 3)
      0000B3 10 47            [ 4]  225 	bpl	00106$
                                    226 ;	Raw cost for generated ic 31 : (7, 8.600000) count=0.750000
                                    227 ;	skipping generated iCode
                                    228 ;	Raw cost for generated ic 32 : (0, 0.000000) count=0.750000
                                    229 ;	../_fslt.c: 119: if (fl2.l < fl1.l)
                                    230 ;	skipping iCode since result will be rematerialized
                                    231 ;	Raw cost for generated ic 35 : (0, 0.000000) count=0.562500
                                    232 ;	genPointerGet
                                    233 ;	genDataPointerGet
      0000B5 ADr0Fr00         [ 4]  234 	lda	(___fslt_fl2_10000_21 + 3)
      0000B8 85*07            [ 3]  235 	sta	*(___fslt_sloc1_1_0 + 3)
      0000BA ADr0Er00         [ 4]  236 	lda	(___fslt_fl2_10000_21 + 2)
      0000BD 85*06            [ 3]  237 	sta	*(___fslt_sloc1_1_0 + 2)
      0000BF ADr0Dr00         [ 4]  238 	lda	(___fslt_fl2_10000_21 + 1)
      0000C2 85*05            [ 3]  239 	sta	*(___fslt_sloc1_1_0 + 1)
      0000C4 ADr0Cr00         [ 4]  240 	lda	___fslt_fl2_10000_21
      0000C7 85*04            [ 3]  241 	sta	*___fslt_sloc1_1_0
                                    242 ;	Raw cost for generated ic 37 : (20, 28.000000) count=0.562500
                                    243 ;	skipping iCode since result will be rematerialized
                                    244 ;	Raw cost for generated ic 38 : (0, 0.000000) count=0.562500
                                    245 ;	genPointerGet
                                    246 ;	genDataPointerGet
      0000C9 ADr0Br00         [ 4]  247 	lda	(___fslt_fl1_10000_21 + 3)
      0000CC 85*03            [ 3]  248 	sta	*(___fslt_sloc0_1_0 + 3)
      0000CE ADr0Ar00         [ 4]  249 	lda	(___fslt_fl1_10000_21 + 2)
      0000D1 85*02            [ 3]  250 	sta	*(___fslt_sloc0_1_0 + 2)
      0000D3 ADr09r00         [ 4]  251 	lda	(___fslt_fl1_10000_21 + 1)
      0000D6 85*01            [ 3]  252 	sta	*(___fslt_sloc0_1_0 + 1)
      0000D8 ADr08r00         [ 4]  253 	lda	___fslt_fl1_10000_21
      0000DB 85*00            [ 3]  254 	sta	*___fslt_sloc0_1_0
                                    255 ;	Raw cost for generated ic 40 : (20, 28.000000) count=0.562500
                                    256 ;	genCmp
      0000DD A5*04            [ 3]  257 	lda	*___fslt_sloc1_1_0
      0000DF 38               [ 2]  258 	sec
      0000E0 E5*00            [ 4]  259 	sbc	*___fslt_sloc0_1_0
      0000E2 A5*05            [ 3]  260 	lda	*(___fslt_sloc1_1_0 + 1)
      0000E4 E5*01            [ 4]  261 	sbc	*(___fslt_sloc0_1_0 + 1)
      0000E6 A5*06            [ 3]  262 	lda	*(___fslt_sloc1_1_0 + 2)
      0000E8 E5*02            [ 4]  263 	sbc	*(___fslt_sloc0_1_0 + 2)
      0000EA A5*07            [ 3]  264 	lda	*(___fslt_sloc1_1_0 + 3)
      0000EC E5*03            [ 4]  265 	sbc	*(___fslt_sloc0_1_0 + 3)
      0000EE 50 04            [ 4]  266 	bvc	00147$
      0000F0 10 04            [ 4]  267 	bpl	00146$
      0000F2 30 05            [ 4]  268 	bmi	00104$
      0000F4                        269 00147$:
      0000F4 10 03            [ 4]  270 	bpl	00104$
      0000F6                        271 00146$:
                                    272 ;	Raw cost for generated ic 41 : (28, 39.399998) count=0.562500
                                    273 ;	skipping generated iCode
                                    274 ;	Raw cost for generated ic 42 : (0, 0.000000) count=0.562500
                                    275 ;	../_fslt.c: 120: return (1);
                                    276 ;	genRet
      0000F6 A9 01            [ 2]  277 	lda	#0x01
      0000F8 60               [ 6]  278 	rts
                                    279 ;	Raw cost for generated ic 45 : (5, 5.000000) count=0.421875
                                    280 ;	genLabel
      0000F9                        281 00104$:
                                    282 ;	Raw cost for generated ic 46 : (0, 0.000000) count=0.562500
                                    283 ;	../_fslt.c: 121: return (0);
                                    284 ;	genRet
      0000F9 A9 00            [ 2]  285 	lda	#0x00
      0000FB 60               [ 6]  286 	rts
                                    287 ;	Raw cost for generated ic 47 : (5, 5.000000) count=0.562500
                                    288 ;	genLabel
      0000FC                        289 00106$:
                                    290 ;	Raw cost for generated ic 48 : (0, 0.000000) count=1.000000
                                    291 ;	../_fslt.c: 124: if (fl1.l < fl2.l)
                                    292 ;	skipping iCode since result will be rematerialized
                                    293 ;	Raw cost for generated ic 49 : (0, 0.000000) count=1.000000
                                    294 ;	genPointerGet
                                    295 ;	genDataPointerGet
      0000FC ADr0Br00         [ 4]  296 	lda	(___fslt_fl1_10000_21 + 3)
      0000FF 85*07            [ 3]  297 	sta	*(___fslt_sloc1_1_0 + 3)
      000101 ADr0Ar00         [ 4]  298 	lda	(___fslt_fl1_10000_21 + 2)
      000104 85*06            [ 3]  299 	sta	*(___fslt_sloc1_1_0 + 2)
      000106 ADr09r00         [ 4]  300 	lda	(___fslt_fl1_10000_21 + 1)
      000109 85*05            [ 3]  301 	sta	*(___fslt_sloc1_1_0 + 1)
      00010B ADr08r00         [ 4]  302 	lda	___fslt_fl1_10000_21
      00010E 85*04            [ 3]  303 	sta	*___fslt_sloc1_1_0
                                    304 ;	Raw cost for generated ic 51 : (20, 28.000000) count=1.000000
                                    305 ;	skipping iCode since result will be rematerialized
                                    306 ;	Raw cost for generated ic 52 : (0, 0.000000) count=1.000000
                                    307 ;	genPointerGet
                                    308 ;	genDataPointerGet
      000110 ADr0Fr00         [ 4]  309 	lda	(___fslt_fl2_10000_21 + 3)
      000113 85*03            [ 3]  310 	sta	*(___fslt_sloc0_1_0 + 3)
      000115 ADr0Er00         [ 4]  311 	lda	(___fslt_fl2_10000_21 + 2)
      000118 85*02            [ 3]  312 	sta	*(___fslt_sloc0_1_0 + 2)
      00011A ADr0Dr00         [ 4]  313 	lda	(___fslt_fl2_10000_21 + 1)
      00011D 85*01            [ 3]  314 	sta	*(___fslt_sloc0_1_0 + 1)
      00011F ADr0Cr00         [ 4]  315 	lda	___fslt_fl2_10000_21
      000122 85*00            [ 3]  316 	sta	*___fslt_sloc0_1_0
                                    317 ;	Raw cost for generated ic 54 : (20, 28.000000) count=1.000000
                                    318 ;	genCmp
      000124 A5*04            [ 3]  319 	lda	*___fslt_sloc1_1_0
      000126 38               [ 2]  320 	sec
      000127 E5*00            [ 4]  321 	sbc	*___fslt_sloc0_1_0
      000129 A5*05            [ 3]  322 	lda	*(___fslt_sloc1_1_0 + 1)
      00012B E5*01            [ 4]  323 	sbc	*(___fslt_sloc0_1_0 + 1)
      00012D A5*06            [ 3]  324 	lda	*(___fslt_sloc1_1_0 + 2)
      00012F E5*02            [ 4]  325 	sbc	*(___fslt_sloc0_1_0 + 2)
      000131 A5*07            [ 3]  326 	lda	*(___fslt_sloc1_1_0 + 3)
      000133 E5*03            [ 4]  327 	sbc	*(___fslt_sloc0_1_0 + 3)
      000135 50 04            [ 4]  328 	bvc	00150$
      000137 10 04            [ 4]  329 	bpl	00149$
      000139 30 05            [ 4]  330 	bmi	00109$
      00013B                        331 00150$:
      00013B 10 03            [ 4]  332 	bpl	00109$
      00013D                        333 00149$:
                                    334 ;	Raw cost for generated ic 55 : (28, 39.399998) count=1.000000
                                    335 ;	skipping generated iCode
                                    336 ;	Raw cost for generated ic 56 : (0, 0.000000) count=1.000000
                                    337 ;	../_fslt.c: 125: return (1);
                                    338 ;	genRet
      00013D A9 01            [ 2]  339 	lda	#0x01
      00013F 60               [ 6]  340 	rts
                                    341 ;	Raw cost for generated ic 59 : (5, 5.000000) count=0.750000
                                    342 ;	genLabel
      000140                        343 00109$:
                                    344 ;	Raw cost for generated ic 60 : (0, 0.000000) count=1.000000
                                    345 ;	../_fslt.c: 126: return (0);
                                    346 ;	genRet
      000140 A9 00            [ 2]  347 	lda	#0x00
                                    348 ;	Raw cost for generated ic 61 : (2, 2.000000) count=1.000000
                                    349 ;	genLabel
                                    350 ;	Raw cost for generated ic 62 : (0, 0.000000) count=1.000000
                                    351 ;	../_fslt.c: 127: }
                                    352 ;	genEndFunction
      000142 60               [ 6]  353 	rts
                                    354 ;	Raw cost for generated ic 63 : (1, 6.000000) count=1.000000
                                    355 	.area CODE
                                    356 	.area RODATA
                                    357 	.area XINIT
                                    358 	.area CABS    (ABS)
