                                      1 ;--------------------------------------------------------
                                      2 ; File Created by SDCC : free open source ISO C Compiler
                                      3 ; Version 4.5.10 #15691 (Linux)
                                      4 ;--------------------------------------------------------
                                      5 	.module _modslonglong
                                      6 	
      000000                          7 	.r65c02
                                      8 	.optsdcc -mmos65c02
                                      9 
                                     10 ;--------------------------------------------------------
                                     11 ;  Ordering of segments for the linker.
                                     12 ;--------------------------------------------------------
                                     13 	.area ZP      (PAG)
                                     14 	.area OSEG    (PAG, OVR)
                                     15 	.area _CODE
                                     16 	.area GSINIT
                                     17 	.area GSFINAL
                                     18 	.area CODE
                                     19 	.area RODATA
                                     20 	.area XINIT
                                     21 	.area _DATA
                                     22 	.area DATA
                                     23 	.area BSS
                                     24 ;--------------------------------------------------------
                                     25 ; Public variables in this module
                                     26 ;--------------------------------------------------------
                                     27 	.globl __modslonglong_PARM_2
                                     28 	.globl __modslonglong_PARM_1
                                     29 	.globl __modslonglong
                                     30 ;--------------------------------------------------------
                                     31 ; ZP ram data
                                     32 ;--------------------------------------------------------
                                     33 	.area ZP      (PAG)
      000000                         34 __modslonglong_sloc0_1_0:
      000000                         35 	.ds 8
      000008                         36 __modslonglong_sloc1_1_0:
      000008                         37 	.ds 8
                                     38 ;--------------------------------------------------------
                                     39 ; overlayable items in ram
                                     40 ;--------------------------------------------------------
                                     41 ;--------------------------------------------------------
                                     42 ; uninitialized external ram data
                                     43 ;--------------------------------------------------------
                                     44 	.area BSS
      000000                         45 __modslonglong_PARM_1:
      000000                         46 	.ds 8
      000008                         47 __modslonglong_PARM_2:
      000008                         48 	.ds 8
                                     49 ;--------------------------------------------------------
                                     50 ; absolute external ram data
                                     51 ;--------------------------------------------------------
                                     52 	.area DABS    (ABS)
                                     53 ;--------------------------------------------------------
                                     54 ; initialized external ram data
                                     55 ;--------------------------------------------------------
                                     56 	.area DATA
                                     57 ;--------------------------------------------------------
                                     58 ; global & static initialisations
                                     59 ;--------------------------------------------------------
                                     60 	.area _CODE
                                     61 	.area GSINIT
                                     62 	.area GSFINAL
                                     63 	.area GSINIT
                                     64 ;--------------------------------------------------------
                                     65 ; Home
                                     66 ;--------------------------------------------------------
                                     67 	.area _CODE
                                     68 	.area _CODE
                                     69 ;--------------------------------------------------------
                                     70 ; code
                                     71 ;--------------------------------------------------------
                                     72 	.area CODE
                                     73 ;------------------------------------------------------------
                                     74 ;Allocation info for local variables in function '_modslonglong'
                                     75 ;------------------------------------------------------------
                                     76 ;sloc0         Allocated with name '__modslonglong_sloc0_1_0'
                                     77 ;sloc1         Allocated with name '__modslonglong_sloc1_1_0'
                                     78 ;numerator     Allocated with name '__modslonglong_PARM_1'
                                     79 ;denominator   Allocated with name '__modslonglong_PARM_2'
                                     80 ;numeratorneg  Allocated to registers x 
                                     81 ;denominatorneg Allocated to registers y 
                                     82 ;r             Allocated with name '__modslonglong_r_10000_2'
                                     83 ;------------------------------------------------------------
                                     84 ;	../_modslonglong.c: 36: _modslonglong (long long numerator, long long denominator) __SDCC_NONBANKED
                                     85 ;	genLabel
                                     86 ;	Raw cost for generated ic 0 : (0, 0.000000) count=1.000000
                                     87 ;	-----------------------------------------
                                     88 ;	 function _modslonglong
                                     89 ;	-----------------------------------------
                                     90 ;	Register assignment is optimal.
                                     91 ;	Stack space usage: 0 bytes.
      000000                         92 __modslonglong:
                                     93 ;	Raw cost for generated ic 1 : (0, 0.000000) count=1.000000
                                     94 ;	../_modslonglong.c: 38: bool numeratorneg = (numerator < 0);
                                     95 ;	genCmp
      000000 2Cr07r00         [ 4]   96 	bit	(__modslonglong_PARM_1 + 7)
      000003 30 04            [ 4]   97 	bmi	00127$
      000005 A9 00            [ 2]   98 	lda	#0x00
      000007 80 02            [ 4]   99 	bra	00128$
      000009                        100 00127$:
      000009 A9 01            [ 2]  101 	lda	#0x01
      00000B                        102 00128$:
      00000B AA               [ 2]  103 	tax
                                    104 ;	Raw cost for generated ic 2 : (12, 15.200001) count=1.000000
                                    105 ;	../_modslonglong.c: 39: bool denominatorneg = (denominator < 0);
                                    106 ;	genCmp
      00000C 2Cr0Fr00         [ 4]  107 	bit	(__modslonglong_PARM_2 + 7)
      00000F 30 04            [ 4]  108 	bmi	00129$
      000011 A9 00            [ 2]  109 	lda	#0x00
      000013 80 02            [ 4]  110 	bra	00130$
      000015                        111 00129$:
      000015 A9 01            [ 2]  112 	lda	#0x01
      000017                        113 00130$:
      000017 A8               [ 2]  114 	tay
                                    115 ;	Raw cost for generated ic 4 : (12, 15.200001) count=1.000000
                                    116 ;	../_modslonglong.c: 42: if (numeratorneg)
                                    117 ;	genIfx
      000018 E0 00            [ 2]  118 	cpx	#0x00
                                    119 ;	genIfxJump : z
      00001A F0 41            [ 4]  120 	beq	00102$
                                    121 ;	Raw cost for generated ic 6 : (7, 7.600000) count=1.000000
                                    122 ;	../_modslonglong.c: 43: numerator = -numerator;
                                    123 ;	genUminus
      00001C A9 00            [ 2]  124 	lda	#0x00
      00001E 38               [ 2]  125 	sec
      00001F EDr00r00         [ 5]  126 	sbc	__modslonglong_PARM_1
      000022 8Dr00r00         [ 4]  127 	sta	__modslonglong_PARM_1
      000025 A9 00            [ 2]  128 	lda	#0x00
      000027 EDr01r00         [ 5]  129 	sbc	(__modslonglong_PARM_1 + 1)
      00002A 8Dr01r00         [ 4]  130 	sta	(__modslonglong_PARM_1 + 1)
      00002D A9 00            [ 2]  131 	lda	#0x00
      00002F EDr02r00         [ 5]  132 	sbc	(__modslonglong_PARM_1 + 2)
      000032 8Dr02r00         [ 4]  133 	sta	(__modslonglong_PARM_1 + 2)
      000035 A9 00            [ 2]  134 	lda	#0x00
      000037 EDr03r00         [ 5]  135 	sbc	(__modslonglong_PARM_1 + 3)
      00003A 8Dr03r00         [ 4]  136 	sta	(__modslonglong_PARM_1 + 3)
      00003D A9 00            [ 2]  137 	lda	#0x00
      00003F EDr04r00         [ 5]  138 	sbc	(__modslonglong_PARM_1 + 4)
      000042 8Dr04r00         [ 4]  139 	sta	(__modslonglong_PARM_1 + 4)
      000045 A9 00            [ 2]  140 	lda	#0x00
      000047 EDr05r00         [ 5]  141 	sbc	(__modslonglong_PARM_1 + 5)
      00004A 8Dr05r00         [ 4]  142 	sta	(__modslonglong_PARM_1 + 5)
      00004D A9 00            [ 2]  143 	lda	#0x00
      00004F EDr06r00         [ 5]  144 	sbc	(__modslonglong_PARM_1 + 6)
      000052 8Dr06r00         [ 4]  145 	sta	(__modslonglong_PARM_1 + 6)
      000055 A9 00            [ 2]  146 	lda	#0x00
      000057 EDr07r00         [ 5]  147 	sbc	(__modslonglong_PARM_1 + 7)
      00005A 8Dr07r00         [ 4]  148 	sta	(__modslonglong_PARM_1 + 7)
                                    149 ;	Raw cost for generated ic 9 : (65, 82.000000) count=0.750000
                                    150 ;	genLabel
      00005D                        151 00102$:
                                    152 ;	Raw cost for generated ic 11 : (0, 0.000000) count=1.000000
                                    153 ;	../_modslonglong.c: 44: if (denominatorneg)
                                    154 ;	genIfx
      00005D C0 00            [ 2]  155 	cpy	#0x00
                                    156 ;	genIfxJump : z
      00005F F0 41            [ 4]  157 	beq	00104$
                                    158 ;	Raw cost for generated ic 12 : (7, 7.600000) count=1.000000
                                    159 ;	../_modslonglong.c: 45: denominator = -denominator;
                                    160 ;	genUminus
      000061 A9 00            [ 2]  161 	lda	#0x00
      000063 38               [ 2]  162 	sec
      000064 EDr08r00         [ 5]  163 	sbc	__modslonglong_PARM_2
      000067 8Dr08r00         [ 4]  164 	sta	__modslonglong_PARM_2
      00006A A9 00            [ 2]  165 	lda	#0x00
      00006C EDr09r00         [ 5]  166 	sbc	(__modslonglong_PARM_2 + 1)
      00006F 8Dr09r00         [ 4]  167 	sta	(__modslonglong_PARM_2 + 1)
      000072 A9 00            [ 2]  168 	lda	#0x00
      000074 EDr0Ar00         [ 5]  169 	sbc	(__modslonglong_PARM_2 + 2)
      000077 8Dr0Ar00         [ 4]  170 	sta	(__modslonglong_PARM_2 + 2)
      00007A A9 00            [ 2]  171 	lda	#0x00
      00007C EDr0Br00         [ 5]  172 	sbc	(__modslonglong_PARM_2 + 3)
      00007F 8Dr0Br00         [ 4]  173 	sta	(__modslonglong_PARM_2 + 3)
      000082 A9 00            [ 2]  174 	lda	#0x00
      000084 EDr0Cr00         [ 5]  175 	sbc	(__modslonglong_PARM_2 + 4)
      000087 8Dr0Cr00         [ 4]  176 	sta	(__modslonglong_PARM_2 + 4)
      00008A A9 00            [ 2]  177 	lda	#0x00
      00008C EDr0Dr00         [ 5]  178 	sbc	(__modslonglong_PARM_2 + 5)
      00008F 8Dr0Dr00         [ 4]  179 	sta	(__modslonglong_PARM_2 + 5)
      000092 A9 00            [ 2]  180 	lda	#0x00
      000094 EDr0Er00         [ 5]  181 	sbc	(__modslonglong_PARM_2 + 6)
      000097 8Dr0Er00         [ 4]  182 	sta	(__modslonglong_PARM_2 + 6)
      00009A A9 00            [ 2]  183 	lda	#0x00
      00009C EDr0Fr00         [ 5]  184 	sbc	(__modslonglong_PARM_2 + 7)
      00009F 8Dr0Fr00         [ 4]  185 	sta	(__modslonglong_PARM_2 + 7)
                                    186 ;	Raw cost for generated ic 15 : (65, 82.000000) count=0.750000
                                    187 ;	genLabel
      0000A2                        188 00104$:
                                    189 ;	Raw cost for generated ic 17 : (0, 0.000000) count=1.000000
                                    190 ;	../_modslonglong.c: 47: r = (unsigned long long)numerator % (unsigned long long)denominator;
                                    191 ;	genCast
                                    192 ;	genCopy
      0000A2 ADr07r00         [ 4]  193 	lda	(__modslonglong_PARM_1 + 7)
      0000A5 8Dr07r00         [ 4]  194 	sta	(__modulonglong_PARM_1 + 7)
      0000A8 ADr06r00         [ 4]  195 	lda	(__modslonglong_PARM_1 + 6)
      0000AB 8Dr06r00         [ 4]  196 	sta	(__modulonglong_PARM_1 + 6)
      0000AE ADr05r00         [ 4]  197 	lda	(__modslonglong_PARM_1 + 5)
      0000B1 8Dr05r00         [ 4]  198 	sta	(__modulonglong_PARM_1 + 5)
      0000B4 ADr04r00         [ 4]  199 	lda	(__modslonglong_PARM_1 + 4)
      0000B7 8Dr04r00         [ 4]  200 	sta	(__modulonglong_PARM_1 + 4)
      0000BA ADr03r00         [ 4]  201 	lda	(__modslonglong_PARM_1 + 3)
      0000BD 8Dr03r00         [ 4]  202 	sta	(__modulonglong_PARM_1 + 3)
      0000C0 ADr02r00         [ 4]  203 	lda	(__modslonglong_PARM_1 + 2)
      0000C3 8Dr02r00         [ 4]  204 	sta	(__modulonglong_PARM_1 + 2)
      0000C6 ADr01r00         [ 4]  205 	lda	(__modslonglong_PARM_1 + 1)
      0000C9 8Dr01r00         [ 4]  206 	sta	(__modulonglong_PARM_1 + 1)
      0000CC ADr00r00         [ 4]  207 	lda	__modslonglong_PARM_1
      0000CF 8Dr00r00         [ 4]  208 	sta	__modulonglong_PARM_1
                                    209 ;	Raw cost for generated ic 18 : (48, 64.000000) count=1.000000
                                    210 ;	genCast
                                    211 ;	genCopy
      0000D2 ADr0Fr00         [ 4]  212 	lda	(__modslonglong_PARM_2 + 7)
      0000D5 8Dr07r00         [ 4]  213 	sta	(__modulonglong_PARM_2 + 7)
      0000D8 ADr0Er00         [ 4]  214 	lda	(__modslonglong_PARM_2 + 6)
      0000DB 8Dr06r00         [ 4]  215 	sta	(__modulonglong_PARM_2 + 6)
      0000DE ADr0Dr00         [ 4]  216 	lda	(__modslonglong_PARM_2 + 5)
      0000E1 8Dr05r00         [ 4]  217 	sta	(__modulonglong_PARM_2 + 5)
      0000E4 ADr0Cr00         [ 4]  218 	lda	(__modslonglong_PARM_2 + 4)
      0000E7 8Dr04r00         [ 4]  219 	sta	(__modulonglong_PARM_2 + 4)
      0000EA ADr0Br00         [ 4]  220 	lda	(__modslonglong_PARM_2 + 3)
      0000ED 8Dr03r00         [ 4]  221 	sta	(__modulonglong_PARM_2 + 3)
      0000F0 ADr0Ar00         [ 4]  222 	lda	(__modslonglong_PARM_2 + 2)
      0000F3 8Dr02r00         [ 4]  223 	sta	(__modulonglong_PARM_2 + 2)
      0000F6 ADr09r00         [ 4]  224 	lda	(__modslonglong_PARM_2 + 1)
      0000F9 8Dr01r00         [ 4]  225 	sta	(__modulonglong_PARM_2 + 1)
      0000FC ADr08r00         [ 4]  226 	lda	__modslonglong_PARM_2
      0000FF 8Dr00r00         [ 4]  227 	sta	__modulonglong_PARM_2
                                    228 ;	Raw cost for generated ic 19 : (48, 64.000000) count=1.000000
                                    229 ;	../_modslonglong.c: 49: return (numeratorneg ? -r : r);
                                    230 ;	genCall
      000102 DA               [ 3]  231 	phx
      000103 20r00r00         [ 6]  232 	jsr	__modulonglong
                                    233 ;	assignResultValue
      000106 85*00            [ 3]  234 	sta	*__modslonglong_sloc0_1_0
      000108 86*01            [ 3]  235 	stx	*(__modslonglong_sloc0_1_0 + 1)
      00010A A5*00            [ 3]  236 	lda	*___SDCC_m6502_ret2
      00010C 85*02            [ 3]  237 	sta	*(__modslonglong_sloc0_1_0 + 2)
      00010E A5*00            [ 3]  238 	lda	*___SDCC_m6502_ret3
      000110 85*03            [ 3]  239 	sta	*(__modslonglong_sloc0_1_0 + 3)
      000112 A5*00            [ 3]  240 	lda	*___SDCC_m6502_ret4
      000114 85*04            [ 3]  241 	sta	*(__modslonglong_sloc0_1_0 + 4)
      000116 A5*00            [ 3]  242 	lda	*___SDCC_m6502_ret5
      000118 85*05            [ 3]  243 	sta	*(__modslonglong_sloc0_1_0 + 5)
      00011A A5*00            [ 3]  244 	lda	*___SDCC_m6502_ret6
      00011C 85*06            [ 3]  245 	sta	*(__modslonglong_sloc0_1_0 + 6)
      00011E A5*00            [ 3]  246 	lda	*___SDCC_m6502_ret7
      000120 85*07            [ 3]  247 	sta	*(__modslonglong_sloc0_1_0 + 7)
      000122 FA               [ 4]  248 	plx
                                    249 ;	Raw cost for generated ic 34 : (33, 55.000000) count=1.000000
                                    250 ;	genIfx
                                    251 ;	genIfxJump : z
      000123 F0 34            [ 4]  252 	beq	00107$
                                    253 ;	Raw cost for generated ic 22 : (5, 5.600000) count=1.000000
                                    254 ;	genUminus
      000125 A9 00            [ 2]  255 	lda	#0x00
      000127 38               [ 2]  256 	sec
      000128 E5*00            [ 4]  257 	sbc	*__modslonglong_sloc0_1_0
      00012A 85*08            [ 3]  258 	sta	*__modslonglong_sloc1_1_0
      00012C A9 00            [ 2]  259 	lda	#0x00
      00012E E5*01            [ 4]  260 	sbc	*(__modslonglong_sloc0_1_0 + 1)
      000130 85*09            [ 3]  261 	sta	*(__modslonglong_sloc1_1_0 + 1)
      000132 A9 00            [ 2]  262 	lda	#0x00
      000134 E5*02            [ 4]  263 	sbc	*(__modslonglong_sloc0_1_0 + 2)
      000136 85*0A            [ 3]  264 	sta	*(__modslonglong_sloc1_1_0 + 2)
      000138 A9 00            [ 2]  265 	lda	#0x00
      00013A E5*03            [ 4]  266 	sbc	*(__modslonglong_sloc0_1_0 + 3)
      00013C 85*0B            [ 3]  267 	sta	*(__modslonglong_sloc1_1_0 + 3)
      00013E A9 00            [ 2]  268 	lda	#0x00
      000140 E5*04            [ 4]  269 	sbc	*(__modslonglong_sloc0_1_0 + 4)
      000142 85*0C            [ 3]  270 	sta	*(__modslonglong_sloc1_1_0 + 4)
      000144 A9 00            [ 2]  271 	lda	#0x00
      000146 E5*05            [ 4]  272 	sbc	*(__modslonglong_sloc0_1_0 + 5)
      000148 85*0D            [ 3]  273 	sta	*(__modslonglong_sloc1_1_0 + 5)
      00014A A9 00            [ 2]  274 	lda	#0x00
      00014C E5*06            [ 4]  275 	sbc	*(__modslonglong_sloc0_1_0 + 6)
      00014E 85*0E            [ 3]  276 	sta	*(__modslonglong_sloc1_1_0 + 6)
      000150 A9 00            [ 2]  277 	lda	#0x00
      000152 E5*07            [ 4]  278 	sbc	*(__modslonglong_sloc0_1_0 + 7)
      000154 85*0F            [ 3]  279 	sta	*(__modslonglong_sloc1_1_0 + 7)
                                    280 ;	Raw cost for generated ic 23 : (49, 66.000000) count=0.750000
                                    281 ;	genGoto
      000156 4Cr79r01         [ 3]  282 	jmp	00108$
                                    283 ;	Raw cost for generated ic 25 : (3, 3.000000) count=0.750000
                                    284 ;	genLabel
      000159                        285 00107$:
                                    286 ;	Raw cost for generated ic 26 : (0, 0.000000) count=0.250000
                                    287 ;	genAssign
                                    288 ;	genCopy
      000159 A5*07            [ 3]  289 	lda	*(__modslonglong_sloc0_1_0 + 7)
      00015B 85*0F            [ 3]  290 	sta	*(__modslonglong_sloc1_1_0 + 7)
      00015D A5*06            [ 3]  291 	lda	*(__modslonglong_sloc0_1_0 + 6)
      00015F 85*0E            [ 3]  292 	sta	*(__modslonglong_sloc1_1_0 + 6)
      000161 A5*05            [ 3]  293 	lda	*(__modslonglong_sloc0_1_0 + 5)
      000163 85*0D            [ 3]  294 	sta	*(__modslonglong_sloc1_1_0 + 5)
      000165 A5*04            [ 3]  295 	lda	*(__modslonglong_sloc0_1_0 + 4)
      000167 85*0C            [ 3]  296 	sta	*(__modslonglong_sloc1_1_0 + 4)
      000169 A5*03            [ 3]  297 	lda	*(__modslonglong_sloc0_1_0 + 3)
      00016B 85*0B            [ 3]  298 	sta	*(__modslonglong_sloc1_1_0 + 3)
      00016D A5*02            [ 3]  299 	lda	*(__modslonglong_sloc0_1_0 + 2)
      00016F 85*0A            [ 3]  300 	sta	*(__modslonglong_sloc1_1_0 + 2)
      000171 A5*01            [ 3]  301 	lda	*(__modslonglong_sloc0_1_0 + 1)
      000173 85*09            [ 3]  302 	sta	*(__modslonglong_sloc1_1_0 + 1)
      000175 A5*00            [ 3]  303 	lda	*__modslonglong_sloc0_1_0
      000177 85*08            [ 3]  304 	sta	*__modslonglong_sloc1_1_0
                                    305 ;	Raw cost for generated ic 27 : (32, 48.000000) count=0.250000
                                    306 ;	genLabel
      000179                        307 00108$:
                                    308 ;	Raw cost for generated ic 28 : (0, 0.000000) count=1.000000
                                    309 ;	genRet
      000179 A5*0F            [ 3]  310 	lda	*(__modslonglong_sloc1_1_0 + 7)
      00017B 85*00            [ 3]  311 	sta	*___SDCC_m6502_ret7
      00017D A5*0E            [ 3]  312 	lda	*(__modslonglong_sloc1_1_0 + 6)
      00017F 85*00            [ 3]  313 	sta	*___SDCC_m6502_ret6
      000181 A5*0D            [ 3]  314 	lda	*(__modslonglong_sloc1_1_0 + 5)
      000183 85*00            [ 3]  315 	sta	*___SDCC_m6502_ret5
      000185 A5*0C            [ 3]  316 	lda	*(__modslonglong_sloc1_1_0 + 4)
      000187 85*00            [ 3]  317 	sta	*___SDCC_m6502_ret4
      000189 A5*0B            [ 3]  318 	lda	*(__modslonglong_sloc1_1_0 + 3)
      00018B 85*00            [ 3]  319 	sta	*___SDCC_m6502_ret3
      00018D A5*0A            [ 3]  320 	lda	*(__modslonglong_sloc1_1_0 + 2)
      00018F 85*00            [ 3]  321 	sta	*___SDCC_m6502_ret2
      000191 A6*09            [ 3]  322 	ldx	*(__modslonglong_sloc1_1_0 + 1)
      000193 A5*08            [ 3]  323 	lda	*__modslonglong_sloc1_1_0
                                    324 ;	Raw cost for generated ic 29 : (28, 42.000000) count=1.000000
                                    325 ;	genLabel
                                    326 ;	Raw cost for generated ic 30 : (0, 0.000000) count=1.000000
                                    327 ;	../_modslonglong.c: 50: }
                                    328 ;	genEndFunction
      000195 60               [ 6]  329 	rts
                                    330 ;	Raw cost for generated ic 31 : (1, 6.000000) count=1.000000
                                    331 	.area CODE
                                    332 	.area RODATA
                                    333 	.area XINIT
                                    334 	.area CABS    (ABS)
