                                      1 ;--------------------------------------------------------
                                      2 ; File Created by SDCC : free open source ISO C Compiler
                                      3 ; Version 4.5.10 #15691 (Linux)
                                      4 ;--------------------------------------------------------
                                      5 	.module _ulong2fs
                                      6 	
      000000                          7 	.r65c02
                                      8 	.optsdcc -mmos65c02
                                      9 
                                     10 ;--------------------------------------------------------
                                     11 ;  Ordering of segments for the linker.
                                     12 ;--------------------------------------------------------
                                     13 	.area ZP      (PAG)
                                     14 	.area OSEG    (PAG, OVR)
                                     15 	.area _CODE
                                     16 	.area GSINIT
                                     17 	.area GSFINAL
                                     18 	.area CODE
                                     19 	.area RODATA
                                     20 	.area XINIT
                                     21 	.area _DATA
                                     22 	.area DATA
                                     23 	.area BSS
                                     24 ;--------------------------------------------------------
                                     25 ; Public variables in this module
                                     26 ;--------------------------------------------------------
                                     27 	.globl ___ulong2fs_PARM_1
                                     28 	.globl ___ulong2fs
                                     29 ;--------------------------------------------------------
                                     30 ; ZP ram data
                                     31 ;--------------------------------------------------------
                                     32 	.area ZP      (PAG)
                                     33 ;--------------------------------------------------------
                                     34 ; overlayable items in ram
                                     35 ;--------------------------------------------------------
                                     36 	.area	OSEG    (PAG, OVR)
      000000                         37 ___ulong2fs_sloc0_1_0:
      000000                         38 	.ds 4
                                     39 ;--------------------------------------------------------
                                     40 ; uninitialized external ram data
                                     41 ;--------------------------------------------------------
                                     42 	.area BSS
      000000                         43 ___ulong2fs_PARM_1:
      000000                         44 	.ds 4
      000004                         45 ___ulong2fs_fl_10000_21:
      000004                         46 	.ds 4
                                     47 ;--------------------------------------------------------
                                     48 ; absolute external ram data
                                     49 ;--------------------------------------------------------
                                     50 	.area DABS    (ABS)
                                     51 ;--------------------------------------------------------
                                     52 ; initialized external ram data
                                     53 ;--------------------------------------------------------
                                     54 	.area DATA
                                     55 ;--------------------------------------------------------
                                     56 ; global & static initialisations
                                     57 ;--------------------------------------------------------
                                     58 	.area _CODE
                                     59 	.area GSINIT
                                     60 	.area GSFINAL
                                     61 	.area GSINIT
                                     62 ;--------------------------------------------------------
                                     63 ; Home
                                     64 ;--------------------------------------------------------
                                     65 	.area _CODE
                                     66 	.area _CODE
                                     67 ;--------------------------------------------------------
                                     68 ; code
                                     69 ;--------------------------------------------------------
                                     70 	.area CODE
                                     71 ;------------------------------------------------------------
                                     72 ;Allocation info for local variables in function '__ulong2fs'
                                     73 ;------------------------------------------------------------
                                     74 ;a             Allocated with name '___ulong2fs_PARM_1'
                                     75 ;exp           Allocated to registers 
                                     76 ;fl            Allocated with name '___ulong2fs_fl_10000_21'
                                     77 ;sloc0         Allocated with name '___ulong2fs_sloc0_1_0'
                                     78 ;------------------------------------------------------------
                                     79 ;	../_ulong2fs.c: 84: float __ulong2fs (unsigned long a ) __SDCC_FLOAT_NONBANKED
                                     80 ;	genLabel
                                     81 ;	Raw cost for generated ic 0 : (0, 0.000000) count=1.000000
                                     82 ;	-----------------------------------------
                                     83 ;	 function __ulong2fs
                                     84 ;	-----------------------------------------
                                     85 ;	Register assignment is optimal.
                                     86 ;	Stack space usage: 0 bytes.
      000000                         87 ___ulong2fs:
                                     88 ;	Raw cost for generated ic 1 : (0, 0.000000) count=1.000000
                                     89 ;	../_ulong2fs.c: 89: if (!a)
                                     90 ;	genIfx
      000000 ADr03r00         [ 4]   91 	lda	(___ulong2fs_PARM_1 + 3)
      000003 0Dr02r00         [ 4]   92 	ora	(___ulong2fs_PARM_1 + 2)
      000006 0Dr01r00         [ 4]   93 	ora	(___ulong2fs_PARM_1 + 1)
      000009 0Dr00r00         [ 4]   94 	ora	___ulong2fs_PARM_1
                                     95 ;	genIfxJump : z
      00000C D0 08            [ 4]   96 	bne	00102$
                                     97 ;	Raw cost for generated ic 3 : (17, 21.600000) count=1.000000
                                     98 ;	../_ulong2fs.c: 91: return 0.0;
                                     99 ;	genRet
      00000E A9 00            [ 2]  100 	lda	#0x00
      000010 AA               [ 2]  101 	tax
      000011 85*00            [ 3]  102 	sta	*___SDCC_m6502_ret2
      000013 85*00            [ 3]  103 	sta	*___SDCC_m6502_ret3
      000015 60               [ 6]  104 	rts
                                    105 ;	Raw cost for generated ic 6 : (10, 13.000000) count=0.750000
                                    106 ;	genLabel
      000016                        107 00102$:
                                    108 ;	Raw cost for generated ic 7 : (0, 0.000000) count=1.000000
                                    109 ;	../_ulong2fs.c: 94: if (a == 0xfffffffful)
                                    110 ;	genCmpEQorNE
      000016 ADr00r00         [ 4]  111 	lda	___ulong2fs_PARM_1
      000019 C9 FF            [ 2]  112 	cmp	#0xff
      00001B D0 21            [ 4]  113 	bne	00118$
      00001D ADr01r00         [ 4]  114 	lda	(___ulong2fs_PARM_1 + 1)
      000020 C9 FF            [ 2]  115 	cmp	#0xff
      000022 D0 1A            [ 4]  116 	bne	00118$
      000024 ADr02r00         [ 4]  117 	lda	(___ulong2fs_PARM_1 + 2)
      000027 C9 FF            [ 2]  118 	cmp	#0xff
      000029 D0 13            [ 4]  119 	bne	00118$
      00002B ADr03r00         [ 4]  120 	lda	(___ulong2fs_PARM_1 + 3)
      00002E C9 FF            [ 2]  121 	cmp	#0xff
      000030 D0 0C            [ 4]  122 	bne	00118$
                                    123 ;	Raw cost for generated ic 8 : (40, 46.400002) count=1.000000
                                    124 ;	skipping generated iCode
                                    125 ;	Raw cost for generated ic 9 : (0, 0.000000) count=1.000000
                                    126 ;	../_ulong2fs.c: 96: return 4294967296.0f;
                                    127 ;	genRet
      000032 A9 00            [ 2]  128 	lda	#0x00
      000034 AA               [ 2]  129 	tax
      000035 A0 80            [ 2]  130 	ldy	#0x80
      000037 84*00            [ 3]  131 	sty	*___SDCC_m6502_ret2
      000039 A0 4F            [ 2]  132 	ldy	#0x4f
      00003B 84*00            [ 3]  133 	sty	*___SDCC_m6502_ret3
      00003D 60               [ 6]  134 	rts
                                    135 ;	Raw cost for generated ic 12 : (14, 17.000000) count=0.750000
                                    136 ;	../_ulong2fs.c: 99: while (a < HIDDEN)
                                    137 ;	genLabel
      00003E                        138 00118$:
                                    139 ;	Raw cost for generated ic 60 : (0, 0.000000) count=1.000000
                                    140 ;	genAssign
                                    141 ;	genCopy
      00003E A2 96            [ 2]  142 	ldx	#0x96
                                    143 ;	Raw cost for generated ic 62 : (2, 2.000000) count=1.000000
                                    144 ;	genLabel
      000040                        145 00105$:
                                    146 ;	Raw cost for generated ic 14 : (0, 0.000000) count=3.999997
                                    147 ;	genCmp
      000040 ADr02r00         [ 4]  148 	lda	(___ulong2fs_PARM_1 + 2)
      000043 38               [ 2]  149 	sec
      000044 E9 80            [ 3]  150 	sbc	#0x80
      000046 ADr03r00         [ 4]  151 	lda	(___ulong2fs_PARM_1 + 3)
      000049 E9 00            [ 3]  152 	sbc	#0x00
      00004B B0 10            [ 4]  153 	bcs	00121$
                                    154 ;	Raw cost for generated ic 15 : (16, 19.600000) count=3.999997
                                    155 ;	skipping generated iCode
                                    156 ;	Raw cost for generated ic 16 : (0, 0.000000) count=3.999997
                                    157 ;	../_ulong2fs.c: 101: a <<= 1;
                                    158 ;	genLeftShift
                                    159 ;	genLeftShiftLiteral
                                    160 ;	  genlsh32 - shift=1
      00004D 0Er00r00         [ 6]  161 	asl	___ulong2fs_PARM_1
      000050 2Er01r00         [ 6]  162 	rol	(___ulong2fs_PARM_1 + 1)
      000053 2Er02r00         [ 6]  163 	rol	(___ulong2fs_PARM_1 + 2)
      000056 2Er03r00         [ 6]  164 	rol	(___ulong2fs_PARM_1 + 3)
                                    165 ;	Raw cost for generated ic 19 : (12, 24.000000) count=2.999997
                                    166 ;	../_ulong2fs.c: 102: exp--;
                                    167 ;	genMinus
                                    168 ;	  genMinusDec - size=1  icount=1
      000059 CA               [ 2]  169 	dex
                                    170 ;	Raw cost for generated ic 22 : (1, 2.000000) count=2.999997
                                    171 ;	genGoto
      00005A 4Cr40r00         [ 3]  172 	jmp	00105$
                                    173 ;	Raw cost for generated ic 24 : (3, 3.000000) count=2.999997
                                    174 ;	../_ulong2fs.c: 105: while (a & NORM)
                                    175 ;	genLabel
      00005D                        176 00121$:
                                    177 ;	Raw cost for generated ic 61 : (0, 0.000000) count=0.999999
                                    178 ;	genAssign
                                    179 ;	genCopy
                                    180 ;	Raw cost for generated ic 65 : (0, 0.000000) count=0.999999
                                    181 ;	genLabel
      00005D                        182 00110$:
                                    183 ;	Raw cost for generated ic 26 : (0, 0.000000) count=3.999991
                                    184 ;	genAnd
      00005D ADr03r00         [ 4]  185 	lda	(___ulong2fs_PARM_1 + 3)
                                    186 ;	genIfxJump : z
      000060 F0 33            [ 4]  187 	beq	00112$
                                    188 ;	Raw cost for generated ic 27 : (8, 9.600000) count=3.999991
                                    189 ;	skipping generated iCode
                                    190 ;	Raw cost for generated ic 28 : (0, 0.000000) count=3.999991
                                    191 ;	../_ulong2fs.c: 108: if (a & 1)
                                    192 ;	genAnd
      000062 ADr00r00         [ 4]  193 	lda	___ulong2fs_PARM_1
      000065 29 01            [ 2]  194 	and	#0x01
                                    195 ;	genIfxJump : z
      000067 F0 18            [ 4]  196 	beq	00109$
                                    197 ;	Raw cost for generated ic 31 : (12, 14.200001) count=2.999994
                                    198 ;	skipping generated iCode
                                    199 ;	Raw cost for generated ic 32 : (0, 0.000000) count=2.999994
                                    200 ;	../_ulong2fs.c: 109: a += 2;
                                    201 ;	genPlus
                                    202 ;	  genPlusInc
      000069 ADr00r00         [ 4]  203 	lda	___ulong2fs_PARM_1
      00006C 18               [ 2]  204 	clc
      00006D 69 02            [ 3]  205 	adc	#0x02
      00006F 8Dr00r00         [ 4]  206 	sta	___ulong2fs_PARM_1
      000072 90 0D            [ 4]  207 	bcc	00171$
      000074 EEr01r00         [ 6]  208 	inc	(___ulong2fs_PARM_1 + 1)
      000077 D0 08            [ 4]  209 	bne	00171$
      000079 EEr02r00         [ 6]  210 	inc	(___ulong2fs_PARM_1 + 2)
      00007C D0 03            [ 4]  211 	bne	00171$
      00007E EEr03r00         [ 6]  212 	inc	(___ulong2fs_PARM_1 + 3)
      000081                        213 00171$:
                                    214 ;	Raw cost for generated ic 35 : (24, 37.800003) count=2.249994
                                    215 ;	genLabel
      000081                        216 00109$:
                                    217 ;	Raw cost for generated ic 37 : (0, 0.000000) count=2.999992
                                    218 ;	../_ulong2fs.c: 110: a >>= 1;
                                    219 ;	genRightShift
                                    220 ;	genRightShiftLiteral
                                    221 ;	  genrsh32 - shift=1
      000081 ADr03r00         [ 4]  222 	lda	(___ulong2fs_PARM_1 + 3)
      000084 4A               [ 2]  223 	lsr	a
      000085 6Er02r00         [ 6]  224 	ror	(___ulong2fs_PARM_1 + 2)
      000088 6Er01r00         [ 6]  225 	ror	(___ulong2fs_PARM_1 + 1)
      00008B 6Er00r00         [ 6]  226 	ror	___ulong2fs_PARM_1
      00008E 8Dr03r00         [ 4]  227 	sta	(___ulong2fs_PARM_1 + 3)
                                    228 ;	Raw cost for generated ic 38 : (16, 28.000000) count=2.999992
                                    229 ;	../_ulong2fs.c: 111: exp++;
                                    230 ;	genPlus
                                    231 ;	  genPlusInc
      000091 E8               [ 2]  232 	inx
                                    233 ;	Raw cost for generated ic 41 : (1, 2.000000) count=2.999992
                                    234 ;	genGoto
      000092 4Cr5Dr00         [ 3]  235 	jmp	00110$
                                    236 ;	Raw cost for generated ic 43 : (3, 3.000000) count=2.999992
                                    237 ;	genLabel
      000095                        238 00112$:
                                    239 ;	Raw cost for generated ic 44 : (0, 0.000000) count=0.999997
                                    240 ;	../_ulong2fs.c: 114: a &= ~HIDDEN ;
                                    241 ;	genAnd
      000095 ADr02r00         [ 4]  242 	lda	(___ulong2fs_PARM_1 + 2)
      000098 29 7F            [ 2]  243 	and	#0x7f
      00009A 8Dr02r00         [ 4]  244 	sta	(___ulong2fs_PARM_1 + 2)
                                    245 ;	Raw cost for generated ic 45 : (8, 10.000000) count=0.999997
                                    246 ;	../_ulong2fs.c: 116: fl.l = PACK(0,(unsigned long)exp, a);
                                    247 ;	skipping iCode since result will be rematerialized
                                    248 ;	Raw cost for generated ic 47 : (0, 0.000000) count=0.999997
                                    249 ;	genCast
                                    250 ;	genCopy
      00009D 64*03            [ 3]  251 	stz	*(___ulong2fs_sloc0_1_0 + 3)
      00009F 64*02            [ 3]  252 	stz	*(___ulong2fs_sloc0_1_0 + 2)
      0000A1 64*01            [ 3]  253 	stz	*(___ulong2fs_sloc0_1_0 + 1)
      0000A3 86*00            [ 3]  254 	stx	*___ulong2fs_sloc0_1_0
                                    255 ;	Raw cost for generated ic 49 : (11, 15.000000) count=0.999997
                                    256 ;	genLeftShift
                                    257 ;	genLeftShiftLiteral
                                    258 ;	  genlsh32 - shift=23
      0000A5 A5*01            [ 3]  259 	lda	*(___ulong2fs_sloc0_1_0 + 1)
      0000A7 4A               [ 2]  260 	lsr	a
      0000A8 A5*00            [ 3]  261 	lda	*___ulong2fs_sloc0_1_0
      0000AA 6A               [ 2]  262 	ror	a
      0000AB 85*03            [ 3]  263 	sta	*(___ulong2fs_sloc0_1_0 + 3)
      0000AD A9 00            [ 2]  264 	lda	#0x00
      0000AF 85*01            [ 3]  265 	sta	*(___ulong2fs_sloc0_1_0 + 1)
      0000B1 85*00            [ 3]  266 	sta	*___ulong2fs_sloc0_1_0
      0000B3 6A               [ 2]  267 	ror	a
      0000B4 85*02            [ 3]  268 	sta	*(___ulong2fs_sloc0_1_0 + 2)
                                    269 ;	Raw cost for generated ic 50 : (17, 26.000000) count=0.999997
                                    270 ;	genOr
      0000B6 A5*00            [ 3]  271 	lda	*___ulong2fs_sloc0_1_0
      0000B8 0Dr00r00         [ 4]  272 	ora	___ulong2fs_PARM_1
      0000BB 85*00            [ 3]  273 	sta	*___ulong2fs_sloc0_1_0
      0000BD A5*01            [ 3]  274 	lda	*(___ulong2fs_sloc0_1_0 + 1)
      0000BF 0Dr01r00         [ 4]  275 	ora	(___ulong2fs_PARM_1 + 1)
      0000C2 85*01            [ 3]  276 	sta	*(___ulong2fs_sloc0_1_0 + 1)
      0000C4 A5*02            [ 3]  277 	lda	*(___ulong2fs_sloc0_1_0 + 2)
      0000C6 0Dr02r00         [ 4]  278 	ora	(___ulong2fs_PARM_1 + 2)
      0000C9 85*02            [ 3]  279 	sta	*(___ulong2fs_sloc0_1_0 + 2)
      0000CB A5*03            [ 3]  280 	lda	*(___ulong2fs_sloc0_1_0 + 3)
      0000CD 0Dr03r00         [ 4]  281 	ora	(___ulong2fs_PARM_1 + 3)
      0000D0 85*03            [ 3]  282 	sta	*(___ulong2fs_sloc0_1_0 + 3)
                                    283 ;	Raw cost for generated ic 52 : (28, 40.000000) count=0.999997
                                    284 ;	genPointerSet
                                    285 ;	genDataPointerSet
      0000D2 8Dr07r00         [ 4]  286 	sta	(___ulong2fs_fl_10000_21 + 3)
      0000D5 A5*02            [ 3]  287 	lda	*(___ulong2fs_sloc0_1_0 + 2)
      0000D7 8Dr06r00         [ 4]  288 	sta	(___ulong2fs_fl_10000_21 + 2)
      0000DA A5*01            [ 3]  289 	lda	*(___ulong2fs_sloc0_1_0 + 1)
      0000DC 8Dr05r00         [ 4]  290 	sta	(___ulong2fs_fl_10000_21 + 1)
      0000DF A5*00            [ 3]  291 	lda	*___ulong2fs_sloc0_1_0
      0000E1 8Dr04r00         [ 4]  292 	sta	___ulong2fs_fl_10000_21
                                    293 ;	Raw cost for generated ic 53 : (18, 25.000000) count=0.999997
                                    294 ;	../_ulong2fs.c: 118: return (fl.f);
                                    295 ;	skipping iCode since result will be rematerialized
                                    296 ;	Raw cost for generated ic 54 : (0, 0.000000) count=0.999997
                                    297 ;	genPointerGet
                                    298 ;	genDataPointerGet
      0000E4 ADr07r00         [ 4]  299 	lda	(___ulong2fs_fl_10000_21 + 3)
      0000E7 85*03            [ 3]  300 	sta	*(___ulong2fs_sloc0_1_0 + 3)
      0000E9 ADr06r00         [ 4]  301 	lda	(___ulong2fs_fl_10000_21 + 2)
      0000EC 85*02            [ 3]  302 	sta	*(___ulong2fs_sloc0_1_0 + 2)
      0000EE ADr05r00         [ 4]  303 	lda	(___ulong2fs_fl_10000_21 + 1)
      0000F1 85*01            [ 3]  304 	sta	*(___ulong2fs_sloc0_1_0 + 1)
      0000F3 ADr04r00         [ 4]  305 	lda	___ulong2fs_fl_10000_21
      0000F6 85*00            [ 3]  306 	sta	*___ulong2fs_sloc0_1_0
                                    307 ;	Raw cost for generated ic 56 : (20, 28.000000) count=0.999997
                                    308 ;	genRet
      0000F8 A5*03            [ 3]  309 	lda	*(___ulong2fs_sloc0_1_0 + 3)
      0000FA 85*00            [ 3]  310 	sta	*___SDCC_m6502_ret3
      0000FC A5*02            [ 3]  311 	lda	*(___ulong2fs_sloc0_1_0 + 2)
      0000FE 85*00            [ 3]  312 	sta	*___SDCC_m6502_ret2
      000100 A6*01            [ 3]  313 	ldx	*(___ulong2fs_sloc0_1_0 + 1)
      000102 A5*00            [ 3]  314 	lda	*___ulong2fs_sloc0_1_0
                                    315 ;	Raw cost for generated ic 57 : (12, 18.000000) count=0.999997
                                    316 ;	genLabel
                                    317 ;	Raw cost for generated ic 58 : (0, 0.000000) count=0.999997
                                    318 ;	../_ulong2fs.c: 119: }
                                    319 ;	genEndFunction
      000104 60               [ 6]  320 	rts
                                    321 ;	Raw cost for generated ic 59 : (1, 6.000000) count=0.999997
                                    322 	.area CODE
                                    323 	.area RODATA
                                    324 	.area XINIT
                                    325 	.area CABS    (ABS)
