                                      1 ;--------------------------------------------------------
                                      2 ; File Created by SDCC : free open source ISO C Compiler
                                      3 ; Version 4.5.10 #15691 (Linux)
                                      4 ;--------------------------------------------------------
                                      5 	.module asincosf
                                      6 	
      000000                          7 	.r65c02
                                      8 	.optsdcc -mmos65c02
                                      9 
                                     10 ;--------------------------------------------------------
                                     11 ;  Ordering of segments for the linker.
                                     12 ;--------------------------------------------------------
                                     13 	.area ZP      (PAG)
                                     14 	.area OSEG    (PAG, OVR)
                                     15 	.area _CODE
                                     16 	.area GSINIT
                                     17 	.area GSFINAL
                                     18 	.area CODE
                                     19 	.area RODATA
                                     20 	.area XINIT
                                     21 	.area _DATA
                                     22 	.area DATA
                                     23 	.area BSS
                                     24 ;--------------------------------------------------------
                                     25 ; Public variables in this module
                                     26 ;--------------------------------------------------------
                                     27 	.globl _asincosf
                                     28 	.globl _ldexpf
                                     29 	.globl _fabsf
                                     30 	.globl _sqrtf
                                     31 	.globl _asincosf_PARM_2
                                     32 	.globl _asincosf_PARM_1
                                     33 ;--------------------------------------------------------
                                     34 ; ZP ram data
                                     35 ;--------------------------------------------------------
                                     36 	.area ZP      (PAG)
      000000                         37 _asincosf_sloc0_1_0:
      000000                         38 	.ds 4
      000004                         39 _asincosf_sloc1_1_0:
      000004                         40 	.ds 4
                                     41 ;--------------------------------------------------------
                                     42 ; overlayable items in ram
                                     43 ;--------------------------------------------------------
                                     44 ;--------------------------------------------------------
                                     45 ; uninitialized external ram data
                                     46 ;--------------------------------------------------------
                                     47 	.area BSS
      000000                         48 _asincosf_PARM_1:
      000000                         49 	.ds 4
      000004                         50 _asincosf_PARM_2:
      000004                         51 	.ds 1
      000005                         52 _asincosf_y_10000_26:
      000005                         53 	.ds 4
      000009                         54 _asincosf_g_10000_26:
      000009                         55 	.ds 4
      00000D                         56 _asincosf_r_10000_26:
      00000D                         57 	.ds 4
      000011                         58 _asincosf_quartPI_10000_26:
      000011                         59 	.ds 1
                                     60 ;--------------------------------------------------------
                                     61 ; absolute external ram data
                                     62 ;--------------------------------------------------------
                                     63 	.area DABS    (ABS)
                                     64 ;--------------------------------------------------------
                                     65 ; initialized external ram data
                                     66 ;--------------------------------------------------------
                                     67 	.area DATA
                                     68 ;--------------------------------------------------------
                                     69 ; global & static initialisations
                                     70 ;--------------------------------------------------------
                                     71 	.area _CODE
                                     72 	.area GSINIT
                                     73 	.area GSFINAL
                                     74 	.area GSINIT
                                     75 ;--------------------------------------------------------
                                     76 ; Home
                                     77 ;--------------------------------------------------------
                                     78 	.area _CODE
                                     79 	.area _CODE
                                     80 ;--------------------------------------------------------
                                     81 ; code
                                     82 ;--------------------------------------------------------
                                     83 	.area CODE
                                     84 ;------------------------------------------------------------
                                     85 ;Allocation info for local variables in function 'asincosf'
                                     86 ;------------------------------------------------------------
                                     87 ;sloc0         Allocated with name '_asincosf_sloc0_1_0'
                                     88 ;sloc1         Allocated with name '_asincosf_sloc1_1_0'
                                     89 ;x             Allocated with name '_asincosf_PARM_1'
                                     90 ;isacos        Allocated with name '_asincosf_PARM_2'
                                     91 ;y             Allocated with name '_asincosf_y_10000_26'
                                     92 ;g             Allocated with name '_asincosf_g_10000_26'
                                     93 ;r             Allocated with name '_asincosf_r_10000_26'
                                     94 ;i             Allocated to registers a 
                                     95 ;quartPI       Allocated with name '_asincosf_quartPI_10000_26'
                                     96 ;------------------------------------------------------------
                                     97 ;	../asincosf.c: 47: float asincosf(float x, bool isacos)
                                     98 ;	genLabel
                                     99 ;	Raw cost for generated ic 0 : (0, 0.000000) count=1.000000
                                    100 ;	-----------------------------------------
                                    101 ;	 function asincosf
                                    102 ;	-----------------------------------------
                                    103 ;	Register assignment is optimal.
                                    104 ;	Stack space usage: 0 bytes.
      000000                        105 _asincosf:
                                    106 ;	Raw cost for generated ic 1 : (0, 0.000000) count=1.000000
                                    107 ;	../asincosf.c: 51: bool quartPI = isacos;
                                    108 ;	genAssign
                                    109 ;	genCopy
      000000 ADr04r00         [ 4]  110 	lda	_asincosf_PARM_2
      000003 8Dr11r00         [ 4]  111 	sta	_asincosf_quartPI_10000_26
                                    112 ;	Raw cost for generated ic 2 : (6, 8.000000) count=1.000000
                                    113 ;	../asincosf.c: 56: y = fabsf(x);
                                    114 ;	genAssign
                                    115 ;	genCopy
      000006 ADr03r00         [ 4]  116 	lda	(_asincosf_PARM_1 + 3)
      000009 8Dr03r00         [ 4]  117 	sta	(_fabsf_PARM_1 + 3)
      00000C ADr02r00         [ 4]  118 	lda	(_asincosf_PARM_1 + 2)
      00000F 8Dr02r00         [ 4]  119 	sta	(_fabsf_PARM_1 + 2)
      000012 ADr01r00         [ 4]  120 	lda	(_asincosf_PARM_1 + 1)
      000015 8Dr01r00         [ 4]  121 	sta	(_fabsf_PARM_1 + 1)
      000018 ADr00r00         [ 4]  122 	lda	_asincosf_PARM_1
      00001B 8Dr00r00         [ 4]  123 	sta	_fabsf_PARM_1
                                    124 ;	Raw cost for generated ic 3 : (24, 32.000000) count=1.000000
                                    125 ;	genCall
      00001E 20r00r00         [ 6]  126 	jsr	_fabsf
                                    127 ;	assignResultValue
      000021 85*00            [ 3]  128 	sta	*_asincosf_sloc0_1_0
      000023 86*01            [ 3]  129 	stx	*(_asincosf_sloc0_1_0 + 1)
      000025 A5*00            [ 3]  130 	lda	*___SDCC_m6502_ret2
      000027 85*02            [ 3]  131 	sta	*(_asincosf_sloc0_1_0 + 2)
      000029 A5*00            [ 3]  132 	lda	*___SDCC_m6502_ret3
      00002B 85*03            [ 3]  133 	sta	*(_asincosf_sloc0_1_0 + 3)
                                    134 ;	Raw cost for generated ic 4 : (15, 24.000000) count=1.000000
                                    135 ;	genAssign
                                    136 ;	genCopy
      00002D 8Dr08r00         [ 4]  137 	sta	(_asincosf_y_10000_26 + 3)
      000030 A5*02            [ 3]  138 	lda	*(_asincosf_sloc0_1_0 + 2)
      000032 8Dr07r00         [ 4]  139 	sta	(_asincosf_y_10000_26 + 2)
      000035 8A               [ 2]  140 	txa
      000036 8Dr06r00         [ 4]  141 	sta	(_asincosf_y_10000_26 + 1)
      000039 A5*00            [ 3]  142 	lda	*_asincosf_sloc0_1_0
      00003B 8Dr05r00         [ 4]  143 	sta	_asincosf_y_10000_26
                                    144 ;	Raw cost for generated ic 5 : (17, 24.000000) count=1.000000
                                    145 ;	../asincosf.c: 57: if (y < EPS)
                                    146 ;	genAssign
                                    147 ;	genCopy
      00003E A5*03            [ 3]  148 	lda	*(_asincosf_sloc0_1_0 + 3)
      000040 8Dr03r00         [ 4]  149 	sta	(___fslt_PARM_1 + 3)
      000043 A5*02            [ 3]  150 	lda	*(_asincosf_sloc0_1_0 + 2)
      000045 8Dr02r00         [ 4]  151 	sta	(___fslt_PARM_1 + 2)
      000048 8A               [ 2]  152 	txa
      000049 8Dr01r00         [ 4]  153 	sta	(___fslt_PARM_1 + 1)
      00004C A5*00            [ 3]  154 	lda	*_asincosf_sloc0_1_0
      00004E 8Dr00r00         [ 4]  155 	sta	___fslt_PARM_1
                                    156 ;	Raw cost for generated ic 120 : (19, 27.000000) count=1.000000
                                    157 ;	genAssign
                                    158 ;	genAssignLit
      000051 9Cr00r00         [ 4]  159 	stz	___fslt_PARM_2
      000054 9Cr01r00         [ 4]  160 	stz	(___fslt_PARM_2 + 1)
      000057 A2 80            [ 2]  161 	ldx	#0x80
      000059 8Er02r00         [ 4]  162 	stx	(___fslt_PARM_2 + 2)
      00005C A2 39            [ 2]  163 	ldx	#0x39
      00005E 8Er03r00         [ 4]  164 	stx	(___fslt_PARM_2 + 3)
                                    165 ;	Raw cost for generated ic 121 : (16, 20.000000) count=1.000000
                                    166 ;	genCall
      000061 20r00r00         [ 6]  167 	jsr	___fslt
                                    168 ;	assignResultValue
                                    169 ;	Raw cost for generated ic 122 : (3, 6.000000) count=1.000000
                                    170 ;	genIfx
      000064 C9 00            [ 2]  171 	cmp	#0x00
                                    172 ;	genIfxJump : z
      000066 F0 17            [ 4]  173 	beq	00107$
                                    174 ;	Raw cost for generated ic 7 : (7, 7.600000) count=1.000000
                                    175 ;	../asincosf.c: 59: r = y;
                                    176 ;	genAssign
                                    177 ;	genCopy
      000068 A5*03            [ 3]  178 	lda	*(_asincosf_sloc0_1_0 + 3)
      00006A 8Dr10r00         [ 4]  179 	sta	(_asincosf_r_10000_26 + 3)
      00006D A5*02            [ 3]  180 	lda	*(_asincosf_sloc0_1_0 + 2)
      00006F 8Dr0Fr00         [ 4]  181 	sta	(_asincosf_r_10000_26 + 2)
      000072 A5*01            [ 3]  182 	lda	*(_asincosf_sloc0_1_0 + 1)
      000074 8Dr0Er00         [ 4]  183 	sta	(_asincosf_r_10000_26 + 1)
      000077 A5*00            [ 3]  184 	lda	*_asincosf_sloc0_1_0
      000079 8Dr0Dr00         [ 4]  185 	sta	_asincosf_r_10000_26
                                    186 ;	Raw cost for generated ic 10 : (20, 28.000000) count=0.750000
                                    187 ;	genGoto
      00007C 4Cr9Cr03         [ 3]  188 	jmp	00108$
                                    189 ;	Raw cost for generated ic 11 : (3, 3.000000) count=0.750000
                                    190 ;	genLabel
      00007F                        191 00107$:
                                    192 ;	Raw cost for generated ic 12 : (0, 0.000000) count=0.250000
                                    193 ;	../asincosf.c: 63: if (y > 0.5)
                                    194 ;	genAssign
                                    195 ;	genAssignLit
      00007F 9Cr00r00         [ 4]  196 	stz	___fslt_PARM_1
      000082 9Cr01r00         [ 4]  197 	stz	(___fslt_PARM_1 + 1)
      000085 9Cr02r00         [ 4]  198 	stz	(___fslt_PARM_1 + 2)
      000088 A2 3F            [ 2]  199 	ldx	#0x3f
      00008A 8Er03r00         [ 4]  200 	stx	(___fslt_PARM_1 + 3)
                                    201 ;	Raw cost for generated ic 123 : (14, 18.000000) count=0.250000
                                    202 ;	genAssign
                                    203 ;	genCopy
      00008D A5*03            [ 3]  204 	lda	*(_asincosf_sloc0_1_0 + 3)
      00008F 8Dr03r00         [ 4]  205 	sta	(___fslt_PARM_2 + 3)
      000092 A5*02            [ 3]  206 	lda	*(_asincosf_sloc0_1_0 + 2)
      000094 8Dr02r00         [ 4]  207 	sta	(___fslt_PARM_2 + 2)
      000097 A5*01            [ 3]  208 	lda	*(_asincosf_sloc0_1_0 + 1)
      000099 8Dr01r00         [ 4]  209 	sta	(___fslt_PARM_2 + 1)
      00009C A5*00            [ 3]  210 	lda	*_asincosf_sloc0_1_0
      00009E 8Dr00r00         [ 4]  211 	sta	___fslt_PARM_2
                                    212 ;	Raw cost for generated ic 124 : (20, 28.000000) count=0.250000
                                    213 ;	genCall
      0000A1 20r00r00         [ 6]  214 	jsr	___fslt
                                    215 ;	assignResultValue
                                    216 ;	Raw cost for generated ic 125 : (3, 6.000000) count=0.250000
                                    217 ;	genIfx
      0000A4 C9 00            [ 2]  218 	cmp	#0x00
                                    219 ;	genIfxJump : z
      0000A6 D0 03            [ 4]  220 	bne	00158$
      0000A8 4CrBAr01         [ 3]  221 	jmp	00104$
      0000AB                        222 00158$:
                                    223 ;	Raw cost for generated ic 14 : (7, 7.600000) count=0.250000
                                    224 ;	../asincosf.c: 65: quartPI = !isacos;
                                    225 ;	genNot
      0000AB ADr11r00         [ 4]  226 	lda	_asincosf_quartPI_10000_26
      0000AE 49 01            [ 2]  227 	eor	#0x01
      0000B0 8Dr11r00         [ 4]  228 	sta	_asincosf_quartPI_10000_26
                                    229 ;	Raw cost for generated ic 17 : (8, 10.000000) count=0.187500
                                    230 ;	../asincosf.c: 66: if (y > 1.0)
                                    231 ;	genAssign
                                    232 ;	genAssignLit
      0000B3 9Cr00r00         [ 4]  233 	stz	___fslt_PARM_1
      0000B6 9Cr01r00         [ 4]  234 	stz	(___fslt_PARM_1 + 1)
      0000B9 A2 80            [ 2]  235 	ldx	#0x80
      0000BB 8Er02r00         [ 4]  236 	stx	(___fslt_PARM_1 + 2)
      0000BE A2 3F            [ 2]  237 	ldx	#0x3f
      0000C0 8Er03r00         [ 4]  238 	stx	(___fslt_PARM_1 + 3)
                                    239 ;	Raw cost for generated ic 126 : (16, 20.000000) count=0.187500
                                    240 ;	genAssign
                                    241 ;	genCopy
      0000C3 A5*03            [ 3]  242 	lda	*(_asincosf_sloc0_1_0 + 3)
      0000C5 8Dr03r00         [ 4]  243 	sta	(___fslt_PARM_2 + 3)
      0000C8 A5*02            [ 3]  244 	lda	*(_asincosf_sloc0_1_0 + 2)
      0000CA 8Dr02r00         [ 4]  245 	sta	(___fslt_PARM_2 + 2)
      0000CD A5*01            [ 3]  246 	lda	*(_asincosf_sloc0_1_0 + 1)
      0000CF 8Dr01r00         [ 4]  247 	sta	(___fslt_PARM_2 + 1)
      0000D2 A5*00            [ 3]  248 	lda	*_asincosf_sloc0_1_0
      0000D4 8Dr00r00         [ 4]  249 	sta	___fslt_PARM_2
                                    250 ;	Raw cost for generated ic 127 : (20, 28.000000) count=0.187500
                                    251 ;	genCall
      0000D7 20r00r00         [ 6]  252 	jsr	___fslt
                                    253 ;	assignResultValue
                                    254 ;	Raw cost for generated ic 128 : (3, 6.000000) count=0.187500
                                    255 ;	genIfx
      0000DA C9 00            [ 2]  256 	cmp	#0x00
                                    257 ;	genIfxJump : z
      0000DC F0 10            [ 4]  258 	beq	00102$
                                    259 ;	Raw cost for generated ic 20 : (7, 7.600000) count=0.187500
                                    260 ;	../asincosf.c: 68: errno = EDOM;
                                    261 ;	genAssign
                                    262 ;	genAssignLit
      0000DE A2 21            [ 2]  263 	ldx	#0x21
      0000E0 8Er00r00         [ 4]  264 	stx	_errno
      0000E3 9Cr01r00         [ 4]  265 	stz	(_errno + 1)
                                    266 ;	Raw cost for generated ic 24 : (8, 10.000000) count=0.140625
                                    267 ;	../asincosf.c: 69: return 0.0;
                                    268 ;	genRet
      0000E6 A9 00            [ 2]  269 	lda	#0x00
      0000E8 AA               [ 2]  270 	tax
      0000E9 85*00            [ 3]  271 	sta	*___SDCC_m6502_ret2
      0000EB 85*00            [ 3]  272 	sta	*___SDCC_m6502_ret3
      0000ED 60               [ 6]  273 	rts
                                    274 ;	Raw cost for generated ic 25 : (10, 13.000000) count=0.140625
                                    275 ;	genLabel
      0000EE                        276 00102$:
                                    277 ;	Raw cost for generated ic 26 : (0, 0.000000) count=0.187500
                                    278 ;	../asincosf.c: 71: g = (0.5 - y) + 0.5;
                                    279 ;	genAssign
                                    280 ;	genAssignLit
      0000EE 9Cr00r00         [ 4]  281 	stz	___fssub_PARM_1
      0000F1 9Cr01r00         [ 4]  282 	stz	(___fssub_PARM_1 + 1)
      0000F4 A2 80            [ 2]  283 	ldx	#0x80
      0000F6 8Er02r00         [ 4]  284 	stx	(___fssub_PARM_1 + 2)
      0000F9 A2 3F            [ 2]  285 	ldx	#0x3f
      0000FB 8Er03r00         [ 4]  286 	stx	(___fssub_PARM_1 + 3)
                                    287 ;	Raw cost for generated ic 129 : (16, 20.000000) count=0.187500
                                    288 ;	genAssign
                                    289 ;	genCopy
      0000FE A5*03            [ 3]  290 	lda	*(_asincosf_sloc0_1_0 + 3)
      000100 8Dr03r00         [ 4]  291 	sta	(___fssub_PARM_2 + 3)
      000103 A5*02            [ 3]  292 	lda	*(_asincosf_sloc0_1_0 + 2)
      000105 8Dr02r00         [ 4]  293 	sta	(___fssub_PARM_2 + 2)
      000108 A5*01            [ 3]  294 	lda	*(_asincosf_sloc0_1_0 + 1)
      00010A 8Dr01r00         [ 4]  295 	sta	(___fssub_PARM_2 + 1)
      00010D A5*00            [ 3]  296 	lda	*_asincosf_sloc0_1_0
      00010F 8Dr00r00         [ 4]  297 	sta	___fssub_PARM_2
                                    298 ;	Raw cost for generated ic 130 : (20, 28.000000) count=0.187500
                                    299 ;	../asincosf.c: 72: g = ldexpf(g, -1);
                                    300 ;	genCall
      000112 20r00r00         [ 6]  301 	jsr	___fssub
                                    302 ;	assignResultValue
      000115 8Dr00r00         [ 4]  303 	sta	_ldexpf_PARM_1
      000118 8Er01r00         [ 4]  304 	stx	(_ldexpf_PARM_1 + 1)
      00011B A5*00            [ 3]  305 	lda	*___SDCC_m6502_ret2
      00011D 8Dr02r00         [ 4]  306 	sta	(_ldexpf_PARM_1 + 2)
      000120 A5*00            [ 3]  307 	lda	*___SDCC_m6502_ret3
      000122 8Dr03r00         [ 4]  308 	sta	(_ldexpf_PARM_1 + 3)
                                    309 ;	Raw cost for generated ic 131 : (19, 28.000000) count=0.187500
                                    310 ;	genAssign
                                    311 ;	genAssignLit
      000125 A2 FF            [ 2]  312 	ldx	#0xff
      000127 8Er00r00         [ 4]  313 	stx	_ldexpf_PARM_2
      00012A 8Er01r00         [ 4]  314 	stx	(_ldexpf_PARM_2 + 1)
                                    315 ;	Raw cost for generated ic 30 : (8, 10.000000) count=0.187500
                                    316 ;	genCall
      00012D 20r00r00         [ 6]  317 	jsr	_ldexpf
                                    318 ;	assignResultValue
      000130 85*04            [ 3]  319 	sta	*_asincosf_sloc1_1_0
      000132 86*05            [ 3]  320 	stx	*(_asincosf_sloc1_1_0 + 1)
      000134 A5*00            [ 3]  321 	lda	*___SDCC_m6502_ret2
      000136 85*06            [ 3]  322 	sta	*(_asincosf_sloc1_1_0 + 2)
      000138 A5*00            [ 3]  323 	lda	*___SDCC_m6502_ret3
      00013A 85*07            [ 3]  324 	sta	*(_asincosf_sloc1_1_0 + 3)
                                    325 ;	Raw cost for generated ic 31 : (15, 24.000000) count=0.187500
                                    326 ;	genAssign
                                    327 ;	genCopy
      00013C 8Dr0Cr00         [ 4]  328 	sta	(_asincosf_g_10000_26 + 3)
      00013F A5*06            [ 3]  329 	lda	*(_asincosf_sloc1_1_0 + 2)
      000141 8Dr0Br00         [ 4]  330 	sta	(_asincosf_g_10000_26 + 2)
      000144 8A               [ 2]  331 	txa
      000145 8Dr0Ar00         [ 4]  332 	sta	(_asincosf_g_10000_26 + 1)
      000148 A5*04            [ 3]  333 	lda	*_asincosf_sloc1_1_0
      00014A 8Dr09r00         [ 4]  334 	sta	_asincosf_g_10000_26
                                    335 ;	Raw cost for generated ic 32 : (17, 24.000000) count=0.187500
                                    336 ;	../asincosf.c: 73: y = sqrtf(g);
                                    337 ;	genAssign
                                    338 ;	genCopy
      00014D A5*07            [ 3]  339 	lda	*(_asincosf_sloc1_1_0 + 3)
      00014F 8Dr03r00         [ 4]  340 	sta	(_sqrtf_PARM_1 + 3)
      000152 A5*06            [ 3]  341 	lda	*(_asincosf_sloc1_1_0 + 2)
      000154 8Dr02r00         [ 4]  342 	sta	(_sqrtf_PARM_1 + 2)
      000157 8A               [ 2]  343 	txa
      000158 8Dr01r00         [ 4]  344 	sta	(_sqrtf_PARM_1 + 1)
      00015B A5*04            [ 3]  345 	lda	*_asincosf_sloc1_1_0
      00015D 8Dr00r00         [ 4]  346 	sta	_sqrtf_PARM_1
                                    347 ;	Raw cost for generated ic 33 : (19, 27.000000) count=0.187500
                                    348 ;	genCall
      000160 20r00r00         [ 6]  349 	jsr	_sqrtf
                                    350 ;	assignResultValue
      000163 85*04            [ 3]  351 	sta	*_asincosf_sloc1_1_0
      000165 86*05            [ 3]  352 	stx	*(_asincosf_sloc1_1_0 + 1)
      000167 A5*00            [ 3]  353 	lda	*___SDCC_m6502_ret2
      000169 85*06            [ 3]  354 	sta	*(_asincosf_sloc1_1_0 + 2)
      00016B A5*00            [ 3]  355 	lda	*___SDCC_m6502_ret3
      00016D 85*07            [ 3]  356 	sta	*(_asincosf_sloc1_1_0 + 3)
                                    357 ;	Raw cost for generated ic 34 : (15, 24.000000) count=0.187500
                                    358 ;	../asincosf.c: 74: y = -(y + y);
                                    359 ;	genAssign
                                    360 ;	genCopy
      00016F 8Dr03r00         [ 4]  361 	sta	(___fsadd_PARM_1 + 3)
      000172 A5*06            [ 3]  362 	lda	*(_asincosf_sloc1_1_0 + 2)
      000174 8Dr02r00         [ 4]  363 	sta	(___fsadd_PARM_1 + 2)
      000177 8A               [ 2]  364 	txa
      000178 8Dr01r00         [ 4]  365 	sta	(___fsadd_PARM_1 + 1)
      00017B A5*04            [ 3]  366 	lda	*_asincosf_sloc1_1_0
      00017D 8Dr00r00         [ 4]  367 	sta	___fsadd_PARM_1
                                    368 ;	Raw cost for generated ic 132 : (17, 24.000000) count=0.187500
                                    369 ;	genAssign
                                    370 ;	genCopy
      000180 A5*07            [ 3]  371 	lda	*(_asincosf_sloc1_1_0 + 3)
      000182 8Dr03r00         [ 4]  372 	sta	(___fsadd_PARM_2 + 3)
      000185 A5*06            [ 3]  373 	lda	*(_asincosf_sloc1_1_0 + 2)
      000187 8Dr02r00         [ 4]  374 	sta	(___fsadd_PARM_2 + 2)
      00018A 8A               [ 2]  375 	txa
      00018B 8Dr01r00         [ 4]  376 	sta	(___fsadd_PARM_2 + 1)
      00018E A5*04            [ 3]  377 	lda	*_asincosf_sloc1_1_0
      000190 8Dr00r00         [ 4]  378 	sta	___fsadd_PARM_2
                                    379 ;	Raw cost for generated ic 133 : (19, 27.000000) count=0.187500
                                    380 ;	genCall
      000193 20r00r00         [ 6]  381 	jsr	___fsadd
                                    382 ;	assignResultValue
      000196 85*04            [ 3]  383 	sta	*_asincosf_sloc1_1_0
      000198 86*05            [ 3]  384 	stx	*(_asincosf_sloc1_1_0 + 1)
      00019A A5*00            [ 3]  385 	lda	*___SDCC_m6502_ret2
      00019C 85*06            [ 3]  386 	sta	*(_asincosf_sloc1_1_0 + 2)
      00019E A5*00            [ 3]  387 	lda	*___SDCC_m6502_ret3
      0001A0 85*07            [ 3]  388 	sta	*(_asincosf_sloc1_1_0 + 3)
                                    389 ;	Raw cost for generated ic 134 : (15, 24.000000) count=0.187500
                                    390 ;	genUminus
                                    391 ;	genUminusFloat
      0001A2 A5*04            [ 3]  392 	lda	*_asincosf_sloc1_1_0
      0001A4 8Dr05r00         [ 4]  393 	sta	_asincosf_y_10000_26
      0001A7 8A               [ 2]  394 	txa
      0001A8 8Dr06r00         [ 4]  395 	sta	(_asincosf_y_10000_26 + 1)
      0001AB A5*06            [ 3]  396 	lda	*(_asincosf_sloc1_1_0 + 2)
      0001AD 8Dr07r00         [ 4]  397 	sta	(_asincosf_y_10000_26 + 2)
      0001B0 A5*07            [ 3]  398 	lda	*(_asincosf_sloc1_1_0 + 3)
      0001B2 49 80            [ 2]  399 	eor	#0x80
      0001B4 8Dr08r00         [ 4]  400 	sta	(_asincosf_y_10000_26 + 3)
                                    401 ;	Raw cost for generated ic 37 : (21, 29.000000) count=0.187500
                                    402 ;	genGoto
      0001B7 4CrF5r01         [ 3]  403 	jmp	00105$
                                    404 ;	Raw cost for generated ic 39 : (3, 3.000000) count=0.187500
                                    405 ;	genLabel
      0001BA                        406 00104$:
                                    407 ;	Raw cost for generated ic 40 : (0, 0.000000) count=0.062500
                                    408 ;	../asincosf.c: 78: g = y * y;
                                    409 ;	genAssign
                                    410 ;	genCopy
      0001BA A5*03            [ 3]  411 	lda	*(_asincosf_sloc0_1_0 + 3)
      0001BC 8Dr03r00         [ 4]  412 	sta	(___fsmul_PARM_1 + 3)
      0001BF A5*02            [ 3]  413 	lda	*(_asincosf_sloc0_1_0 + 2)
      0001C1 8Dr02r00         [ 4]  414 	sta	(___fsmul_PARM_1 + 2)
      0001C4 A5*01            [ 3]  415 	lda	*(_asincosf_sloc0_1_0 + 1)
      0001C6 8Dr01r00         [ 4]  416 	sta	(___fsmul_PARM_1 + 1)
      0001C9 A5*00            [ 3]  417 	lda	*_asincosf_sloc0_1_0
      0001CB 8Dr00r00         [ 4]  418 	sta	___fsmul_PARM_1
                                    419 ;	Raw cost for generated ic 135 : (20, 28.000000) count=0.062500
                                    420 ;	genAssign
                                    421 ;	genCopy
      0001CE A5*03            [ 3]  422 	lda	*(_asincosf_sloc0_1_0 + 3)
      0001D0 8Dr03r00         [ 4]  423 	sta	(___fsmul_PARM_2 + 3)
      0001D3 A5*02            [ 3]  424 	lda	*(_asincosf_sloc0_1_0 + 2)
      0001D5 8Dr02r00         [ 4]  425 	sta	(___fsmul_PARM_2 + 2)
      0001D8 A5*01            [ 3]  426 	lda	*(_asincosf_sloc0_1_0 + 1)
      0001DA 8Dr01r00         [ 4]  427 	sta	(___fsmul_PARM_2 + 1)
      0001DD A5*00            [ 3]  428 	lda	*_asincosf_sloc0_1_0
      0001DF 8Dr00r00         [ 4]  429 	sta	___fsmul_PARM_2
                                    430 ;	Raw cost for generated ic 136 : (20, 28.000000) count=0.062500
                                    431 ;	genCall
      0001E2 20r00r00         [ 6]  432 	jsr	___fsmul
                                    433 ;	assignResultValue
      0001E5 8Dr09r00         [ 4]  434 	sta	_asincosf_g_10000_26
      0001E8 8Er0Ar00         [ 4]  435 	stx	(_asincosf_g_10000_26 + 1)
      0001EB A5*00            [ 3]  436 	lda	*___SDCC_m6502_ret2
      0001ED 8Dr0Br00         [ 4]  437 	sta	(_asincosf_g_10000_26 + 2)
      0001F0 A5*00            [ 3]  438 	lda	*___SDCC_m6502_ret3
      0001F2 8Dr0Cr00         [ 4]  439 	sta	(_asincosf_g_10000_26 + 3)
                                    440 ;	Raw cost for generated ic 137 : (19, 28.000000) count=0.062500
                                    441 ;	genLabel
      0001F5                        442 00105$:
                                    443 ;	Raw cost for generated ic 43 : (0, 0.000000) count=0.250000
                                    444 ;	../asincosf.c: 80: r = y + y * ((P(g) * g) / Q(g));
                                    445 ;	genAssign
                                    446 ;	genAssignLit
      0001F5 A2 65            [ 2]  447 	ldx	#0x65
      0001F7 8Er00r00         [ 4]  448 	stx	___fsmul_PARM_1
      0001FA A2 20            [ 2]  449 	ldx	#0x20
      0001FC 8Er01r00         [ 4]  450 	stx	(___fsmul_PARM_1 + 1)
      0001FF A2 01            [ 2]  451 	ldx	#0x01
      000201 8Er02r00         [ 4]  452 	stx	(___fsmul_PARM_1 + 2)
      000204 A2 BF            [ 2]  453 	ldx	#0xbf
      000206 8Er03r00         [ 4]  454 	stx	(___fsmul_PARM_1 + 3)
                                    455 ;	Raw cost for generated ic 138 : (20, 24.000000) count=0.250000
                                    456 ;	genAssign
                                    457 ;	genCopy
      000209 ADr0Cr00         [ 4]  458 	lda	(_asincosf_g_10000_26 + 3)
      00020C 8Dr03r00         [ 4]  459 	sta	(___fsmul_PARM_2 + 3)
      00020F ADr0Br00         [ 4]  460 	lda	(_asincosf_g_10000_26 + 2)
      000212 8Dr02r00         [ 4]  461 	sta	(___fsmul_PARM_2 + 2)
      000215 ADr0Ar00         [ 4]  462 	lda	(_asincosf_g_10000_26 + 1)
      000218 8Dr01r00         [ 4]  463 	sta	(___fsmul_PARM_2 + 1)
      00021B ADr09r00         [ 4]  464 	lda	_asincosf_g_10000_26
      00021E 8Dr00r00         [ 4]  465 	sta	___fsmul_PARM_2
                                    466 ;	Raw cost for generated ic 139 : (24, 32.000000) count=0.250000
                                    467 ;	genCall
      000221 20r00r00         [ 6]  468 	jsr	___fsmul
                                    469 ;	assignResultValue
      000224 8Dr00r00         [ 4]  470 	sta	___fsadd_PARM_1
      000227 8Er01r00         [ 4]  471 	stx	(___fsadd_PARM_1 + 1)
      00022A A5*00            [ 3]  472 	lda	*___SDCC_m6502_ret2
      00022C 8Dr02r00         [ 4]  473 	sta	(___fsadd_PARM_1 + 2)
      00022F A5*00            [ 3]  474 	lda	*___SDCC_m6502_ret3
      000231 8Dr03r00         [ 4]  475 	sta	(___fsadd_PARM_1 + 3)
                                    476 ;	Raw cost for generated ic 140 : (19, 28.000000) count=0.250000
                                    477 ;	genAssign
                                    478 ;	genAssignLit
      000234 A2 6B            [ 2]  479 	ldx	#0x6b
      000236 8Er00r00         [ 4]  480 	stx	___fsadd_PARM_2
      000239 A2 16            [ 2]  481 	ldx	#0x16
      00023B 8Er01r00         [ 4]  482 	stx	(___fsadd_PARM_2 + 1)
      00023E A2 6F            [ 2]  483 	ldx	#0x6f
      000240 8Er02r00         [ 4]  484 	stx	(___fsadd_PARM_2 + 2)
      000243 A2 3F            [ 2]  485 	ldx	#0x3f
      000245 8Er03r00         [ 4]  486 	stx	(___fsadd_PARM_2 + 3)
                                    487 ;	Raw cost for generated ic 142 : (20, 24.000000) count=0.250000
                                    488 ;	genCall
      000248 20r00r00         [ 6]  489 	jsr	___fsadd
                                    490 ;	assignResultValue
      00024B 8Dr00r00         [ 4]  491 	sta	___fsmul_PARM_1
      00024E 8Er01r00         [ 4]  492 	stx	(___fsmul_PARM_1 + 1)
      000251 A5*00            [ 3]  493 	lda	*___SDCC_m6502_ret2
      000253 8Dr02r00         [ 4]  494 	sta	(___fsmul_PARM_1 + 2)
      000256 A5*00            [ 3]  495 	lda	*___SDCC_m6502_ret3
      000258 8Dr03r00         [ 4]  496 	sta	(___fsmul_PARM_1 + 3)
                                    497 ;	Raw cost for generated ic 143 : (19, 28.000000) count=0.250000
                                    498 ;	genAssign
                                    499 ;	genCopy
      00025B ADr0Cr00         [ 4]  500 	lda	(_asincosf_g_10000_26 + 3)
      00025E 8Dr03r00         [ 4]  501 	sta	(___fsmul_PARM_2 + 3)
      000261 ADr0Br00         [ 4]  502 	lda	(_asincosf_g_10000_26 + 2)
      000264 8Dr02r00         [ 4]  503 	sta	(___fsmul_PARM_2 + 2)
      000267 ADr0Ar00         [ 4]  504 	lda	(_asincosf_g_10000_26 + 1)
      00026A 8Dr01r00         [ 4]  505 	sta	(___fsmul_PARM_2 + 1)
      00026D ADr09r00         [ 4]  506 	lda	_asincosf_g_10000_26
      000270 8Dr00r00         [ 4]  507 	sta	___fsmul_PARM_2
                                    508 ;	Raw cost for generated ic 145 : (24, 32.000000) count=0.250000
                                    509 ;	genCall
      000273 20r00r00         [ 6]  510 	jsr	___fsmul
                                    511 ;	assignResultValue
      000276 85*04            [ 3]  512 	sta	*_asincosf_sloc1_1_0
      000278 86*05            [ 3]  513 	stx	*(_asincosf_sloc1_1_0 + 1)
      00027A A5*00            [ 3]  514 	lda	*___SDCC_m6502_ret2
      00027C 85*06            [ 3]  515 	sta	*(_asincosf_sloc1_1_0 + 2)
      00027E A5*00            [ 3]  516 	lda	*___SDCC_m6502_ret3
      000280 85*07            [ 3]  517 	sta	*(_asincosf_sloc1_1_0 + 3)
                                    518 ;	Raw cost for generated ic 146 : (15, 24.000000) count=0.250000
                                    519 ;	genAssign
                                    520 ;	genCopy
      000282 ADr0Cr00         [ 4]  521 	lda	(_asincosf_g_10000_26 + 3)
      000285 85*03            [ 3]  522 	sta	*(_asincosf_sloc0_1_0 + 3)
      000287 ADr0Br00         [ 4]  523 	lda	(_asincosf_g_10000_26 + 2)
      00028A 85*02            [ 3]  524 	sta	*(_asincosf_sloc0_1_0 + 2)
      00028C ADr0Ar00         [ 4]  525 	lda	(_asincosf_g_10000_26 + 1)
      00028F 85*01            [ 3]  526 	sta	*(_asincosf_sloc0_1_0 + 1)
      000291 ADr09r00         [ 4]  527 	lda	_asincosf_g_10000_26
      000294 85*00            [ 3]  528 	sta	*_asincosf_sloc0_1_0
                                    529 ;	Raw cost for generated ic 47 : (20, 28.000000) count=0.250000
                                    530 ;	genAssign
                                    531 ;	genCopy
      000296 A5*03            [ 3]  532 	lda	*(_asincosf_sloc0_1_0 + 3)
      000298 8Dr03r00         [ 4]  533 	sta	(___fsadd_PARM_1 + 3)
      00029B A5*02            [ 3]  534 	lda	*(_asincosf_sloc0_1_0 + 2)
      00029D 8Dr02r00         [ 4]  535 	sta	(___fsadd_PARM_1 + 2)
      0002A0 A5*01            [ 3]  536 	lda	*(_asincosf_sloc0_1_0 + 1)
      0002A2 8Dr01r00         [ 4]  537 	sta	(___fsadd_PARM_1 + 1)
      0002A5 A5*00            [ 3]  538 	lda	*_asincosf_sloc0_1_0
      0002A7 8Dr00r00         [ 4]  539 	sta	___fsadd_PARM_1
                                    540 ;	Raw cost for generated ic 147 : (20, 28.000000) count=0.250000
                                    541 ;	genAssign
                                    542 ;	genAssignLit
      0002AA A2 0B            [ 2]  543 	ldx	#0x0b
      0002AC 8Er00r00         [ 4]  544 	stx	___fsadd_PARM_2
      0002AF A2 8D            [ 2]  545 	ldx	#0x8d
      0002B1 8Er01r00         [ 4]  546 	stx	(___fsadd_PARM_2 + 1)
      0002B4 A2 B1            [ 2]  547 	ldx	#0xb1
      0002B6 8Er02r00         [ 4]  548 	stx	(___fsadd_PARM_2 + 2)
      0002B9 A2 C0            [ 2]  549 	ldx	#0xc0
      0002BB 8Er03r00         [ 4]  550 	stx	(___fsadd_PARM_2 + 3)
                                    551 ;	Raw cost for generated ic 148 : (20, 24.000000) count=0.250000
                                    552 ;	genCall
      0002BE 20r00r00         [ 6]  553 	jsr	___fsadd
                                    554 ;	assignResultValue
      0002C1 8Dr00r00         [ 4]  555 	sta	___fsmul_PARM_1
      0002C4 8Er01r00         [ 4]  556 	stx	(___fsmul_PARM_1 + 1)
      0002C7 A5*00            [ 3]  557 	lda	*___SDCC_m6502_ret2
      0002C9 8Dr02r00         [ 4]  558 	sta	(___fsmul_PARM_1 + 2)
      0002CC A5*00            [ 3]  559 	lda	*___SDCC_m6502_ret3
      0002CE 8Dr03r00         [ 4]  560 	sta	(___fsmul_PARM_1 + 3)
                                    561 ;	Raw cost for generated ic 149 : (19, 28.000000) count=0.250000
                                    562 ;	genAssign
                                    563 ;	genCopy
      0002D1 A5*03            [ 3]  564 	lda	*(_asincosf_sloc0_1_0 + 3)
      0002D3 8Dr03r00         [ 4]  565 	sta	(___fsmul_PARM_2 + 3)
      0002D6 A5*02            [ 3]  566 	lda	*(_asincosf_sloc0_1_0 + 2)
      0002D8 8Dr02r00         [ 4]  567 	sta	(___fsmul_PARM_2 + 2)
      0002DB A5*01            [ 3]  568 	lda	*(_asincosf_sloc0_1_0 + 1)
      0002DD 8Dr01r00         [ 4]  569 	sta	(___fsmul_PARM_2 + 1)
      0002E0 A5*00            [ 3]  570 	lda	*_asincosf_sloc0_1_0
      0002E2 8Dr00r00         [ 4]  571 	sta	___fsmul_PARM_2
                                    572 ;	Raw cost for generated ic 151 : (20, 28.000000) count=0.250000
                                    573 ;	genCall
      0002E5 20r00r00         [ 6]  574 	jsr	___fsmul
                                    575 ;	assignResultValue
      0002E8 8Dr00r00         [ 4]  576 	sta	___fsadd_PARM_1
      0002EB 8Er01r00         [ 4]  577 	stx	(___fsadd_PARM_1 + 1)
      0002EE A5*00            [ 3]  578 	lda	*___SDCC_m6502_ret2
      0002F0 8Dr02r00         [ 4]  579 	sta	(___fsadd_PARM_1 + 2)
      0002F3 A5*00            [ 3]  580 	lda	*___SDCC_m6502_ret3
      0002F5 8Dr03r00         [ 4]  581 	sta	(___fsadd_PARM_1 + 3)
                                    582 ;	Raw cost for generated ic 152 : (19, 28.000000) count=0.250000
                                    583 ;	genAssign
                                    584 ;	genAssignLit
      0002F8 A2 F0            [ 2]  585 	ldx	#0xf0
      0002FA 8Er00r00         [ 4]  586 	stx	___fsadd_PARM_2
      0002FD A2 50            [ 2]  587 	ldx	#0x50
      0002FF 8Er01r00         [ 4]  588 	stx	(___fsadd_PARM_2 + 1)
      000302 A2 B3            [ 2]  589 	ldx	#0xb3
      000304 8Er02r00         [ 4]  590 	stx	(___fsadd_PARM_2 + 2)
      000307 A2 40            [ 2]  591 	ldx	#0x40
      000309 8Er03r00         [ 4]  592 	stx	(___fsadd_PARM_2 + 3)
                                    593 ;	Raw cost for generated ic 154 : (20, 24.000000) count=0.250000
                                    594 ;	genCall
      00030C 20r00r00         [ 6]  595 	jsr	___fsadd
                                    596 ;	assignResultValue
      00030F 8Dr00r00         [ 4]  597 	sta	___fsdiv_PARM_2
      000312 8Er01r00         [ 4]  598 	stx	(___fsdiv_PARM_2 + 1)
      000315 A5*00            [ 3]  599 	lda	*___SDCC_m6502_ret2
      000317 8Dr02r00         [ 4]  600 	sta	(___fsdiv_PARM_2 + 2)
      00031A A5*00            [ 3]  601 	lda	*___SDCC_m6502_ret3
      00031C 8Dr03r00         [ 4]  602 	sta	(___fsdiv_PARM_2 + 3)
                                    603 ;	Raw cost for generated ic 155 : (19, 28.000000) count=0.250000
                                    604 ;	genAssign
                                    605 ;	genCopy
      00031F A5*07            [ 3]  606 	lda	*(_asincosf_sloc1_1_0 + 3)
      000321 8Dr03r00         [ 4]  607 	sta	(___fsdiv_PARM_1 + 3)
      000324 A5*06            [ 3]  608 	lda	*(_asincosf_sloc1_1_0 + 2)
      000326 8Dr02r00         [ 4]  609 	sta	(___fsdiv_PARM_1 + 2)
      000329 A5*05            [ 3]  610 	lda	*(_asincosf_sloc1_1_0 + 1)
      00032B 8Dr01r00         [ 4]  611 	sta	(___fsdiv_PARM_1 + 1)
      00032E A5*04            [ 3]  612 	lda	*_asincosf_sloc1_1_0
      000330 8Dr00r00         [ 4]  613 	sta	___fsdiv_PARM_1
                                    614 ;	Raw cost for generated ic 156 : (20, 28.000000) count=0.250000
                                    615 ;	genCall
      000333 20r00r00         [ 6]  616 	jsr	___fsdiv
                                    617 ;	assignResultValue
      000336 8Dr00r00         [ 4]  618 	sta	___fsmul_PARM_2
      000339 8Er01r00         [ 4]  619 	stx	(___fsmul_PARM_2 + 1)
      00033C A5*00            [ 3]  620 	lda	*___SDCC_m6502_ret2
      00033E 8Dr02r00         [ 4]  621 	sta	(___fsmul_PARM_2 + 2)
      000341 A5*00            [ 3]  622 	lda	*___SDCC_m6502_ret3
      000343 8Dr03r00         [ 4]  623 	sta	(___fsmul_PARM_2 + 3)
                                    624 ;	Raw cost for generated ic 158 : (19, 28.000000) count=0.250000
                                    625 ;	genAssign
                                    626 ;	genCopy
      000346 ADr08r00         [ 4]  627 	lda	(_asincosf_y_10000_26 + 3)
      000349 8Dr03r00         [ 4]  628 	sta	(___fsmul_PARM_1 + 3)
      00034C ADr07r00         [ 4]  629 	lda	(_asincosf_y_10000_26 + 2)
      00034F 8Dr02r00         [ 4]  630 	sta	(___fsmul_PARM_1 + 2)
      000352 ADr06r00         [ 4]  631 	lda	(_asincosf_y_10000_26 + 1)
      000355 8Dr01r00         [ 4]  632 	sta	(___fsmul_PARM_1 + 1)
      000358 ADr05r00         [ 4]  633 	lda	_asincosf_y_10000_26
      00035B 8Dr00r00         [ 4]  634 	sta	___fsmul_PARM_1
                                    635 ;	Raw cost for generated ic 159 : (24, 32.000000) count=0.250000
                                    636 ;	genCall
      00035E 20r00r00         [ 6]  637 	jsr	___fsmul
                                    638 ;	assignResultValue
      000361 8Dr00r00         [ 4]  639 	sta	___fsadd_PARM_2
      000364 8Er01r00         [ 4]  640 	stx	(___fsadd_PARM_2 + 1)
      000367 A5*00            [ 3]  641 	lda	*___SDCC_m6502_ret2
      000369 8Dr02r00         [ 4]  642 	sta	(___fsadd_PARM_2 + 2)
      00036C A5*00            [ 3]  643 	lda	*___SDCC_m6502_ret3
      00036E 8Dr03r00         [ 4]  644 	sta	(___fsadd_PARM_2 + 3)
                                    645 ;	Raw cost for generated ic 161 : (19, 28.000000) count=0.250000
                                    646 ;	genAssign
                                    647 ;	genCopy
      000371 ADr08r00         [ 4]  648 	lda	(_asincosf_y_10000_26 + 3)
      000374 8Dr03r00         [ 4]  649 	sta	(___fsadd_PARM_1 + 3)
      000377 ADr07r00         [ 4]  650 	lda	(_asincosf_y_10000_26 + 2)
      00037A 8Dr02r00         [ 4]  651 	sta	(___fsadd_PARM_1 + 2)
      00037D ADr06r00         [ 4]  652 	lda	(_asincosf_y_10000_26 + 1)
      000380 8Dr01r00         [ 4]  653 	sta	(___fsadd_PARM_1 + 1)
      000383 ADr05r00         [ 4]  654 	lda	_asincosf_y_10000_26
      000386 8Dr00r00         [ 4]  655 	sta	___fsadd_PARM_1
                                    656 ;	Raw cost for generated ic 162 : (24, 32.000000) count=0.250000
                                    657 ;	genCall
      000389 20r00r00         [ 6]  658 	jsr	___fsadd
                                    659 ;	assignResultValue
      00038C 8Dr0Dr00         [ 4]  660 	sta	_asincosf_r_10000_26
      00038F 8Er0Er00         [ 4]  661 	stx	(_asincosf_r_10000_26 + 1)
      000392 A5*00            [ 3]  662 	lda	*___SDCC_m6502_ret2
      000394 8Dr0Fr00         [ 4]  663 	sta	(_asincosf_r_10000_26 + 2)
      000397 A5*00            [ 3]  664 	lda	*___SDCC_m6502_ret3
      000399 8Dr10r00         [ 4]  665 	sta	(_asincosf_r_10000_26 + 3)
                                    666 ;	Raw cost for generated ic 164 : (19, 28.000000) count=0.250000
                                    667 ;	genLabel
      00039C                        668 00108$:
                                    669 ;	Raw cost for generated ic 55 : (0, 0.000000) count=1.000000
                                    670 ;	../asincosf.c: 82: i = quartPI;
                                    671 ;	genCast
                                    672 ;	genCopy
      00039C ADr11r00         [ 4]  673 	lda	_asincosf_quartPI_10000_26
                                    674 ;	Raw cost for generated ic 56 : (3, 4.000000) count=1.000000
                                    675 ;	../asincosf.c: 83: if (isacos)
                                    676 ;	genIfx
      00039F ACr04r00         [ 4]  677 	ldy	_asincosf_PARM_2
                                    678 ;	genIfxJump : z
      0003A2 D0 03            [ 4]  679 	bne	00163$
      0003A4 4CrFCr04         [ 3]  680 	jmp	00115$
      0003A7                        681 00163$:
                                    682 ;	Raw cost for generated ic 58 : (8, 9.600000) count=1.000000
                                    683 ;	../asincosf.c: 85: if (x < 0.0)
                                    684 ;	genAssign
                                    685 ;	genCopy
      0003A7 AEr03r00         [ 4]  686 	ldx	(_asincosf_PARM_1 + 3)
      0003AA 8Er03r00         [ 4]  687 	stx	(___fslt_PARM_1 + 3)
      0003AD AEr02r00         [ 4]  688 	ldx	(_asincosf_PARM_1 + 2)
      0003B0 8Er02r00         [ 4]  689 	stx	(___fslt_PARM_1 + 2)
      0003B3 AEr01r00         [ 4]  690 	ldx	(_asincosf_PARM_1 + 1)
      0003B6 8Er01r00         [ 4]  691 	stx	(___fslt_PARM_1 + 1)
      0003B9 AEr00r00         [ 4]  692 	ldx	_asincosf_PARM_1
      0003BC 8Er00r00         [ 4]  693 	stx	___fslt_PARM_1
                                    694 ;	Raw cost for generated ic 165 : (24, 32.000000) count=0.750000
                                    695 ;	genAssign
                                    696 ;	genAssignLit
      0003BF 9Cr00r00         [ 4]  697 	stz	___fslt_PARM_2
      0003C2 9Cr01r00         [ 4]  698 	stz	(___fslt_PARM_2 + 1)
      0003C5 9Cr02r00         [ 4]  699 	stz	(___fslt_PARM_2 + 2)
      0003C8 9Cr03r00         [ 4]  700 	stz	(___fslt_PARM_2 + 3)
                                    701 ;	Raw cost for generated ic 166 : (12, 16.000000) count=0.750000
                                    702 ;	genCall
      0003CB 48               [ 3]  703 	pha
      0003CC 20r00r00         [ 6]  704 	jsr	___fslt
                                    705 ;	assignResultValue
      0003CF AA               [ 2]  706 	tax
      0003D0 68               [ 4]  707 	pla
                                    708 ;	Raw cost for generated ic 167 : (6, 15.000000) count=0.750000
                                    709 ;	genIfx
      0003D1 E0 00            [ 2]  710 	cpx	#0x00
                                    711 ;	genIfxJump : z
      0003D3 D0 03            [ 4]  712 	bne	00165$
      0003D5 4Cr6Ar04         [ 3]  713 	jmp	00110$
      0003D8                        714 00165$:
                                    715 ;	Raw cost for generated ic 62 : (7, 7.600000) count=0.750000
                                    716 ;	../asincosf.c: 86: r = (b[i] + r) + b[i];
                                    717 ;	skipping iCode since result will be rematerialized
                                    718 ;	Raw cost for generated ic 65 : (0, 0.000000) count=0.562500
                                    719 ;	genCast
                                    720 ;	genCopy
      0003D8 A2 00            [ 2]  721 	ldx	#0x00
                                    722 ;	Raw cost for generated ic 66 : (2, 2.000000) count=0.562500
                                    723 ;	genLeftShift
                                    724 ;	genLeftShiftLiteral
                                    725 ;	  genlsh16 - shift=2
      0003DA 86*00            [ 3]  726 	stx	*(REGTEMP+0)
      0003DC 0A               [ 2]  727 	asl	a
      0003DD 26*00            [ 5]  728 	rol	*(REGTEMP+0)
      0003DF 0A               [ 2]  729 	asl	a
      0003E0 26*00            [ 5]  730 	rol	*(REGTEMP+0)
      0003E2 A6*00            [ 3]  731 	ldx	*(REGTEMP+0)
                                    732 ;	Raw cost for generated ic 67 : (10, 20.000000) count=0.562500
                                    733 ;	genAssign
                                    734 ;	genCopy
                                    735 ;	Raw cost for generated ic 68 : (0, 0.000000) count=0.562500
                                    736 ;	genPointerGet
                                    737 ;	  setupDPTR - off=0 remat=_asincosf_b_10000_26 savea=0
      0003E4 18               [ 2]  738 	clc
      0003E5 69r08            [ 3]  739 	adc	#<(_asincosf_b_10000_26+0)
      0003E7 85*00            [ 3]  740 	sta	*(DPTR+0)
      0003E9 8A               [ 2]  741 	txa
      0003EA 69s00            [ 3]  742 	adc	#>(_asincosf_b_10000_26+0)
      0003EC 85*01            [ 3]  743 	sta	*(DPTR+1)
      0003EE A0 00            [ 2]  744 	ldy	#0x00
      0003F0 B1*00            [ 6]  745 	lda	[DPTR],y
      0003F2 85*04            [ 3]  746 	sta	*_asincosf_sloc1_1_0
      0003F4 C8               [ 2]  747 	iny
      0003F5 B1*00            [ 6]  748 	lda	[DPTR],y
      0003F7 85*05            [ 3]  749 	sta	*(_asincosf_sloc1_1_0 + 1)
      0003F9 C8               [ 2]  750 	iny
      0003FA B1*00            [ 6]  751 	lda	[DPTR],y
      0003FC 85*06            [ 3]  752 	sta	*(_asincosf_sloc1_1_0 + 2)
      0003FE C8               [ 2]  753 	iny
      0003FF B1*00            [ 6]  754 	lda	[DPTR],y
      000401 85*07            [ 3]  755 	sta	*(_asincosf_sloc1_1_0 + 3)
                                    756 ;	Raw cost for generated ic 69 : (31, 54.000000) count=0.562500
                                    757 ;	genAssign
                                    758 ;	genCopy
      000403 8Dr03r00         [ 4]  759 	sta	(___fsadd_PARM_1 + 3)
      000406 A5*06            [ 3]  760 	lda	*(_asincosf_sloc1_1_0 + 2)
      000408 8Dr02r00         [ 4]  761 	sta	(___fsadd_PARM_1 + 2)
      00040B A5*05            [ 3]  762 	lda	*(_asincosf_sloc1_1_0 + 1)
      00040D 8Dr01r00         [ 4]  763 	sta	(___fsadd_PARM_1 + 1)
      000410 A5*04            [ 3]  764 	lda	*_asincosf_sloc1_1_0
      000412 8Dr00r00         [ 4]  765 	sta	___fsadd_PARM_1
                                    766 ;	Raw cost for generated ic 168 : (18, 25.000000) count=0.562500
                                    767 ;	genAssign
                                    768 ;	genCopy
      000415 ADr10r00         [ 4]  769 	lda	(_asincosf_r_10000_26 + 3)
      000418 8Dr03r00         [ 4]  770 	sta	(___fsadd_PARM_2 + 3)
      00041B ADr0Fr00         [ 4]  771 	lda	(_asincosf_r_10000_26 + 2)
      00041E 8Dr02r00         [ 4]  772 	sta	(___fsadd_PARM_2 + 2)
      000421 ADr0Er00         [ 4]  773 	lda	(_asincosf_r_10000_26 + 1)
      000424 8Dr01r00         [ 4]  774 	sta	(___fsadd_PARM_2 + 1)
      000427 ADr0Dr00         [ 4]  775 	lda	_asincosf_r_10000_26
      00042A 8Dr00r00         [ 4]  776 	sta	___fsadd_PARM_2
                                    777 ;	Raw cost for generated ic 169 : (24, 32.000000) count=0.562500
                                    778 ;	genCall
      00042D 20r00r00         [ 6]  779 	jsr	___fsadd
                                    780 ;	assignResultValue
      000430 8Dr00r00         [ 4]  781 	sta	___fsadd_PARM_1
      000433 8Er01r00         [ 4]  782 	stx	(___fsadd_PARM_1 + 1)
      000436 A5*00            [ 3]  783 	lda	*___SDCC_m6502_ret2
      000438 8Dr02r00         [ 4]  784 	sta	(___fsadd_PARM_1 + 2)
      00043B A5*00            [ 3]  785 	lda	*___SDCC_m6502_ret3
      00043D 8Dr03r00         [ 4]  786 	sta	(___fsadd_PARM_1 + 3)
                                    787 ;	Raw cost for generated ic 170 : (19, 28.000000) count=0.562500
                                    788 ;	genAssign
                                    789 ;	genCopy
      000440 A5*07            [ 3]  790 	lda	*(_asincosf_sloc1_1_0 + 3)
      000442 8Dr03r00         [ 4]  791 	sta	(___fsadd_PARM_2 + 3)
      000445 A5*06            [ 3]  792 	lda	*(_asincosf_sloc1_1_0 + 2)
      000447 8Dr02r00         [ 4]  793 	sta	(___fsadd_PARM_2 + 2)
      00044A A5*05            [ 3]  794 	lda	*(_asincosf_sloc1_1_0 + 1)
      00044C 8Dr01r00         [ 4]  795 	sta	(___fsadd_PARM_2 + 1)
      00044F A5*04            [ 3]  796 	lda	*_asincosf_sloc1_1_0
      000451 8Dr00r00         [ 4]  797 	sta	___fsadd_PARM_2
                                    798 ;	Raw cost for generated ic 172 : (20, 28.000000) count=0.562500
                                    799 ;	genCall
      000454 20r00r00         [ 6]  800 	jsr	___fsadd
                                    801 ;	assignResultValue
      000457 8Dr0Dr00         [ 4]  802 	sta	_asincosf_r_10000_26
      00045A 8Er0Er00         [ 4]  803 	stx	(_asincosf_r_10000_26 + 1)
      00045D A5*00            [ 3]  804 	lda	*___SDCC_m6502_ret2
      00045F 8Dr0Fr00         [ 4]  805 	sta	(_asincosf_r_10000_26 + 2)
      000462 A5*00            [ 3]  806 	lda	*___SDCC_m6502_ret3
      000464 8Dr10r00         [ 4]  807 	sta	(_asincosf_r_10000_26 + 3)
                                    808 ;	Raw cost for generated ic 173 : (19, 28.000000) count=0.562500
                                    809 ;	genGoto
      000467 4CrBEr05         [ 3]  810 	jmp	00116$
                                    811 ;	Raw cost for generated ic 78 : (3, 3.000000) count=0.562500
                                    812 ;	genLabel
      00046A                        813 00110$:
                                    814 ;	Raw cost for generated ic 79 : (0, 0.000000) count=0.187500
                                    815 ;	../asincosf.c: 88: r = (a[i] - r) + a[i];
                                    816 ;	skipping iCode since result will be rematerialized
                                    817 ;	Raw cost for generated ic 80 : (0, 0.000000) count=0.187500
                                    818 ;	genCast
                                    819 ;	genCopy
      00046A A2 00            [ 2]  820 	ldx	#0x00
                                    821 ;	Raw cost for generated ic 81 : (2, 2.000000) count=0.187500
                                    822 ;	genLeftShift
                                    823 ;	genLeftShiftLiteral
                                    824 ;	  genlsh16 - shift=2
      00046C 86*00            [ 3]  825 	stx	*(REGTEMP+0)
      00046E 0A               [ 2]  826 	asl	a
      00046F 26*00            [ 5]  827 	rol	*(REGTEMP+0)
      000471 0A               [ 2]  828 	asl	a
      000472 26*00            [ 5]  829 	rol	*(REGTEMP+0)
      000474 A6*00            [ 3]  830 	ldx	*(REGTEMP+0)
                                    831 ;	Raw cost for generated ic 82 : (10, 20.000000) count=0.187500
                                    832 ;	genAssign
                                    833 ;	genCopy
                                    834 ;	Raw cost for generated ic 83 : (0, 0.000000) count=0.187500
                                    835 ;	genPointerGet
                                    836 ;	  setupDPTR - off=0 remat=_asincosf_a_10000_26 savea=0
      000476 18               [ 2]  837 	clc
      000477 69r00            [ 3]  838 	adc	#<(_asincosf_a_10000_26+0)
      000479 85*00            [ 3]  839 	sta	*(DPTR+0)
      00047B 8A               [ 2]  840 	txa
      00047C 69s00            [ 3]  841 	adc	#>(_asincosf_a_10000_26+0)
      00047E 85*01            [ 3]  842 	sta	*(DPTR+1)
      000480 A0 00            [ 2]  843 	ldy	#0x00
      000482 B1*00            [ 6]  844 	lda	[DPTR],y
      000484 85*04            [ 3]  845 	sta	*_asincosf_sloc1_1_0
      000486 C8               [ 2]  846 	iny
      000487 B1*00            [ 6]  847 	lda	[DPTR],y
      000489 85*05            [ 3]  848 	sta	*(_asincosf_sloc1_1_0 + 1)
      00048B C8               [ 2]  849 	iny
      00048C B1*00            [ 6]  850 	lda	[DPTR],y
      00048E 85*06            [ 3]  851 	sta	*(_asincosf_sloc1_1_0 + 2)
      000490 C8               [ 2]  852 	iny
      000491 B1*00            [ 6]  853 	lda	[DPTR],y
      000493 85*07            [ 3]  854 	sta	*(_asincosf_sloc1_1_0 + 3)
                                    855 ;	Raw cost for generated ic 84 : (31, 54.000000) count=0.187500
                                    856 ;	genAssign
                                    857 ;	genCopy
      000495 8Dr03r00         [ 4]  858 	sta	(___fssub_PARM_1 + 3)
      000498 A5*06            [ 3]  859 	lda	*(_asincosf_sloc1_1_0 + 2)
      00049A 8Dr02r00         [ 4]  860 	sta	(___fssub_PARM_1 + 2)
      00049D A5*05            [ 3]  861 	lda	*(_asincosf_sloc1_1_0 + 1)
      00049F 8Dr01r00         [ 4]  862 	sta	(___fssub_PARM_1 + 1)
      0004A2 A5*04            [ 3]  863 	lda	*_asincosf_sloc1_1_0
      0004A4 8Dr00r00         [ 4]  864 	sta	___fssub_PARM_1
                                    865 ;	Raw cost for generated ic 174 : (18, 25.000000) count=0.187500
                                    866 ;	genAssign
                                    867 ;	genCopy
      0004A7 ADr10r00         [ 4]  868 	lda	(_asincosf_r_10000_26 + 3)
      0004AA 8Dr03r00         [ 4]  869 	sta	(___fssub_PARM_2 + 3)
      0004AD ADr0Fr00         [ 4]  870 	lda	(_asincosf_r_10000_26 + 2)
      0004B0 8Dr02r00         [ 4]  871 	sta	(___fssub_PARM_2 + 2)
      0004B3 ADr0Er00         [ 4]  872 	lda	(_asincosf_r_10000_26 + 1)
      0004B6 8Dr01r00         [ 4]  873 	sta	(___fssub_PARM_2 + 1)
      0004B9 ADr0Dr00         [ 4]  874 	lda	_asincosf_r_10000_26
      0004BC 8Dr00r00         [ 4]  875 	sta	___fssub_PARM_2
                                    876 ;	Raw cost for generated ic 175 : (24, 32.000000) count=0.187500
                                    877 ;	genCall
      0004BF 20r00r00         [ 6]  878 	jsr	___fssub
                                    879 ;	assignResultValue
      0004C2 8Dr00r00         [ 4]  880 	sta	___fsadd_PARM_1
      0004C5 8Er01r00         [ 4]  881 	stx	(___fsadd_PARM_1 + 1)
      0004C8 A5*00            [ 3]  882 	lda	*___SDCC_m6502_ret2
      0004CA 8Dr02r00         [ 4]  883 	sta	(___fsadd_PARM_1 + 2)
      0004CD A5*00            [ 3]  884 	lda	*___SDCC_m6502_ret3
      0004CF 8Dr03r00         [ 4]  885 	sta	(___fsadd_PARM_1 + 3)
                                    886 ;	Raw cost for generated ic 176 : (19, 28.000000) count=0.187500
                                    887 ;	genAssign
                                    888 ;	genCopy
      0004D2 A5*07            [ 3]  889 	lda	*(_asincosf_sloc1_1_0 + 3)
      0004D4 8Dr03r00         [ 4]  890 	sta	(___fsadd_PARM_2 + 3)
      0004D7 A5*06            [ 3]  891 	lda	*(_asincosf_sloc1_1_0 + 2)
      0004D9 8Dr02r00         [ 4]  892 	sta	(___fsadd_PARM_2 + 2)
      0004DC A5*05            [ 3]  893 	lda	*(_asincosf_sloc1_1_0 + 1)
      0004DE 8Dr01r00         [ 4]  894 	sta	(___fsadd_PARM_2 + 1)
      0004E1 A5*04            [ 3]  895 	lda	*_asincosf_sloc1_1_0
      0004E3 8Dr00r00         [ 4]  896 	sta	___fsadd_PARM_2
                                    897 ;	Raw cost for generated ic 178 : (20, 28.000000) count=0.187500
                                    898 ;	genCall
      0004E6 20r00r00         [ 6]  899 	jsr	___fsadd
                                    900 ;	assignResultValue
      0004E9 8Dr0Dr00         [ 4]  901 	sta	_asincosf_r_10000_26
      0004EC 8Er0Er00         [ 4]  902 	stx	(_asincosf_r_10000_26 + 1)
      0004EF A5*00            [ 3]  903 	lda	*___SDCC_m6502_ret2
      0004F1 8Dr0Fr00         [ 4]  904 	sta	(_asincosf_r_10000_26 + 2)
      0004F4 A5*00            [ 3]  905 	lda	*___SDCC_m6502_ret3
      0004F6 8Dr10r00         [ 4]  906 	sta	(_asincosf_r_10000_26 + 3)
                                    907 ;	Raw cost for generated ic 179 : (19, 28.000000) count=0.187500
                                    908 ;	genGoto
      0004F9 4CrBEr05         [ 3]  909 	jmp	00116$
                                    910 ;	Raw cost for generated ic 94 : (3, 3.000000) count=0.187500
                                    911 ;	genLabel
      0004FC                        912 00115$:
                                    913 ;	Raw cost for generated ic 95 : (0, 0.000000) count=0.250000
                                    914 ;	../asincosf.c: 92: r = (a[i] + r) + a[i];
                                    915 ;	skipping iCode since result will be rematerialized
                                    916 ;	Raw cost for generated ic 96 : (0, 0.000000) count=0.250000
                                    917 ;	genCast
                                    918 ;	genCopy
      0004FC A2 00            [ 2]  919 	ldx	#0x00
                                    920 ;	Raw cost for generated ic 97 : (2, 2.000000) count=0.250000
                                    921 ;	genLeftShift
                                    922 ;	genLeftShiftLiteral
                                    923 ;	  genlsh16 - shift=2
      0004FE 86*00            [ 3]  924 	stx	*(REGTEMP+0)
      000500 0A               [ 2]  925 	asl	a
      000501 26*00            [ 5]  926 	rol	*(REGTEMP+0)
      000503 0A               [ 2]  927 	asl	a
      000504 26*00            [ 5]  928 	rol	*(REGTEMP+0)
      000506 A6*00            [ 3]  929 	ldx	*(REGTEMP+0)
                                    930 ;	Raw cost for generated ic 98 : (10, 20.000000) count=0.250000
                                    931 ;	genAssign
                                    932 ;	genCopy
                                    933 ;	Raw cost for generated ic 99 : (0, 0.000000) count=0.250000
                                    934 ;	genPointerGet
                                    935 ;	  setupDPTR - off=0 remat=_asincosf_a_10000_26 savea=0
      000508 18               [ 2]  936 	clc
      000509 69r00            [ 3]  937 	adc	#<(_asincosf_a_10000_26+0)
      00050B 85*00            [ 3]  938 	sta	*(DPTR+0)
      00050D 8A               [ 2]  939 	txa
      00050E 69s00            [ 3]  940 	adc	#>(_asincosf_a_10000_26+0)
      000510 85*01            [ 3]  941 	sta	*(DPTR+1)
      000512 A0 00            [ 2]  942 	ldy	#0x00
      000514 B1*00            [ 6]  943 	lda	[DPTR],y
      000516 85*04            [ 3]  944 	sta	*_asincosf_sloc1_1_0
      000518 C8               [ 2]  945 	iny
      000519 B1*00            [ 6]  946 	lda	[DPTR],y
      00051B 85*05            [ 3]  947 	sta	*(_asincosf_sloc1_1_0 + 1)
      00051D C8               [ 2]  948 	iny
      00051E B1*00            [ 6]  949 	lda	[DPTR],y
      000520 85*06            [ 3]  950 	sta	*(_asincosf_sloc1_1_0 + 2)
      000522 C8               [ 2]  951 	iny
      000523 B1*00            [ 6]  952 	lda	[DPTR],y
      000525 85*07            [ 3]  953 	sta	*(_asincosf_sloc1_1_0 + 3)
                                    954 ;	Raw cost for generated ic 100 : (31, 54.000000) count=0.250000
                                    955 ;	genAssign
                                    956 ;	genCopy
      000527 8Dr03r00         [ 4]  957 	sta	(___fsadd_PARM_1 + 3)
      00052A A5*06            [ 3]  958 	lda	*(_asincosf_sloc1_1_0 + 2)
      00052C 8Dr02r00         [ 4]  959 	sta	(___fsadd_PARM_1 + 2)
      00052F A5*05            [ 3]  960 	lda	*(_asincosf_sloc1_1_0 + 1)
      000531 8Dr01r00         [ 4]  961 	sta	(___fsadd_PARM_1 + 1)
      000534 A5*04            [ 3]  962 	lda	*_asincosf_sloc1_1_0
      000536 8Dr00r00         [ 4]  963 	sta	___fsadd_PARM_1
                                    964 ;	Raw cost for generated ic 180 : (18, 25.000000) count=0.250000
                                    965 ;	genAssign
                                    966 ;	genCopy
      000539 ADr10r00         [ 4]  967 	lda	(_asincosf_r_10000_26 + 3)
      00053C 8Dr03r00         [ 4]  968 	sta	(___fsadd_PARM_2 + 3)
      00053F ADr0Fr00         [ 4]  969 	lda	(_asincosf_r_10000_26 + 2)
      000542 8Dr02r00         [ 4]  970 	sta	(___fsadd_PARM_2 + 2)
      000545 ADr0Er00         [ 4]  971 	lda	(_asincosf_r_10000_26 + 1)
      000548 8Dr01r00         [ 4]  972 	sta	(___fsadd_PARM_2 + 1)
      00054B ADr0Dr00         [ 4]  973 	lda	_asincosf_r_10000_26
      00054E 8Dr00r00         [ 4]  974 	sta	___fsadd_PARM_2
                                    975 ;	Raw cost for generated ic 181 : (24, 32.000000) count=0.250000
                                    976 ;	genCall
      000551 20r00r00         [ 6]  977 	jsr	___fsadd
                                    978 ;	assignResultValue
      000554 8Dr00r00         [ 4]  979 	sta	___fsadd_PARM_1
      000557 8Er01r00         [ 4]  980 	stx	(___fsadd_PARM_1 + 1)
      00055A A5*00            [ 3]  981 	lda	*___SDCC_m6502_ret2
      00055C 8Dr02r00         [ 4]  982 	sta	(___fsadd_PARM_1 + 2)
      00055F A5*00            [ 3]  983 	lda	*___SDCC_m6502_ret3
      000561 8Dr03r00         [ 4]  984 	sta	(___fsadd_PARM_1 + 3)
                                    985 ;	Raw cost for generated ic 182 : (19, 28.000000) count=0.250000
                                    986 ;	genAssign
                                    987 ;	genCopy
      000564 A5*07            [ 3]  988 	lda	*(_asincosf_sloc1_1_0 + 3)
      000566 8Dr03r00         [ 4]  989 	sta	(___fsadd_PARM_2 + 3)
      000569 A5*06            [ 3]  990 	lda	*(_asincosf_sloc1_1_0 + 2)
      00056B 8Dr02r00         [ 4]  991 	sta	(___fsadd_PARM_2 + 2)
      00056E A5*05            [ 3]  992 	lda	*(_asincosf_sloc1_1_0 + 1)
      000570 8Dr01r00         [ 4]  993 	sta	(___fsadd_PARM_2 + 1)
      000573 A5*04            [ 3]  994 	lda	*_asincosf_sloc1_1_0
      000575 8Dr00r00         [ 4]  995 	sta	___fsadd_PARM_2
                                    996 ;	Raw cost for generated ic 184 : (20, 28.000000) count=0.250000
                                    997 ;	genCall
      000578 20r00r00         [ 6]  998 	jsr	___fsadd
                                    999 ;	assignResultValue
      00057B 8Dr0Dr00         [ 4] 1000 	sta	_asincosf_r_10000_26
      00057E 8Er0Er00         [ 4] 1001 	stx	(_asincosf_r_10000_26 + 1)
      000581 A5*00            [ 3] 1002 	lda	*___SDCC_m6502_ret2
      000583 8Dr0Fr00         [ 4] 1003 	sta	(_asincosf_r_10000_26 + 2)
      000586 A5*00            [ 3] 1004 	lda	*___SDCC_m6502_ret3
      000588 8Dr10r00         [ 4] 1005 	sta	(_asincosf_r_10000_26 + 3)
                                   1006 ;	Raw cost for generated ic 185 : (19, 28.000000) count=0.250000
                                   1007 ;	../asincosf.c: 93: if (x < 0.0)
                                   1008 ;	genAssign
                                   1009 ;	genCopy
      00058B ADr03r00         [ 4] 1010 	lda	(_asincosf_PARM_1 + 3)
      00058E 8Dr03r00         [ 4] 1011 	sta	(___fslt_PARM_1 + 3)
      000591 ADr02r00         [ 4] 1012 	lda	(_asincosf_PARM_1 + 2)
      000594 8Dr02r00         [ 4] 1013 	sta	(___fslt_PARM_1 + 2)
      000597 ADr01r00         [ 4] 1014 	lda	(_asincosf_PARM_1 + 1)
      00059A 8Dr01r00         [ 4] 1015 	sta	(___fslt_PARM_1 + 1)
      00059D ADr00r00         [ 4] 1016 	lda	_asincosf_PARM_1
      0005A0 8Dr00r00         [ 4] 1017 	sta	___fslt_PARM_1
                                   1018 ;	Raw cost for generated ic 186 : (24, 32.000000) count=0.250000
                                   1019 ;	genAssign
                                   1020 ;	genAssignLit
      0005A3 9Cr00r00         [ 4] 1021 	stz	___fslt_PARM_2
      0005A6 9Cr01r00         [ 4] 1022 	stz	(___fslt_PARM_2 + 1)
      0005A9 9Cr02r00         [ 4] 1023 	stz	(___fslt_PARM_2 + 2)
      0005AC 9Cr03r00         [ 4] 1024 	stz	(___fslt_PARM_2 + 3)
                                   1025 ;	Raw cost for generated ic 187 : (12, 16.000000) count=0.250000
                                   1026 ;	genCall
      0005AF 20r00r00         [ 6] 1027 	jsr	___fslt
                                   1028 ;	assignResultValue
                                   1029 ;	Raw cost for generated ic 188 : (3, 6.000000) count=0.250000
                                   1030 ;	genIfx
      0005B2 C9 00            [ 2] 1031 	cmp	#0x00
                                   1032 ;	genIfxJump : z
      0005B4 F0 08            [ 4] 1033 	beq	00116$
                                   1034 ;	Raw cost for generated ic 110 : (7, 7.600000) count=0.250000
                                   1035 ;	../asincosf.c: 94: r = -r;
                                   1036 ;	genUminus
                                   1037 ;	genUminusFloat
      0005B6 ADr10r00         [ 4] 1038 	lda	(_asincosf_r_10000_26 + 3)
      0005B9 49 80            [ 2] 1039 	eor	#0x80
      0005BB 8Dr10r00         [ 4] 1040 	sta	(_asincosf_r_10000_26 + 3)
                                   1041 ;	Raw cost for generated ic 113 : (8, 10.000000) count=0.187500
                                   1042 ;	genLabel
      0005BE                       1043 00116$:
                                   1044 ;	Raw cost for generated ic 116 : (0, 0.000000) count=1.000000
                                   1045 ;	../asincosf.c: 96: return r;
                                   1046 ;	genRet
      0005BE ADr10r00         [ 4] 1047 	lda	(_asincosf_r_10000_26 + 3)
      0005C1 85*00            [ 3] 1048 	sta	*___SDCC_m6502_ret3
      0005C3 ADr0Fr00         [ 4] 1049 	lda	(_asincosf_r_10000_26 + 2)
      0005C6 85*00            [ 3] 1050 	sta	*___SDCC_m6502_ret2
      0005C8 AEr0Er00         [ 4] 1051 	ldx	(_asincosf_r_10000_26 + 1)
      0005CB ADr0Dr00         [ 4] 1052 	lda	_asincosf_r_10000_26
                                   1053 ;	Raw cost for generated ic 117 : (16, 22.000000) count=1.000000
                                   1054 ;	genLabel
                                   1055 ;	Raw cost for generated ic 118 : (0, 0.000000) count=1.000000
                                   1056 ;	../asincosf.c: 97: }
                                   1057 ;	genEndFunction
      0005CE 60               [ 6] 1058 	rts
                                   1059 ;	Raw cost for generated ic 119 : (1, 6.000000) count=1.000000
                                   1060 	.area CODE
                                   1061 	.area RODATA
                                   1062 	.area RODATA
      000000                       1063 _asincosf_a_10000_26:
      000000 00 00 00 00           1064 	.byte #0x00, #0x00, #0x00, #0x00	;  0.000000e+00
      000004 DB 0F 49 3F           1065 	.byte #0xdb, #0x0f, #0x49, #0x3f	;  7.853982e-01
                                   1066 	.area CODE
                                   1067 	.area RODATA
      000008                       1068 _asincosf_b_10000_26:
      000008 DB 0F C9 3F           1069 	.byte #0xdb, #0x0f, #0xc9, #0x3f	;  1.570796e+00
      00000C DB 0F 49 3F           1070 	.byte #0xdb, #0x0f, #0x49, #0x3f	;  7.853982e-01
                                   1071 	.area CODE
                                   1072 	.area XINIT
                                   1073 	.area CABS    (ABS)
