                                      1 ;--------------------------------------------------------
                                      2 ; File Created by SDCC : free open source ISO C Compiler
                                      3 ; Version 4.5.10 #15691 (Linux)
                                      4 ;--------------------------------------------------------
                                      5 	.module atanf
                                      6 	
      000000                          7 	.r65c02
                                      8 	.optsdcc -mmos65c02
                                      9 
                                     10 ;--------------------------------------------------------
                                     11 ;  Ordering of segments for the linker.
                                     12 ;--------------------------------------------------------
                                     13 	.area ZP      (PAG)
                                     14 	.area OSEG    (PAG, OVR)
                                     15 	.area _CODE
                                     16 	.area GSINIT
                                     17 	.area GSFINAL
                                     18 	.area CODE
                                     19 	.area RODATA
                                     20 	.area XINIT
                                     21 	.area _DATA
                                     22 	.area DATA
                                     23 	.area BSS
                                     24 ;--------------------------------------------------------
                                     25 ; Public variables in this module
                                     26 ;--------------------------------------------------------
                                     27 	.globl _fabsf
                                     28 	.globl _atanf_PARM_1
                                     29 	.globl _atanf
                                     30 ;--------------------------------------------------------
                                     31 ; ZP ram data
                                     32 ;--------------------------------------------------------
                                     33 	.area ZP      (PAG)
      000000                         34 _atanf_sloc0_1_0:
      000000                         35 	.ds 4
      000004                         36 _atanf_sloc1_1_0:
      000004                         37 	.ds 4
                                     38 ;--------------------------------------------------------
                                     39 ; overlayable items in ram
                                     40 ;--------------------------------------------------------
                                     41 ;--------------------------------------------------------
                                     42 ; uninitialized external ram data
                                     43 ;--------------------------------------------------------
                                     44 	.area BSS
      000000                         45 _atanf_PARM_1:
      000000                         46 	.ds 4
      000004                         47 _atanf_f_10000_26:
      000004                         48 	.ds 4
      000008                         49 _atanf_r_10000_26:
      000008                         50 	.ds 4
      00000C                         51 _atanf_n_10000_26:
      00000C                         52 	.ds 2
                                     53 ;--------------------------------------------------------
                                     54 ; absolute external ram data
                                     55 ;--------------------------------------------------------
                                     56 	.area DABS    (ABS)
                                     57 ;--------------------------------------------------------
                                     58 ; initialized external ram data
                                     59 ;--------------------------------------------------------
                                     60 	.area DATA
                                     61 ;--------------------------------------------------------
                                     62 ; global & static initialisations
                                     63 ;--------------------------------------------------------
                                     64 	.area _CODE
                                     65 	.area GSINIT
                                     66 	.area GSFINAL
                                     67 	.area GSINIT
                                     68 ;--------------------------------------------------------
                                     69 ; Home
                                     70 ;--------------------------------------------------------
                                     71 	.area _CODE
                                     72 	.area _CODE
                                     73 ;--------------------------------------------------------
                                     74 ; code
                                     75 ;--------------------------------------------------------
                                     76 	.area CODE
                                     77 ;------------------------------------------------------------
                                     78 ;Allocation info for local variables in function 'atanf'
                                     79 ;------------------------------------------------------------
                                     80 ;sloc0         Allocated with name '_atanf_sloc0_1_0'
                                     81 ;sloc1         Allocated with name '_atanf_sloc1_1_0'
                                     82 ;x             Allocated with name '_atanf_PARM_1'
                                     83 ;f             Allocated with name '_atanf_f_10000_26'
                                     84 ;r             Allocated with name '_atanf_r_10000_26'
                                     85 ;g             Allocated with name '_atanf_g_10000_26'
                                     86 ;n             Allocated with name '_atanf_n_10000_26'
                                     87 ;------------------------------------------------------------
                                     88 ;	../atanf.c: 55: float atanf(float x) _FLOAT_FUNC_REENTRANT
                                     89 ;	genLabel
                                     90 ;	Raw cost for generated ic 0 : (0, 0.000000) count=1.000000
                                     91 ;	-----------------------------------------
                                     92 ;	 function atanf
                                     93 ;	-----------------------------------------
                                     94 ;	Register assignment is optimal.
                                     95 ;	Stack space usage: 0 bytes.
      000000                         96 _atanf:
                                     97 ;	Raw cost for generated ic 1 : (0, 0.000000) count=1.000000
                                     98 ;	../atanf.c: 58: int n=0;
                                     99 ;	genAssign
                                    100 ;	genAssignLit
      000000 9Cr0Cr00         [ 4]  101 	stz	_atanf_n_10000_26
      000003 9Cr0Dr00         [ 4]  102 	stz	(_atanf_n_10000_26 + 1)
                                    103 ;	Raw cost for generated ic 2 : (6, 8.000000) count=1.000000
                                    104 ;	../atanf.c: 61: f=fabsf(x);
                                    105 ;	genAssign
                                    106 ;	genCopy
      000006 ADr03r00         [ 4]  107 	lda	(_atanf_PARM_1 + 3)
      000009 8Dr03r00         [ 4]  108 	sta	(_fabsf_PARM_1 + 3)
      00000C ADr02r00         [ 4]  109 	lda	(_atanf_PARM_1 + 2)
      00000F 8Dr02r00         [ 4]  110 	sta	(_fabsf_PARM_1 + 2)
      000012 ADr01r00         [ 4]  111 	lda	(_atanf_PARM_1 + 1)
      000015 8Dr01r00         [ 4]  112 	sta	(_fabsf_PARM_1 + 1)
      000018 ADr00r00         [ 4]  113 	lda	_atanf_PARM_1
      00001B 8Dr00r00         [ 4]  114 	sta	_fabsf_PARM_1
                                    115 ;	Raw cost for generated ic 3 : (24, 32.000000) count=1.000000
                                    116 ;	genCall
      00001E 20r00r00         [ 6]  117 	jsr	_fabsf
                                    118 ;	assignResultValue
      000021 85*00            [ 3]  119 	sta	*_atanf_sloc0_1_0
      000023 86*01            [ 3]  120 	stx	*(_atanf_sloc0_1_0 + 1)
      000025 A5*00            [ 3]  121 	lda	*___SDCC_m6502_ret2
      000027 85*02            [ 3]  122 	sta	*(_atanf_sloc0_1_0 + 2)
      000029 A5*00            [ 3]  123 	lda	*___SDCC_m6502_ret3
      00002B 85*03            [ 3]  124 	sta	*(_atanf_sloc0_1_0 + 3)
                                    125 ;	Raw cost for generated ic 4 : (15, 24.000000) count=1.000000
                                    126 ;	genAssign
                                    127 ;	genCopy
      00002D 8Dr07r00         [ 4]  128 	sta	(_atanf_f_10000_26 + 3)
      000030 A5*02            [ 3]  129 	lda	*(_atanf_sloc0_1_0 + 2)
      000032 8Dr06r00         [ 4]  130 	sta	(_atanf_f_10000_26 + 2)
      000035 8A               [ 2]  131 	txa
      000036 8Dr05r00         [ 4]  132 	sta	(_atanf_f_10000_26 + 1)
      000039 A5*00            [ 3]  133 	lda	*_atanf_sloc0_1_0
      00003B 8Dr04r00         [ 4]  134 	sta	_atanf_f_10000_26
                                    135 ;	Raw cost for generated ic 5 : (17, 24.000000) count=1.000000
                                    136 ;	../atanf.c: 62: if(f>1.0)
                                    137 ;	genAssign
                                    138 ;	genAssignLit
      00003E 9Cr00r00         [ 4]  139 	stz	___fslt_PARM_1
      000041 9Cr01r00         [ 4]  140 	stz	(___fslt_PARM_1 + 1)
      000044 A2 80            [ 2]  141 	ldx	#0x80
      000046 8Er02r00         [ 4]  142 	stx	(___fslt_PARM_1 + 2)
      000049 A2 3F            [ 2]  143 	ldx	#0x3f
      00004B 8Er03r00         [ 4]  144 	stx	(___fslt_PARM_1 + 3)
                                    145 ;	Raw cost for generated ic 72 : (16, 20.000000) count=1.000000
                                    146 ;	genAssign
                                    147 ;	genCopy
      00004E A5*03            [ 3]  148 	lda	*(_atanf_sloc0_1_0 + 3)
      000050 8Dr03r00         [ 4]  149 	sta	(___fslt_PARM_2 + 3)
      000053 A5*02            [ 3]  150 	lda	*(_atanf_sloc0_1_0 + 2)
      000055 8Dr02r00         [ 4]  151 	sta	(___fslt_PARM_2 + 2)
      000058 A5*01            [ 3]  152 	lda	*(_atanf_sloc0_1_0 + 1)
      00005A 8Dr01r00         [ 4]  153 	sta	(___fslt_PARM_2 + 1)
      00005D A5*00            [ 3]  154 	lda	*_atanf_sloc0_1_0
      00005F 8Dr00r00         [ 4]  155 	sta	___fslt_PARM_2
                                    156 ;	Raw cost for generated ic 73 : (20, 28.000000) count=1.000000
                                    157 ;	genCall
      000062 20r00r00         [ 6]  158 	jsr	___fslt
                                    159 ;	assignResultValue
                                    160 ;	Raw cost for generated ic 74 : (3, 6.000000) count=1.000000
                                    161 ;	genIfx
      000065 C9 00            [ 2]  162 	cmp	#0x00
                                    163 ;	genIfxJump : z
      000067 F0 3F            [ 4]  164 	beq	00102$
                                    165 ;	Raw cost for generated ic 7 : (7, 7.600000) count=1.000000
                                    166 ;	../atanf.c: 64: f=1.0/f;
                                    167 ;	genAssign
                                    168 ;	genAssignLit
      000069 9Cr00r00         [ 4]  169 	stz	___fsdiv_PARM_1
      00006C 9Cr01r00         [ 4]  170 	stz	(___fsdiv_PARM_1 + 1)
      00006F A2 80            [ 2]  171 	ldx	#0x80
      000071 8Er02r00         [ 4]  172 	stx	(___fsdiv_PARM_1 + 2)
      000074 A2 3F            [ 2]  173 	ldx	#0x3f
      000076 8Er03r00         [ 4]  174 	stx	(___fsdiv_PARM_1 + 3)
                                    175 ;	Raw cost for generated ic 75 : (16, 20.000000) count=0.750000
                                    176 ;	genAssign
                                    177 ;	genCopy
      000079 A5*03            [ 3]  178 	lda	*(_atanf_sloc0_1_0 + 3)
      00007B 8Dr03r00         [ 4]  179 	sta	(___fsdiv_PARM_2 + 3)
      00007E A5*02            [ 3]  180 	lda	*(_atanf_sloc0_1_0 + 2)
      000080 8Dr02r00         [ 4]  181 	sta	(___fsdiv_PARM_2 + 2)
      000083 A5*01            [ 3]  182 	lda	*(_atanf_sloc0_1_0 + 1)
      000085 8Dr01r00         [ 4]  183 	sta	(___fsdiv_PARM_2 + 1)
      000088 A5*00            [ 3]  184 	lda	*_atanf_sloc0_1_0
      00008A 8Dr00r00         [ 4]  185 	sta	___fsdiv_PARM_2
                                    186 ;	Raw cost for generated ic 76 : (20, 28.000000) count=0.750000
                                    187 ;	genCall
      00008D 20r00r00         [ 6]  188 	jsr	___fsdiv
                                    189 ;	assignResultValue
      000090 8Dr04r00         [ 4]  190 	sta	_atanf_f_10000_26
      000093 8Er05r00         [ 4]  191 	stx	(_atanf_f_10000_26 + 1)
      000096 A5*00            [ 3]  192 	lda	*___SDCC_m6502_ret2
      000098 8Dr06r00         [ 4]  193 	sta	(_atanf_f_10000_26 + 2)
      00009B A5*00            [ 3]  194 	lda	*___SDCC_m6502_ret3
      00009D 8Dr07r00         [ 4]  195 	sta	(_atanf_f_10000_26 + 3)
                                    196 ;	Raw cost for generated ic 77 : (19, 28.000000) count=0.750000
                                    197 ;	../atanf.c: 65: n=2;
                                    198 ;	genAssign
                                    199 ;	genAssignLit
      0000A0 A2 02            [ 2]  200 	ldx	#0x02
      0000A2 8Er0Cr00         [ 4]  201 	stx	_atanf_n_10000_26
      0000A5 9Cr0Dr00         [ 4]  202 	stz	(_atanf_n_10000_26 + 1)
                                    203 ;	Raw cost for generated ic 12 : (8, 10.000000) count=0.750000
                                    204 ;	genLabel
      0000A8                        205 00102$:
                                    206 ;	Raw cost for generated ic 13 : (0, 0.000000) count=1.000000
                                    207 ;	../atanf.c: 67: if(f>K1)
                                    208 ;	genAssign
                                    209 ;	genAssignLit
      0000A8 A2 A3            [ 2]  210 	ldx	#0xa3
      0000AA 8Er00r00         [ 4]  211 	stx	___fslt_PARM_1
      0000AD A2 30            [ 2]  212 	ldx	#0x30
      0000AF 8Er01r00         [ 4]  213 	stx	(___fslt_PARM_1 + 1)
      0000B2 A2 89            [ 2]  214 	ldx	#0x89
      0000B4 8Er02r00         [ 4]  215 	stx	(___fslt_PARM_1 + 2)
      0000B7 A2 3E            [ 2]  216 	ldx	#0x3e
      0000B9 8Er03r00         [ 4]  217 	stx	(___fslt_PARM_1 + 3)
                                    218 ;	Raw cost for generated ic 78 : (20, 24.000000) count=1.000000
                                    219 ;	genAssign
                                    220 ;	genCopy
      0000BC ADr07r00         [ 4]  221 	lda	(_atanf_f_10000_26 + 3)
      0000BF 8Dr03r00         [ 4]  222 	sta	(___fslt_PARM_2 + 3)
      0000C2 ADr06r00         [ 4]  223 	lda	(_atanf_f_10000_26 + 2)
      0000C5 8Dr02r00         [ 4]  224 	sta	(___fslt_PARM_2 + 2)
      0000C8 ADr05r00         [ 4]  225 	lda	(_atanf_f_10000_26 + 1)
      0000CB 8Dr01r00         [ 4]  226 	sta	(___fslt_PARM_2 + 1)
      0000CE ADr04r00         [ 4]  227 	lda	_atanf_f_10000_26
      0000D1 8Dr00r00         [ 4]  228 	sta	___fslt_PARM_2
                                    229 ;	Raw cost for generated ic 79 : (24, 32.000000) count=1.000000
                                    230 ;	genCall
      0000D4 20r00r00         [ 6]  231 	jsr	___fslt
                                    232 ;	assignResultValue
                                    233 ;	Raw cost for generated ic 80 : (3, 6.000000) count=1.000000
                                    234 ;	genIfx
      0000D7 C9 00            [ 2]  235 	cmp	#0x00
                                    236 ;	genIfxJump : z
      0000D9 D0 03            [ 4]  237 	bne	00147$
      0000DB 4CrD5r01         [ 3]  238 	jmp	00104$
      0000DE                        239 00147$:
                                    240 ;	Raw cost for generated ic 15 : (7, 7.600000) count=1.000000
                                    241 ;	../atanf.c: 69: f=((K2*f-1.0)+f)/(K3+f);
                                    242 ;	genAssign
                                    243 ;	genAssignLit
      0000DE A2 AF            [ 2]  244 	ldx	#0xaf
      0000E0 8Er00r00         [ 4]  245 	stx	___fsmul_PARM_1
      0000E3 A2 67            [ 2]  246 	ldx	#0x67
      0000E5 8Er01r00         [ 4]  247 	stx	(___fsmul_PARM_1 + 1)
      0000E8 A2 3B            [ 2]  248 	ldx	#0x3b
      0000EA 8Er02r00         [ 4]  249 	stx	(___fsmul_PARM_1 + 2)
      0000ED A2 3F            [ 2]  250 	ldx	#0x3f
      0000EF 8Er03r00         [ 4]  251 	stx	(___fsmul_PARM_1 + 3)
                                    252 ;	Raw cost for generated ic 81 : (20, 24.000000) count=0.750000
                                    253 ;	genAssign
                                    254 ;	genCopy
      0000F2 ADr07r00         [ 4]  255 	lda	(_atanf_f_10000_26 + 3)
      0000F5 8Dr03r00         [ 4]  256 	sta	(___fsmul_PARM_2 + 3)
      0000F8 ADr06r00         [ 4]  257 	lda	(_atanf_f_10000_26 + 2)
      0000FB 8Dr02r00         [ 4]  258 	sta	(___fsmul_PARM_2 + 2)
      0000FE ADr05r00         [ 4]  259 	lda	(_atanf_f_10000_26 + 1)
      000101 8Dr01r00         [ 4]  260 	sta	(___fsmul_PARM_2 + 1)
      000104 ADr04r00         [ 4]  261 	lda	_atanf_f_10000_26
      000107 8Dr00r00         [ 4]  262 	sta	___fsmul_PARM_2
                                    263 ;	Raw cost for generated ic 82 : (24, 32.000000) count=0.750000
                                    264 ;	genCall
      00010A 20r00r00         [ 6]  265 	jsr	___fsmul
                                    266 ;	assignResultValue
      00010D 8Dr00r00         [ 4]  267 	sta	___fssub_PARM_1
      000110 8Er01r00         [ 4]  268 	stx	(___fssub_PARM_1 + 1)
      000113 A5*00            [ 3]  269 	lda	*___SDCC_m6502_ret2
      000115 8Dr02r00         [ 4]  270 	sta	(___fssub_PARM_1 + 2)
      000118 A5*00            [ 3]  271 	lda	*___SDCC_m6502_ret3
      00011A 8Dr03r00         [ 4]  272 	sta	(___fssub_PARM_1 + 3)
                                    273 ;	Raw cost for generated ic 83 : (19, 28.000000) count=0.750000
                                    274 ;	genAssign
                                    275 ;	genAssignLit
      00011D 9Cr00r00         [ 4]  276 	stz	___fssub_PARM_2
      000120 9Cr01r00         [ 4]  277 	stz	(___fssub_PARM_2 + 1)
      000123 A2 80            [ 2]  278 	ldx	#0x80
      000125 8Er02r00         [ 4]  279 	stx	(___fssub_PARM_2 + 2)
      000128 A2 3F            [ 2]  280 	ldx	#0x3f
      00012A 8Er03r00         [ 4]  281 	stx	(___fssub_PARM_2 + 3)
                                    282 ;	Raw cost for generated ic 85 : (16, 20.000000) count=0.750000
                                    283 ;	genCall
      00012D 20r00r00         [ 6]  284 	jsr	___fssub
                                    285 ;	assignResultValue
      000130 8Dr00r00         [ 4]  286 	sta	___fsadd_PARM_1
      000133 8Er01r00         [ 4]  287 	stx	(___fsadd_PARM_1 + 1)
      000136 A5*00            [ 3]  288 	lda	*___SDCC_m6502_ret2
      000138 8Dr02r00         [ 4]  289 	sta	(___fsadd_PARM_1 + 2)
      00013B A5*00            [ 3]  290 	lda	*___SDCC_m6502_ret3
      00013D 8Dr03r00         [ 4]  291 	sta	(___fsadd_PARM_1 + 3)
                                    292 ;	Raw cost for generated ic 86 : (19, 28.000000) count=0.750000
                                    293 ;	genAssign
                                    294 ;	genCopy
      000140 ADr07r00         [ 4]  295 	lda	(_atanf_f_10000_26 + 3)
      000143 8Dr03r00         [ 4]  296 	sta	(___fsadd_PARM_2 + 3)
      000146 ADr06r00         [ 4]  297 	lda	(_atanf_f_10000_26 + 2)
      000149 8Dr02r00         [ 4]  298 	sta	(___fsadd_PARM_2 + 2)
      00014C ADr05r00         [ 4]  299 	lda	(_atanf_f_10000_26 + 1)
      00014F 8Dr01r00         [ 4]  300 	sta	(___fsadd_PARM_2 + 1)
      000152 ADr04r00         [ 4]  301 	lda	_atanf_f_10000_26
      000155 8Dr00r00         [ 4]  302 	sta	___fsadd_PARM_2
                                    303 ;	Raw cost for generated ic 88 : (24, 32.000000) count=0.750000
                                    304 ;	genCall
      000158 20r00r00         [ 6]  305 	jsr	___fsadd
                                    306 ;	assignResultValue
      00015B 85*00            [ 3]  307 	sta	*_atanf_sloc0_1_0
      00015D 86*01            [ 3]  308 	stx	*(_atanf_sloc0_1_0 + 1)
      00015F A5*00            [ 3]  309 	lda	*___SDCC_m6502_ret2
      000161 85*02            [ 3]  310 	sta	*(_atanf_sloc0_1_0 + 2)
      000163 A5*00            [ 3]  311 	lda	*___SDCC_m6502_ret3
      000165 85*03            [ 3]  312 	sta	*(_atanf_sloc0_1_0 + 3)
                                    313 ;	Raw cost for generated ic 89 : (15, 24.000000) count=0.750000
                                    314 ;	genAssign
                                    315 ;	genCopy
      000167 ADr07r00         [ 4]  316 	lda	(_atanf_f_10000_26 + 3)
      00016A 8Dr03r00         [ 4]  317 	sta	(___fsadd_PARM_1 + 3)
      00016D ADr06r00         [ 4]  318 	lda	(_atanf_f_10000_26 + 2)
      000170 8Dr02r00         [ 4]  319 	sta	(___fsadd_PARM_1 + 2)
      000173 ADr05r00         [ 4]  320 	lda	(_atanf_f_10000_26 + 1)
      000176 8Dr01r00         [ 4]  321 	sta	(___fsadd_PARM_1 + 1)
      000179 ADr04r00         [ 4]  322 	lda	_atanf_f_10000_26
      00017C 8Dr00r00         [ 4]  323 	sta	___fsadd_PARM_1
                                    324 ;	Raw cost for generated ic 90 : (24, 32.000000) count=0.750000
                                    325 ;	genAssign
                                    326 ;	genAssignLit
      00017F A2 D7            [ 2]  327 	ldx	#0xd7
      000181 8Er00r00         [ 4]  328 	stx	___fsadd_PARM_2
      000184 A2 B3            [ 2]  329 	ldx	#0xb3
      000186 8Er01r00         [ 4]  330 	stx	(___fsadd_PARM_2 + 1)
      000189 A2 DD            [ 2]  331 	ldx	#0xdd
      00018B 8Er02r00         [ 4]  332 	stx	(___fsadd_PARM_2 + 2)
      00018E A2 3F            [ 2]  333 	ldx	#0x3f
      000190 8Er03r00         [ 4]  334 	stx	(___fsadd_PARM_2 + 3)
                                    335 ;	Raw cost for generated ic 91 : (20, 24.000000) count=0.750000
                                    336 ;	genCall
      000193 20r00r00         [ 6]  337 	jsr	___fsadd
                                    338 ;	assignResultValue
      000196 8Dr00r00         [ 4]  339 	sta	___fsdiv_PARM_2
      000199 8Er01r00         [ 4]  340 	stx	(___fsdiv_PARM_2 + 1)
      00019C A5*00            [ 3]  341 	lda	*___SDCC_m6502_ret2
      00019E 8Dr02r00         [ 4]  342 	sta	(___fsdiv_PARM_2 + 2)
      0001A1 A5*00            [ 3]  343 	lda	*___SDCC_m6502_ret3
      0001A3 8Dr03r00         [ 4]  344 	sta	(___fsdiv_PARM_2 + 3)
                                    345 ;	Raw cost for generated ic 92 : (19, 28.000000) count=0.750000
                                    346 ;	genAssign
                                    347 ;	genCopy
      0001A6 A5*03            [ 3]  348 	lda	*(_atanf_sloc0_1_0 + 3)
      0001A8 8Dr03r00         [ 4]  349 	sta	(___fsdiv_PARM_1 + 3)
      0001AB A5*02            [ 3]  350 	lda	*(_atanf_sloc0_1_0 + 2)
      0001AD 8Dr02r00         [ 4]  351 	sta	(___fsdiv_PARM_1 + 2)
      0001B0 A5*01            [ 3]  352 	lda	*(_atanf_sloc0_1_0 + 1)
      0001B2 8Dr01r00         [ 4]  353 	sta	(___fsdiv_PARM_1 + 1)
      0001B5 A5*00            [ 3]  354 	lda	*_atanf_sloc0_1_0
      0001B7 8Dr00r00         [ 4]  355 	sta	___fsdiv_PARM_1
                                    356 ;	Raw cost for generated ic 93 : (20, 28.000000) count=0.750000
                                    357 ;	genCall
      0001BA 20r00r00         [ 6]  358 	jsr	___fsdiv
                                    359 ;	assignResultValue
      0001BD 8Dr04r00         [ 4]  360 	sta	_atanf_f_10000_26
      0001C0 8Er05r00         [ 4]  361 	stx	(_atanf_f_10000_26 + 1)
      0001C3 A5*00            [ 3]  362 	lda	*___SDCC_m6502_ret2
      0001C5 8Dr06r00         [ 4]  363 	sta	(_atanf_f_10000_26 + 2)
      0001C8 A5*00            [ 3]  364 	lda	*___SDCC_m6502_ret3
      0001CA 8Dr07r00         [ 4]  365 	sta	(_atanf_f_10000_26 + 3)
                                    366 ;	Raw cost for generated ic 95 : (19, 28.000000) count=0.750000
                                    367 ;	../atanf.c: 73: n++;
                                    368 ;	genPlus
                                    369 ;	  genPlusInc
      0001CD EEr0Cr00         [ 6]  370 	inc	_atanf_n_10000_26
      0001D0 D0 03            [ 4]  371 	bne	00148$
      0001D2 EEr0Dr00         [ 6]  372 	inc	(_atanf_n_10000_26 + 1)
      0001D5                        373 00148$:
                                    374 ;	Raw cost for generated ic 25 : (8, 14.600000) count=0.750000
                                    375 ;	genLabel
      0001D5                        376 00104$:
                                    377 ;	Raw cost for generated ic 27 : (0, 0.000000) count=1.000000
                                    378 ;	../atanf.c: 75: if(fabsf(f)<EPS) r=f;
                                    379 ;	genAssign
                                    380 ;	genCopy
      0001D5 ADr07r00         [ 4]  381 	lda	(_atanf_f_10000_26 + 3)
      0001D8 8Dr03r00         [ 4]  382 	sta	(_fabsf_PARM_1 + 3)
      0001DB ADr06r00         [ 4]  383 	lda	(_atanf_f_10000_26 + 2)
      0001DE 8Dr02r00         [ 4]  384 	sta	(_fabsf_PARM_1 + 2)
      0001E1 ADr05r00         [ 4]  385 	lda	(_atanf_f_10000_26 + 1)
      0001E4 8Dr01r00         [ 4]  386 	sta	(_fabsf_PARM_1 + 1)
      0001E7 ADr04r00         [ 4]  387 	lda	_atanf_f_10000_26
      0001EA 8Dr00r00         [ 4]  388 	sta	_fabsf_PARM_1
                                    389 ;	Raw cost for generated ic 28 : (24, 32.000000) count=1.000000
                                    390 ;	genCall
      0001ED 20r00r00         [ 6]  391 	jsr	_fabsf
                                    392 ;	assignResultValue
      0001F0 8Dr00r00         [ 4]  393 	sta	___fslt_PARM_1
      0001F3 8Er01r00         [ 4]  394 	stx	(___fslt_PARM_1 + 1)
      0001F6 A5*00            [ 3]  395 	lda	*___SDCC_m6502_ret2
      0001F8 8Dr02r00         [ 4]  396 	sta	(___fslt_PARM_1 + 2)
      0001FB A5*00            [ 3]  397 	lda	*___SDCC_m6502_ret3
      0001FD 8Dr03r00         [ 4]  398 	sta	(___fslt_PARM_1 + 3)
                                    399 ;	Raw cost for generated ic 29 : (19, 28.000000) count=1.000000
                                    400 ;	genAssign
                                    401 ;	genAssignLit
      000200 9Cr00r00         [ 4]  402 	stz	___fslt_PARM_2
      000203 9Cr01r00         [ 4]  403 	stz	(___fslt_PARM_2 + 1)
      000206 A2 80            [ 2]  404 	ldx	#0x80
      000208 8Er02r00         [ 4]  405 	stx	(___fslt_PARM_2 + 2)
      00020B A2 39            [ 2]  406 	ldx	#0x39
      00020D 8Er03r00         [ 4]  407 	stx	(___fslt_PARM_2 + 3)
                                    408 ;	Raw cost for generated ic 97 : (16, 20.000000) count=1.000000
                                    409 ;	genCall
      000210 20r00r00         [ 6]  410 	jsr	___fslt
                                    411 ;	assignResultValue
                                    412 ;	Raw cost for generated ic 98 : (3, 6.000000) count=1.000000
                                    413 ;	genIfx
      000213 C9 00            [ 2]  414 	cmp	#0x00
                                    415 ;	genIfxJump : z
      000215 F0 1B            [ 4]  416 	beq	00106$
                                    417 ;	Raw cost for generated ic 31 : (7, 7.600000) count=1.000000
                                    418 ;	genAssign
                                    419 ;	genCopy
      000217 ADr07r00         [ 4]  420 	lda	(_atanf_f_10000_26 + 3)
      00021A 8Dr0Br00         [ 4]  421 	sta	(_atanf_r_10000_26 + 3)
      00021D ADr06r00         [ 4]  422 	lda	(_atanf_f_10000_26 + 2)
      000220 8Dr0Ar00         [ 4]  423 	sta	(_atanf_r_10000_26 + 2)
      000223 ADr05r00         [ 4]  424 	lda	(_atanf_f_10000_26 + 1)
      000226 8Dr09r00         [ 4]  425 	sta	(_atanf_r_10000_26 + 1)
      000229 ADr04r00         [ 4]  426 	lda	_atanf_f_10000_26
      00022C 8Dr08r00         [ 4]  427 	sta	_atanf_r_10000_26
                                    428 ;	Raw cost for generated ic 34 : (24, 32.000000) count=0.750000
                                    429 ;	genGoto
      00022F 4CrACr03         [ 3]  430 	jmp	00107$
                                    431 ;	Raw cost for generated ic 35 : (3, 3.000000) count=0.750000
                                    432 ;	genLabel
      000232                        433 00106$:
                                    434 ;	Raw cost for generated ic 36 : (0, 0.000000) count=0.250000
                                    435 ;	../atanf.c: 78: g=f*f;
                                    436 ;	genAssign
                                    437 ;	genCopy
      000232 ADr07r00         [ 4]  438 	lda	(_atanf_f_10000_26 + 3)
      000235 8Dr03r00         [ 4]  439 	sta	(___fsmul_PARM_1 + 3)
      000238 ADr06r00         [ 4]  440 	lda	(_atanf_f_10000_26 + 2)
      00023B 8Dr02r00         [ 4]  441 	sta	(___fsmul_PARM_1 + 2)
      00023E ADr05r00         [ 4]  442 	lda	(_atanf_f_10000_26 + 1)
      000241 8Dr01r00         [ 4]  443 	sta	(___fsmul_PARM_1 + 1)
      000244 ADr04r00         [ 4]  444 	lda	_atanf_f_10000_26
      000247 8Dr00r00         [ 4]  445 	sta	___fsmul_PARM_1
                                    446 ;	Raw cost for generated ic 99 : (24, 32.000000) count=0.250000
                                    447 ;	genAssign
                                    448 ;	genCopy
      00024A ADr07r00         [ 4]  449 	lda	(_atanf_f_10000_26 + 3)
      00024D 8Dr03r00         [ 4]  450 	sta	(___fsmul_PARM_2 + 3)
      000250 ADr06r00         [ 4]  451 	lda	(_atanf_f_10000_26 + 2)
      000253 8Dr02r00         [ 4]  452 	sta	(___fsmul_PARM_2 + 2)
      000256 ADr05r00         [ 4]  453 	lda	(_atanf_f_10000_26 + 1)
      000259 8Dr01r00         [ 4]  454 	sta	(___fsmul_PARM_2 + 1)
      00025C ADr04r00         [ 4]  455 	lda	_atanf_f_10000_26
      00025F 8Dr00r00         [ 4]  456 	sta	___fsmul_PARM_2
                                    457 ;	Raw cost for generated ic 100 : (24, 32.000000) count=0.250000
                                    458 ;	../atanf.c: 79: r=f+P(g,f)/Q(g);
                                    459 ;	genCall
      000262 20r00r00         [ 6]  460 	jsr	___fsmul
                                    461 ;	assignResultValue
      000265 85*00            [ 3]  462 	sta	*_atanf_sloc0_1_0
      000267 86*01            [ 3]  463 	stx	*(_atanf_sloc0_1_0 + 1)
      000269 A5*00            [ 3]  464 	lda	*___SDCC_m6502_ret2
      00026B 85*02            [ 3]  465 	sta	*(_atanf_sloc0_1_0 + 2)
      00026D A5*00            [ 3]  466 	lda	*___SDCC_m6502_ret3
      00026F 85*03            [ 3]  467 	sta	*(_atanf_sloc0_1_0 + 3)
                                    468 ;	Raw cost for generated ic 101 : (15, 24.000000) count=0.250000
                                    469 ;	genAssign
                                    470 ;	genAssignLit
      000271 A2 91            [ 2]  471 	ldx	#0x91
      000273 8Er00r00         [ 4]  472 	stx	___fsmul_PARM_1
      000276 A2 86            [ 2]  473 	ldx	#0x86
      000278 8Er01r00         [ 4]  474 	stx	(___fsmul_PARM_1 + 1)
      00027B A2 50            [ 2]  475 	ldx	#0x50
      00027D 8Er02r00         [ 4]  476 	stx	(___fsmul_PARM_1 + 2)
      000280 A2 BD            [ 2]  477 	ldx	#0xbd
      000282 8Er03r00         [ 4]  478 	stx	(___fsmul_PARM_1 + 3)
                                    479 ;	Raw cost for generated ic 102 : (20, 24.000000) count=0.250000
                                    480 ;	genAssign
                                    481 ;	genCopy
      000285 8Dr03r00         [ 4]  482 	sta	(___fsmul_PARM_2 + 3)
      000288 A5*02            [ 3]  483 	lda	*(_atanf_sloc0_1_0 + 2)
      00028A 8Dr02r00         [ 4]  484 	sta	(___fsmul_PARM_2 + 2)
      00028D A5*01            [ 3]  485 	lda	*(_atanf_sloc0_1_0 + 1)
      00028F 8Dr01r00         [ 4]  486 	sta	(___fsmul_PARM_2 + 1)
      000292 A5*00            [ 3]  487 	lda	*_atanf_sloc0_1_0
      000294 8Dr00r00         [ 4]  488 	sta	___fsmul_PARM_2
                                    489 ;	Raw cost for generated ic 103 : (18, 25.000000) count=0.250000
                                    490 ;	genCall
      000297 20r00r00         [ 6]  491 	jsr	___fsmul
                                    492 ;	assignResultValue
      00029A 8Dr00r00         [ 4]  493 	sta	___fsadd_PARM_1
      00029D 8Er01r00         [ 4]  494 	stx	(___fsadd_PARM_1 + 1)
      0002A0 A5*00            [ 3]  495 	lda	*___SDCC_m6502_ret2
      0002A2 8Dr02r00         [ 4]  496 	sta	(___fsadd_PARM_1 + 2)
      0002A5 A5*00            [ 3]  497 	lda	*___SDCC_m6502_ret3
      0002A7 8Dr03r00         [ 4]  498 	sta	(___fsadd_PARM_1 + 3)
                                    499 ;	Raw cost for generated ic 104 : (19, 28.000000) count=0.250000
                                    500 ;	genAssign
                                    501 ;	genAssignLit
      0002AA A2 F6            [ 2]  502 	ldx	#0xf6
      0002AC 8Er00r00         [ 4]  503 	stx	___fsadd_PARM_2
      0002AF A2 10            [ 2]  504 	ldx	#0x10
      0002B1 8Er01r00         [ 4]  505 	stx	(___fsadd_PARM_2 + 1)
      0002B4 A2 F1            [ 2]  506 	ldx	#0xf1
      0002B6 8Er02r00         [ 4]  507 	stx	(___fsadd_PARM_2 + 2)
      0002B9 A2 BE            [ 2]  508 	ldx	#0xbe
      0002BB 8Er03r00         [ 4]  509 	stx	(___fsadd_PARM_2 + 3)
                                    510 ;	Raw cost for generated ic 106 : (20, 24.000000) count=0.250000
                                    511 ;	genCall
      0002BE 20r00r00         [ 6]  512 	jsr	___fsadd
                                    513 ;	assignResultValue
      0002C1 8Dr00r00         [ 4]  514 	sta	___fsmul_PARM_1
      0002C4 8Er01r00         [ 4]  515 	stx	(___fsmul_PARM_1 + 1)
      0002C7 A5*00            [ 3]  516 	lda	*___SDCC_m6502_ret2
      0002C9 8Dr02r00         [ 4]  517 	sta	(___fsmul_PARM_1 + 2)
      0002CC A5*00            [ 3]  518 	lda	*___SDCC_m6502_ret3
      0002CE 8Dr03r00         [ 4]  519 	sta	(___fsmul_PARM_1 + 3)
                                    520 ;	Raw cost for generated ic 107 : (19, 28.000000) count=0.250000
                                    521 ;	genAssign
                                    522 ;	genCopy
      0002D1 A5*03            [ 3]  523 	lda	*(_atanf_sloc0_1_0 + 3)
      0002D3 8Dr03r00         [ 4]  524 	sta	(___fsmul_PARM_2 + 3)
      0002D6 A5*02            [ 3]  525 	lda	*(_atanf_sloc0_1_0 + 2)
      0002D8 8Dr02r00         [ 4]  526 	sta	(___fsmul_PARM_2 + 2)
      0002DB A5*01            [ 3]  527 	lda	*(_atanf_sloc0_1_0 + 1)
      0002DD 8Dr01r00         [ 4]  528 	sta	(___fsmul_PARM_2 + 1)
      0002E0 A5*00            [ 3]  529 	lda	*_atanf_sloc0_1_0
      0002E2 8Dr00r00         [ 4]  530 	sta	___fsmul_PARM_2
                                    531 ;	Raw cost for generated ic 109 : (20, 28.000000) count=0.250000
                                    532 ;	genCall
      0002E5 20r00r00         [ 6]  533 	jsr	___fsmul
                                    534 ;	assignResultValue
      0002E8 8Dr00r00         [ 4]  535 	sta	___fsmul_PARM_1
      0002EB 8Er01r00         [ 4]  536 	stx	(___fsmul_PARM_1 + 1)
      0002EE A5*00            [ 3]  537 	lda	*___SDCC_m6502_ret2
      0002F0 8Dr02r00         [ 4]  538 	sta	(___fsmul_PARM_1 + 2)
      0002F3 A5*00            [ 3]  539 	lda	*___SDCC_m6502_ret3
      0002F5 8Dr03r00         [ 4]  540 	sta	(___fsmul_PARM_1 + 3)
                                    541 ;	Raw cost for generated ic 110 : (19, 28.000000) count=0.250000
                                    542 ;	genAssign
                                    543 ;	genCopy
      0002F8 ADr07r00         [ 4]  544 	lda	(_atanf_f_10000_26 + 3)
      0002FB 8Dr03r00         [ 4]  545 	sta	(___fsmul_PARM_2 + 3)
      0002FE ADr06r00         [ 4]  546 	lda	(_atanf_f_10000_26 + 2)
      000301 8Dr02r00         [ 4]  547 	sta	(___fsmul_PARM_2 + 2)
      000304 ADr05r00         [ 4]  548 	lda	(_atanf_f_10000_26 + 1)
      000307 8Dr01r00         [ 4]  549 	sta	(___fsmul_PARM_2 + 1)
      00030A ADr04r00         [ 4]  550 	lda	_atanf_f_10000_26
      00030D 8Dr00r00         [ 4]  551 	sta	___fsmul_PARM_2
                                    552 ;	Raw cost for generated ic 112 : (24, 32.000000) count=0.250000
                                    553 ;	genCall
      000310 20r00r00         [ 6]  554 	jsr	___fsmul
                                    555 ;	assignResultValue
      000313 85*04            [ 3]  556 	sta	*_atanf_sloc1_1_0
      000315 86*05            [ 3]  557 	stx	*(_atanf_sloc1_1_0 + 1)
      000317 A5*00            [ 3]  558 	lda	*___SDCC_m6502_ret2
      000319 85*06            [ 3]  559 	sta	*(_atanf_sloc1_1_0 + 2)
      00031B A5*00            [ 3]  560 	lda	*___SDCC_m6502_ret3
      00031D 85*07            [ 3]  561 	sta	*(_atanf_sloc1_1_0 + 3)
                                    562 ;	Raw cost for generated ic 113 : (15, 24.000000) count=0.250000
                                    563 ;	genAssign
                                    564 ;	genCopy
      00031F A5*03            [ 3]  565 	lda	*(_atanf_sloc0_1_0 + 3)
      000321 8Dr03r00         [ 4]  566 	sta	(___fsadd_PARM_1 + 3)
      000324 A5*02            [ 3]  567 	lda	*(_atanf_sloc0_1_0 + 2)
      000326 8Dr02r00         [ 4]  568 	sta	(___fsadd_PARM_1 + 2)
      000329 A5*01            [ 3]  569 	lda	*(_atanf_sloc0_1_0 + 1)
      00032B 8Dr01r00         [ 4]  570 	sta	(___fsadd_PARM_1 + 1)
      00032E A5*00            [ 3]  571 	lda	*_atanf_sloc0_1_0
      000330 8Dr00r00         [ 4]  572 	sta	___fsadd_PARM_1
                                    573 ;	Raw cost for generated ic 114 : (20, 28.000000) count=0.250000
                                    574 ;	genAssign
                                    575 ;	genAssignLit
      000333 A2 D3            [ 2]  576 	ldx	#0xd3
      000335 8Er00r00         [ 4]  577 	stx	___fsadd_PARM_2
      000338 A2 CC            [ 2]  578 	ldx	#0xcc
      00033A 8Er01r00         [ 4]  579 	stx	(___fsadd_PARM_2 + 1)
      00033D A2 B4            [ 2]  580 	ldx	#0xb4
      00033F 8Er02r00         [ 4]  581 	stx	(___fsadd_PARM_2 + 2)
      000342 A2 3F            [ 2]  582 	ldx	#0x3f
      000344 8Er03r00         [ 4]  583 	stx	(___fsadd_PARM_2 + 3)
                                    584 ;	Raw cost for generated ic 115 : (20, 24.000000) count=0.250000
                                    585 ;	genCall
      000347 20r00r00         [ 6]  586 	jsr	___fsadd
                                    587 ;	assignResultValue
      00034A 8Dr00r00         [ 4]  588 	sta	___fsdiv_PARM_2
      00034D 8Er01r00         [ 4]  589 	stx	(___fsdiv_PARM_2 + 1)
      000350 A5*00            [ 3]  590 	lda	*___SDCC_m6502_ret2
      000352 8Dr02r00         [ 4]  591 	sta	(___fsdiv_PARM_2 + 2)
      000355 A5*00            [ 3]  592 	lda	*___SDCC_m6502_ret3
      000357 8Dr03r00         [ 4]  593 	sta	(___fsdiv_PARM_2 + 3)
                                    594 ;	Raw cost for generated ic 116 : (19, 28.000000) count=0.250000
                                    595 ;	genAssign
                                    596 ;	genCopy
      00035A A5*07            [ 3]  597 	lda	*(_atanf_sloc1_1_0 + 3)
      00035C 8Dr03r00         [ 4]  598 	sta	(___fsdiv_PARM_1 + 3)
      00035F A5*06            [ 3]  599 	lda	*(_atanf_sloc1_1_0 + 2)
      000361 8Dr02r00         [ 4]  600 	sta	(___fsdiv_PARM_1 + 2)
      000364 A5*05            [ 3]  601 	lda	*(_atanf_sloc1_1_0 + 1)
      000366 8Dr01r00         [ 4]  602 	sta	(___fsdiv_PARM_1 + 1)
      000369 A5*04            [ 3]  603 	lda	*_atanf_sloc1_1_0
      00036B 8Dr00r00         [ 4]  604 	sta	___fsdiv_PARM_1
                                    605 ;	Raw cost for generated ic 117 : (20, 28.000000) count=0.250000
                                    606 ;	genCall
      00036E 20r00r00         [ 6]  607 	jsr	___fsdiv
                                    608 ;	assignResultValue
      000371 8Dr00r00         [ 4]  609 	sta	___fsadd_PARM_2
      000374 8Er01r00         [ 4]  610 	stx	(___fsadd_PARM_2 + 1)
      000377 A5*00            [ 3]  611 	lda	*___SDCC_m6502_ret2
      000379 8Dr02r00         [ 4]  612 	sta	(___fsadd_PARM_2 + 2)
      00037C A5*00            [ 3]  613 	lda	*___SDCC_m6502_ret3
      00037E 8Dr03r00         [ 4]  614 	sta	(___fsadd_PARM_2 + 3)
                                    615 ;	Raw cost for generated ic 119 : (19, 28.000000) count=0.250000
                                    616 ;	genAssign
                                    617 ;	genCopy
      000381 ADr07r00         [ 4]  618 	lda	(_atanf_f_10000_26 + 3)
      000384 8Dr03r00         [ 4]  619 	sta	(___fsadd_PARM_1 + 3)
      000387 ADr06r00         [ 4]  620 	lda	(_atanf_f_10000_26 + 2)
      00038A 8Dr02r00         [ 4]  621 	sta	(___fsadd_PARM_1 + 2)
      00038D ADr05r00         [ 4]  622 	lda	(_atanf_f_10000_26 + 1)
      000390 8Dr01r00         [ 4]  623 	sta	(___fsadd_PARM_1 + 1)
      000393 ADr04r00         [ 4]  624 	lda	_atanf_f_10000_26
      000396 8Dr00r00         [ 4]  625 	sta	___fsadd_PARM_1
                                    626 ;	Raw cost for generated ic 120 : (24, 32.000000) count=0.250000
                                    627 ;	genCall
      000399 20r00r00         [ 6]  628 	jsr	___fsadd
                                    629 ;	assignResultValue
      00039C 8Dr08r00         [ 4]  630 	sta	_atanf_r_10000_26
      00039F 8Er09r00         [ 4]  631 	stx	(_atanf_r_10000_26 + 1)
      0003A2 A5*00            [ 3]  632 	lda	*___SDCC_m6502_ret2
      0003A4 8Dr0Ar00         [ 4]  633 	sta	(_atanf_r_10000_26 + 2)
      0003A7 A5*00            [ 3]  634 	lda	*___SDCC_m6502_ret3
      0003A9 8Dr0Br00         [ 4]  635 	sta	(_atanf_r_10000_26 + 3)
                                    636 ;	Raw cost for generated ic 122 : (19, 28.000000) count=0.250000
                                    637 ;	genLabel
      0003AC                        638 00107$:
                                    639 ;	Raw cost for generated ic 48 : (0, 0.000000) count=1.000000
                                    640 ;	../atanf.c: 81: if(n>1) r=-r;
                                    641 ;	genCmp
      0003AC A9 01            [ 2]  642 	lda	#0x01
      0003AE 38               [ 2]  643 	sec
      0003AF EDr0Cr00         [ 5]  644 	sbc	_atanf_n_10000_26
      0003B2 A9 00            [ 2]  645 	lda	#0x00
      0003B4 EDr0Dr00         [ 5]  646 	sbc	(_atanf_n_10000_26 + 1)
      0003B7 50 04            [ 4]  647 	bvc	00152$
      0003B9 10 04            [ 4]  648 	bpl	00151$
      0003BB 30 0A            [ 4]  649 	bmi	00109$
      0003BD                        650 00152$:
      0003BD 10 08            [ 4]  651 	bpl	00109$
      0003BF                        652 00151$:
                                    653 ;	Raw cost for generated ic 49 : (22, 27.400002) count=1.000000
                                    654 ;	skipping generated iCode
                                    655 ;	Raw cost for generated ic 50 : (0, 0.000000) count=1.000000
                                    656 ;	genUminus
                                    657 ;	genUminusFloat
      0003BF ADr0Br00         [ 4]  658 	lda	(_atanf_r_10000_26 + 3)
      0003C2 49 80            [ 2]  659 	eor	#0x80
      0003C4 8Dr0Br00         [ 4]  660 	sta	(_atanf_r_10000_26 + 3)
                                    661 ;	Raw cost for generated ic 53 : (8, 10.000000) count=0.750000
                                    662 ;	genLabel
      0003C7                        663 00109$:
                                    664 ;	Raw cost for generated ic 55 : (0, 0.000000) count=1.000000
                                    665 ;	../atanf.c: 82: r+=a[n];
                                    666 ;	skipping iCode since result will be rematerialized
                                    667 ;	Raw cost for generated ic 56 : (0, 0.000000) count=1.000000
                                    668 ;	genLeftShift
                                    669 ;	genLeftShiftLiteral
                                    670 ;	  genlsh16 - shift=2
      0003C7 AEr0Dr00         [ 4]  671 	ldx	(_atanf_n_10000_26 + 1)
      0003CA ADr0Cr00         [ 4]  672 	lda	_atanf_n_10000_26
      0003CD 86*00            [ 3]  673 	stx	*(REGTEMP+0)
      0003CF 0A               [ 2]  674 	asl	a
      0003D0 26*00            [ 5]  675 	rol	*(REGTEMP+0)
      0003D2 0A               [ 2]  676 	asl	a
      0003D3 26*00            [ 5]  677 	rol	*(REGTEMP+0)
      0003D5 A6*00            [ 3]  678 	ldx	*(REGTEMP+0)
                                    679 ;	Raw cost for generated ic 57 : (16, 28.000000) count=1.000000
                                    680 ;	genAssign
                                    681 ;	genCopy
                                    682 ;	Raw cost for generated ic 58 : (0, 0.000000) count=1.000000
                                    683 ;	genPointerGet
                                    684 ;	  setupDPTR - off=0 remat=_atanf_a_10000_26 savea=0
      0003D7 18               [ 2]  685 	clc
      0003D8 69r00            [ 3]  686 	adc	#<(_atanf_a_10000_26+0)
      0003DA 85*00            [ 3]  687 	sta	*(DPTR+0)
      0003DC 8A               [ 2]  688 	txa
      0003DD 69s00            [ 3]  689 	adc	#>(_atanf_a_10000_26+0)
      0003DF 85*01            [ 3]  690 	sta	*(DPTR+1)
      0003E1 A0 00            [ 2]  691 	ldy	#0x00
      0003E3 B1*00            [ 6]  692 	lda	[DPTR],y
      0003E5 8Dr00r00         [ 4]  693 	sta	___fsadd_PARM_2
      0003E8 C8               [ 2]  694 	iny
      0003E9 B1*00            [ 6]  695 	lda	[DPTR],y
      0003EB 8Dr01r00         [ 4]  696 	sta	(___fsadd_PARM_2 + 1)
      0003EE C8               [ 2]  697 	iny
      0003EF B1*00            [ 6]  698 	lda	[DPTR],y
      0003F1 8Dr02r00         [ 4]  699 	sta	(___fsadd_PARM_2 + 2)
      0003F4 C8               [ 2]  700 	iny
      0003F5 B1*00            [ 6]  701 	lda	[DPTR],y
      0003F7 8Dr03r00         [ 4]  702 	sta	(___fsadd_PARM_2 + 3)
                                    703 ;	Raw cost for generated ic 59 : (35, 58.000000) count=1.000000
                                    704 ;	genAssign
                                    705 ;	genCopy
      0003FA ADr0Br00         [ 4]  706 	lda	(_atanf_r_10000_26 + 3)
      0003FD 8Dr03r00         [ 4]  707 	sta	(___fsadd_PARM_1 + 3)
      000400 ADr0Ar00         [ 4]  708 	lda	(_atanf_r_10000_26 + 2)
      000403 8Dr02r00         [ 4]  709 	sta	(___fsadd_PARM_1 + 2)
      000406 ADr09r00         [ 4]  710 	lda	(_atanf_r_10000_26 + 1)
      000409 8Dr01r00         [ 4]  711 	sta	(___fsadd_PARM_1 + 1)
      00040C ADr08r00         [ 4]  712 	lda	_atanf_r_10000_26
      00040F 8Dr00r00         [ 4]  713 	sta	___fsadd_PARM_1
                                    714 ;	Raw cost for generated ic 123 : (24, 32.000000) count=1.000000
                                    715 ;	genCall
      000412 20r00r00         [ 6]  716 	jsr	___fsadd
                                    717 ;	assignResultValue
      000415 8Dr08r00         [ 4]  718 	sta	_atanf_r_10000_26
      000418 8Er09r00         [ 4]  719 	stx	(_atanf_r_10000_26 + 1)
      00041B A5*00            [ 3]  720 	lda	*___SDCC_m6502_ret2
      00041D 8Dr0Ar00         [ 4]  721 	sta	(_atanf_r_10000_26 + 2)
      000420 A5*00            [ 3]  722 	lda	*___SDCC_m6502_ret3
      000422 8Dr0Br00         [ 4]  723 	sta	(_atanf_r_10000_26 + 3)
                                    724 ;	Raw cost for generated ic 125 : (19, 28.000000) count=1.000000
                                    725 ;	../atanf.c: 83: if(x<0.0) r=-r;
                                    726 ;	genAssign
                                    727 ;	genCopy
      000425 ADr03r00         [ 4]  728 	lda	(_atanf_PARM_1 + 3)
      000428 8Dr03r00         [ 4]  729 	sta	(___fslt_PARM_1 + 3)
      00042B ADr02r00         [ 4]  730 	lda	(_atanf_PARM_1 + 2)
      00042E 8Dr02r00         [ 4]  731 	sta	(___fslt_PARM_1 + 2)
      000431 ADr01r00         [ 4]  732 	lda	(_atanf_PARM_1 + 1)
      000434 8Dr01r00         [ 4]  733 	sta	(___fslt_PARM_1 + 1)
      000437 ADr00r00         [ 4]  734 	lda	_atanf_PARM_1
      00043A 8Dr00r00         [ 4]  735 	sta	___fslt_PARM_1
                                    736 ;	Raw cost for generated ic 126 : (24, 32.000000) count=1.000000
                                    737 ;	genAssign
                                    738 ;	genAssignLit
      00043D 9Cr00r00         [ 4]  739 	stz	___fslt_PARM_2
      000440 9Cr01r00         [ 4]  740 	stz	(___fslt_PARM_2 + 1)
      000443 9Cr02r00         [ 4]  741 	stz	(___fslt_PARM_2 + 2)
      000446 9Cr03r00         [ 4]  742 	stz	(___fslt_PARM_2 + 3)
                                    743 ;	Raw cost for generated ic 127 : (12, 16.000000) count=1.000000
                                    744 ;	genCall
      000449 20r00r00         [ 6]  745 	jsr	___fslt
                                    746 ;	assignResultValue
                                    747 ;	Raw cost for generated ic 128 : (3, 6.000000) count=1.000000
                                    748 ;	genIfx
      00044C C9 00            [ 2]  749 	cmp	#0x00
                                    750 ;	genIfxJump : z
      00044E F0 08            [ 4]  751 	beq	00111$
                                    752 ;	Raw cost for generated ic 63 : (7, 7.600000) count=1.000000
                                    753 ;	genUminus
                                    754 ;	genUminusFloat
      000450 ADr0Br00         [ 4]  755 	lda	(_atanf_r_10000_26 + 3)
      000453 49 80            [ 2]  756 	eor	#0x80
      000455 8Dr0Br00         [ 4]  757 	sta	(_atanf_r_10000_26 + 3)
                                    758 ;	Raw cost for generated ic 66 : (8, 10.000000) count=0.750000
                                    759 ;	genLabel
      000458                        760 00111$:
                                    761 ;	Raw cost for generated ic 68 : (0, 0.000000) count=1.000000
                                    762 ;	../atanf.c: 84: return r;
                                    763 ;	genRet
      000458 ADr0Br00         [ 4]  764 	lda	(_atanf_r_10000_26 + 3)
      00045B 85*00            [ 3]  765 	sta	*___SDCC_m6502_ret3
      00045D ADr0Ar00         [ 4]  766 	lda	(_atanf_r_10000_26 + 2)
      000460 85*00            [ 3]  767 	sta	*___SDCC_m6502_ret2
      000462 AEr09r00         [ 4]  768 	ldx	(_atanf_r_10000_26 + 1)
      000465 ADr08r00         [ 4]  769 	lda	_atanf_r_10000_26
                                    770 ;	Raw cost for generated ic 69 : (16, 22.000000) count=1.000000
                                    771 ;	genLabel
                                    772 ;	Raw cost for generated ic 70 : (0, 0.000000) count=1.000000
                                    773 ;	../atanf.c: 85: }
                                    774 ;	genEndFunction
      000468 60               [ 6]  775 	rts
                                    776 ;	Raw cost for generated ic 71 : (1, 6.000000) count=1.000000
                                    777 	.area CODE
                                    778 	.area RODATA
                                    779 	.area RODATA
      000000                        780 _atanf_a_10000_26:
      000000 00 00 00 00            781 	.byte #0x00, #0x00, #0x00, #0x00	;  0.000000e+00
      000004 92 0A 06 3F            782 	.byte #0x92, #0x0a, #0x06, #0x3f	;  5.235988e-01
      000008 DB 0F C9 3F            783 	.byte #0xdb, #0x0f, #0xc9, #0x3f	;  1.570796e+00
      00000C 92 0A 86 3F            784 	.byte #0x92, #0x0a, #0x86, #0x3f	;  1.047198e+00
                                    785 	.area CODE
                                    786 	.area XINIT
                                    787 	.area CABS    (ABS)
