                                      1 ;--------------------------------------------------------
                                      2 ; File Created by SDCC : free open source ISO C Compiler
                                      3 ; Version 4.5.10 #15691 (Linux)
                                      4 ;--------------------------------------------------------
                                      5 	.module atol
                                      6 	
      000000                          7 	.r65c02
                                      8 	.optsdcc -mmos65c02
                                      9 
                                     10 ;--------------------------------------------------------
                                     11 ;  Ordering of segments for the linker.
                                     12 ;--------------------------------------------------------
                                     13 	.area ZP      (PAG)
                                     14 	.area OSEG    (PAG, OVR)
                                     15 	.area _CODE
                                     16 	.area GSINIT
                                     17 	.area GSFINAL
                                     18 	.area CODE
                                     19 	.area RODATA
                                     20 	.area XINIT
                                     21 	.area _DATA
                                     22 	.area DATA
                                     23 	.area BSS
                                     24 ;--------------------------------------------------------
                                     25 ; Public variables in this module
                                     26 ;--------------------------------------------------------
                                     27 	.globl _atol
                                     28 ;--------------------------------------------------------
                                     29 ; ZP ram data
                                     30 ;--------------------------------------------------------
                                     31 	.area ZP      (PAG)
      000000                         32 _atol_sloc0_1_0:
      000000                         33 	.ds 2
      000002                         34 _atol_sloc1_1_0:
      000002                         35 	.ds 4
      000006                         36 _atol_sloc2_1_0:
      000006                         37 	.ds 4
                                     38 ;--------------------------------------------------------
                                     39 ; overlayable items in ram
                                     40 ;--------------------------------------------------------
                                     41 ;--------------------------------------------------------
                                     42 ; uninitialized external ram data
                                     43 ;--------------------------------------------------------
                                     44 	.area BSS
      000000                         45 _atol_ret_10000_63:
      000000                         46 	.ds 4
      000004                         47 _atol_neg_10000_63:
      000004                         48 	.ds 1
                                     49 ;--------------------------------------------------------
                                     50 ; absolute external ram data
                                     51 ;--------------------------------------------------------
                                     52 	.area DABS    (ABS)
                                     53 ;--------------------------------------------------------
                                     54 ; initialized external ram data
                                     55 ;--------------------------------------------------------
                                     56 	.area DATA
                                     57 ;--------------------------------------------------------
                                     58 ; global & static initialisations
                                     59 ;--------------------------------------------------------
                                     60 	.area _CODE
                                     61 	.area GSINIT
                                     62 	.area GSFINAL
                                     63 	.area GSINIT
                                     64 ;--------------------------------------------------------
                                     65 ; Home
                                     66 ;--------------------------------------------------------
                                     67 	.area _CODE
                                     68 	.area _CODE
                                     69 ;--------------------------------------------------------
                                     70 ; code
                                     71 ;--------------------------------------------------------
                                     72 	.area CODE
                                     73 ;------------------------------------------------------------
                                     74 ;Allocation info for local variables in function 'atol'
                                     75 ;------------------------------------------------------------
                                     76 ;sloc0         Allocated with name '_atol_sloc0_1_0'
                                     77 ;sloc1         Allocated with name '_atol_sloc1_1_0'
                                     78 ;sloc2         Allocated with name '_atol_sloc2_1_0'
                                     79 ;nptr          Allocated to registers a x 
                                     80 ;__200000007   Allocated to registers 
                                     81 ;__200000004   Allocated to registers 
                                     82 ;ret           Allocated with name '_atol_ret_10000_63'
                                     83 ;neg           Allocated with name '_atol_neg_10000_63'
                                     84 ;__200000005   Allocated to registers 
                                     85 ;c             Allocated to registers 
                                     86 ;__200000008   Allocated to registers 
                                     87 ;c             Allocated to registers 
                                     88 ;------------------------------------------------------------
                                     89 ;	../atol.c: 34: long int atol(const char *nptr)
                                     90 ;	genLabel
                                     91 ;	Raw cost for generated ic 0 : (0, 0.000000) count=1.000000
                                     92 ;	-----------------------------------------
                                     93 ;	 function atol
                                     94 ;	-----------------------------------------
                                     95 ;	Register assignment is optimal.
                                     96 ;	Stack space usage: 0 bytes.
      000000                         97 _atol:
                                     98 ;	Raw cost for generated ic 1 : (0, 0.000000) count=1.000000
                                     99 ;	genReceive
      000000 85*00            [ 3]  100 	sta	*_atol_sloc0_1_0
      000002 86*01            [ 3]  101 	stx	*(_atol_sloc0_1_0 + 1)
                                    102 ;	Raw cost for generated ic 2 : (4, 6.000000) count=1.000000
                                    103 ;	../atol.c: 36: long int ret = 0;
                                    104 ;	genAssign
                                    105 ;	genAssignLit
      000004 9Cr00r00         [ 4]  106 	stz	_atol_ret_10000_63
      000007 9Cr01r00         [ 4]  107 	stz	(_atol_ret_10000_63 + 1)
      00000A 9Cr02r00         [ 4]  108 	stz	(_atol_ret_10000_63 + 2)
      00000D 9Cr03r00         [ 4]  109 	stz	(_atol_ret_10000_63 + 3)
                                    110 ;	Raw cost for generated ic 3 : (12, 16.000000) count=1.000000
                                    111 ;	../atol.c: 39: while (isblank (*nptr))
                                    112 ;	genLabel
      000010                        113 00101$:
                                    114 ;	Raw cost for generated ic 4 : (0, 0.000000) count=5.333324
                                    115 ;	genPointerGet
      000010 A0 00            [ 2]  116 	ldy	#0x00
      000012 B1*00            [ 6]  117 	lda	[*_atol_sloc0_1_0],y
                                    118 ;	Raw cost for generated ic 6 : (4, 7.000000) count=5.333324
                                    119 ;	./../../include/ctype.h: 53: return ((unsigned char)c == ' ' || (unsigned char)c == '\t');
                                    120 ;	genCast
                                    121 ;	genCopy
                                    122 ;	Raw cost for generated ic 10 : (0, 0.000000) count=5.333324
                                    123 ;	genCmpEQorNE
      000014 C9 20            [ 2]  124 	cmp	#0x20
      000016 F0 04            [ 4]  125 	beq	00115$
                                    126 ;	Raw cost for generated ic 11 : (7, 7.600000) count=5.333324
                                    127 ;	skipping generated iCode
                                    128 ;	Raw cost for generated ic 12 : (0, 0.000000) count=5.333324
                                    129 ;	genCmpEQorNE
      000018 C9 09            [ 2]  130 	cmp	#0x09
      00001A D0 09            [ 4]  131 	bne	00131$
                                    132 ;	Raw cost for generated ic 14 : (7, 7.600000) count=3.999992
                                    133 ;	skipping generated iCode
                                    134 ;	Raw cost for generated ic 15 : (0, 0.000000) count=3.999992
                                    135 ;	genLabel
      00001C                        136 00115$:
                                    137 ;	Raw cost for generated ic 19 : (0, 0.000000) count=4.333324
                                    138 ;	../atol.c: 40: nptr++;
                                    139 ;	genPlus
                                    140 ;	  genPlusInc
      00001C E6*00            [ 5]  141 	inc	*_atol_sloc0_1_0
      00001E D0 F0            [ 4]  142 	bne	00101$
      000020 E6*01            [ 5]  143 	inc	*(_atol_sloc0_1_0 + 1)
                                    144 ;	Raw cost for generated ic 30 : (6, 12.600000) count=4.333324
                                    145 ;	genGoto
      000022 4Cr10r00         [ 3]  146 	jmp	00101$
                                    147 ;	Raw cost for generated ic 32 : (3, 3.000000) count=4.333324
                                    148 ;	genLabel
      000025                        149 00131$:
                                    150 ;	Raw cost for generated ic 106 : (0, 0.000000) count=0.999997
                                    151 ;	genAssign
                                    152 ;	genCopy
      000025 A6*01            [ 3]  153 	ldx	*(_atol_sloc0_1_0 + 1)
      000027 A5*00            [ 3]  154 	lda	*_atol_sloc0_1_0
                                    155 ;	Raw cost for generated ic 107 : (4, 6.000000) count=0.999997
                                    156 ;	../atol.c: 42: neg = (*nptr == '-');
                                    157 ;	genPointerGet
      000029 85*00            [ 3]  158 	sta	*(REGTEMP+0)
      00002B A0 00            [ 2]  159 	ldy	#0x00
      00002D B1*00            [ 6]  160 	lda	[*_atol_sloc0_1_0],y
      00002F A8               [ 2]  161 	tay
      000030 A5*00            [ 3]  162 	lda	*(REGTEMP+0)
                                    163 ;	Raw cost for generated ic 35 : (9, 15.000000) count=0.999997
                                    164 ;	genCmpEQorNE
      000032 C0 2D            [ 2]  165 	cpy	#0x2d
      000034 85*00            [ 3]  166 	sta	*(REGTEMP+0)
      000036 F0 04            [ 4]  167 	beq	00179$
      000038 A9 00            [ 2]  168 	lda	#0x00
      00003A 80 02            [ 4]  169 	bra	00178$
      00003C                        170 00179$:
      00003C A9 01            [ 2]  171 	lda	#0x01
      00003E                        172 00178$:
      00003E 8Dr04r00         [ 4]  173 	sta	_atol_neg_10000_63
      000041 A5*00            [ 3]  174 	lda	*(REGTEMP+0)
                                    175 ;	Raw cost for generated ic 36 : (17, 21.200001) count=0.999997
                                    176 ;	../atol.c: 44: if (*nptr == '-' || *nptr == '+')
                                    177 ;	genCmpEQorNE
      000043 C0 2D            [ 2]  178 	cpy	#0x2d
      000045 F0 04            [ 4]  179 	beq	00104$
                                    180 ;	Raw cost for generated ic 40 : (7, 7.600000) count=0.999997
                                    181 ;	skipping generated iCode
                                    182 ;	Raw cost for generated ic 41 : (0, 0.000000) count=0.999997
                                    183 ;	genCmpEQorNE
      000047 C0 2B            [ 2]  184 	cpy	#0x2b
      000049 D0 06            [ 4]  185 	bne	00129$
                                    186 ;	Raw cost for generated ic 46 : (7, 7.600000) count=0.749996
                                    187 ;	skipping generated iCode
                                    188 ;	Raw cost for generated ic 47 : (0, 0.000000) count=0.749996
                                    189 ;	genLabel
      00004B                        190 00104$:
                                    191 ;	Raw cost for generated ic 49 : (0, 0.000000) count=0.812496
                                    192 ;	../atol.c: 45: nptr++;
                                    193 ;	genPlus
                                    194 ;	  genPlusInc
      00004B 18               [ 2]  195 	clc
      00004C 69 01            [ 3]  196 	adc	#0x01
      00004E 90 01            [ 4]  197 	bcc	00182$
      000050 E8               [ 2]  198 	inx
      000051                        199 00182$:
                                    200 ;	Raw cost for generated ic 51 : (6, 8.600000) count=0.812496
                                    201 ;	../atol.c: 47: while (isdigit (*nptr))
                                    202 ;	genLabel
      000051                        203 00129$:
                                    204 ;	Raw cost for generated ic 104 : (0, 0.000000) count=0.999995
                                    205 ;	genAssign
                                    206 ;	genCopy
      000051 85*00            [ 3]  207 	sta	*_atol_sloc0_1_0
      000053 86*01            [ 3]  208 	stx	*(_atol_sloc0_1_0 + 1)
                                    209 ;	Raw cost for generated ic 108 : (4, 6.000000) count=0.999995
                                    210 ;	genLabel
      000055                        211 00107$:
                                    212 ;	Raw cost for generated ic 54 : (0, 0.000000) count=2.285698
                                    213 ;	genPointerGet
      000055 A0 00            [ 2]  214 	ldy	#0x00
      000057 B1*00            [ 6]  215 	lda	[*_atol_sloc0_1_0],y
                                    216 ;	Raw cost for generated ic 56 : (4, 7.000000) count=2.285698
                                    217 ;	./../../include/ctype.h: 62: return ((unsigned char)c >= '0' && (unsigned char)c <= '9');
                                    218 ;	genCast
                                    219 ;	genCopy
                                    220 ;	Raw cost for generated ic 60 : (0, 0.000000) count=2.285698
                                    221 ;	genCmp
      000059 C9 30            [ 2]  222 	cmp	#0x30
      00005B B0 03            [ 4]  223 	bcs	00183$
      00005D 4CrDCr00         [ 3]  224 	jmp	00109$
      000060                        225 00183$:
                                    226 ;	Raw cost for generated ic 61 : (7, 7.600000) count=2.285698
                                    227 ;	skipping generated iCode
                                    228 ;	Raw cost for generated ic 63 : (0, 0.000000) count=2.285698
                                    229 ;	genCmp
      000060 C9 39            [ 2]  230 	cmp	#0x39
      000062 F0 02            [ 4]  231 	beq	00184$
      000064 B0 76            [ 4]  232 	bcs	00109$
      000066                        233 00184$:
                                    234 ;	Raw cost for generated ic 65 : (9, 10.200000) count=1.714274
                                    235 ;	skipping generated iCode
                                    236 ;	Raw cost for generated ic 67 : (0, 0.000000) count=1.714274
                                    237 ;	../atol.c: 48: ret = ret * 10 + (*(nptr++) - '0');
                                    238 ;	genAssign
                                    239 ;	genAssignLit
      000066 A2 0A            [ 2]  240 	ldx	#0x0a
      000068 8Er00r00         [ 4]  241 	stx	__mullong_PARM_1
      00006B 8Cr01r00         [ 4]  242 	sty	(__mullong_PARM_1 + 1)
      00006E 8Cr02r00         [ 4]  243 	sty	(__mullong_PARM_1 + 2)
      000071 8Cr03r00         [ 4]  244 	sty	(__mullong_PARM_1 + 3)
                                    245 ;	Raw cost for generated ic 117 : (14, 18.000000) count=1.285703
                                    246 ;	genAssign
                                    247 ;	genCopy
      000074 ADr03r00         [ 4]  248 	lda	(_atol_ret_10000_63 + 3)
      000077 8Dr03r00         [ 4]  249 	sta	(__mullong_PARM_2 + 3)
      00007A ADr02r00         [ 4]  250 	lda	(_atol_ret_10000_63 + 2)
      00007D 8Dr02r00         [ 4]  251 	sta	(__mullong_PARM_2 + 2)
      000080 ADr01r00         [ 4]  252 	lda	(_atol_ret_10000_63 + 1)
      000083 8Dr01r00         [ 4]  253 	sta	(__mullong_PARM_2 + 1)
      000086 ADr00r00         [ 4]  254 	lda	_atol_ret_10000_63
      000089 8Dr00r00         [ 4]  255 	sta	__mullong_PARM_2
                                    256 ;	Raw cost for generated ic 118 : (24, 32.000000) count=1.285703
                                    257 ;	genCall
      00008C 20r00r00         [ 6]  258 	jsr	__mullong
                                    259 ;	assignResultValue
      00008F 85*02            [ 3]  260 	sta	*_atol_sloc1_1_0
      000091 86*03            [ 3]  261 	stx	*(_atol_sloc1_1_0 + 1)
      000093 A5*00            [ 3]  262 	lda	*___SDCC_m6502_ret2
      000095 85*04            [ 3]  263 	sta	*(_atol_sloc1_1_0 + 2)
      000097 A5*00            [ 3]  264 	lda	*___SDCC_m6502_ret3
      000099 85*05            [ 3]  265 	sta	*(_atol_sloc1_1_0 + 3)
                                    266 ;	Raw cost for generated ic 119 : (15, 24.000000) count=1.285703
                                    267 ;	genPointerGet
      00009B A0 00            [ 2]  268 	ldy	#0x00
      00009D B1*00            [ 6]  269 	lda	[*_atol_sloc0_1_0],y
                                    270 ;	Raw cost for generated ic 85 : (4, 7.000000) count=1.285703
                                    271 ;	genPlus
                                    272 ;	  genPlusInc
      00009F E6*00            [ 5]  273 	inc	*_atol_sloc0_1_0
      0000A1 D0 02            [ 4]  274 	bne	00186$
      0000A3 E6*01            [ 5]  275 	inc	*(_atol_sloc0_1_0 + 1)
      0000A5                        276 00186$:
                                    277 ;	Raw cost for generated ic 83 : (6, 12.600000) count=1.285703
                                    278 ;	genCast
                                    279 ;	genCopy
      0000A5 A2 00            [ 2]  280 	ldx	#0x00
                                    281 ;	Raw cost for generated ic 86 : (2, 2.000000) count=1.285703
                                    282 ;	genMinus
                                    283 ;	  genMinusDec - size=2  icount=48
      0000A7 38               [ 2]  284 	sec
      0000A8 E9 30            [ 3]  285 	sbc	#0x30
      0000AA B0 01            [ 4]  286 	bcs	00187$
      0000AC CA               [ 2]  287 	dex
      0000AD                        288 00187$:
                                    289 ;	Raw cost for generated ic 87 : (6, 8.600000) count=1.285703
                                    290 ;	genCast
      0000AD 85*06            [ 3]  291 	sta	*_atol_sloc2_1_0
      0000AF 86*07            [ 3]  292 	stx	*(_atol_sloc2_1_0 + 1)
      0000B1 E0 80            [ 2]  293 	cpx	#0x80
      0000B3 A2 00            [ 2]  294 	ldx	#0x00
      0000B5 90 01            [ 4]  295 	bcc	00188$
      0000B7 CA               [ 2]  296 	dex
      0000B8                        297 00188$:
      0000B8 86*08            [ 3]  298 	stx	*(_atol_sloc2_1_0 + 2)
      0000BA 86*09            [ 3]  299 	stx	*(_atol_sloc2_1_0 + 3)
                                    300 ;	Raw cost for generated ic 88 : (15, 20.600000) count=1.285703
                                    301 ;	genPlus
      0000BC A5*02            [ 3]  302 	lda	*_atol_sloc1_1_0
      0000BE 18               [ 2]  303 	clc
      0000BF 65*06            [ 4]  304 	adc	*_atol_sloc2_1_0
      0000C1 8Dr00r00         [ 4]  305 	sta	_atol_ret_10000_63
      0000C4 A5*03            [ 3]  306 	lda	*(_atol_sloc1_1_0 + 1)
      0000C6 65*07            [ 4]  307 	adc	*(_atol_sloc2_1_0 + 1)
      0000C8 8Dr01r00         [ 4]  308 	sta	(_atol_ret_10000_63 + 1)
      0000CB A5*04            [ 3]  309 	lda	*(_atol_sloc1_1_0 + 2)
      0000CD 65*08            [ 4]  310 	adc	*(_atol_sloc2_1_0 + 2)
      0000CF 8Dr02r00         [ 4]  311 	sta	(_atol_ret_10000_63 + 2)
      0000D2 A5*05            [ 3]  312 	lda	*(_atol_sloc1_1_0 + 3)
      0000D4 65*09            [ 4]  313 	adc	*(_atol_sloc2_1_0 + 3)
      0000D6 8Dr03r00         [ 4]  314 	sta	(_atol_ret_10000_63 + 3)
                                    315 ;	Raw cost for generated ic 89 : (29, 42.000000) count=1.285703
                                    316 ;	genGoto
      0000D9 4Cr55r00         [ 3]  317 	jmp	00107$
                                    318 ;	Raw cost for generated ic 91 : (3, 3.000000) count=1.285703
                                    319 ;	genLabel
      0000DC                        320 00109$:
                                    321 ;	Raw cost for generated ic 92 : (0, 0.000000) count=0.999991
                                    322 ;	../atol.c: 50: return (neg ? -ret : ret); // Since -LONG_MIN is LONG_MIN in sdcc, the result value always turns out ok.
                                    323 ;	genIfx
      0000DC ADr04r00         [ 4]  324 	lda	_atol_neg_10000_63
                                    325 ;	genIfxJump : z
      0000DF F0 20            [ 4]  326 	beq	00120$
                                    327 ;	Raw cost for generated ic 93 : (8, 9.600000) count=0.999991
                                    328 ;	genUminus
      0000E1 A9 00            [ 2]  329 	lda	#0x00
      0000E3 38               [ 2]  330 	sec
      0000E4 EDr00r00         [ 5]  331 	sbc	_atol_ret_10000_63
      0000E7 85*06            [ 3]  332 	sta	*_atol_sloc2_1_0
      0000E9 A9 00            [ 2]  333 	lda	#0x00
      0000EB EDr01r00         [ 5]  334 	sbc	(_atol_ret_10000_63 + 1)
      0000EE 85*07            [ 3]  335 	sta	*(_atol_sloc2_1_0 + 1)
      0000F0 A9 00            [ 2]  336 	lda	#0x00
      0000F2 EDr02r00         [ 5]  337 	sbc	(_atol_ret_10000_63 + 2)
      0000F5 85*08            [ 3]  338 	sta	*(_atol_sloc2_1_0 + 2)
      0000F7 A9 00            [ 2]  339 	lda	#0x00
      0000F9 EDr03r00         [ 5]  340 	sbc	(_atol_ret_10000_63 + 3)
      0000FC 85*09            [ 3]  341 	sta	*(_atol_sloc2_1_0 + 3)
                                    342 ;	Raw cost for generated ic 94 : (29, 38.000000) count=0.749993
                                    343 ;	genGoto
      0000FE 4Cr15r01         [ 3]  344 	jmp	00121$
                                    345 ;	Raw cost for generated ic 96 : (3, 3.000000) count=0.749993
                                    346 ;	genLabel
      000101                        347 00120$:
                                    348 ;	Raw cost for generated ic 97 : (0, 0.000000) count=0.249996
                                    349 ;	genAssign
                                    350 ;	genCopy
      000101 ADr03r00         [ 4]  351 	lda	(_atol_ret_10000_63 + 3)
      000104 85*09            [ 3]  352 	sta	*(_atol_sloc2_1_0 + 3)
      000106 ADr02r00         [ 4]  353 	lda	(_atol_ret_10000_63 + 2)
      000109 85*08            [ 3]  354 	sta	*(_atol_sloc2_1_0 + 2)
      00010B ADr01r00         [ 4]  355 	lda	(_atol_ret_10000_63 + 1)
      00010E 85*07            [ 3]  356 	sta	*(_atol_sloc2_1_0 + 1)
      000110 ADr00r00         [ 4]  357 	lda	_atol_ret_10000_63
      000113 85*06            [ 3]  358 	sta	*_atol_sloc2_1_0
                                    359 ;	Raw cost for generated ic 98 : (20, 28.000000) count=0.249996
                                    360 ;	genLabel
      000115                        361 00121$:
                                    362 ;	Raw cost for generated ic 99 : (0, 0.000000) count=0.999989
                                    363 ;	genRet
      000115 A5*09            [ 3]  364 	lda	*(_atol_sloc2_1_0 + 3)
      000117 85*00            [ 3]  365 	sta	*___SDCC_m6502_ret3
      000119 A5*08            [ 3]  366 	lda	*(_atol_sloc2_1_0 + 2)
      00011B 85*00            [ 3]  367 	sta	*___SDCC_m6502_ret2
      00011D A6*07            [ 3]  368 	ldx	*(_atol_sloc2_1_0 + 1)
      00011F A5*06            [ 3]  369 	lda	*_atol_sloc2_1_0
                                    370 ;	Raw cost for generated ic 100 : (12, 18.000000) count=0.999989
                                    371 ;	genLabel
                                    372 ;	Raw cost for generated ic 101 : (0, 0.000000) count=0.999989
                                    373 ;	../atol.c: 51: }
                                    374 ;	genEndFunction
      000121 60               [ 6]  375 	rts
                                    376 ;	Raw cost for generated ic 102 : (1, 6.000000) count=0.999989
                                    377 	.area CODE
                                    378 	.area RODATA
                                    379 	.area XINIT
                                    380 	.area CABS    (ABS)
