                                      1 ;--------------------------------------------------------
                                      2 ; File Created by SDCC : free open source ISO C Compiler
                                      3 ; Version 4.5.10 #15691 (Linux)
                                      4 ;--------------------------------------------------------
                                      5 	.module atoll
                                      6 	
      000000                          7 	.r65c02
                                      8 	.optsdcc -mmos65c02
                                      9 
                                     10 ;--------------------------------------------------------
                                     11 ;  Ordering of segments for the linker.
                                     12 ;--------------------------------------------------------
                                     13 	.area ZP      (PAG)
                                     14 	.area OSEG    (PAG, OVR)
                                     15 	.area _CODE
                                     16 	.area GSINIT
                                     17 	.area GSFINAL
                                     18 	.area CODE
                                     19 	.area RODATA
                                     20 	.area XINIT
                                     21 	.area _DATA
                                     22 	.area DATA
                                     23 	.area BSS
                                     24 ;--------------------------------------------------------
                                     25 ; Public variables in this module
                                     26 ;--------------------------------------------------------
                                     27 	.globl _atoll
                                     28 ;--------------------------------------------------------
                                     29 ; ZP ram data
                                     30 ;--------------------------------------------------------
                                     31 	.area ZP      (PAG)
      000000                         32 _atoll_sloc0_1_0:
      000000                         33 	.ds 2
      000002                         34 _atoll_sloc1_1_0:
      000002                         35 	.ds 8
      00000A                         36 _atoll_sloc2_1_0:
      00000A                         37 	.ds 8
                                     38 ;--------------------------------------------------------
                                     39 ; overlayable items in ram
                                     40 ;--------------------------------------------------------
                                     41 ;--------------------------------------------------------
                                     42 ; uninitialized external ram data
                                     43 ;--------------------------------------------------------
                                     44 	.area BSS
      000000                         45 _atoll_ret_10000_63:
      000000                         46 	.ds 8
      000008                         47 _atoll_neg_10000_63:
      000008                         48 	.ds 1
                                     49 ;--------------------------------------------------------
                                     50 ; absolute external ram data
                                     51 ;--------------------------------------------------------
                                     52 	.area DABS    (ABS)
                                     53 ;--------------------------------------------------------
                                     54 ; initialized external ram data
                                     55 ;--------------------------------------------------------
                                     56 	.area DATA
                                     57 ;--------------------------------------------------------
                                     58 ; global & static initialisations
                                     59 ;--------------------------------------------------------
                                     60 	.area _CODE
                                     61 	.area GSINIT
                                     62 	.area GSFINAL
                                     63 	.area GSINIT
                                     64 ;--------------------------------------------------------
                                     65 ; Home
                                     66 ;--------------------------------------------------------
                                     67 	.area _CODE
                                     68 	.area _CODE
                                     69 ;--------------------------------------------------------
                                     70 ; code
                                     71 ;--------------------------------------------------------
                                     72 	.area CODE
                                     73 ;------------------------------------------------------------
                                     74 ;Allocation info for local variables in function 'atoll'
                                     75 ;------------------------------------------------------------
                                     76 ;sloc0         Allocated with name '_atoll_sloc0_1_0'
                                     77 ;sloc1         Allocated with name '_atoll_sloc1_1_0'
                                     78 ;sloc2         Allocated with name '_atoll_sloc2_1_0'
                                     79 ;nptr          Allocated to registers a x 
                                     80 ;__200000007   Allocated to registers 
                                     81 ;__200000004   Allocated to registers 
                                     82 ;ret           Allocated with name '_atoll_ret_10000_63'
                                     83 ;neg           Allocated with name '_atoll_neg_10000_63'
                                     84 ;__200000005   Allocated to registers 
                                     85 ;c             Allocated to registers 
                                     86 ;__200000008   Allocated to registers 
                                     87 ;c             Allocated to registers 
                                     88 ;------------------------------------------------------------
                                     89 ;	../atoll.c: 35: long long int atoll(const char *nptr)
                                     90 ;	genLabel
                                     91 ;	Raw cost for generated ic 0 : (0, 0.000000) count=1.000000
                                     92 ;	-----------------------------------------
                                     93 ;	 function atoll
                                     94 ;	-----------------------------------------
                                     95 ;	Register assignment is optimal.
                                     96 ;	Stack space usage: 0 bytes.
      000000                         97 _atoll:
                                     98 ;	Raw cost for generated ic 1 : (0, 0.000000) count=1.000000
                                     99 ;	genReceive
      000000 85*00            [ 3]  100 	sta	*_atoll_sloc0_1_0
      000002 86*01            [ 3]  101 	stx	*(_atoll_sloc0_1_0 + 1)
                                    102 ;	Raw cost for generated ic 2 : (4, 6.000000) count=1.000000
                                    103 ;	../atoll.c: 37: long long int ret = 0;
                                    104 ;	genAssign
                                    105 ;	genAssignLit
      000004 9Cr00r00         [ 4]  106 	stz	_atoll_ret_10000_63
      000007 9Cr01r00         [ 4]  107 	stz	(_atoll_ret_10000_63 + 1)
      00000A 9Cr02r00         [ 4]  108 	stz	(_atoll_ret_10000_63 + 2)
      00000D 9Cr03r00         [ 4]  109 	stz	(_atoll_ret_10000_63 + 3)
      000010 9Cr04r00         [ 4]  110 	stz	(_atoll_ret_10000_63 + 4)
      000013 9Cr05r00         [ 4]  111 	stz	(_atoll_ret_10000_63 + 5)
      000016 9Cr06r00         [ 4]  112 	stz	(_atoll_ret_10000_63 + 6)
      000019 9Cr07r00         [ 4]  113 	stz	(_atoll_ret_10000_63 + 7)
                                    114 ;	Raw cost for generated ic 3 : (24, 32.000000) count=1.000000
                                    115 ;	../atoll.c: 40: while (isblank (*nptr))
                                    116 ;	genLabel
      00001C                        117 00101$:
                                    118 ;	Raw cost for generated ic 4 : (0, 0.000000) count=5.333324
                                    119 ;	genPointerGet
      00001C A0 00            [ 2]  120 	ldy	#0x00
      00001E B1*00            [ 6]  121 	lda	[*_atoll_sloc0_1_0],y
                                    122 ;	Raw cost for generated ic 6 : (4, 7.000000) count=5.333324
                                    123 ;	./../../include/ctype.h: 53: return ((unsigned char)c == ' ' || (unsigned char)c == '\t');
                                    124 ;	genCast
                                    125 ;	genCopy
                                    126 ;	Raw cost for generated ic 10 : (0, 0.000000) count=5.333324
                                    127 ;	genCmpEQorNE
      000020 C9 20            [ 2]  128 	cmp	#0x20
      000022 F0 04            [ 4]  129 	beq	00115$
                                    130 ;	Raw cost for generated ic 11 : (7, 7.600000) count=5.333324
                                    131 ;	skipping generated iCode
                                    132 ;	Raw cost for generated ic 12 : (0, 0.000000) count=5.333324
                                    133 ;	genCmpEQorNE
      000024 C9 09            [ 2]  134 	cmp	#0x09
      000026 D0 09            [ 4]  135 	bne	00131$
                                    136 ;	Raw cost for generated ic 14 : (7, 7.600000) count=3.999992
                                    137 ;	skipping generated iCode
                                    138 ;	Raw cost for generated ic 15 : (0, 0.000000) count=3.999992
                                    139 ;	genLabel
      000028                        140 00115$:
                                    141 ;	Raw cost for generated ic 19 : (0, 0.000000) count=4.333324
                                    142 ;	../atoll.c: 41: nptr++;
                                    143 ;	genPlus
                                    144 ;	  genPlusInc
      000028 E6*00            [ 5]  145 	inc	*_atoll_sloc0_1_0
      00002A D0 F0            [ 4]  146 	bne	00101$
      00002C E6*01            [ 5]  147 	inc	*(_atoll_sloc0_1_0 + 1)
                                    148 ;	Raw cost for generated ic 30 : (6, 12.600000) count=4.333324
                                    149 ;	genGoto
      00002E 4Cr1Cr00         [ 3]  150 	jmp	00101$
                                    151 ;	Raw cost for generated ic 32 : (3, 3.000000) count=4.333324
                                    152 ;	genLabel
      000031                        153 00131$:
                                    154 ;	Raw cost for generated ic 106 : (0, 0.000000) count=0.999997
                                    155 ;	genAssign
                                    156 ;	genCopy
      000031 A6*01            [ 3]  157 	ldx	*(_atoll_sloc0_1_0 + 1)
      000033 A5*00            [ 3]  158 	lda	*_atoll_sloc0_1_0
                                    159 ;	Raw cost for generated ic 107 : (4, 6.000000) count=0.999997
                                    160 ;	../atoll.c: 43: neg = (*nptr == '-');
                                    161 ;	genPointerGet
      000035 85*00            [ 3]  162 	sta	*(REGTEMP+0)
      000037 A0 00            [ 2]  163 	ldy	#0x00
      000039 B1*00            [ 6]  164 	lda	[*_atoll_sloc0_1_0],y
      00003B A8               [ 2]  165 	tay
      00003C A5*00            [ 3]  166 	lda	*(REGTEMP+0)
                                    167 ;	Raw cost for generated ic 35 : (9, 15.000000) count=0.999997
                                    168 ;	genCmpEQorNE
      00003E C0 2D            [ 2]  169 	cpy	#0x2d
      000040 85*00            [ 3]  170 	sta	*(REGTEMP+0)
      000042 F0 04            [ 4]  171 	beq	00179$
      000044 A9 00            [ 2]  172 	lda	#0x00
      000046 80 02            [ 4]  173 	bra	00178$
      000048                        174 00179$:
      000048 A9 01            [ 2]  175 	lda	#0x01
      00004A                        176 00178$:
      00004A 8Dr08r00         [ 4]  177 	sta	_atoll_neg_10000_63
      00004D A5*00            [ 3]  178 	lda	*(REGTEMP+0)
                                    179 ;	Raw cost for generated ic 36 : (17, 21.200001) count=0.999997
                                    180 ;	../atoll.c: 45: if (*nptr == '-' || *nptr == '+')
                                    181 ;	genCmpEQorNE
      00004F C0 2D            [ 2]  182 	cpy	#0x2d
      000051 F0 04            [ 4]  183 	beq	00104$
                                    184 ;	Raw cost for generated ic 40 : (7, 7.600000) count=0.999997
                                    185 ;	skipping generated iCode
                                    186 ;	Raw cost for generated ic 41 : (0, 0.000000) count=0.999997
                                    187 ;	genCmpEQorNE
      000053 C0 2B            [ 2]  188 	cpy	#0x2b
      000055 D0 06            [ 4]  189 	bne	00129$
                                    190 ;	Raw cost for generated ic 46 : (7, 7.600000) count=0.749996
                                    191 ;	skipping generated iCode
                                    192 ;	Raw cost for generated ic 47 : (0, 0.000000) count=0.749996
                                    193 ;	genLabel
      000057                        194 00104$:
                                    195 ;	Raw cost for generated ic 49 : (0, 0.000000) count=0.812496
                                    196 ;	../atoll.c: 46: nptr++;
                                    197 ;	genPlus
                                    198 ;	  genPlusInc
      000057 18               [ 2]  199 	clc
      000058 69 01            [ 3]  200 	adc	#0x01
      00005A 90 01            [ 4]  201 	bcc	00182$
      00005C E8               [ 2]  202 	inx
      00005D                        203 00182$:
                                    204 ;	Raw cost for generated ic 51 : (6, 8.600000) count=0.812496
                                    205 ;	../atoll.c: 48: while (isdigit (*nptr))
                                    206 ;	genLabel
      00005D                        207 00129$:
                                    208 ;	Raw cost for generated ic 104 : (0, 0.000000) count=0.999995
                                    209 ;	genAssign
                                    210 ;	genCopy
      00005D 85*00            [ 3]  211 	sta	*_atoll_sloc0_1_0
      00005F 86*01            [ 3]  212 	stx	*(_atoll_sloc0_1_0 + 1)
                                    213 ;	Raw cost for generated ic 108 : (4, 6.000000) count=0.999995
                                    214 ;	genLabel
      000061                        215 00107$:
                                    216 ;	Raw cost for generated ic 54 : (0, 0.000000) count=2.285698
                                    217 ;	genPointerGet
      000061 A0 00            [ 2]  218 	ldy	#0x00
      000063 B1*00            [ 6]  219 	lda	[*_atoll_sloc0_1_0],y
                                    220 ;	Raw cost for generated ic 56 : (4, 7.000000) count=2.285698
                                    221 ;	./../../include/ctype.h: 62: return ((unsigned char)c >= '0' && (unsigned char)c <= '9');
                                    222 ;	genCast
                                    223 ;	genCopy
                                    224 ;	Raw cost for generated ic 60 : (0, 0.000000) count=2.285698
                                    225 ;	genCmp
      000065 C9 30            [ 2]  226 	cmp	#0x30
      000067 B0 03            [ 4]  227 	bcs	00183$
      000069 4Cr43r01         [ 3]  228 	jmp	00109$
      00006C                        229 00183$:
                                    230 ;	Raw cost for generated ic 61 : (7, 7.600000) count=2.285698
                                    231 ;	skipping generated iCode
                                    232 ;	Raw cost for generated ic 63 : (0, 0.000000) count=2.285698
                                    233 ;	genCmp
      00006C C9 39            [ 2]  234 	cmp	#0x39
      00006E F0 05            [ 4]  235 	beq	00184$
      000070 90 03            [ 4]  236 	bcc	00184$
      000072 4Cr43r01         [ 3]  237 	jmp	00109$
      000075                        238 00184$:
                                    239 ;	Raw cost for generated ic 65 : (9, 10.200000) count=1.714274
                                    240 ;	skipping generated iCode
                                    241 ;	Raw cost for generated ic 67 : (0, 0.000000) count=1.714274
                                    242 ;	../atoll.c: 49: ret = ret * 10 + (*(nptr++) - '0');
                                    243 ;	genAssign
                                    244 ;	genAssignLit
      000075 A2 0A            [ 2]  245 	ldx	#0x0a
      000077 8Er00r00         [ 4]  246 	stx	__mullonglong_PARM_1
      00007A 8Cr01r00         [ 4]  247 	sty	(__mullonglong_PARM_1 + 1)
      00007D 8Cr02r00         [ 4]  248 	sty	(__mullonglong_PARM_1 + 2)
      000080 8Cr03r00         [ 4]  249 	sty	(__mullonglong_PARM_1 + 3)
      000083 8Cr04r00         [ 4]  250 	sty	(__mullonglong_PARM_1 + 4)
      000086 8Cr05r00         [ 4]  251 	sty	(__mullonglong_PARM_1 + 5)
      000089 8Cr06r00         [ 4]  252 	sty	(__mullonglong_PARM_1 + 6)
      00008C 8Cr07r00         [ 4]  253 	sty	(__mullonglong_PARM_1 + 7)
                                    254 ;	Raw cost for generated ic 117 : (26, 34.000000) count=1.285703
                                    255 ;	genAssign
                                    256 ;	genCopy
      00008F ADr07r00         [ 4]  257 	lda	(_atoll_ret_10000_63 + 7)
      000092 8Dr07r00         [ 4]  258 	sta	(__mullonglong_PARM_2 + 7)
      000095 ADr06r00         [ 4]  259 	lda	(_atoll_ret_10000_63 + 6)
      000098 8Dr06r00         [ 4]  260 	sta	(__mullonglong_PARM_2 + 6)
      00009B ADr05r00         [ 4]  261 	lda	(_atoll_ret_10000_63 + 5)
      00009E 8Dr05r00         [ 4]  262 	sta	(__mullonglong_PARM_2 + 5)
      0000A1 ADr04r00         [ 4]  263 	lda	(_atoll_ret_10000_63 + 4)
      0000A4 8Dr04r00         [ 4]  264 	sta	(__mullonglong_PARM_2 + 4)
      0000A7 ADr03r00         [ 4]  265 	lda	(_atoll_ret_10000_63 + 3)
      0000AA 8Dr03r00         [ 4]  266 	sta	(__mullonglong_PARM_2 + 3)
      0000AD ADr02r00         [ 4]  267 	lda	(_atoll_ret_10000_63 + 2)
      0000B0 8Dr02r00         [ 4]  268 	sta	(__mullonglong_PARM_2 + 2)
      0000B3 ADr01r00         [ 4]  269 	lda	(_atoll_ret_10000_63 + 1)
      0000B6 8Dr01r00         [ 4]  270 	sta	(__mullonglong_PARM_2 + 1)
      0000B9 ADr00r00         [ 4]  271 	lda	_atoll_ret_10000_63
      0000BC 8Dr00r00         [ 4]  272 	sta	__mullonglong_PARM_2
                                    273 ;	Raw cost for generated ic 118 : (48, 64.000000) count=1.285703
                                    274 ;	genCall
      0000BF 20r00r00         [ 6]  275 	jsr	__mullonglong
                                    276 ;	assignResultValue
      0000C2 85*02            [ 3]  277 	sta	*_atoll_sloc1_1_0
      0000C4 86*03            [ 3]  278 	stx	*(_atoll_sloc1_1_0 + 1)
      0000C6 A5*00            [ 3]  279 	lda	*___SDCC_m6502_ret2
      0000C8 85*04            [ 3]  280 	sta	*(_atoll_sloc1_1_0 + 2)
      0000CA A5*00            [ 3]  281 	lda	*___SDCC_m6502_ret3
      0000CC 85*05            [ 3]  282 	sta	*(_atoll_sloc1_1_0 + 3)
      0000CE A5*00            [ 3]  283 	lda	*___SDCC_m6502_ret4
      0000D0 85*06            [ 3]  284 	sta	*(_atoll_sloc1_1_0 + 4)
      0000D2 A5*00            [ 3]  285 	lda	*___SDCC_m6502_ret5
      0000D4 85*07            [ 3]  286 	sta	*(_atoll_sloc1_1_0 + 5)
      0000D6 A5*00            [ 3]  287 	lda	*___SDCC_m6502_ret6
      0000D8 85*08            [ 3]  288 	sta	*(_atoll_sloc1_1_0 + 6)
      0000DA A5*00            [ 3]  289 	lda	*___SDCC_m6502_ret7
      0000DC 85*09            [ 3]  290 	sta	*(_atoll_sloc1_1_0 + 7)
                                    291 ;	Raw cost for generated ic 119 : (31, 48.000000) count=1.285703
                                    292 ;	genPointerGet
      0000DE A0 00            [ 2]  293 	ldy	#0x00
      0000E0 B1*00            [ 6]  294 	lda	[*_atoll_sloc0_1_0],y
                                    295 ;	Raw cost for generated ic 85 : (4, 7.000000) count=1.285703
                                    296 ;	genPlus
                                    297 ;	  genPlusInc
      0000E2 E6*00            [ 5]  298 	inc	*_atoll_sloc0_1_0
      0000E4 D0 02            [ 4]  299 	bne	00186$
      0000E6 E6*01            [ 5]  300 	inc	*(_atoll_sloc0_1_0 + 1)
      0000E8                        301 00186$:
                                    302 ;	Raw cost for generated ic 83 : (6, 12.600000) count=1.285703
                                    303 ;	genCast
                                    304 ;	genCopy
      0000E8 A2 00            [ 2]  305 	ldx	#0x00
                                    306 ;	Raw cost for generated ic 86 : (2, 2.000000) count=1.285703
                                    307 ;	genMinus
                                    308 ;	  genMinusDec - size=2  icount=48
      0000EA 38               [ 2]  309 	sec
      0000EB E9 30            [ 3]  310 	sbc	#0x30
      0000ED B0 01            [ 4]  311 	bcs	00187$
      0000EF CA               [ 2]  312 	dex
      0000F0                        313 00187$:
                                    314 ;	Raw cost for generated ic 87 : (6, 8.600000) count=1.285703
                                    315 ;	genCast
      0000F0 85*0A            [ 3]  316 	sta	*_atoll_sloc2_1_0
      0000F2 86*0B            [ 3]  317 	stx	*(_atoll_sloc2_1_0 + 1)
      0000F4 E0 80            [ 2]  318 	cpx	#0x80
      0000F6 A2 00            [ 2]  319 	ldx	#0x00
      0000F8 90 01            [ 4]  320 	bcc	00188$
      0000FA CA               [ 2]  321 	dex
      0000FB                        322 00188$:
      0000FB 86*0C            [ 3]  323 	stx	*(_atoll_sloc2_1_0 + 2)
      0000FD 86*0D            [ 3]  324 	stx	*(_atoll_sloc2_1_0 + 3)
      0000FF 86*0E            [ 3]  325 	stx	*(_atoll_sloc2_1_0 + 4)
      000101 86*0F            [ 3]  326 	stx	*(_atoll_sloc2_1_0 + 5)
      000103 86*10            [ 3]  327 	stx	*(_atoll_sloc2_1_0 + 6)
      000105 86*11            [ 3]  328 	stx	*(_atoll_sloc2_1_0 + 7)
                                    329 ;	Raw cost for generated ic 88 : (23, 32.599998) count=1.285703
                                    330 ;	genPlus
      000107 A5*02            [ 3]  331 	lda	*_atoll_sloc1_1_0
      000109 18               [ 2]  332 	clc
      00010A 65*0A            [ 4]  333 	adc	*_atoll_sloc2_1_0
      00010C 8Dr00r00         [ 4]  334 	sta	_atoll_ret_10000_63
      00010F A5*03            [ 3]  335 	lda	*(_atoll_sloc1_1_0 + 1)
      000111 65*0B            [ 4]  336 	adc	*(_atoll_sloc2_1_0 + 1)
      000113 8Dr01r00         [ 4]  337 	sta	(_atoll_ret_10000_63 + 1)
      000116 A5*04            [ 3]  338 	lda	*(_atoll_sloc1_1_0 + 2)
      000118 65*0C            [ 4]  339 	adc	*(_atoll_sloc2_1_0 + 2)
      00011A 8Dr02r00         [ 4]  340 	sta	(_atoll_ret_10000_63 + 2)
      00011D A5*05            [ 3]  341 	lda	*(_atoll_sloc1_1_0 + 3)
      00011F 65*0D            [ 4]  342 	adc	*(_atoll_sloc2_1_0 + 3)
      000121 8Dr03r00         [ 4]  343 	sta	(_atoll_ret_10000_63 + 3)
      000124 A5*06            [ 3]  344 	lda	*(_atoll_sloc1_1_0 + 4)
      000126 65*0E            [ 4]  345 	adc	*(_atoll_sloc2_1_0 + 4)
      000128 8Dr04r00         [ 4]  346 	sta	(_atoll_ret_10000_63 + 4)
      00012B A5*07            [ 3]  347 	lda	*(_atoll_sloc1_1_0 + 5)
      00012D 65*0F            [ 4]  348 	adc	*(_atoll_sloc2_1_0 + 5)
      00012F 8Dr05r00         [ 4]  349 	sta	(_atoll_ret_10000_63 + 5)
      000132 A5*08            [ 3]  350 	lda	*(_atoll_sloc1_1_0 + 6)
      000134 65*10            [ 4]  351 	adc	*(_atoll_sloc2_1_0 + 6)
      000136 8Dr06r00         [ 4]  352 	sta	(_atoll_ret_10000_63 + 6)
      000139 A5*09            [ 3]  353 	lda	*(_atoll_sloc1_1_0 + 7)
      00013B 65*11            [ 4]  354 	adc	*(_atoll_sloc2_1_0 + 7)
      00013D 8Dr07r00         [ 4]  355 	sta	(_atoll_ret_10000_63 + 7)
                                    356 ;	Raw cost for generated ic 89 : (57, 82.000000) count=1.285703
                                    357 ;	genGoto
      000140 4Cr61r00         [ 3]  358 	jmp	00107$
                                    359 ;	Raw cost for generated ic 91 : (3, 3.000000) count=1.285703
                                    360 ;	genLabel
      000143                        361 00109$:
                                    362 ;	Raw cost for generated ic 92 : (0, 0.000000) count=0.999991
                                    363 ;	../atoll.c: 51: return (neg ? -ret : ret); // Since -LLONG_MIN is LLONG_MIN in sdcc, the result value always turns out ok.
                                    364 ;	genIfx
      000143 ADr08r00         [ 4]  365 	lda	_atoll_neg_10000_63
                                    366 ;	genIfxJump : z
      000146 F0 3C            [ 4]  367 	beq	00120$
                                    368 ;	Raw cost for generated ic 93 : (8, 9.600000) count=0.999991
                                    369 ;	genUminus
      000148 A9 00            [ 2]  370 	lda	#0x00
      00014A 38               [ 2]  371 	sec
      00014B EDr00r00         [ 5]  372 	sbc	_atoll_ret_10000_63
      00014E 85*0A            [ 3]  373 	sta	*_atoll_sloc2_1_0
      000150 A9 00            [ 2]  374 	lda	#0x00
      000152 EDr01r00         [ 5]  375 	sbc	(_atoll_ret_10000_63 + 1)
      000155 85*0B            [ 3]  376 	sta	*(_atoll_sloc2_1_0 + 1)
      000157 A9 00            [ 2]  377 	lda	#0x00
      000159 EDr02r00         [ 5]  378 	sbc	(_atoll_ret_10000_63 + 2)
      00015C 85*0C            [ 3]  379 	sta	*(_atoll_sloc2_1_0 + 2)
      00015E A9 00            [ 2]  380 	lda	#0x00
      000160 EDr03r00         [ 5]  381 	sbc	(_atoll_ret_10000_63 + 3)
      000163 85*0D            [ 3]  382 	sta	*(_atoll_sloc2_1_0 + 3)
      000165 A9 00            [ 2]  383 	lda	#0x00
      000167 EDr04r00         [ 5]  384 	sbc	(_atoll_ret_10000_63 + 4)
      00016A 85*0E            [ 3]  385 	sta	*(_atoll_sloc2_1_0 + 4)
      00016C A9 00            [ 2]  386 	lda	#0x00
      00016E EDr05r00         [ 5]  387 	sbc	(_atoll_ret_10000_63 + 5)
      000171 85*0F            [ 3]  388 	sta	*(_atoll_sloc2_1_0 + 5)
      000173 A9 00            [ 2]  389 	lda	#0x00
      000175 EDr06r00         [ 5]  390 	sbc	(_atoll_ret_10000_63 + 6)
      000178 85*10            [ 3]  391 	sta	*(_atoll_sloc2_1_0 + 6)
      00017A A9 00            [ 2]  392 	lda	#0x00
      00017C EDr07r00         [ 5]  393 	sbc	(_atoll_ret_10000_63 + 7)
      00017F 85*11            [ 3]  394 	sta	*(_atoll_sloc2_1_0 + 7)
                                    395 ;	Raw cost for generated ic 94 : (57, 74.000000) count=0.749993
                                    396 ;	genGoto
      000181 4CrACr01         [ 3]  397 	jmp	00121$
                                    398 ;	Raw cost for generated ic 96 : (3, 3.000000) count=0.749993
                                    399 ;	genLabel
      000184                        400 00120$:
                                    401 ;	Raw cost for generated ic 97 : (0, 0.000000) count=0.249996
                                    402 ;	genAssign
                                    403 ;	genCopy
      000184 ADr07r00         [ 4]  404 	lda	(_atoll_ret_10000_63 + 7)
      000187 85*11            [ 3]  405 	sta	*(_atoll_sloc2_1_0 + 7)
      000189 ADr06r00         [ 4]  406 	lda	(_atoll_ret_10000_63 + 6)
      00018C 85*10            [ 3]  407 	sta	*(_atoll_sloc2_1_0 + 6)
      00018E ADr05r00         [ 4]  408 	lda	(_atoll_ret_10000_63 + 5)
      000191 85*0F            [ 3]  409 	sta	*(_atoll_sloc2_1_0 + 5)
      000193 ADr04r00         [ 4]  410 	lda	(_atoll_ret_10000_63 + 4)
      000196 85*0E            [ 3]  411 	sta	*(_atoll_sloc2_1_0 + 4)
      000198 ADr03r00         [ 4]  412 	lda	(_atoll_ret_10000_63 + 3)
      00019B 85*0D            [ 3]  413 	sta	*(_atoll_sloc2_1_0 + 3)
      00019D ADr02r00         [ 4]  414 	lda	(_atoll_ret_10000_63 + 2)
      0001A0 85*0C            [ 3]  415 	sta	*(_atoll_sloc2_1_0 + 2)
      0001A2 ADr01r00         [ 4]  416 	lda	(_atoll_ret_10000_63 + 1)
      0001A5 85*0B            [ 3]  417 	sta	*(_atoll_sloc2_1_0 + 1)
      0001A7 ADr00r00         [ 4]  418 	lda	_atoll_ret_10000_63
      0001AA 85*0A            [ 3]  419 	sta	*_atoll_sloc2_1_0
                                    420 ;	Raw cost for generated ic 98 : (40, 56.000000) count=0.249996
                                    421 ;	genLabel
      0001AC                        422 00121$:
                                    423 ;	Raw cost for generated ic 99 : (0, 0.000000) count=0.999989
                                    424 ;	genRet
      0001AC A5*11            [ 3]  425 	lda	*(_atoll_sloc2_1_0 + 7)
      0001AE 85*00            [ 3]  426 	sta	*___SDCC_m6502_ret7
      0001B0 A5*10            [ 3]  427 	lda	*(_atoll_sloc2_1_0 + 6)
      0001B2 85*00            [ 3]  428 	sta	*___SDCC_m6502_ret6
      0001B4 A5*0F            [ 3]  429 	lda	*(_atoll_sloc2_1_0 + 5)
      0001B6 85*00            [ 3]  430 	sta	*___SDCC_m6502_ret5
      0001B8 A5*0E            [ 3]  431 	lda	*(_atoll_sloc2_1_0 + 4)
      0001BA 85*00            [ 3]  432 	sta	*___SDCC_m6502_ret4
      0001BC A5*0D            [ 3]  433 	lda	*(_atoll_sloc2_1_0 + 3)
      0001BE 85*00            [ 3]  434 	sta	*___SDCC_m6502_ret3
      0001C0 A5*0C            [ 3]  435 	lda	*(_atoll_sloc2_1_0 + 2)
      0001C2 85*00            [ 3]  436 	sta	*___SDCC_m6502_ret2
      0001C4 A6*0B            [ 3]  437 	ldx	*(_atoll_sloc2_1_0 + 1)
      0001C6 A5*0A            [ 3]  438 	lda	*_atoll_sloc2_1_0
                                    439 ;	Raw cost for generated ic 100 : (28, 42.000000) count=0.999989
                                    440 ;	genLabel
                                    441 ;	Raw cost for generated ic 101 : (0, 0.000000) count=0.999989
                                    442 ;	../atoll.c: 52: }
                                    443 ;	genEndFunction
      0001C8 60               [ 6]  444 	rts
                                    445 ;	Raw cost for generated ic 102 : (1, 6.000000) count=0.999989
                                    446 	.area CODE
                                    447 	.area RODATA
                                    448 	.area XINIT
                                    449 	.area CABS    (ABS)
