                                      1 ;--------------------------------------------------------
                                      2 ; File Created by SDCC : free open source ISO C Compiler
                                      3 ; Version 4.5.10 #15691 (Linux)
                                      4 ;--------------------------------------------------------
                                      5 	.module c16stombs
                                      6 	
      000000                          7 	.r65c02
                                      8 	.optsdcc -mmos65c02
                                      9 
                                     10 ;--------------------------------------------------------
                                     11 ;  Ordering of segments for the linker.
                                     12 ;--------------------------------------------------------
                                     13 	.area ZP      (PAG)
                                     14 	.area OSEG    (PAG, OVR)
                                     15 	.area _CODE
                                     16 	.area GSINIT
                                     17 	.area GSFINAL
                                     18 	.area CODE
                                     19 	.area RODATA
                                     20 	.area XINIT
                                     21 	.area _DATA
                                     22 	.area DATA
                                     23 	.area BSS
                                     24 ;--------------------------------------------------------
                                     25 ; Public variables in this module
                                     26 ;--------------------------------------------------------
                                     27 	.globl ___memcpy
                                     28 	.globl _wctomb
                                     29 	.globl ___c16stombs_PARM_3
                                     30 	.globl ___c16stombs_PARM_2
                                     31 	.globl ___c16stombs
                                     32 ;--------------------------------------------------------
                                     33 ; ZP ram data
                                     34 ;--------------------------------------------------------
                                     35 	.area ZP      (PAG)
      000000                         36 ___c16stombs_sloc0_1_0:
      000000                         37 	.ds 2
      000002                         38 ___c16stombs_sloc1_1_0:
      000002                         39 	.ds 2
      000004                         40 ___c16stombs_sloc2_1_0:
      000004                         41 	.ds 2
      000006                         42 ___c16stombs_sloc3_1_0:
      000006                         43 	.ds 4
      00000A                         44 ___c16stombs_sloc4_1_0:
      00000A                         45 	.ds 4
                                     46 ;--------------------------------------------------------
                                     47 ; overlayable items in ram
                                     48 ;--------------------------------------------------------
                                     49 ;--------------------------------------------------------
                                     50 ; uninitialized external ram data
                                     51 ;--------------------------------------------------------
                                     52 	.area BSS
      000000                         53 ___c16stombs_PARM_2:
      000000                         54 	.ds 2
      000002                         55 ___c16stombs_PARM_3:
      000002                         56 	.ds 2
      000004                         57 ___c16stombs_s_10000_90:
      000004                         58 	.ds 2
      000006                         59 ___c16stombs_m_10000_91:
      000006                         60 	.ds 2
      000008                         61 ___c16stombs_b_10000_91:
      000008                         62 	.ds 4
      00000C                         63 ___c16stombs_l_30000_93:
      00000C                         64 	.ds 2
      00000E                         65 ___c16stombs_codepoint_30000_93:
      00000E                         66 	.ds 4
                                     67 ;--------------------------------------------------------
                                     68 ; absolute external ram data
                                     69 ;--------------------------------------------------------
                                     70 	.area DABS    (ABS)
                                     71 ;--------------------------------------------------------
                                     72 ; initialized external ram data
                                     73 ;--------------------------------------------------------
                                     74 	.area DATA
                                     75 ;--------------------------------------------------------
                                     76 ; global & static initialisations
                                     77 ;--------------------------------------------------------
                                     78 	.area _CODE
                                     79 	.area GSINIT
                                     80 	.area GSFINAL
                                     81 	.area GSINIT
                                     82 ;--------------------------------------------------------
                                     83 ; Home
                                     84 ;--------------------------------------------------------
                                     85 	.area _CODE
                                     86 	.area _CODE
                                     87 ;--------------------------------------------------------
                                     88 ; code
                                     89 ;--------------------------------------------------------
                                     90 	.area CODE
                                     91 ;------------------------------------------------------------
                                     92 ;Allocation info for local variables in function '__c16stombs'
                                     93 ;------------------------------------------------------------
                                     94 ;sloc0         Allocated with name '___c16stombs_sloc0_1_0'
                                     95 ;sloc1         Allocated with name '___c16stombs_sloc1_1_0'
                                     96 ;sloc2         Allocated with name '___c16stombs_sloc2_1_0'
                                     97 ;sloc3         Allocated with name '___c16stombs_sloc3_1_0'
                                     98 ;sloc4         Allocated with name '___c16stombs_sloc4_1_0'
                                     99 ;c16s          Allocated with name '___c16stombs_PARM_2'
                                    100 ;n             Allocated with name '___c16stombs_PARM_3'
                                    101 ;s             Allocated with name '___c16stombs_s_10000_90'
                                    102 ;m             Allocated with name '___c16stombs_m_10000_91'
                                    103 ;b             Allocated with name '___c16stombs_b_10000_91'
                                    104 ;l             Allocated with name '___c16stombs_l_30000_93'
                                    105 ;codepoint     Allocated with name '___c16stombs_codepoint_30000_93'
                                    106 ;------------------------------------------------------------
                                    107 ;	../c16stombs.c: 44: size_t __c16stombs(char *restrict s, const char16_t *restrict c16s, size_t n)
                                    108 ;	genLabel
                                    109 ;	Raw cost for generated ic 0 : (0, 0.000000) count=1.000000
                                    110 ;	-----------------------------------------
                                    111 ;	 function __c16stombs
                                    112 ;	-----------------------------------------
                                    113 ;	Register assignment is optimal.
                                    114 ;	Stack space usage: 0 bytes.
      000000                        115 ___c16stombs:
                                    116 ;	Raw cost for generated ic 1 : (0, 0.000000) count=1.000000
                                    117 ;	genReceive
      000000 8Dr04r00         [ 4]  118 	sta	___c16stombs_s_10000_90
      000003 8Er05r00         [ 4]  119 	stx	(___c16stombs_s_10000_90 + 1)
                                    120 ;	Raw cost for generated ic 2 : (6, 8.000000) count=1.000000
                                    121 ;	../c16stombs.c: 46: size_t m = 0;
                                    122 ;	genAssign
                                    123 ;	genAssignLit
      000006 9Cr06r00         [ 4]  124 	stz	___c16stombs_m_10000_91
      000009 9Cr07r00         [ 4]  125 	stz	(___c16stombs_m_10000_91 + 1)
                                    126 ;	Raw cost for generated ic 3 : (6, 8.000000) count=1.000000
                                    127 ;	../c16stombs.c: 87: return(m);
                                    128 ;	genLabel
      00000C                        129 00119$:
                                    130 ;	Raw cost for generated ic 4 : (0, 0.000000) count=1.230759
                                    131 ;	../c16stombs.c: 54: if(c16s[0] < 0xd800 || c16s[0] >= 0xe000) // Basic multilingual plane
                                    132 ;	genAssign
                                    133 ;	genCopy
      00000C ADr01r00         [ 4]  134 	lda	(___c16stombs_PARM_2 + 1)
      00000F 85*01            [ 3]  135 	sta	*(___c16stombs_sloc0_1_0 + 1)
      000011 ADr00r00         [ 4]  136 	lda	___c16stombs_PARM_2
      000014 85*00            [ 3]  137 	sta	*___c16stombs_sloc0_1_0
                                    138 ;	Raw cost for generated ic 5 : (10, 14.000000) count=1.230759
                                    139 ;	genPointerGet
      000016 A0 00            [ 2]  140 	ldy	#0x00
      000018 B1*00            [ 6]  141 	lda	[*___c16stombs_sloc0_1_0],y
      00001A 85*02            [ 3]  142 	sta	*___c16stombs_sloc1_1_0
      00001C C8               [ 2]  143 	iny
      00001D B1*00            [ 6]  144 	lda	[*___c16stombs_sloc0_1_0],y
      00001F 85*03            [ 3]  145 	sta	*(___c16stombs_sloc1_1_0 + 1)
                                    146 ;	Raw cost for generated ic 6 : (11, 20.000000) count=1.230759
                                    147 ;	genCmp
      000021 38               [ 2]  148 	sec
      000022 E9 D8            [ 3]  149 	sbc	#0xd8
      000024 90 07            [ 4]  150 	bcc	00106$
                                    151 ;	Raw cost for generated ic 7 : (8, 9.600000) count=1.230759
                                    152 ;	skipping generated iCode
                                    153 ;	Raw cost for generated ic 8 : (0, 0.000000) count=1.230759
                                    154 ;	genCmp
      000026 A5*03            [ 3]  155 	lda	*(___c16stombs_sloc1_1_0 + 1)
      000028 38               [ 2]  156 	sec
      000029 E9 E0            [ 3]  157 	sbc	#0xe0
      00002B 90 30            [ 4]  158 	bcc	00107$
                                    159 ;	Raw cost for generated ic 13 : (10, 12.600000) count=0.923069
                                    160 ;	skipping generated iCode
                                    161 ;	Raw cost for generated ic 14 : (0, 0.000000) count=0.923069
                                    162 ;	genLabel
      00002D                        163 00106$:
                                    164 ;	Raw cost for generated ic 16 : (0, 0.000000) count=0.999992
                                    165 ;	../c16stombs.c: 56: codepoint = c16s[0];
                                    166 ;	genAssign
                                    167 ;	genCopy
      00002D ADr01r00         [ 4]  168 	lda	(___c16stombs_PARM_2 + 1)
      000030 85*05            [ 3]  169 	sta	*(___c16stombs_sloc2_1_0 + 1)
      000032 ADr00r00         [ 4]  170 	lda	___c16stombs_PARM_2
      000035 85*04            [ 3]  171 	sta	*___c16stombs_sloc2_1_0
                                    172 ;	Raw cost for generated ic 17 : (10, 14.000000) count=0.999992
                                    173 ;	genPointerGet
      000037 A0 01            [ 2]  174 	ldy	#0x01
      000039 B1*04            [ 6]  175 	lda	[*___c16stombs_sloc2_1_0],y
      00003B AA               [ 2]  176 	tax
      00003C 88               [ 2]  177 	dey
      00003D B1*04            [ 6]  178 	lda	[*___c16stombs_sloc2_1_0],y
                                    179 ;	Raw cost for generated ic 18 : (8, 16.000000) count=0.999992
                                    180 ;	genCast
                                    181 ;	genCopy
      00003F 8Cr11r00         [ 4]  182 	sty	(___c16stombs_codepoint_30000_93 + 3)
      000042 8Cr10r00         [ 4]  183 	sty	(___c16stombs_codepoint_30000_93 + 2)
      000045 8Er0Fr00         [ 4]  184 	stx	(___c16stombs_codepoint_30000_93 + 1)
      000048 8Dr0Er00         [ 4]  185 	sta	___c16stombs_codepoint_30000_93
                                    186 ;	Raw cost for generated ic 19 : (12, 16.000000) count=0.999992
                                    187 ;	../c16stombs.c: 57: c16s++;
                                    188 ;	genPlus
                                    189 ;	  genPlusInc
      00004B A5*04            [ 3]  190 	lda	*___c16stombs_sloc2_1_0
      00004D 18               [ 2]  191 	clc
      00004E 69 02            [ 3]  192 	adc	#0x02
      000050 8Dr00r00         [ 4]  193 	sta	___c16stombs_PARM_2
      000053 A5*05            [ 3]  194 	lda	*(___c16stombs_sloc2_1_0 + 1)
      000055 69 00            [ 3]  195 	adc	#0x00
      000057 8Dr01r00         [ 4]  196 	sta	(___c16stombs_PARM_2 + 1)
                                    197 ;	Raw cost for generated ic 22 : (15, 20.000000) count=0.999992
                                    198 ;	genGoto
      00005A 4Cr02r01         [ 3]  199 	jmp	00108$
                                    200 ;	Raw cost for generated ic 24 : (3, 3.000000) count=0.999992
                                    201 ;	genLabel
      00005D                        202 00107$:
                                    203 ;	Raw cost for generated ic 25 : (0, 0.000000) count=0.230759
                                    204 ;	../c16stombs.c: 59: else if(c16s[0] > 0xdbff || c16s[1] < 0xdc00 || c16s[1] > 0xdfff) // Unpaired surrogate
                                    205 ;	genCmp
      00005D A9 FF            [ 2]  206 	lda	#0xff
      00005F 38               [ 2]  207 	sec
      000060 E5*02            [ 4]  208 	sbc	*___c16stombs_sloc1_1_0
      000062 A9 DB            [ 2]  209 	lda	#0xdb
      000064 E5*03            [ 4]  210 	sbc	*(___c16stombs_sloc1_1_0 + 1)
      000066 90 23            [ 4]  211 	bcc	00101$
                                    212 ;	Raw cost for generated ic 28 : (14, 17.600000) count=0.230759
                                    213 ;	skipping generated iCode
                                    214 ;	Raw cost for generated ic 29 : (0, 0.000000) count=0.230759
                                    215 ;	genAssign
                                    216 ;	genCopy
      000068 A6*01            [ 3]  217 	ldx	*(___c16stombs_sloc0_1_0 + 1)
      00006A A5*00            [ 3]  218 	lda	*___c16stombs_sloc0_1_0
                                    219 ;	Raw cost for generated ic 32 : (4, 6.000000) count=0.173069
                                    220 ;	genPointerGet
                                    221 ;	  setupDPTR - off=2 remat=(null) savea=0
      00006C 85*00            [ 3]  222 	sta	*(DPTR+0)
      00006E 86*01            [ 3]  223 	stx	*(DPTR+1)
      000070 A0 02            [ 2]  224 	ldy	#0x02
      000072 B1*00            [ 6]  225 	lda	[DPTR],y
      000074 85*04            [ 3]  226 	sta	*___c16stombs_sloc2_1_0
      000076 C8               [ 2]  227 	iny
      000077 B1*00            [ 6]  228 	lda	[DPTR],y
      000079 85*05            [ 3]  229 	sta	*(___c16stombs_sloc2_1_0 + 1)
                                    230 ;	Raw cost for generated ic 33 : (15, 26.000000) count=0.173069
                                    231 ;	genCmp
      00007B 38               [ 2]  232 	sec
      00007C E9 DC            [ 3]  233 	sbc	#0xdc
      00007E 90 0B            [ 4]  234 	bcc	00101$
                                    235 ;	Raw cost for generated ic 34 : (8, 9.600000) count=0.173069
                                    236 ;	skipping generated iCode
                                    237 ;	Raw cost for generated ic 35 : (0, 0.000000) count=0.173069
                                    238 ;	genCmp
      000080 A9 FF            [ 2]  239 	lda	#0xff
      000082 38               [ 2]  240 	sec
      000083 E5*04            [ 4]  241 	sbc	*___c16stombs_sloc2_1_0
      000085 A9 DF            [ 2]  242 	lda	#0xdf
      000087 E5*05            [ 4]  243 	sbc	*(___c16stombs_sloc2_1_0 + 1)
      000089 B0 04            [ 4]  244 	bcs	00102$
                                    245 ;	Raw cost for generated ic 40 : (14, 17.600000) count=0.129802
                                    246 ;	skipping generated iCode
                                    247 ;	Raw cost for generated ic 41 : (0, 0.000000) count=0.129802
                                    248 ;	genLabel
      00008B                        249 00101$:
                                    250 ;	Raw cost for generated ic 43 : (0, 0.000000) count=0.198309
                                    251 ;	../c16stombs.c: 60: return(-1);
                                    252 ;	genRet
      00008B A9 FF            [ 2]  253 	lda	#0xff
      00008D AA               [ 2]  254 	tax
      00008E 60               [ 6]  255 	rts
                                    256 ;	Raw cost for generated ic 44 : (6, 7.000000) count=0.198309
                                    257 ;	genLabel
      00008F                        258 00102$:
                                    259 ;	Raw cost for generated ic 46 : (0, 0.000000) count=0.230759
                                    260 ;	../c16stombs.c: 63: codepoint = ((unsigned long)(c16s[0]) << 10) -(0xd800ul << 10) + (unsigned long)(c16s[1]) - 0xdc00ul + 0x10000ul;
                                    261 ;	genCast
                                    262 ;	genCopy
      00008F 64*09            [ 3]  263 	stz	*(___c16stombs_sloc3_1_0 + 3)
      000091 64*08            [ 3]  264 	stz	*(___c16stombs_sloc3_1_0 + 2)
      000093 A5*03            [ 3]  265 	lda	*(___c16stombs_sloc1_1_0 + 1)
      000095 85*07            [ 3]  266 	sta	*(___c16stombs_sloc3_1_0 + 1)
      000097 A5*02            [ 3]  267 	lda	*___c16stombs_sloc1_1_0
                                    268 ;	Raw cost for generated ic 49 : (14, 20.000000) count=0.230759
                                    269 ;	genLeftShift
                                    270 ;	genLeftShiftLiteral
                                    271 ;	  genlsh32 - shift=10
      000099 85*06            [ 3]  272 	sta	*___c16stombs_sloc3_1_0
      00009B 09 00            [ 2]  273 	ora	#0x00
      00009D 0A               [ 2]  274 	asl	a
      00009E A6*07            [ 3]  275 	ldx	*(___c16stombs_sloc3_1_0 + 1)
      0000A0 85*07            [ 3]  276 	sta	*(___c16stombs_sloc3_1_0 + 1)
      0000A2 8A               [ 2]  277 	txa
      0000A3 2A               [ 2]  278 	rol	a
      0000A4 A6*08            [ 3]  279 	ldx	*(___c16stombs_sloc3_1_0 + 2)
      0000A6 85*08            [ 3]  280 	sta	*(___c16stombs_sloc3_1_0 + 2)
      0000A8 8A               [ 2]  281 	txa
      0000A9 2A               [ 2]  282 	rol	a
      0000AA 64*06            [ 3]  283 	stz	*___c16stombs_sloc3_1_0
      0000AC 06*07            [ 5]  284 	asl	*(___c16stombs_sloc3_1_0 + 1)
      0000AE 26*08            [ 5]  285 	rol	*(___c16stombs_sloc3_1_0 + 2)
      0000B0 2A               [ 2]  286 	rol	a
      0000B1 85*09            [ 3]  287 	sta	*(___c16stombs_sloc3_1_0 + 3)
                                    288 ;	Raw cost for generated ic 50 : (25, 44.000000) count=0.230759
                                    289 ;	genCast
                                    290 ;	genCopy
      0000B3 64*0D            [ 3]  291 	stz	*(___c16stombs_sloc4_1_0 + 3)
      0000B5 64*0C            [ 3]  292 	stz	*(___c16stombs_sloc4_1_0 + 2)
      0000B7 A5*05            [ 3]  293 	lda	*(___c16stombs_sloc2_1_0 + 1)
      0000B9 85*0B            [ 3]  294 	sta	*(___c16stombs_sloc4_1_0 + 1)
      0000BB A5*04            [ 3]  295 	lda	*___c16stombs_sloc2_1_0
      0000BD 85*0A            [ 3]  296 	sta	*___c16stombs_sloc4_1_0
                                    297 ;	Raw cost for generated ic 53 : (14, 20.000000) count=0.230759
                                    298 ;	genPlus
      0000BF A5*06            [ 3]  299 	lda	*___c16stombs_sloc3_1_0
      0000C1 18               [ 2]  300 	clc
      0000C2 65*0A            [ 4]  301 	adc	*___c16stombs_sloc4_1_0
      0000C4 85*0A            [ 3]  302 	sta	*___c16stombs_sloc4_1_0
      0000C6 A5*07            [ 3]  303 	lda	*(___c16stombs_sloc3_1_0 + 1)
      0000C8 65*0B            [ 4]  304 	adc	*(___c16stombs_sloc4_1_0 + 1)
      0000CA 85*0B            [ 3]  305 	sta	*(___c16stombs_sloc4_1_0 + 1)
      0000CC A5*08            [ 3]  306 	lda	*(___c16stombs_sloc3_1_0 + 2)
      0000CE 65*0C            [ 4]  307 	adc	*(___c16stombs_sloc4_1_0 + 2)
      0000D0 85*0C            [ 3]  308 	sta	*(___c16stombs_sloc4_1_0 + 2)
      0000D2 A5*09            [ 3]  309 	lda	*(___c16stombs_sloc3_1_0 + 3)
      0000D4 65*0D            [ 4]  310 	adc	*(___c16stombs_sloc4_1_0 + 3)
      0000D6 85*0D            [ 3]  311 	sta	*(___c16stombs_sloc4_1_0 + 3)
                                    312 ;	Raw cost for generated ic 54 : (25, 38.000000) count=0.230759
                                    313 ;	genPlus
                                    314 ;	  genPlusInc
      0000D8 A5*0A            [ 3]  315 	lda	*___c16stombs_sloc4_1_0
      0000DA 18               [ 2]  316 	clc
      0000DB 8Dr0Er00         [ 4]  317 	sta	___c16stombs_codepoint_30000_93
      0000DE A5*0B            [ 3]  318 	lda	*(___c16stombs_sloc4_1_0 + 1)
      0000E0 69 24            [ 3]  319 	adc	#0x24
      0000E2 8Dr0Fr00         [ 4]  320 	sta	(___c16stombs_codepoint_30000_93 + 1)
      0000E5 A5*0C            [ 3]  321 	lda	*(___c16stombs_sloc4_1_0 + 2)
      0000E7 69 A0            [ 3]  322 	adc	#0xa0
      0000E9 8Dr10r00         [ 4]  323 	sta	(___c16stombs_codepoint_30000_93 + 2)
      0000EC A5*0D            [ 3]  324 	lda	*(___c16stombs_sloc4_1_0 + 3)
      0000EE 69 FC            [ 3]  325 	adc	#0xfc
      0000F0 8Dr11r00         [ 4]  326 	sta	(___c16stombs_codepoint_30000_93 + 3)
                                    327 ;	Raw cost for generated ic 55 : (27, 36.000000) count=0.230759
                                    328 ;	../c16stombs.c: 64: c16s += 2;
                                    329 ;	genPlus
                                    330 ;	  genPlusInc
      0000F3 A5*00            [ 3]  331 	lda	*___c16stombs_sloc0_1_0
      0000F5 18               [ 2]  332 	clc
      0000F6 69 04            [ 3]  333 	adc	#0x04
      0000F8 8Dr00r00         [ 4]  334 	sta	___c16stombs_PARM_2
      0000FB A5*01            [ 3]  335 	lda	*(___c16stombs_sloc0_1_0 + 1)
      0000FD 69 00            [ 3]  336 	adc	#0x00
      0000FF 8Dr01r00         [ 4]  337 	sta	(___c16stombs_PARM_2 + 1)
                                    338 ;	Raw cost for generated ic 57 : (15, 20.000000) count=0.230759
                                    339 ;	genLabel
      000102                        340 00108$:
                                    341 ;	Raw cost for generated ic 60 : (0, 0.000000) count=1.230751
                                    342 ;	../c16stombs.c: 67: if(!codepoint)
                                    343 ;	genIfx
      000102 ADr11r00         [ 4]  344 	lda	(___c16stombs_codepoint_30000_93 + 3)
      000105 0Dr10r00         [ 4]  345 	ora	(___c16stombs_codepoint_30000_93 + 2)
      000108 0Dr0Fr00         [ 4]  346 	ora	(___c16stombs_codepoint_30000_93 + 1)
      00010B 0Dr0Er00         [ 4]  347 	ora	___c16stombs_codepoint_30000_93
                                    348 ;	genIfxJump : z
      00010E D0 24            [ 4]  349 	bne	00113$
                                    350 ;	Raw cost for generated ic 61 : (17, 21.600000) count=1.230751
                                    351 ;	../c16stombs.c: 69: if(m < n)
                                    352 ;	genCmp
      000110 ADr06r00         [ 4]  353 	lda	___c16stombs_m_10000_91
      000113 38               [ 2]  354 	sec
      000114 EDr02r00         [ 5]  355 	sbc	___c16stombs_PARM_3
      000117 ADr07r00         [ 4]  356 	lda	(___c16stombs_m_10000_91 + 1)
      00011A EDr03r00         [ 5]  357 	sbc	(___c16stombs_PARM_3 + 1)
      00011D 90 03            [ 4]  358 	bcc	00178$
      00011F 4CrCEr01         [ 3]  359 	jmp	00118$
      000122                        360 00178$:
                                    361 ;	Raw cost for generated ic 64 : (18, 23.600000) count=0.923063
                                    362 ;	skipping generated iCode
                                    363 ;	Raw cost for generated ic 65 : (0, 0.000000) count=0.923063
                                    364 ;	../c16stombs.c: 70: *s = 0;
                                    365 ;	genPointerSet
                                    366 ;	  setupDPTR - off=0 remat=(null) savea=0
      000122 AEr04r00         [ 4]  367 	ldx	___c16stombs_s_10000_90
      000125 86*00            [ 3]  368 	stx	*(DPTR+0)
      000127 AEr05r00         [ 4]  369 	ldx	(___c16stombs_s_10000_90 + 1)
      00012A 86*01            [ 3]  370 	stx	*(DPTR+1)
      00012C A9 00            [ 2]  371 	lda	#0x00
      00012E A8               [ 2]  372 	tay
      00012F 91*00            [ 6]  373 	sta	[DPTR],y
                                    374 ;	Raw cost for generated ic 69 : (15, 24.000000) count=0.692297
                                    375 ;	../c16stombs.c: 71: break;
                                    376 ;	genGoto
      000131 4CrCEr01         [ 3]  377 	jmp	00118$
                                    378 ;	Raw cost for generated ic 71 : (3, 3.000000) count=0.692297
                                    379 ;	genLabel
      000134                        380 00113$:
                                    381 ;	Raw cost for generated ic 72 : (0, 0.000000) count=0.307679
                                    382 ;	../c16stombs.c: 74: l = wctomb(b, codepoint);
                                    383 ;	skipping iCode since result will be rematerialized
                                    384 ;	Raw cost for generated ic 73 : (0, 0.000000) count=0.307679
                                    385 ;	skipping iCode since result will be rematerialized
                                    386 ;	Raw cost for generated ic 74 : (0, 0.000000) count=0.307679
                                    387 ;	genAssign
                                    388 ;	genCopy
      000134 ADr11r00         [ 4]  389 	lda	(___c16stombs_codepoint_30000_93 + 3)
      000137 8Dr03r00         [ 4]  390 	sta	(_wctomb_PARM_2 + 3)
      00013A ADr10r00         [ 4]  391 	lda	(___c16stombs_codepoint_30000_93 + 2)
      00013D 8Dr02r00         [ 4]  392 	sta	(_wctomb_PARM_2 + 2)
      000140 ADr0Fr00         [ 4]  393 	lda	(___c16stombs_codepoint_30000_93 + 1)
      000143 8Dr01r00         [ 4]  394 	sta	(_wctomb_PARM_2 + 1)
      000146 ADr0Er00         [ 4]  395 	lda	___c16stombs_codepoint_30000_93
      000149 8Dr00r00         [ 4]  396 	sta	_wctomb_PARM_2
                                    397 ;	Raw cost for generated ic 76 : (24, 32.000000) count=0.307679
                                    398 ;	Raw cost for generated ic 75 : (0, 0.000000) count=0.307679
                                    399 ;	genCall
                                    400 ;	genSend
      00014C A2s00            [ 2]  401 	ldx	#>___c16stombs_b_10000_91
      00014E A9r08            [ 2]  402 	lda	#___c16stombs_b_10000_91
      000150 20r00r00         [ 6]  403 	jsr	_wctomb
                                    404 ;	assignResultValue
      000153 8Dr0Cr00         [ 4]  405 	sta	___c16stombs_l_30000_93
      000156 8Er0Dr00         [ 4]  406 	stx	(___c16stombs_l_30000_93 + 1)
                                    407 ;	Raw cost for generated ic 77 : (13, 18.000000) count=0.307679
                                    408 ;	../c16stombs.c: 76: if(l < 0)
                                    409 ;	genCmp
      000159 2Cr0Dr00         [ 4]  410 	bit	(___c16stombs_l_30000_93 + 1)
      00015C 10 04            [ 4]  411 	bpl	00115$
                                    412 ;	Raw cost for generated ic 79 : (8, 9.600000) count=0.307679
                                    413 ;	skipping generated iCode
                                    414 ;	Raw cost for generated ic 80 : (0, 0.000000) count=0.307679
                                    415 ;	../c16stombs.c: 77: return(-1);
                                    416 ;	genRet
      00015E A9 FF            [ 2]  417 	lda	#0xff
      000160 AA               [ 2]  418 	tax
      000161 60               [ 6]  419 	rts
                                    420 ;	Raw cost for generated ic 83 : (6, 7.000000) count=0.230759
                                    421 ;	genLabel
      000162                        422 00115$:
                                    423 ;	Raw cost for generated ic 84 : (0, 0.000000) count=0.307679
                                    424 ;	../c16stombs.c: 79: if(m + l > n)
                                    425 ;	genCast
                                    426 ;	genCopy
      000162 ADr0Dr00         [ 4]  427 	lda	(___c16stombs_l_30000_93 + 1)
      000165 85*0B            [ 3]  428 	sta	*(___c16stombs_sloc4_1_0 + 1)
      000167 ADr0Cr00         [ 4]  429 	lda	___c16stombs_l_30000_93
      00016A 85*0A            [ 3]  430 	sta	*___c16stombs_sloc4_1_0
                                    431 ;	Raw cost for generated ic 85 : (10, 14.000000) count=0.307679
                                    432 ;	genPlus
      00016C ADr06r00         [ 4]  433 	lda	___c16stombs_m_10000_91
      00016F 18               [ 2]  434 	clc
      000170 65*0A            [ 4]  435 	adc	*___c16stombs_sloc4_1_0
      000172 85*06            [ 3]  436 	sta	*___c16stombs_sloc3_1_0
      000174 ADr07r00         [ 4]  437 	lda	(___c16stombs_m_10000_91 + 1)
      000177 65*0B            [ 4]  438 	adc	*(___c16stombs_sloc4_1_0 + 1)
      000179 85*07            [ 3]  439 	sta	*(___c16stombs_sloc3_1_0 + 1)
                                    440 ;	Raw cost for generated ic 86 : (15, 22.000000) count=0.307679
                                    441 ;	genCmp
      00017B ADr02r00         [ 4]  442 	lda	___c16stombs_PARM_3
      00017E 38               [ 2]  443 	sec
      00017F E5*06            [ 4]  444 	sbc	*___c16stombs_sloc3_1_0
      000181 ADr03r00         [ 4]  445 	lda	(___c16stombs_PARM_3 + 1)
      000184 E5*07            [ 4]  446 	sbc	*(___c16stombs_sloc3_1_0 + 1)
      000186 90 46            [ 4]  447 	bcc	00118$
                                    448 ;	Raw cost for generated ic 87 : (16, 21.600000) count=0.307679
                                    449 ;	skipping generated iCode
                                    450 ;	Raw cost for generated ic 88 : (0, 0.000000) count=0.307679
                                    451 ;	../c16stombs.c: 82: memcpy(s, b, l);
                                    452 ;	genCast
                                    453 ;	genCopy
      000188 AEr05r00         [ 4]  454 	ldx	(___c16stombs_s_10000_90 + 1)
      00018B ADr04r00         [ 4]  455 	lda	___c16stombs_s_10000_90
                                    456 ;	Raw cost for generated ic 93 : (6, 8.000000) count=0.230759
                                    457 ;	genCast
                                    458 ;	genCopy
      00018E A0s00            [ 2]  459 	ldy	#>___c16stombs_b_10000_91
      000190 8Cr01r00         [ 4]  460 	sty	(___memcpy_PARM_2 + 1)
      000193 A0r08            [ 2]  461 	ldy	#___c16stombs_b_10000_91
      000195 8Cr00r00         [ 4]  462 	sty	___memcpy_PARM_2
                                    463 ;	Raw cost for generated ic 95 : (10, 12.000000) count=0.230759
                                    464 ;	genAssign
                                    465 ;	genCopy
      000198 ACr0Dr00         [ 4]  466 	ldy	(___c16stombs_l_30000_93 + 1)
      00019B 8Cr01r00         [ 4]  467 	sty	(___memcpy_PARM_3 + 1)
      00019E ACr0Cr00         [ 4]  468 	ldy	___c16stombs_l_30000_93
      0001A1 8Cr00r00         [ 4]  469 	sty	___memcpy_PARM_3
                                    470 ;	Raw cost for generated ic 98 : (12, 16.000000) count=0.230759
                                    471 ;	Raw cost for generated ic 96 : (0, 0.000000) count=0.230759
                                    472 ;	genCall
                                    473 ;	genSend
      0001A4 20r00r00         [ 6]  474 	jsr	___memcpy
                                    475 ;	Raw cost for generated ic 99 : (3, 6.000000) count=0.230759
                                    476 ;	../c16stombs.c: 83: s += l;
                                    477 ;	genPlus
      0001A7 ADr04r00         [ 4]  478 	lda	___c16stombs_s_10000_90
      0001AA 18               [ 2]  479 	clc
      0001AB 6Dr0Cr00         [ 5]  480 	adc	___c16stombs_l_30000_93
      0001AE 8Dr04r00         [ 4]  481 	sta	___c16stombs_s_10000_90
      0001B1 ADr05r00         [ 4]  482 	lda	(___c16stombs_s_10000_90 + 1)
      0001B4 6Dr0Dr00         [ 5]  483 	adc	(___c16stombs_l_30000_93 + 1)
      0001B7 8Dr05r00         [ 4]  484 	sta	(___c16stombs_s_10000_90 + 1)
                                    485 ;	Raw cost for generated ic 100 : (19, 26.000000) count=0.230759
                                    486 ;	../c16stombs.c: 84: m += l;
                                    487 ;	genPlus
      0001BA ADr06r00         [ 4]  488 	lda	___c16stombs_m_10000_91
      0001BD 18               [ 2]  489 	clc
      0001BE 65*0A            [ 4]  490 	adc	*___c16stombs_sloc4_1_0
      0001C0 8Dr06r00         [ 4]  491 	sta	___c16stombs_m_10000_91
      0001C3 ADr07r00         [ 4]  492 	lda	(___c16stombs_m_10000_91 + 1)
      0001C6 65*0B            [ 4]  493 	adc	*(___c16stombs_sloc4_1_0 + 1)
      0001C8 8Dr07r00         [ 4]  494 	sta	(___c16stombs_m_10000_91 + 1)
                                    495 ;	Raw cost for generated ic 103 : (17, 24.000000) count=0.230759
                                    496 ;	genGoto
      0001CB 4Cr0Cr00         [ 3]  497 	jmp	00119$
                                    498 ;	Raw cost for generated ic 106 : (3, 3.000000) count=0.230759
                                    499 ;	genLabel
      0001CE                        500 00118$:
                                    501 ;	Raw cost for generated ic 107 : (0, 0.000000) count=0.999983
                                    502 ;	../c16stombs.c: 87: return(m);
                                    503 ;	genRet
      0001CE AEr07r00         [ 4]  504 	ldx	(___c16stombs_m_10000_91 + 1)
      0001D1 ADr06r00         [ 4]  505 	lda	___c16stombs_m_10000_91
                                    506 ;	Raw cost for generated ic 108 : (6, 8.000000) count=0.999983
                                    507 ;	genLabel
                                    508 ;	Raw cost for generated ic 109 : (0, 0.000000) count=0.999983
                                    509 ;	../c16stombs.c: 88: }
                                    510 ;	genEndFunction
      0001D4 60               [ 6]  511 	rts
                                    512 ;	Raw cost for generated ic 110 : (1, 6.000000) count=0.999983
                                    513 	.area CODE
                                    514 	.area RODATA
                                    515 	.area XINIT
                                    516 	.area CABS    (ABS)
