                                      1 ;--------------------------------------------------------
                                      2 ; File Created by SDCC : free open source ISO C Compiler
                                      3 ; Version 4.5.10 #15691 (Linux)
                                      4 ;--------------------------------------------------------
                                      5 	.module ckd_add
                                      6 	
      000000                          7 	.r65c02
                                      8 	.optsdcc -mmos65c02
                                      9 
                                     10 ;--------------------------------------------------------
                                     11 ;  Ordering of segments for the linker.
                                     12 ;--------------------------------------------------------
                                     13 	.area ZP      (PAG)
                                     14 	.area OSEG    (PAG, OVR)
                                     15 	.area _CODE
                                     16 	.area GSINIT
                                     17 	.area GSFINAL
                                     18 	.area CODE
                                     19 	.area RODATA
                                     20 	.area XINIT
                                     21 	.area _DATA
                                     22 	.area DATA
                                     23 	.area BSS
                                     24 ;--------------------------------------------------------
                                     25 ; Public variables in this module
                                     26 ;--------------------------------------------------------
                                     27 	.globl ___ckd_add_ulong_PARM_3
                                     28 	.globl ___ckd_add_ulong_PARM_2
                                     29 	.globl ___ckd_add_long_PARM_3
                                     30 	.globl ___ckd_add_long_PARM_2
                                     31 	.globl ___ckd_add_uint_PARM_3
                                     32 	.globl ___ckd_add_uint_PARM_2
                                     33 	.globl ___ckd_add_int_PARM_3
                                     34 	.globl ___ckd_add_int_PARM_2
                                     35 	.globl ___ckd_add_ushort_PARM_3
                                     36 	.globl ___ckd_add_ushort_PARM_2
                                     37 	.globl ___ckd_add_short_PARM_3
                                     38 	.globl ___ckd_add_short_PARM_2
                                     39 	.globl ___ckd_add_uchar_PARM_3
                                     40 	.globl ___ckd_add_uchar_PARM_2
                                     41 	.globl ___ckd_add_schar_PARM_3
                                     42 	.globl ___ckd_add_schar_PARM_2
                                     43 	.globl ___ckd_add_schar
                                     44 	.globl ___ckd_add_uchar
                                     45 	.globl ___ckd_add_short
                                     46 	.globl ___ckd_add_ushort
                                     47 	.globl ___ckd_add_int
                                     48 	.globl ___ckd_add_uint
                                     49 	.globl ___ckd_add_long
                                     50 	.globl ___ckd_add_ulong
                                     51 ;--------------------------------------------------------
                                     52 ; ZP ram data
                                     53 ;--------------------------------------------------------
                                     54 	.area ZP      (PAG)
                                     55 ;--------------------------------------------------------
                                     56 ; overlayable items in ram
                                     57 ;--------------------------------------------------------
                                     58 	.area	OSEG    (PAG, OVR)
      000000                         59 ___ckd_add_schar_sloc0_1_0:
      000000                         60 	.ds 8
      000008                         61 ___ckd_add_schar_sloc1_1_0:
      000008                         62 	.ds 8
                                     63 	.area	OSEG    (PAG, OVR)
      000000                         64 ___ckd_add_uchar_sloc0_1_0:
      000000                         65 	.ds 8
      000008                         66 ___ckd_add_uchar_sloc1_1_0:
      000008                         67 	.ds 8
                                     68 	.area	OSEG    (PAG, OVR)
      000000                         69 ___ckd_add_short_sloc0_1_0:
      000000                         70 	.ds 8
      000008                         71 ___ckd_add_short_sloc1_1_0:
      000008                         72 	.ds 8
                                     73 	.area	OSEG    (PAG, OVR)
      000000                         74 ___ckd_add_ushort_sloc0_1_0:
      000000                         75 	.ds 8
      000008                         76 ___ckd_add_ushort_sloc1_1_0:
      000008                         77 	.ds 8
                                     78 	.area	OSEG    (PAG, OVR)
      000000                         79 ___ckd_add_int_sloc0_1_0:
      000000                         80 	.ds 8
      000008                         81 ___ckd_add_int_sloc1_1_0:
      000008                         82 	.ds 8
                                     83 	.area	OSEG    (PAG, OVR)
      000000                         84 ___ckd_add_uint_sloc0_1_0:
      000000                         85 	.ds 8
      000008                         86 ___ckd_add_uint_sloc1_1_0:
      000008                         87 	.ds 8
                                     88 	.area	OSEG    (PAG, OVR)
      000000                         89 ___ckd_add_long_sloc0_1_0:
      000000                         90 	.ds 8
      000008                         91 ___ckd_add_long_sloc1_1_0:
      000008                         92 	.ds 4
      00000C                         93 ___ckd_add_long_sloc2_1_0:
      00000C                         94 	.ds 8
                                     95 	.area	OSEG    (PAG, OVR)
      000000                         96 ___ckd_add_ulong_sloc0_1_0:
      000000                         97 	.ds 8
      000008                         98 ___ckd_add_ulong_sloc1_1_0:
      000008                         99 	.ds 4
      00000C                        100 ___ckd_add_ulong_sloc2_1_0:
      00000C                        101 	.ds 8
                                    102 ;--------------------------------------------------------
                                    103 ; uninitialized external ram data
                                    104 ;--------------------------------------------------------
                                    105 	.area BSS
      000000                        106 ___ckd_add_schar_PARM_2:
      000000                        107 	.ds 8
      000008                        108 ___ckd_add_schar_PARM_3:
      000008                        109 	.ds 8
      000010                        110 ___ckd_add_schar_r_10000_9:
      000010                        111 	.ds 2
      000012                        112 ___ckd_add_uchar_PARM_2:
      000012                        113 	.ds 8
      00001A                        114 ___ckd_add_uchar_PARM_3:
      00001A                        115 	.ds 8
      000022                        116 ___ckd_add_uchar_r_10000_11:
      000022                        117 	.ds 2
      000024                        118 ___ckd_add_short_PARM_2:
      000024                        119 	.ds 8
      00002C                        120 ___ckd_add_short_PARM_3:
      00002C                        121 	.ds 8
      000034                        122 ___ckd_add_short_r_10000_13:
      000034                        123 	.ds 2
      000036                        124 ___ckd_add_ushort_PARM_2:
      000036                        125 	.ds 8
      00003E                        126 ___ckd_add_ushort_PARM_3:
      00003E                        127 	.ds 8
      000046                        128 ___ckd_add_ushort_r_10000_15:
      000046                        129 	.ds 2
      000048                        130 ___ckd_add_int_PARM_2:
      000048                        131 	.ds 8
      000050                        132 ___ckd_add_int_PARM_3:
      000050                        133 	.ds 8
      000058                        134 ___ckd_add_int_r_10000_17:
      000058                        135 	.ds 2
      00005A                        136 ___ckd_add_uint_PARM_2:
      00005A                        137 	.ds 8
      000062                        138 ___ckd_add_uint_PARM_3:
      000062                        139 	.ds 8
      00006A                        140 ___ckd_add_uint_r_10000_19:
      00006A                        141 	.ds 2
      00006C                        142 ___ckd_add_long_PARM_2:
      00006C                        143 	.ds 8
      000074                        144 ___ckd_add_long_PARM_3:
      000074                        145 	.ds 8
      00007C                        146 ___ckd_add_long_r_10000_21:
      00007C                        147 	.ds 2
      00007E                        148 ___ckd_add_ulong_PARM_2:
      00007E                        149 	.ds 8
      000086                        150 ___ckd_add_ulong_PARM_3:
      000086                        151 	.ds 8
      00008E                        152 ___ckd_add_ulong_r_10000_23:
      00008E                        153 	.ds 2
                                    154 ;--------------------------------------------------------
                                    155 ; absolute external ram data
                                    156 ;--------------------------------------------------------
                                    157 	.area DABS    (ABS)
                                    158 ;--------------------------------------------------------
                                    159 ; initialized external ram data
                                    160 ;--------------------------------------------------------
                                    161 	.area DATA
                                    162 ;--------------------------------------------------------
                                    163 ; global & static initialisations
                                    164 ;--------------------------------------------------------
                                    165 	.area _CODE
                                    166 	.area GSINIT
                                    167 	.area GSFINAL
                                    168 	.area GSINIT
                                    169 ;--------------------------------------------------------
                                    170 ; Home
                                    171 ;--------------------------------------------------------
                                    172 	.area _CODE
                                    173 	.area _CODE
                                    174 ;--------------------------------------------------------
                                    175 ; code
                                    176 ;--------------------------------------------------------
                                    177 	.area CODE
                                    178 ;------------------------------------------------------------
                                    179 ;Allocation info for local variables in function '__ckd_add_schar'
                                    180 ;------------------------------------------------------------
                                    181 ;a             Allocated with name '___ckd_add_schar_PARM_2'
                                    182 ;b             Allocated with name '___ckd_add_schar_PARM_3'
                                    183 ;r             Allocated with name '___ckd_add_schar_r_10000_9'
                                    184 ;result        Allocated with name '___ckd_add_schar_result_10000_10'
                                    185 ;sloc0         Allocated with name '___ckd_add_schar_sloc0_1_0'
                                    186 ;sloc1         Allocated with name '___ckd_add_schar_sloc1_1_0'
                                    187 ;------------------------------------------------------------
                                    188 ;	./../../include/stdckdint.h: 52: inline _Bool __ckd_add_schar __CKD_DEFAULT_IMPL(signed char, +)
                                    189 ;	genLabel
                                    190 ;	Raw cost for generated ic 0 : (0, 0.000000) count=1.000000
                                    191 ;	-----------------------------------------
                                    192 ;	 function __ckd_add_schar
                                    193 ;	-----------------------------------------
                                    194 ;	Register assignment might be sub-optimal.
                                    195 ;	Stack space usage: 0 bytes.
      000000                        196 ___ckd_add_schar:
                                    197 ;	Raw cost for generated ic 1 : (0, 0.000000) count=1.000000
                                    198 ;	genReceive
      000000 8Dr10r00         [ 4]  199 	sta	___ckd_add_schar_r_10000_9
      000003 8Er11r00         [ 4]  200 	stx	(___ckd_add_schar_r_10000_9 + 1)
                                    201 ;	Raw cost for generated ic 2 : (6, 8.000000) count=1.000000
                                    202 ;	genPlus
      000006 ADr00r00         [ 4]  203 	lda	___ckd_add_schar_PARM_2
      000009 18               [ 2]  204 	clc
      00000A 6Dr08r00         [ 5]  205 	adc	___ckd_add_schar_PARM_3
      00000D 85*00            [ 3]  206 	sta	*___ckd_add_schar_sloc0_1_0
      00000F ADr01r00         [ 4]  207 	lda	(___ckd_add_schar_PARM_2 + 1)
      000012 6Dr09r00         [ 5]  208 	adc	(___ckd_add_schar_PARM_3 + 1)
      000015 85*01            [ 3]  209 	sta	*(___ckd_add_schar_sloc0_1_0 + 1)
      000017 ADr02r00         [ 4]  210 	lda	(___ckd_add_schar_PARM_2 + 2)
      00001A 6Dr0Ar00         [ 5]  211 	adc	(___ckd_add_schar_PARM_3 + 2)
      00001D 85*02            [ 3]  212 	sta	*(___ckd_add_schar_sloc0_1_0 + 2)
      00001F ADr03r00         [ 4]  213 	lda	(___ckd_add_schar_PARM_2 + 3)
      000022 6Dr0Br00         [ 5]  214 	adc	(___ckd_add_schar_PARM_3 + 3)
      000025 85*03            [ 3]  215 	sta	*(___ckd_add_schar_sloc0_1_0 + 3)
      000027 ADr04r00         [ 4]  216 	lda	(___ckd_add_schar_PARM_2 + 4)
      00002A 6Dr0Cr00         [ 5]  217 	adc	(___ckd_add_schar_PARM_3 + 4)
      00002D 85*04            [ 3]  218 	sta	*(___ckd_add_schar_sloc0_1_0 + 4)
      00002F ADr05r00         [ 4]  219 	lda	(___ckd_add_schar_PARM_2 + 5)
      000032 6Dr0Dr00         [ 5]  220 	adc	(___ckd_add_schar_PARM_3 + 5)
      000035 85*05            [ 3]  221 	sta	*(___ckd_add_schar_sloc0_1_0 + 5)
      000037 ADr06r00         [ 4]  222 	lda	(___ckd_add_schar_PARM_2 + 6)
      00003A 6Dr0Er00         [ 5]  223 	adc	(___ckd_add_schar_PARM_3 + 6)
      00003D 85*06            [ 3]  224 	sta	*(___ckd_add_schar_sloc0_1_0 + 6)
      00003F ADr07r00         [ 4]  225 	lda	(___ckd_add_schar_PARM_2 + 7)
      000042 6Dr0Fr00         [ 5]  226 	adc	(___ckd_add_schar_PARM_3 + 7)
      000045 85*07            [ 3]  227 	sta	*(___ckd_add_schar_sloc0_1_0 + 7)
                                    228 ;	Raw cost for generated ic 3 : (65, 90.000000) count=1.000000
                                    229 ;	genCast
                                    230 ;	genCopy
                                    231 ;	Raw cost for generated ic 6 : (2, 3.000000) count=1.000000
                                    232 ;	genPointerSet
                                    233 ;	  setupDPTR - off=0 remat=(null) savea=0
      000047 AEr10r00         [ 4]  234 	ldx	___ckd_add_schar_r_10000_9
      00004A 86*00            [ 3]  235 	stx	*(DPTR+0)
      00004C AEr11r00         [ 4]  236 	ldx	(___ckd_add_schar_r_10000_9 + 1)
      00004F 86*01            [ 3]  237 	stx	*(DPTR+1)
      000051 A6*00            [ 3]  238 	ldx	*(___ckd_add_schar_sloc0_1_0+0)
      000053 8A               [ 2]  239 	txa
      000054 A0 00            [ 2]  240 	ldy	#0x00
      000056 91*00            [ 6]  241 	sta	[DPTR],y
      000058 A6*00            [ 3]  242 	ldx	*(___ckd_add_schar_sloc0_1_0+0)
                                    243 ;	Raw cost for generated ic 7 : (21, 32.000000) count=1.000000
                                    244 ;	genCast
      00005A 8A               [ 2]  245 	txa
      00005B 85*08            [ 3]  246 	sta	*___ckd_add_schar_sloc1_1_0
      00005D 0A               [ 2]  247 	asl	a
      00005E 98               [ 2]  248 	tya
      00005F 69 FF            [ 3]  249 	adc	#0xff
      000061 49 FF            [ 2]  250 	eor	#0xff
      000063 85*09            [ 3]  251 	sta	*(___ckd_add_schar_sloc1_1_0 + 1)
      000065 85*0A            [ 3]  252 	sta	*(___ckd_add_schar_sloc1_1_0 + 2)
      000067 85*0B            [ 3]  253 	sta	*(___ckd_add_schar_sloc1_1_0 + 3)
      000069 85*0C            [ 3]  254 	sta	*(___ckd_add_schar_sloc1_1_0 + 4)
      00006B 85*0D            [ 3]  255 	sta	*(___ckd_add_schar_sloc1_1_0 + 5)
      00006D 85*0E            [ 3]  256 	sta	*(___ckd_add_schar_sloc1_1_0 + 6)
      00006F 85*0F            [ 3]  257 	sta	*(___ckd_add_schar_sloc1_1_0 + 7)
                                    258 ;	Raw cost for generated ic 10 : (23, 34.000000) count=1.000000
                                    259 ;	genCmpEQorNE
      000071 A5*08            [ 3]  260 	lda	*___ckd_add_schar_sloc1_1_0
      000073 C5*00            [ 3]  261 	cmp	*___ckd_add_schar_sloc0_1_0
      000075 D0 2A            [ 4]  262 	bne	00104$
      000077 A5*09            [ 3]  263 	lda	*(___ckd_add_schar_sloc1_1_0 + 1)
      000079 C5*01            [ 3]  264 	cmp	*(___ckd_add_schar_sloc0_1_0 + 1)
      00007B D0 24            [ 4]  265 	bne	00104$
      00007D A5*0A            [ 3]  266 	lda	*(___ckd_add_schar_sloc1_1_0 + 2)
      00007F C5*02            [ 3]  267 	cmp	*(___ckd_add_schar_sloc0_1_0 + 2)
      000081 D0 1E            [ 4]  268 	bne	00104$
      000083 A5*0B            [ 3]  269 	lda	*(___ckd_add_schar_sloc1_1_0 + 3)
      000085 C5*03            [ 3]  270 	cmp	*(___ckd_add_schar_sloc0_1_0 + 3)
      000087 D0 18            [ 4]  271 	bne	00104$
      000089 A5*0C            [ 3]  272 	lda	*(___ckd_add_schar_sloc1_1_0 + 4)
      00008B C5*04            [ 3]  273 	cmp	*(___ckd_add_schar_sloc0_1_0 + 4)
      00008D D0 12            [ 4]  274 	bne	00104$
      00008F A5*0D            [ 3]  275 	lda	*(___ckd_add_schar_sloc1_1_0 + 5)
      000091 C5*05            [ 3]  276 	cmp	*(___ckd_add_schar_sloc0_1_0 + 5)
      000093 D0 0C            [ 4]  277 	bne	00104$
      000095 A5*0E            [ 3]  278 	lda	*(___ckd_add_schar_sloc1_1_0 + 6)
      000097 C5*06            [ 3]  279 	cmp	*(___ckd_add_schar_sloc0_1_0 + 6)
      000099 D0 06            [ 4]  280 	bne	00104$
      00009B A5*0F            [ 3]  281 	lda	*(___ckd_add_schar_sloc1_1_0 + 7)
      00009D C5*07            [ 3]  282 	cmp	*(___ckd_add_schar_sloc0_1_0 + 7)
      00009F F0 03            [ 4]  283 	beq	00112$
      0000A1                        284 00104$:
      0000A1 98               [ 2]  285 	tya
      0000A2 80 02            [ 4]  286 	bra	00111$
      0000A4                        287 00112$:
      0000A4 A9 01            [ 2]  288 	lda	#0x01
      0000A6                        289 00111$:
                                    290 ;	Raw cost for generated ic 11 : (74, 96.399994) count=1.000000
                                    291 ;	genNot
      0000A6 49 01            [ 2]  292 	eor	#0x01
                                    293 ;	Raw cost for generated ic 12 : (2, 2.000000) count=1.000000
                                    294 ;	genRet
                                    295 ;	Raw cost for generated ic 13 : (0, 0.000000) count=1.000000
                                    296 ;	genLabel
                                    297 ;	Raw cost for generated ic 14 : (0, 0.000000) count=1.000000
                                    298 ;	genEndFunction
      0000A8 60               [ 6]  299 	rts
                                    300 ;	Raw cost for generated ic 15 : (1, 6.000000) count=1.000000
                                    301 ;------------------------------------------------------------
                                    302 ;Allocation info for local variables in function '__ckd_add_uchar'
                                    303 ;------------------------------------------------------------
                                    304 ;a             Allocated with name '___ckd_add_uchar_PARM_2'
                                    305 ;b             Allocated with name '___ckd_add_uchar_PARM_3'
                                    306 ;r             Allocated with name '___ckd_add_uchar_r_10000_11'
                                    307 ;result        Allocated with name '___ckd_add_uchar_result_10000_12'
                                    308 ;sloc0         Allocated with name '___ckd_add_uchar_sloc0_1_0'
                                    309 ;sloc1         Allocated with name '___ckd_add_uchar_sloc1_1_0'
                                    310 ;------------------------------------------------------------
                                    311 ;	./../../include/stdckdint.h: 53: inline _Bool __ckd_add_uchar __CKD_DEFAULT_IMPL(unsigned char, +)
                                    312 ;	genLabel
                                    313 ;	Raw cost for generated ic 0 : (0, 0.000000) count=1.000000
                                    314 ;	-----------------------------------------
                                    315 ;	 function __ckd_add_uchar
                                    316 ;	-----------------------------------------
                                    317 ;	Register assignment might be sub-optimal.
                                    318 ;	Stack space usage: 0 bytes.
      0000A9                        319 ___ckd_add_uchar:
                                    320 ;	Raw cost for generated ic 1 : (0, 0.000000) count=1.000000
                                    321 ;	genReceive
      0000A9 8Dr22r00         [ 4]  322 	sta	___ckd_add_uchar_r_10000_11
      0000AC 8Er23r00         [ 4]  323 	stx	(___ckd_add_uchar_r_10000_11 + 1)
                                    324 ;	Raw cost for generated ic 2 : (6, 8.000000) count=1.000000
                                    325 ;	genPlus
      0000AF ADr12r00         [ 4]  326 	lda	___ckd_add_uchar_PARM_2
      0000B2 18               [ 2]  327 	clc
      0000B3 6Dr1Ar00         [ 5]  328 	adc	___ckd_add_uchar_PARM_3
      0000B6 85*00            [ 3]  329 	sta	*___ckd_add_uchar_sloc0_1_0
      0000B8 ADr13r00         [ 4]  330 	lda	(___ckd_add_uchar_PARM_2 + 1)
      0000BB 6Dr1Br00         [ 5]  331 	adc	(___ckd_add_uchar_PARM_3 + 1)
      0000BE 85*01            [ 3]  332 	sta	*(___ckd_add_uchar_sloc0_1_0 + 1)
      0000C0 ADr14r00         [ 4]  333 	lda	(___ckd_add_uchar_PARM_2 + 2)
      0000C3 6Dr1Cr00         [ 5]  334 	adc	(___ckd_add_uchar_PARM_3 + 2)
      0000C6 85*02            [ 3]  335 	sta	*(___ckd_add_uchar_sloc0_1_0 + 2)
      0000C8 ADr15r00         [ 4]  336 	lda	(___ckd_add_uchar_PARM_2 + 3)
      0000CB 6Dr1Dr00         [ 5]  337 	adc	(___ckd_add_uchar_PARM_3 + 3)
      0000CE 85*03            [ 3]  338 	sta	*(___ckd_add_uchar_sloc0_1_0 + 3)
      0000D0 ADr16r00         [ 4]  339 	lda	(___ckd_add_uchar_PARM_2 + 4)
      0000D3 6Dr1Er00         [ 5]  340 	adc	(___ckd_add_uchar_PARM_3 + 4)
      0000D6 85*04            [ 3]  341 	sta	*(___ckd_add_uchar_sloc0_1_0 + 4)
      0000D8 ADr17r00         [ 4]  342 	lda	(___ckd_add_uchar_PARM_2 + 5)
      0000DB 6Dr1Fr00         [ 5]  343 	adc	(___ckd_add_uchar_PARM_3 + 5)
      0000DE 85*05            [ 3]  344 	sta	*(___ckd_add_uchar_sloc0_1_0 + 5)
      0000E0 ADr18r00         [ 4]  345 	lda	(___ckd_add_uchar_PARM_2 + 6)
      0000E3 6Dr20r00         [ 5]  346 	adc	(___ckd_add_uchar_PARM_3 + 6)
      0000E6 85*06            [ 3]  347 	sta	*(___ckd_add_uchar_sloc0_1_0 + 6)
      0000E8 ADr19r00         [ 4]  348 	lda	(___ckd_add_uchar_PARM_2 + 7)
      0000EB 6Dr21r00         [ 5]  349 	adc	(___ckd_add_uchar_PARM_3 + 7)
      0000EE 85*07            [ 3]  350 	sta	*(___ckd_add_uchar_sloc0_1_0 + 7)
                                    351 ;	Raw cost for generated ic 3 : (65, 90.000000) count=1.000000
                                    352 ;	genCast
                                    353 ;	genCopy
                                    354 ;	Raw cost for generated ic 6 : (2, 3.000000) count=1.000000
                                    355 ;	genPointerSet
                                    356 ;	  setupDPTR - off=0 remat=(null) savea=0
      0000F0 AEr22r00         [ 4]  357 	ldx	___ckd_add_uchar_r_10000_11
      0000F3 86*00            [ 3]  358 	stx	*(DPTR+0)
      0000F5 AEr23r00         [ 4]  359 	ldx	(___ckd_add_uchar_r_10000_11 + 1)
      0000F8 86*01            [ 3]  360 	stx	*(DPTR+1)
      0000FA A6*00            [ 3]  361 	ldx	*(___ckd_add_uchar_sloc0_1_0+0)
      0000FC 8A               [ 2]  362 	txa
      0000FD A0 00            [ 2]  363 	ldy	#0x00
      0000FF 91*00            [ 6]  364 	sta	[DPTR],y
      000101 A6*00            [ 3]  365 	ldx	*(___ckd_add_uchar_sloc0_1_0+0)
                                    366 ;	Raw cost for generated ic 7 : (21, 32.000000) count=1.000000
                                    367 ;	genCast
                                    368 ;	genCopy
      000103 84*0F            [ 3]  369 	sty	*(___ckd_add_uchar_sloc1_1_0 + 7)
      000105 84*0E            [ 3]  370 	sty	*(___ckd_add_uchar_sloc1_1_0 + 6)
      000107 84*0D            [ 3]  371 	sty	*(___ckd_add_uchar_sloc1_1_0 + 5)
      000109 84*0C            [ 3]  372 	sty	*(___ckd_add_uchar_sloc1_1_0 + 4)
      00010B 84*0B            [ 3]  373 	sty	*(___ckd_add_uchar_sloc1_1_0 + 3)
      00010D 84*0A            [ 3]  374 	sty	*(___ckd_add_uchar_sloc1_1_0 + 2)
      00010F 84*09            [ 3]  375 	sty	*(___ckd_add_uchar_sloc1_1_0 + 1)
      000111 86*08            [ 3]  376 	stx	*___ckd_add_uchar_sloc1_1_0
                                    377 ;	Raw cost for generated ic 10 : (16, 24.000000) count=1.000000
                                    378 ;	genCmpEQorNE
      000113 E4*00            [ 3]  379 	cpx	*___ckd_add_uchar_sloc0_1_0
      000115 D0 2A            [ 4]  380 	bne	00104$
      000117 A5*09            [ 3]  381 	lda	*(___ckd_add_uchar_sloc1_1_0 + 1)
      000119 C5*01            [ 3]  382 	cmp	*(___ckd_add_uchar_sloc0_1_0 + 1)
      00011B D0 24            [ 4]  383 	bne	00104$
      00011D A5*0A            [ 3]  384 	lda	*(___ckd_add_uchar_sloc1_1_0 + 2)
      00011F C5*02            [ 3]  385 	cmp	*(___ckd_add_uchar_sloc0_1_0 + 2)
      000121 D0 1E            [ 4]  386 	bne	00104$
      000123 A5*0B            [ 3]  387 	lda	*(___ckd_add_uchar_sloc1_1_0 + 3)
      000125 C5*03            [ 3]  388 	cmp	*(___ckd_add_uchar_sloc0_1_0 + 3)
      000127 D0 18            [ 4]  389 	bne	00104$
      000129 A5*0C            [ 3]  390 	lda	*(___ckd_add_uchar_sloc1_1_0 + 4)
      00012B C5*04            [ 3]  391 	cmp	*(___ckd_add_uchar_sloc0_1_0 + 4)
      00012D D0 12            [ 4]  392 	bne	00104$
      00012F A5*0D            [ 3]  393 	lda	*(___ckd_add_uchar_sloc1_1_0 + 5)
      000131 C5*05            [ 3]  394 	cmp	*(___ckd_add_uchar_sloc0_1_0 + 5)
      000133 D0 0C            [ 4]  395 	bne	00104$
      000135 A5*0E            [ 3]  396 	lda	*(___ckd_add_uchar_sloc1_1_0 + 6)
      000137 C5*06            [ 3]  397 	cmp	*(___ckd_add_uchar_sloc0_1_0 + 6)
      000139 D0 06            [ 4]  398 	bne	00104$
      00013B A5*0F            [ 3]  399 	lda	*(___ckd_add_uchar_sloc1_1_0 + 7)
      00013D C5*07            [ 3]  400 	cmp	*(___ckd_add_uchar_sloc0_1_0 + 7)
      00013F F0 03            [ 4]  401 	beq	00112$
      000141                        402 00104$:
      000141 98               [ 2]  403 	tya
      000142 80 02            [ 4]  404 	bra	00111$
      000144                        405 00112$:
      000144 A9 01            [ 2]  406 	lda	#0x01
      000146                        407 00111$:
                                    408 ;	Raw cost for generated ic 11 : (72, 93.399994) count=1.000000
                                    409 ;	genNot
      000146 49 01            [ 2]  410 	eor	#0x01
                                    411 ;	Raw cost for generated ic 12 : (2, 2.000000) count=1.000000
                                    412 ;	genRet
                                    413 ;	Raw cost for generated ic 13 : (0, 0.000000) count=1.000000
                                    414 ;	genLabel
                                    415 ;	Raw cost for generated ic 14 : (0, 0.000000) count=1.000000
                                    416 ;	genEndFunction
      000148 60               [ 6]  417 	rts
                                    418 ;	Raw cost for generated ic 15 : (1, 6.000000) count=1.000000
                                    419 ;------------------------------------------------------------
                                    420 ;Allocation info for local variables in function '__ckd_add_short'
                                    421 ;------------------------------------------------------------
                                    422 ;a             Allocated with name '___ckd_add_short_PARM_2'
                                    423 ;b             Allocated with name '___ckd_add_short_PARM_3'
                                    424 ;r             Allocated with name '___ckd_add_short_r_10000_13'
                                    425 ;result        Allocated with name '___ckd_add_short_result_10000_14'
                                    426 ;sloc0         Allocated with name '___ckd_add_short_sloc0_1_0'
                                    427 ;sloc1         Allocated with name '___ckd_add_short_sloc1_1_0'
                                    428 ;------------------------------------------------------------
                                    429 ;	./../../include/stdckdint.h: 54: inline _Bool __ckd_add_short __CKD_DEFAULT_IMPL(short, +)
                                    430 ;	genLabel
                                    431 ;	Raw cost for generated ic 0 : (0, 0.000000) count=1.000000
                                    432 ;	-----------------------------------------
                                    433 ;	 function __ckd_add_short
                                    434 ;	-----------------------------------------
                                    435 ;	Register assignment might be sub-optimal.
                                    436 ;	Stack space usage: 0 bytes.
      000149                        437 ___ckd_add_short:
                                    438 ;	Raw cost for generated ic 1 : (0, 0.000000) count=1.000000
                                    439 ;	genReceive
      000149 8Dr34r00         [ 4]  440 	sta	___ckd_add_short_r_10000_13
      00014C 8Er35r00         [ 4]  441 	stx	(___ckd_add_short_r_10000_13 + 1)
                                    442 ;	Raw cost for generated ic 2 : (6, 8.000000) count=1.000000
                                    443 ;	genPlus
      00014F ADr24r00         [ 4]  444 	lda	___ckd_add_short_PARM_2
      000152 18               [ 2]  445 	clc
      000153 6Dr2Cr00         [ 5]  446 	adc	___ckd_add_short_PARM_3
      000156 85*00            [ 3]  447 	sta	*___ckd_add_short_sloc0_1_0
      000158 ADr25r00         [ 4]  448 	lda	(___ckd_add_short_PARM_2 + 1)
      00015B 6Dr2Dr00         [ 5]  449 	adc	(___ckd_add_short_PARM_3 + 1)
      00015E 85*01            [ 3]  450 	sta	*(___ckd_add_short_sloc0_1_0 + 1)
      000160 ADr26r00         [ 4]  451 	lda	(___ckd_add_short_PARM_2 + 2)
      000163 6Dr2Er00         [ 5]  452 	adc	(___ckd_add_short_PARM_3 + 2)
      000166 85*02            [ 3]  453 	sta	*(___ckd_add_short_sloc0_1_0 + 2)
      000168 ADr27r00         [ 4]  454 	lda	(___ckd_add_short_PARM_2 + 3)
      00016B 6Dr2Fr00         [ 5]  455 	adc	(___ckd_add_short_PARM_3 + 3)
      00016E 85*03            [ 3]  456 	sta	*(___ckd_add_short_sloc0_1_0 + 3)
      000170 ADr28r00         [ 4]  457 	lda	(___ckd_add_short_PARM_2 + 4)
      000173 6Dr30r00         [ 5]  458 	adc	(___ckd_add_short_PARM_3 + 4)
      000176 85*04            [ 3]  459 	sta	*(___ckd_add_short_sloc0_1_0 + 4)
      000178 ADr29r00         [ 4]  460 	lda	(___ckd_add_short_PARM_2 + 5)
      00017B 6Dr31r00         [ 5]  461 	adc	(___ckd_add_short_PARM_3 + 5)
      00017E 85*05            [ 3]  462 	sta	*(___ckd_add_short_sloc0_1_0 + 5)
      000180 ADr2Ar00         [ 4]  463 	lda	(___ckd_add_short_PARM_2 + 6)
      000183 6Dr32r00         [ 5]  464 	adc	(___ckd_add_short_PARM_3 + 6)
      000186 85*06            [ 3]  465 	sta	*(___ckd_add_short_sloc0_1_0 + 6)
      000188 ADr2Br00         [ 4]  466 	lda	(___ckd_add_short_PARM_2 + 7)
      00018B 6Dr33r00         [ 5]  467 	adc	(___ckd_add_short_PARM_3 + 7)
      00018E 85*07            [ 3]  468 	sta	*(___ckd_add_short_sloc0_1_0 + 7)
                                    469 ;	Raw cost for generated ic 3 : (65, 90.000000) count=1.000000
                                    470 ;	genCast
                                    471 ;	genCopy
      000190 A6*01            [ 3]  472 	ldx	*(___ckd_add_short_sloc0_1_0 + 1)
      000192 A5*00            [ 3]  473 	lda	*___ckd_add_short_sloc0_1_0
                                    474 ;	Raw cost for generated ic 6 : (4, 6.000000) count=1.000000
                                    475 ;	genPointerSet
      000194 85*00            [ 3]  476 	sta	*(REGTEMP+0)
      000196 86*01            [ 3]  477 	stx	*(REGTEMP+1)
                                    478 ;	  setupDPTR - off=0 remat=(null) savea=0
      000198 AEr34r00         [ 4]  479 	ldx	___ckd_add_short_r_10000_13
      00019B 86*00            [ 3]  480 	stx	*(DPTR+0)
      00019D AEr35r00         [ 4]  481 	ldx	(___ckd_add_short_r_10000_13 + 1)
      0001A0 86*01            [ 3]  482 	stx	*(DPTR+1)
      0001A2 A5*00            [ 3]  483 	lda	*(REGTEMP+0)
      0001A4 A6*01            [ 3]  484 	ldx	*(REGTEMP+1)
      0001A6 A0 00            [ 2]  485 	ldy	#0x00
      0001A8 91*00            [ 6]  486 	sta	[DPTR],y
      0001AA 8A               [ 2]  487 	txa
      0001AB C8               [ 2]  488 	iny
      0001AC 91*00            [ 6]  489 	sta	[DPTR],y
      0001AE A6*01            [ 3]  490 	ldx	*(REGTEMP+1)
      0001B0 A5*00            [ 3]  491 	lda	*(REGTEMP+0)
                                    492 ;	Raw cost for generated ic 7 : (30, 50.000000) count=1.000000
                                    493 ;	genCast
      0001B2 85*08            [ 3]  494 	sta	*___ckd_add_short_sloc1_1_0
      0001B4 86*09            [ 3]  495 	stx	*(___ckd_add_short_sloc1_1_0 + 1)
      0001B6 E0 80            [ 2]  496 	cpx	#0x80
      0001B8 A2 00            [ 2]  497 	ldx	#0x00
      0001BA 90 01            [ 4]  498 	bcc	00103$
      0001BC CA               [ 2]  499 	dex
      0001BD                        500 00103$:
      0001BD 86*0A            [ 3]  501 	stx	*(___ckd_add_short_sloc1_1_0 + 2)
      0001BF 86*0B            [ 3]  502 	stx	*(___ckd_add_short_sloc1_1_0 + 3)
      0001C1 86*0C            [ 3]  503 	stx	*(___ckd_add_short_sloc1_1_0 + 4)
      0001C3 86*0D            [ 3]  504 	stx	*(___ckd_add_short_sloc1_1_0 + 5)
      0001C5 86*0E            [ 3]  505 	stx	*(___ckd_add_short_sloc1_1_0 + 6)
      0001C7 86*0F            [ 3]  506 	stx	*(___ckd_add_short_sloc1_1_0 + 7)
                                    507 ;	Raw cost for generated ic 10 : (23, 32.599998) count=1.000000
                                    508 ;	genCmpEQorNE
      0001C9 C5*00            [ 3]  509 	cmp	*___ckd_add_short_sloc0_1_0
      0001CB D0 28            [ 4]  510 	bne	00105$
      0001CD A5*09            [ 3]  511 	lda	*(___ckd_add_short_sloc1_1_0 + 1)
      0001CF C5*01            [ 3]  512 	cmp	*(___ckd_add_short_sloc0_1_0 + 1)
      0001D1 D0 22            [ 4]  513 	bne	00105$
      0001D3 A5*0A            [ 3]  514 	lda	*(___ckd_add_short_sloc1_1_0 + 2)
      0001D5 C5*02            [ 3]  515 	cmp	*(___ckd_add_short_sloc0_1_0 + 2)
      0001D7 D0 1C            [ 4]  516 	bne	00105$
      0001D9 A5*0B            [ 3]  517 	lda	*(___ckd_add_short_sloc1_1_0 + 3)
      0001DB C5*03            [ 3]  518 	cmp	*(___ckd_add_short_sloc0_1_0 + 3)
      0001DD D0 16            [ 4]  519 	bne	00105$
      0001DF A5*0C            [ 3]  520 	lda	*(___ckd_add_short_sloc1_1_0 + 4)
      0001E1 C5*04            [ 3]  521 	cmp	*(___ckd_add_short_sloc0_1_0 + 4)
      0001E3 D0 10            [ 4]  522 	bne	00105$
      0001E5 A5*0D            [ 3]  523 	lda	*(___ckd_add_short_sloc1_1_0 + 5)
      0001E7 C5*05            [ 3]  524 	cmp	*(___ckd_add_short_sloc0_1_0 + 5)
      0001E9 D0 0A            [ 4]  525 	bne	00105$
      0001EB A5*0E            [ 3]  526 	lda	*(___ckd_add_short_sloc1_1_0 + 6)
      0001ED C5*06            [ 3]  527 	cmp	*(___ckd_add_short_sloc0_1_0 + 6)
      0001EF D0 04            [ 4]  528 	bne	00105$
      0001F1 E4*07            [ 3]  529 	cpx	*(___ckd_add_short_sloc0_1_0 + 7)
      0001F3 F0 04            [ 4]  530 	beq	00113$
      0001F5                        531 00105$:
      0001F5 A9 00            [ 2]  532 	lda	#0x00
      0001F7 80 01            [ 4]  533 	bra	00112$
      0001F9                        534 00113$:
      0001F9 98               [ 2]  535 	tya
      0001FA                        536 00112$:
                                    537 ;	Raw cost for generated ic 11 : (70, 90.399994) count=1.000000
                                    538 ;	genNot
      0001FA 49 01            [ 2]  539 	eor	#0x01
                                    540 ;	Raw cost for generated ic 12 : (2, 2.000000) count=1.000000
                                    541 ;	genRet
                                    542 ;	Raw cost for generated ic 13 : (0, 0.000000) count=1.000000
                                    543 ;	genLabel
                                    544 ;	Raw cost for generated ic 14 : (0, 0.000000) count=1.000000
                                    545 ;	genEndFunction
      0001FC 60               [ 6]  546 	rts
                                    547 ;	Raw cost for generated ic 15 : (1, 6.000000) count=1.000000
                                    548 ;------------------------------------------------------------
                                    549 ;Allocation info for local variables in function '__ckd_add_ushort'
                                    550 ;------------------------------------------------------------
                                    551 ;a             Allocated with name '___ckd_add_ushort_PARM_2'
                                    552 ;b             Allocated with name '___ckd_add_ushort_PARM_3'
                                    553 ;r             Allocated with name '___ckd_add_ushort_r_10000_15'
                                    554 ;result        Allocated with name '___ckd_add_ushort_result_10000_16'
                                    555 ;sloc0         Allocated with name '___ckd_add_ushort_sloc0_1_0'
                                    556 ;sloc1         Allocated with name '___ckd_add_ushort_sloc1_1_0'
                                    557 ;------------------------------------------------------------
                                    558 ;	./../../include/stdckdint.h: 55: inline _Bool __ckd_add_ushort __CKD_DEFAULT_IMPL(unsigned short, +)
                                    559 ;	genLabel
                                    560 ;	Raw cost for generated ic 0 : (0, 0.000000) count=1.000000
                                    561 ;	-----------------------------------------
                                    562 ;	 function __ckd_add_ushort
                                    563 ;	-----------------------------------------
                                    564 ;	Register assignment might be sub-optimal.
                                    565 ;	Stack space usage: 0 bytes.
      0001FD                        566 ___ckd_add_ushort:
                                    567 ;	Raw cost for generated ic 1 : (0, 0.000000) count=1.000000
                                    568 ;	genReceive
      0001FD 8Dr46r00         [ 4]  569 	sta	___ckd_add_ushort_r_10000_15
      000200 8Er47r00         [ 4]  570 	stx	(___ckd_add_ushort_r_10000_15 + 1)
                                    571 ;	Raw cost for generated ic 2 : (6, 8.000000) count=1.000000
                                    572 ;	genPlus
      000203 ADr36r00         [ 4]  573 	lda	___ckd_add_ushort_PARM_2
      000206 18               [ 2]  574 	clc
      000207 6Dr3Er00         [ 5]  575 	adc	___ckd_add_ushort_PARM_3
      00020A 85*00            [ 3]  576 	sta	*___ckd_add_ushort_sloc0_1_0
      00020C ADr37r00         [ 4]  577 	lda	(___ckd_add_ushort_PARM_2 + 1)
      00020F 6Dr3Fr00         [ 5]  578 	adc	(___ckd_add_ushort_PARM_3 + 1)
      000212 85*01            [ 3]  579 	sta	*(___ckd_add_ushort_sloc0_1_0 + 1)
      000214 ADr38r00         [ 4]  580 	lda	(___ckd_add_ushort_PARM_2 + 2)
      000217 6Dr40r00         [ 5]  581 	adc	(___ckd_add_ushort_PARM_3 + 2)
      00021A 85*02            [ 3]  582 	sta	*(___ckd_add_ushort_sloc0_1_0 + 2)
      00021C ADr39r00         [ 4]  583 	lda	(___ckd_add_ushort_PARM_2 + 3)
      00021F 6Dr41r00         [ 5]  584 	adc	(___ckd_add_ushort_PARM_3 + 3)
      000222 85*03            [ 3]  585 	sta	*(___ckd_add_ushort_sloc0_1_0 + 3)
      000224 ADr3Ar00         [ 4]  586 	lda	(___ckd_add_ushort_PARM_2 + 4)
      000227 6Dr42r00         [ 5]  587 	adc	(___ckd_add_ushort_PARM_3 + 4)
      00022A 85*04            [ 3]  588 	sta	*(___ckd_add_ushort_sloc0_1_0 + 4)
      00022C ADr3Br00         [ 4]  589 	lda	(___ckd_add_ushort_PARM_2 + 5)
      00022F 6Dr43r00         [ 5]  590 	adc	(___ckd_add_ushort_PARM_3 + 5)
      000232 85*05            [ 3]  591 	sta	*(___ckd_add_ushort_sloc0_1_0 + 5)
      000234 ADr3Cr00         [ 4]  592 	lda	(___ckd_add_ushort_PARM_2 + 6)
      000237 6Dr44r00         [ 5]  593 	adc	(___ckd_add_ushort_PARM_3 + 6)
      00023A 85*06            [ 3]  594 	sta	*(___ckd_add_ushort_sloc0_1_0 + 6)
      00023C ADr3Dr00         [ 4]  595 	lda	(___ckd_add_ushort_PARM_2 + 7)
      00023F 6Dr45r00         [ 5]  596 	adc	(___ckd_add_ushort_PARM_3 + 7)
      000242 85*07            [ 3]  597 	sta	*(___ckd_add_ushort_sloc0_1_0 + 7)
                                    598 ;	Raw cost for generated ic 3 : (65, 90.000000) count=1.000000
                                    599 ;	genCast
                                    600 ;	genCopy
      000244 A6*01            [ 3]  601 	ldx	*(___ckd_add_ushort_sloc0_1_0 + 1)
      000246 A5*00            [ 3]  602 	lda	*___ckd_add_ushort_sloc0_1_0
                                    603 ;	Raw cost for generated ic 6 : (4, 6.000000) count=1.000000
                                    604 ;	genPointerSet
      000248 85*00            [ 3]  605 	sta	*(REGTEMP+0)
      00024A 86*01            [ 3]  606 	stx	*(REGTEMP+1)
                                    607 ;	  setupDPTR - off=0 remat=(null) savea=0
      00024C AEr46r00         [ 4]  608 	ldx	___ckd_add_ushort_r_10000_15
      00024F 86*00            [ 3]  609 	stx	*(DPTR+0)
      000251 AEr47r00         [ 4]  610 	ldx	(___ckd_add_ushort_r_10000_15 + 1)
      000254 86*01            [ 3]  611 	stx	*(DPTR+1)
      000256 A5*00            [ 3]  612 	lda	*(REGTEMP+0)
      000258 A6*01            [ 3]  613 	ldx	*(REGTEMP+1)
      00025A A0 00            [ 2]  614 	ldy	#0x00
      00025C 91*00            [ 6]  615 	sta	[DPTR],y
      00025E 8A               [ 2]  616 	txa
      00025F C8               [ 2]  617 	iny
      000260 91*00            [ 6]  618 	sta	[DPTR],y
      000262 A6*01            [ 3]  619 	ldx	*(REGTEMP+1)
      000264 A5*00            [ 3]  620 	lda	*(REGTEMP+0)
                                    621 ;	Raw cost for generated ic 7 : (30, 50.000000) count=1.000000
                                    622 ;	genCast
                                    623 ;	genCopy
      000266 64*0F            [ 3]  624 	stz	*(___ckd_add_ushort_sloc1_1_0 + 7)
      000268 64*0E            [ 3]  625 	stz	*(___ckd_add_ushort_sloc1_1_0 + 6)
      00026A 64*0D            [ 3]  626 	stz	*(___ckd_add_ushort_sloc1_1_0 + 5)
      00026C 64*0C            [ 3]  627 	stz	*(___ckd_add_ushort_sloc1_1_0 + 4)
      00026E 64*0B            [ 3]  628 	stz	*(___ckd_add_ushort_sloc1_1_0 + 3)
      000270 64*0A            [ 3]  629 	stz	*(___ckd_add_ushort_sloc1_1_0 + 2)
      000272 86*09            [ 3]  630 	stx	*(___ckd_add_ushort_sloc1_1_0 + 1)
      000274 85*08            [ 3]  631 	sta	*___ckd_add_ushort_sloc1_1_0
                                    632 ;	Raw cost for generated ic 10 : (22, 30.000000) count=1.000000
                                    633 ;	genCmpEQorNE
      000276 C5*00            [ 3]  634 	cmp	*___ckd_add_ushort_sloc0_1_0
      000278 D0 28            [ 4]  635 	bne	00104$
      00027A E4*01            [ 3]  636 	cpx	*(___ckd_add_ushort_sloc0_1_0 + 1)
      00027C D0 24            [ 4]  637 	bne	00104$
      00027E A5*0A            [ 3]  638 	lda	*(___ckd_add_ushort_sloc1_1_0 + 2)
      000280 C5*02            [ 3]  639 	cmp	*(___ckd_add_ushort_sloc0_1_0 + 2)
      000282 D0 1E            [ 4]  640 	bne	00104$
      000284 A5*0B            [ 3]  641 	lda	*(___ckd_add_ushort_sloc1_1_0 + 3)
      000286 C5*03            [ 3]  642 	cmp	*(___ckd_add_ushort_sloc0_1_0 + 3)
      000288 D0 18            [ 4]  643 	bne	00104$
      00028A A5*0C            [ 3]  644 	lda	*(___ckd_add_ushort_sloc1_1_0 + 4)
      00028C C5*04            [ 3]  645 	cmp	*(___ckd_add_ushort_sloc0_1_0 + 4)
      00028E D0 12            [ 4]  646 	bne	00104$
      000290 A5*0D            [ 3]  647 	lda	*(___ckd_add_ushort_sloc1_1_0 + 5)
      000292 C5*05            [ 3]  648 	cmp	*(___ckd_add_ushort_sloc0_1_0 + 5)
      000294 D0 0C            [ 4]  649 	bne	00104$
      000296 A5*0E            [ 3]  650 	lda	*(___ckd_add_ushort_sloc1_1_0 + 6)
      000298 C5*06            [ 3]  651 	cmp	*(___ckd_add_ushort_sloc0_1_0 + 6)
      00029A D0 06            [ 4]  652 	bne	00104$
      00029C A5*0F            [ 3]  653 	lda	*(___ckd_add_ushort_sloc1_1_0 + 7)
      00029E C5*07            [ 3]  654 	cmp	*(___ckd_add_ushort_sloc0_1_0 + 7)
      0002A0 F0 04            [ 4]  655 	beq	00112$
      0002A2                        656 00104$:
      0002A2 A9 00            [ 2]  657 	lda	#0x00
      0002A4 80 01            [ 4]  658 	bra	00111$
      0002A6                        659 00112$:
      0002A6 98               [ 2]  660 	tya
      0002A7                        661 00111$:
                                    662 ;	Raw cost for generated ic 11 : (70, 90.399994) count=1.000000
                                    663 ;	genNot
      0002A7 49 01            [ 2]  664 	eor	#0x01
                                    665 ;	Raw cost for generated ic 12 : (2, 2.000000) count=1.000000
                                    666 ;	genRet
                                    667 ;	Raw cost for generated ic 13 : (0, 0.000000) count=1.000000
                                    668 ;	genLabel
                                    669 ;	Raw cost for generated ic 14 : (0, 0.000000) count=1.000000
                                    670 ;	genEndFunction
      0002A9 60               [ 6]  671 	rts
                                    672 ;	Raw cost for generated ic 15 : (1, 6.000000) count=1.000000
                                    673 ;------------------------------------------------------------
                                    674 ;Allocation info for local variables in function '__ckd_add_int'
                                    675 ;------------------------------------------------------------
                                    676 ;a             Allocated with name '___ckd_add_int_PARM_2'
                                    677 ;b             Allocated with name '___ckd_add_int_PARM_3'
                                    678 ;r             Allocated with name '___ckd_add_int_r_10000_17'
                                    679 ;result        Allocated with name '___ckd_add_int_result_10000_18'
                                    680 ;sloc0         Allocated with name '___ckd_add_int_sloc0_1_0'
                                    681 ;sloc1         Allocated with name '___ckd_add_int_sloc1_1_0'
                                    682 ;------------------------------------------------------------
                                    683 ;	./../../include/stdckdint.h: 56: inline _Bool __ckd_add_int __CKD_DEFAULT_IMPL(int, +)
                                    684 ;	genLabel
                                    685 ;	Raw cost for generated ic 0 : (0, 0.000000) count=1.000000
                                    686 ;	-----------------------------------------
                                    687 ;	 function __ckd_add_int
                                    688 ;	-----------------------------------------
                                    689 ;	Register assignment might be sub-optimal.
                                    690 ;	Stack space usage: 0 bytes.
      0002AA                        691 ___ckd_add_int:
                                    692 ;	Raw cost for generated ic 1 : (0, 0.000000) count=1.000000
                                    693 ;	genReceive
      0002AA 8Dr58r00         [ 4]  694 	sta	___ckd_add_int_r_10000_17
      0002AD 8Er59r00         [ 4]  695 	stx	(___ckd_add_int_r_10000_17 + 1)
                                    696 ;	Raw cost for generated ic 2 : (6, 8.000000) count=1.000000
                                    697 ;	genPlus
      0002B0 ADr48r00         [ 4]  698 	lda	___ckd_add_int_PARM_2
      0002B3 18               [ 2]  699 	clc
      0002B4 6Dr50r00         [ 5]  700 	adc	___ckd_add_int_PARM_3
      0002B7 85*00            [ 3]  701 	sta	*___ckd_add_int_sloc0_1_0
      0002B9 ADr49r00         [ 4]  702 	lda	(___ckd_add_int_PARM_2 + 1)
      0002BC 6Dr51r00         [ 5]  703 	adc	(___ckd_add_int_PARM_3 + 1)
      0002BF 85*01            [ 3]  704 	sta	*(___ckd_add_int_sloc0_1_0 + 1)
      0002C1 ADr4Ar00         [ 4]  705 	lda	(___ckd_add_int_PARM_2 + 2)
      0002C4 6Dr52r00         [ 5]  706 	adc	(___ckd_add_int_PARM_3 + 2)
      0002C7 85*02            [ 3]  707 	sta	*(___ckd_add_int_sloc0_1_0 + 2)
      0002C9 ADr4Br00         [ 4]  708 	lda	(___ckd_add_int_PARM_2 + 3)
      0002CC 6Dr53r00         [ 5]  709 	adc	(___ckd_add_int_PARM_3 + 3)
      0002CF 85*03            [ 3]  710 	sta	*(___ckd_add_int_sloc0_1_0 + 3)
      0002D1 ADr4Cr00         [ 4]  711 	lda	(___ckd_add_int_PARM_2 + 4)
      0002D4 6Dr54r00         [ 5]  712 	adc	(___ckd_add_int_PARM_3 + 4)
      0002D7 85*04            [ 3]  713 	sta	*(___ckd_add_int_sloc0_1_0 + 4)
      0002D9 ADr4Dr00         [ 4]  714 	lda	(___ckd_add_int_PARM_2 + 5)
      0002DC 6Dr55r00         [ 5]  715 	adc	(___ckd_add_int_PARM_3 + 5)
      0002DF 85*05            [ 3]  716 	sta	*(___ckd_add_int_sloc0_1_0 + 5)
      0002E1 ADr4Er00         [ 4]  717 	lda	(___ckd_add_int_PARM_2 + 6)
      0002E4 6Dr56r00         [ 5]  718 	adc	(___ckd_add_int_PARM_3 + 6)
      0002E7 85*06            [ 3]  719 	sta	*(___ckd_add_int_sloc0_1_0 + 6)
      0002E9 ADr4Fr00         [ 4]  720 	lda	(___ckd_add_int_PARM_2 + 7)
      0002EC 6Dr57r00         [ 5]  721 	adc	(___ckd_add_int_PARM_3 + 7)
      0002EF 85*07            [ 3]  722 	sta	*(___ckd_add_int_sloc0_1_0 + 7)
                                    723 ;	Raw cost for generated ic 3 : (65, 90.000000) count=1.000000
                                    724 ;	genCast
                                    725 ;	genCopy
      0002F1 A6*01            [ 3]  726 	ldx	*(___ckd_add_int_sloc0_1_0 + 1)
      0002F3 A5*00            [ 3]  727 	lda	*___ckd_add_int_sloc0_1_0
                                    728 ;	Raw cost for generated ic 6 : (4, 6.000000) count=1.000000
                                    729 ;	genPointerSet
      0002F5 85*00            [ 3]  730 	sta	*(REGTEMP+0)
      0002F7 86*01            [ 3]  731 	stx	*(REGTEMP+1)
                                    732 ;	  setupDPTR - off=0 remat=(null) savea=0
      0002F9 AEr58r00         [ 4]  733 	ldx	___ckd_add_int_r_10000_17
      0002FC 86*00            [ 3]  734 	stx	*(DPTR+0)
      0002FE AEr59r00         [ 4]  735 	ldx	(___ckd_add_int_r_10000_17 + 1)
      000301 86*01            [ 3]  736 	stx	*(DPTR+1)
      000303 A5*00            [ 3]  737 	lda	*(REGTEMP+0)
      000305 A6*01            [ 3]  738 	ldx	*(REGTEMP+1)
      000307 A0 00            [ 2]  739 	ldy	#0x00
      000309 91*00            [ 6]  740 	sta	[DPTR],y
      00030B 8A               [ 2]  741 	txa
      00030C C8               [ 2]  742 	iny
      00030D 91*00            [ 6]  743 	sta	[DPTR],y
      00030F A6*01            [ 3]  744 	ldx	*(REGTEMP+1)
      000311 A5*00            [ 3]  745 	lda	*(REGTEMP+0)
                                    746 ;	Raw cost for generated ic 7 : (30, 50.000000) count=1.000000
                                    747 ;	genCast
      000313 85*08            [ 3]  748 	sta	*___ckd_add_int_sloc1_1_0
      000315 86*09            [ 3]  749 	stx	*(___ckd_add_int_sloc1_1_0 + 1)
      000317 E0 80            [ 2]  750 	cpx	#0x80
      000319 A2 00            [ 2]  751 	ldx	#0x00
      00031B 90 01            [ 4]  752 	bcc	00103$
      00031D CA               [ 2]  753 	dex
      00031E                        754 00103$:
      00031E 86*0A            [ 3]  755 	stx	*(___ckd_add_int_sloc1_1_0 + 2)
      000320 86*0B            [ 3]  756 	stx	*(___ckd_add_int_sloc1_1_0 + 3)
      000322 86*0C            [ 3]  757 	stx	*(___ckd_add_int_sloc1_1_0 + 4)
      000324 86*0D            [ 3]  758 	stx	*(___ckd_add_int_sloc1_1_0 + 5)
      000326 86*0E            [ 3]  759 	stx	*(___ckd_add_int_sloc1_1_0 + 6)
      000328 86*0F            [ 3]  760 	stx	*(___ckd_add_int_sloc1_1_0 + 7)
                                    761 ;	Raw cost for generated ic 10 : (23, 32.599998) count=1.000000
                                    762 ;	genCmpEQorNE
      00032A C5*00            [ 3]  763 	cmp	*___ckd_add_int_sloc0_1_0
      00032C D0 28            [ 4]  764 	bne	00105$
      00032E A5*09            [ 3]  765 	lda	*(___ckd_add_int_sloc1_1_0 + 1)
      000330 C5*01            [ 3]  766 	cmp	*(___ckd_add_int_sloc0_1_0 + 1)
      000332 D0 22            [ 4]  767 	bne	00105$
      000334 A5*0A            [ 3]  768 	lda	*(___ckd_add_int_sloc1_1_0 + 2)
      000336 C5*02            [ 3]  769 	cmp	*(___ckd_add_int_sloc0_1_0 + 2)
      000338 D0 1C            [ 4]  770 	bne	00105$
      00033A A5*0B            [ 3]  771 	lda	*(___ckd_add_int_sloc1_1_0 + 3)
      00033C C5*03            [ 3]  772 	cmp	*(___ckd_add_int_sloc0_1_0 + 3)
      00033E D0 16            [ 4]  773 	bne	00105$
      000340 A5*0C            [ 3]  774 	lda	*(___ckd_add_int_sloc1_1_0 + 4)
      000342 C5*04            [ 3]  775 	cmp	*(___ckd_add_int_sloc0_1_0 + 4)
      000344 D0 10            [ 4]  776 	bne	00105$
      000346 A5*0D            [ 3]  777 	lda	*(___ckd_add_int_sloc1_1_0 + 5)
      000348 C5*05            [ 3]  778 	cmp	*(___ckd_add_int_sloc0_1_0 + 5)
      00034A D0 0A            [ 4]  779 	bne	00105$
      00034C A5*0E            [ 3]  780 	lda	*(___ckd_add_int_sloc1_1_0 + 6)
      00034E C5*06            [ 3]  781 	cmp	*(___ckd_add_int_sloc0_1_0 + 6)
      000350 D0 04            [ 4]  782 	bne	00105$
      000352 E4*07            [ 3]  783 	cpx	*(___ckd_add_int_sloc0_1_0 + 7)
      000354 F0 04            [ 4]  784 	beq	00113$
      000356                        785 00105$:
      000356 A9 00            [ 2]  786 	lda	#0x00
      000358 80 01            [ 4]  787 	bra	00112$
      00035A                        788 00113$:
      00035A 98               [ 2]  789 	tya
      00035B                        790 00112$:
                                    791 ;	Raw cost for generated ic 11 : (70, 90.399994) count=1.000000
                                    792 ;	genNot
      00035B 49 01            [ 2]  793 	eor	#0x01
                                    794 ;	Raw cost for generated ic 12 : (2, 2.000000) count=1.000000
                                    795 ;	genRet
                                    796 ;	Raw cost for generated ic 13 : (0, 0.000000) count=1.000000
                                    797 ;	genLabel
                                    798 ;	Raw cost for generated ic 14 : (0, 0.000000) count=1.000000
                                    799 ;	genEndFunction
      00035D 60               [ 6]  800 	rts
                                    801 ;	Raw cost for generated ic 15 : (1, 6.000000) count=1.000000
                                    802 ;------------------------------------------------------------
                                    803 ;Allocation info for local variables in function '__ckd_add_uint'
                                    804 ;------------------------------------------------------------
                                    805 ;a             Allocated with name '___ckd_add_uint_PARM_2'
                                    806 ;b             Allocated with name '___ckd_add_uint_PARM_3'
                                    807 ;r             Allocated with name '___ckd_add_uint_r_10000_19'
                                    808 ;result        Allocated with name '___ckd_add_uint_result_10000_20'
                                    809 ;sloc0         Allocated with name '___ckd_add_uint_sloc0_1_0'
                                    810 ;sloc1         Allocated with name '___ckd_add_uint_sloc1_1_0'
                                    811 ;------------------------------------------------------------
                                    812 ;	./../../include/stdckdint.h: 57: inline _Bool __ckd_add_uint __CKD_DEFAULT_IMPL(unsigned int, +)
                                    813 ;	genLabel
                                    814 ;	Raw cost for generated ic 0 : (0, 0.000000) count=1.000000
                                    815 ;	-----------------------------------------
                                    816 ;	 function __ckd_add_uint
                                    817 ;	-----------------------------------------
                                    818 ;	Register assignment might be sub-optimal.
                                    819 ;	Stack space usage: 0 bytes.
      00035E                        820 ___ckd_add_uint:
                                    821 ;	Raw cost for generated ic 1 : (0, 0.000000) count=1.000000
                                    822 ;	genReceive
      00035E 8Dr6Ar00         [ 4]  823 	sta	___ckd_add_uint_r_10000_19
      000361 8Er6Br00         [ 4]  824 	stx	(___ckd_add_uint_r_10000_19 + 1)
                                    825 ;	Raw cost for generated ic 2 : (6, 8.000000) count=1.000000
                                    826 ;	genPlus
      000364 ADr5Ar00         [ 4]  827 	lda	___ckd_add_uint_PARM_2
      000367 18               [ 2]  828 	clc
      000368 6Dr62r00         [ 5]  829 	adc	___ckd_add_uint_PARM_3
      00036B 85*00            [ 3]  830 	sta	*___ckd_add_uint_sloc0_1_0
      00036D ADr5Br00         [ 4]  831 	lda	(___ckd_add_uint_PARM_2 + 1)
      000370 6Dr63r00         [ 5]  832 	adc	(___ckd_add_uint_PARM_3 + 1)
      000373 85*01            [ 3]  833 	sta	*(___ckd_add_uint_sloc0_1_0 + 1)
      000375 ADr5Cr00         [ 4]  834 	lda	(___ckd_add_uint_PARM_2 + 2)
      000378 6Dr64r00         [ 5]  835 	adc	(___ckd_add_uint_PARM_3 + 2)
      00037B 85*02            [ 3]  836 	sta	*(___ckd_add_uint_sloc0_1_0 + 2)
      00037D ADr5Dr00         [ 4]  837 	lda	(___ckd_add_uint_PARM_2 + 3)
      000380 6Dr65r00         [ 5]  838 	adc	(___ckd_add_uint_PARM_3 + 3)
      000383 85*03            [ 3]  839 	sta	*(___ckd_add_uint_sloc0_1_0 + 3)
      000385 ADr5Er00         [ 4]  840 	lda	(___ckd_add_uint_PARM_2 + 4)
      000388 6Dr66r00         [ 5]  841 	adc	(___ckd_add_uint_PARM_3 + 4)
      00038B 85*04            [ 3]  842 	sta	*(___ckd_add_uint_sloc0_1_0 + 4)
      00038D ADr5Fr00         [ 4]  843 	lda	(___ckd_add_uint_PARM_2 + 5)
      000390 6Dr67r00         [ 5]  844 	adc	(___ckd_add_uint_PARM_3 + 5)
      000393 85*05            [ 3]  845 	sta	*(___ckd_add_uint_sloc0_1_0 + 5)
      000395 ADr60r00         [ 4]  846 	lda	(___ckd_add_uint_PARM_2 + 6)
      000398 6Dr68r00         [ 5]  847 	adc	(___ckd_add_uint_PARM_3 + 6)
      00039B 85*06            [ 3]  848 	sta	*(___ckd_add_uint_sloc0_1_0 + 6)
      00039D ADr61r00         [ 4]  849 	lda	(___ckd_add_uint_PARM_2 + 7)
      0003A0 6Dr69r00         [ 5]  850 	adc	(___ckd_add_uint_PARM_3 + 7)
      0003A3 85*07            [ 3]  851 	sta	*(___ckd_add_uint_sloc0_1_0 + 7)
                                    852 ;	Raw cost for generated ic 3 : (65, 90.000000) count=1.000000
                                    853 ;	genCast
                                    854 ;	genCopy
      0003A5 A6*01            [ 3]  855 	ldx	*(___ckd_add_uint_sloc0_1_0 + 1)
      0003A7 A5*00            [ 3]  856 	lda	*___ckd_add_uint_sloc0_1_0
                                    857 ;	Raw cost for generated ic 6 : (4, 6.000000) count=1.000000
                                    858 ;	genPointerSet
      0003A9 85*00            [ 3]  859 	sta	*(REGTEMP+0)
      0003AB 86*01            [ 3]  860 	stx	*(REGTEMP+1)
                                    861 ;	  setupDPTR - off=0 remat=(null) savea=0
      0003AD AEr6Ar00         [ 4]  862 	ldx	___ckd_add_uint_r_10000_19
      0003B0 86*00            [ 3]  863 	stx	*(DPTR+0)
      0003B2 AEr6Br00         [ 4]  864 	ldx	(___ckd_add_uint_r_10000_19 + 1)
      0003B5 86*01            [ 3]  865 	stx	*(DPTR+1)
      0003B7 A5*00            [ 3]  866 	lda	*(REGTEMP+0)
      0003B9 A6*01            [ 3]  867 	ldx	*(REGTEMP+1)
      0003BB A0 00            [ 2]  868 	ldy	#0x00
      0003BD 91*00            [ 6]  869 	sta	[DPTR],y
      0003BF 8A               [ 2]  870 	txa
      0003C0 C8               [ 2]  871 	iny
      0003C1 91*00            [ 6]  872 	sta	[DPTR],y
      0003C3 A6*01            [ 3]  873 	ldx	*(REGTEMP+1)
      0003C5 A5*00            [ 3]  874 	lda	*(REGTEMP+0)
                                    875 ;	Raw cost for generated ic 7 : (30, 50.000000) count=1.000000
                                    876 ;	genCast
                                    877 ;	genCopy
      0003C7 64*0F            [ 3]  878 	stz	*(___ckd_add_uint_sloc1_1_0 + 7)
      0003C9 64*0E            [ 3]  879 	stz	*(___ckd_add_uint_sloc1_1_0 + 6)
      0003CB 64*0D            [ 3]  880 	stz	*(___ckd_add_uint_sloc1_1_0 + 5)
      0003CD 64*0C            [ 3]  881 	stz	*(___ckd_add_uint_sloc1_1_0 + 4)
      0003CF 64*0B            [ 3]  882 	stz	*(___ckd_add_uint_sloc1_1_0 + 3)
      0003D1 64*0A            [ 3]  883 	stz	*(___ckd_add_uint_sloc1_1_0 + 2)
      0003D3 86*09            [ 3]  884 	stx	*(___ckd_add_uint_sloc1_1_0 + 1)
      0003D5 85*08            [ 3]  885 	sta	*___ckd_add_uint_sloc1_1_0
                                    886 ;	Raw cost for generated ic 10 : (22, 30.000000) count=1.000000
                                    887 ;	genCmpEQorNE
      0003D7 C5*00            [ 3]  888 	cmp	*___ckd_add_uint_sloc0_1_0
      0003D9 D0 28            [ 4]  889 	bne	00104$
      0003DB E4*01            [ 3]  890 	cpx	*(___ckd_add_uint_sloc0_1_0 + 1)
      0003DD D0 24            [ 4]  891 	bne	00104$
      0003DF A5*0A            [ 3]  892 	lda	*(___ckd_add_uint_sloc1_1_0 + 2)
      0003E1 C5*02            [ 3]  893 	cmp	*(___ckd_add_uint_sloc0_1_0 + 2)
      0003E3 D0 1E            [ 4]  894 	bne	00104$
      0003E5 A5*0B            [ 3]  895 	lda	*(___ckd_add_uint_sloc1_1_0 + 3)
      0003E7 C5*03            [ 3]  896 	cmp	*(___ckd_add_uint_sloc0_1_0 + 3)
      0003E9 D0 18            [ 4]  897 	bne	00104$
      0003EB A5*0C            [ 3]  898 	lda	*(___ckd_add_uint_sloc1_1_0 + 4)
      0003ED C5*04            [ 3]  899 	cmp	*(___ckd_add_uint_sloc0_1_0 + 4)
      0003EF D0 12            [ 4]  900 	bne	00104$
      0003F1 A5*0D            [ 3]  901 	lda	*(___ckd_add_uint_sloc1_1_0 + 5)
      0003F3 C5*05            [ 3]  902 	cmp	*(___ckd_add_uint_sloc0_1_0 + 5)
      0003F5 D0 0C            [ 4]  903 	bne	00104$
      0003F7 A5*0E            [ 3]  904 	lda	*(___ckd_add_uint_sloc1_1_0 + 6)
      0003F9 C5*06            [ 3]  905 	cmp	*(___ckd_add_uint_sloc0_1_0 + 6)
      0003FB D0 06            [ 4]  906 	bne	00104$
      0003FD A5*0F            [ 3]  907 	lda	*(___ckd_add_uint_sloc1_1_0 + 7)
      0003FF C5*07            [ 3]  908 	cmp	*(___ckd_add_uint_sloc0_1_0 + 7)
      000401 F0 04            [ 4]  909 	beq	00112$
      000403                        910 00104$:
      000403 A9 00            [ 2]  911 	lda	#0x00
      000405 80 01            [ 4]  912 	bra	00111$
      000407                        913 00112$:
      000407 98               [ 2]  914 	tya
      000408                        915 00111$:
                                    916 ;	Raw cost for generated ic 11 : (70, 90.399994) count=1.000000
                                    917 ;	genNot
      000408 49 01            [ 2]  918 	eor	#0x01
                                    919 ;	Raw cost for generated ic 12 : (2, 2.000000) count=1.000000
                                    920 ;	genRet
                                    921 ;	Raw cost for generated ic 13 : (0, 0.000000) count=1.000000
                                    922 ;	genLabel
                                    923 ;	Raw cost for generated ic 14 : (0, 0.000000) count=1.000000
                                    924 ;	genEndFunction
      00040A 60               [ 6]  925 	rts
                                    926 ;	Raw cost for generated ic 15 : (1, 6.000000) count=1.000000
                                    927 ;------------------------------------------------------------
                                    928 ;Allocation info for local variables in function '__ckd_add_long'
                                    929 ;------------------------------------------------------------
                                    930 ;a             Allocated with name '___ckd_add_long_PARM_2'
                                    931 ;b             Allocated with name '___ckd_add_long_PARM_3'
                                    932 ;r             Allocated with name '___ckd_add_long_r_10000_21'
                                    933 ;result        Allocated with name '___ckd_add_long_result_10000_22'
                                    934 ;sloc0         Allocated with name '___ckd_add_long_sloc0_1_0'
                                    935 ;sloc1         Allocated with name '___ckd_add_long_sloc1_1_0'
                                    936 ;sloc2         Allocated with name '___ckd_add_long_sloc2_1_0'
                                    937 ;------------------------------------------------------------
                                    938 ;	./../../include/stdckdint.h: 58: inline _Bool __ckd_add_long __CKD_DEFAULT_IMPL(long, +)
                                    939 ;	genLabel
                                    940 ;	Raw cost for generated ic 0 : (0, 0.000000) count=1.000000
                                    941 ;	-----------------------------------------
                                    942 ;	 function __ckd_add_long
                                    943 ;	-----------------------------------------
                                    944 ;	Register assignment might be sub-optimal.
                                    945 ;	Stack space usage: 0 bytes.
      00040B                        946 ___ckd_add_long:
                                    947 ;	Raw cost for generated ic 1 : (0, 0.000000) count=1.000000
                                    948 ;	genReceive
      00040B 8Dr7Cr00         [ 4]  949 	sta	___ckd_add_long_r_10000_21
      00040E 8Er7Dr00         [ 4]  950 	stx	(___ckd_add_long_r_10000_21 + 1)
                                    951 ;	Raw cost for generated ic 2 : (6, 8.000000) count=1.000000
                                    952 ;	genPlus
      000411 ADr6Cr00         [ 4]  953 	lda	___ckd_add_long_PARM_2
      000414 18               [ 2]  954 	clc
      000415 6Dr74r00         [ 5]  955 	adc	___ckd_add_long_PARM_3
      000418 85*00            [ 3]  956 	sta	*___ckd_add_long_sloc0_1_0
      00041A ADr6Dr00         [ 4]  957 	lda	(___ckd_add_long_PARM_2 + 1)
      00041D 6Dr75r00         [ 5]  958 	adc	(___ckd_add_long_PARM_3 + 1)
      000420 85*01            [ 3]  959 	sta	*(___ckd_add_long_sloc0_1_0 + 1)
      000422 ADr6Er00         [ 4]  960 	lda	(___ckd_add_long_PARM_2 + 2)
      000425 6Dr76r00         [ 5]  961 	adc	(___ckd_add_long_PARM_3 + 2)
      000428 85*02            [ 3]  962 	sta	*(___ckd_add_long_sloc0_1_0 + 2)
      00042A ADr6Fr00         [ 4]  963 	lda	(___ckd_add_long_PARM_2 + 3)
      00042D 6Dr77r00         [ 5]  964 	adc	(___ckd_add_long_PARM_3 + 3)
      000430 85*03            [ 3]  965 	sta	*(___ckd_add_long_sloc0_1_0 + 3)
      000432 ADr70r00         [ 4]  966 	lda	(___ckd_add_long_PARM_2 + 4)
      000435 6Dr78r00         [ 5]  967 	adc	(___ckd_add_long_PARM_3 + 4)
      000438 85*04            [ 3]  968 	sta	*(___ckd_add_long_sloc0_1_0 + 4)
      00043A ADr71r00         [ 4]  969 	lda	(___ckd_add_long_PARM_2 + 5)
      00043D 6Dr79r00         [ 5]  970 	adc	(___ckd_add_long_PARM_3 + 5)
      000440 85*05            [ 3]  971 	sta	*(___ckd_add_long_sloc0_1_0 + 5)
      000442 ADr72r00         [ 4]  972 	lda	(___ckd_add_long_PARM_2 + 6)
      000445 6Dr7Ar00         [ 5]  973 	adc	(___ckd_add_long_PARM_3 + 6)
      000448 85*06            [ 3]  974 	sta	*(___ckd_add_long_sloc0_1_0 + 6)
      00044A ADr73r00         [ 4]  975 	lda	(___ckd_add_long_PARM_2 + 7)
      00044D 6Dr7Br00         [ 5]  976 	adc	(___ckd_add_long_PARM_3 + 7)
      000450 85*07            [ 3]  977 	sta	*(___ckd_add_long_sloc0_1_0 + 7)
                                    978 ;	Raw cost for generated ic 3 : (65, 90.000000) count=1.000000
                                    979 ;	genCast
                                    980 ;	genCopy
      000452 A5*03            [ 3]  981 	lda	*(___ckd_add_long_sloc0_1_0 + 3)
      000454 85*0B            [ 3]  982 	sta	*(___ckd_add_long_sloc1_1_0 + 3)
      000456 A5*02            [ 3]  983 	lda	*(___ckd_add_long_sloc0_1_0 + 2)
      000458 85*0A            [ 3]  984 	sta	*(___ckd_add_long_sloc1_1_0 + 2)
      00045A A5*01            [ 3]  985 	lda	*(___ckd_add_long_sloc0_1_0 + 1)
      00045C 85*09            [ 3]  986 	sta	*(___ckd_add_long_sloc1_1_0 + 1)
      00045E A5*00            [ 3]  987 	lda	*___ckd_add_long_sloc0_1_0
      000460 85*08            [ 3]  988 	sta	*___ckd_add_long_sloc1_1_0
                                    989 ;	Raw cost for generated ic 6 : (16, 24.000000) count=1.000000
                                    990 ;	genPointerSet
                                    991 ;	  setupDPTR - off=0 remat=(null) savea=0
      000462 86*01            [ 3]  992 	stx	*(DPTR+1)
      000464 AEr7Cr00         [ 4]  993 	ldx	___ckd_add_long_r_10000_21
      000467 86*00            [ 3]  994 	stx	*(DPTR+0)
      000469 A0 00            [ 2]  995 	ldy	#0x00
      00046B 91*00            [ 6]  996 	sta	[DPTR],y
      00046D A5*09            [ 3]  997 	lda	*(___ckd_add_long_sloc1_1_0 + 1)
      00046F C8               [ 2]  998 	iny
      000470 91*00            [ 6]  999 	sta	[DPTR],y
      000472 A5*0A            [ 3] 1000 	lda	*(___ckd_add_long_sloc1_1_0 + 2)
      000474 C8               [ 2] 1001 	iny
      000475 91*00            [ 6] 1002 	sta	[DPTR],y
      000477 A5*0B            [ 3] 1003 	lda	*(___ckd_add_long_sloc1_1_0 + 3)
      000479 C8               [ 2] 1004 	iny
      00047A 91*00            [ 6] 1005 	sta	[DPTR],y
                                   1006 ;	Raw cost for generated ic 7 : (26, 51.000000) count=1.000000
                                   1007 ;	genCast
      00047C A5*08            [ 3] 1008 	lda	*___ckd_add_long_sloc1_1_0
      00047E 85*0C            [ 3] 1009 	sta	*___ckd_add_long_sloc2_1_0
      000480 A5*09            [ 3] 1010 	lda	*(___ckd_add_long_sloc1_1_0 + 1)
      000482 85*0D            [ 3] 1011 	sta	*(___ckd_add_long_sloc2_1_0 + 1)
      000484 A5*0A            [ 3] 1012 	lda	*(___ckd_add_long_sloc1_1_0 + 2)
      000486 85*0E            [ 3] 1013 	sta	*(___ckd_add_long_sloc2_1_0 + 2)
      000488 A5*0B            [ 3] 1014 	lda	*(___ckd_add_long_sloc1_1_0 + 3)
      00048A 85*0F            [ 3] 1015 	sta	*(___ckd_add_long_sloc2_1_0 + 3)
      00048C 0A               [ 2] 1016 	asl	a
      00048D A9 00            [ 2] 1017 	lda	#0x00
      00048F 69 FF            [ 3] 1018 	adc	#0xff
      000491 49 FF            [ 2] 1019 	eor	#0xff
      000493 85*10            [ 3] 1020 	sta	*(___ckd_add_long_sloc2_1_0 + 4)
      000495 85*11            [ 3] 1021 	sta	*(___ckd_add_long_sloc2_1_0 + 5)
      000497 85*12            [ 3] 1022 	sta	*(___ckd_add_long_sloc2_1_0 + 6)
      000499 85*13            [ 3] 1023 	sta	*(___ckd_add_long_sloc2_1_0 + 7)
                                   1024 ;	Raw cost for generated ic 10 : (31, 44.000000) count=1.000000
                                   1025 ;	genCmpEQorNE
      00049B A5*0C            [ 3] 1026 	lda	*___ckd_add_long_sloc2_1_0
      00049D C5*00            [ 3] 1027 	cmp	*___ckd_add_long_sloc0_1_0
      00049F D0 2A            [ 4] 1028 	bne	00104$
      0004A1 A5*0D            [ 3] 1029 	lda	*(___ckd_add_long_sloc2_1_0 + 1)
      0004A3 C5*01            [ 3] 1030 	cmp	*(___ckd_add_long_sloc0_1_0 + 1)
      0004A5 D0 24            [ 4] 1031 	bne	00104$
      0004A7 A5*0E            [ 3] 1032 	lda	*(___ckd_add_long_sloc2_1_0 + 2)
      0004A9 C5*02            [ 3] 1033 	cmp	*(___ckd_add_long_sloc0_1_0 + 2)
      0004AB D0 1E            [ 4] 1034 	bne	00104$
      0004AD A5*0F            [ 3] 1035 	lda	*(___ckd_add_long_sloc2_1_0 + 3)
      0004AF C5*03            [ 3] 1036 	cmp	*(___ckd_add_long_sloc0_1_0 + 3)
      0004B1 D0 18            [ 4] 1037 	bne	00104$
      0004B3 A5*10            [ 3] 1038 	lda	*(___ckd_add_long_sloc2_1_0 + 4)
      0004B5 C5*04            [ 3] 1039 	cmp	*(___ckd_add_long_sloc0_1_0 + 4)
      0004B7 D0 12            [ 4] 1040 	bne	00104$
      0004B9 A5*11            [ 3] 1041 	lda	*(___ckd_add_long_sloc2_1_0 + 5)
      0004BB C5*05            [ 3] 1042 	cmp	*(___ckd_add_long_sloc0_1_0 + 5)
      0004BD D0 0C            [ 4] 1043 	bne	00104$
      0004BF A5*12            [ 3] 1044 	lda	*(___ckd_add_long_sloc2_1_0 + 6)
      0004C1 C5*06            [ 3] 1045 	cmp	*(___ckd_add_long_sloc0_1_0 + 6)
      0004C3 D0 06            [ 4] 1046 	bne	00104$
      0004C5 A5*13            [ 3] 1047 	lda	*(___ckd_add_long_sloc2_1_0 + 7)
      0004C7 C5*07            [ 3] 1048 	cmp	*(___ckd_add_long_sloc0_1_0 + 7)
      0004C9 F0 04            [ 4] 1049 	beq	00112$
      0004CB                       1050 00104$:
      0004CB A9 00            [ 2] 1051 	lda	#0x00
      0004CD 80 02            [ 4] 1052 	bra	00111$
      0004CF                       1053 00112$:
      0004CF A9 01            [ 2] 1054 	lda	#0x01
      0004D1                       1055 00111$:
                                   1056 ;	Raw cost for generated ic 11 : (75, 96.399994) count=1.000000
                                   1057 ;	genNot
      0004D1 49 01            [ 2] 1058 	eor	#0x01
                                   1059 ;	Raw cost for generated ic 12 : (2, 2.000000) count=1.000000
                                   1060 ;	genRet
                                   1061 ;	Raw cost for generated ic 13 : (0, 0.000000) count=1.000000
                                   1062 ;	genLabel
                                   1063 ;	Raw cost for generated ic 14 : (0, 0.000000) count=1.000000
                                   1064 ;	genEndFunction
      0004D3 60               [ 6] 1065 	rts
                                   1066 ;	Raw cost for generated ic 15 : (1, 6.000000) count=1.000000
                                   1067 ;------------------------------------------------------------
                                   1068 ;Allocation info for local variables in function '__ckd_add_ulong'
                                   1069 ;------------------------------------------------------------
                                   1070 ;a             Allocated with name '___ckd_add_ulong_PARM_2'
                                   1071 ;b             Allocated with name '___ckd_add_ulong_PARM_3'
                                   1072 ;r             Allocated with name '___ckd_add_ulong_r_10000_23'
                                   1073 ;result        Allocated with name '___ckd_add_ulong_result_10000_24'
                                   1074 ;sloc0         Allocated with name '___ckd_add_ulong_sloc0_1_0'
                                   1075 ;sloc1         Allocated with name '___ckd_add_ulong_sloc1_1_0'
                                   1076 ;sloc2         Allocated with name '___ckd_add_ulong_sloc2_1_0'
                                   1077 ;------------------------------------------------------------
                                   1078 ;	./../../include/stdckdint.h: 59: inline _Bool __ckd_add_ulong __CKD_DEFAULT_IMPL(unsigned long, +)
                                   1079 ;	genLabel
                                   1080 ;	Raw cost for generated ic 0 : (0, 0.000000) count=1.000000
                                   1081 ;	-----------------------------------------
                                   1082 ;	 function __ckd_add_ulong
                                   1083 ;	-----------------------------------------
                                   1084 ;	Register assignment might be sub-optimal.
                                   1085 ;	Stack space usage: 0 bytes.
      0004D4                       1086 ___ckd_add_ulong:
                                   1087 ;	Raw cost for generated ic 1 : (0, 0.000000) count=1.000000
                                   1088 ;	genReceive
      0004D4 8Dr8Er00         [ 4] 1089 	sta	___ckd_add_ulong_r_10000_23
      0004D7 8Er8Fr00         [ 4] 1090 	stx	(___ckd_add_ulong_r_10000_23 + 1)
                                   1091 ;	Raw cost for generated ic 2 : (6, 8.000000) count=1.000000
                                   1092 ;	genPlus
      0004DA ADr7Er00         [ 4] 1093 	lda	___ckd_add_ulong_PARM_2
      0004DD 18               [ 2] 1094 	clc
      0004DE 6Dr86r00         [ 5] 1095 	adc	___ckd_add_ulong_PARM_3
      0004E1 85*00            [ 3] 1096 	sta	*___ckd_add_ulong_sloc0_1_0
      0004E3 ADr7Fr00         [ 4] 1097 	lda	(___ckd_add_ulong_PARM_2 + 1)
      0004E6 6Dr87r00         [ 5] 1098 	adc	(___ckd_add_ulong_PARM_3 + 1)
      0004E9 85*01            [ 3] 1099 	sta	*(___ckd_add_ulong_sloc0_1_0 + 1)
      0004EB ADr80r00         [ 4] 1100 	lda	(___ckd_add_ulong_PARM_2 + 2)
      0004EE 6Dr88r00         [ 5] 1101 	adc	(___ckd_add_ulong_PARM_3 + 2)
      0004F1 85*02            [ 3] 1102 	sta	*(___ckd_add_ulong_sloc0_1_0 + 2)
      0004F3 ADr81r00         [ 4] 1103 	lda	(___ckd_add_ulong_PARM_2 + 3)
      0004F6 6Dr89r00         [ 5] 1104 	adc	(___ckd_add_ulong_PARM_3 + 3)
      0004F9 85*03            [ 3] 1105 	sta	*(___ckd_add_ulong_sloc0_1_0 + 3)
      0004FB ADr82r00         [ 4] 1106 	lda	(___ckd_add_ulong_PARM_2 + 4)
      0004FE 6Dr8Ar00         [ 5] 1107 	adc	(___ckd_add_ulong_PARM_3 + 4)
      000501 85*04            [ 3] 1108 	sta	*(___ckd_add_ulong_sloc0_1_0 + 4)
      000503 ADr83r00         [ 4] 1109 	lda	(___ckd_add_ulong_PARM_2 + 5)
      000506 6Dr8Br00         [ 5] 1110 	adc	(___ckd_add_ulong_PARM_3 + 5)
      000509 85*05            [ 3] 1111 	sta	*(___ckd_add_ulong_sloc0_1_0 + 5)
      00050B ADr84r00         [ 4] 1112 	lda	(___ckd_add_ulong_PARM_2 + 6)
      00050E 6Dr8Cr00         [ 5] 1113 	adc	(___ckd_add_ulong_PARM_3 + 6)
      000511 85*06            [ 3] 1114 	sta	*(___ckd_add_ulong_sloc0_1_0 + 6)
      000513 ADr85r00         [ 4] 1115 	lda	(___ckd_add_ulong_PARM_2 + 7)
      000516 6Dr8Dr00         [ 5] 1116 	adc	(___ckd_add_ulong_PARM_3 + 7)
      000519 85*07            [ 3] 1117 	sta	*(___ckd_add_ulong_sloc0_1_0 + 7)
                                   1118 ;	Raw cost for generated ic 3 : (65, 90.000000) count=1.000000
                                   1119 ;	genCast
                                   1120 ;	genCopy
      00051B A5*03            [ 3] 1121 	lda	*(___ckd_add_ulong_sloc0_1_0 + 3)
      00051D 85*0B            [ 3] 1122 	sta	*(___ckd_add_ulong_sloc1_1_0 + 3)
      00051F A5*02            [ 3] 1123 	lda	*(___ckd_add_ulong_sloc0_1_0 + 2)
      000521 85*0A            [ 3] 1124 	sta	*(___ckd_add_ulong_sloc1_1_0 + 2)
      000523 A5*01            [ 3] 1125 	lda	*(___ckd_add_ulong_sloc0_1_0 + 1)
      000525 85*09            [ 3] 1126 	sta	*(___ckd_add_ulong_sloc1_1_0 + 1)
      000527 A5*00            [ 3] 1127 	lda	*___ckd_add_ulong_sloc0_1_0
      000529 85*08            [ 3] 1128 	sta	*___ckd_add_ulong_sloc1_1_0
                                   1129 ;	Raw cost for generated ic 6 : (16, 24.000000) count=1.000000
                                   1130 ;	genPointerSet
                                   1131 ;	  setupDPTR - off=0 remat=(null) savea=0
      00052B 86*01            [ 3] 1132 	stx	*(DPTR+1)
      00052D AEr8Er00         [ 4] 1133 	ldx	___ckd_add_ulong_r_10000_23
      000530 86*00            [ 3] 1134 	stx	*(DPTR+0)
      000532 A0 00            [ 2] 1135 	ldy	#0x00
      000534 91*00            [ 6] 1136 	sta	[DPTR],y
      000536 A5*09            [ 3] 1137 	lda	*(___ckd_add_ulong_sloc1_1_0 + 1)
      000538 C8               [ 2] 1138 	iny
      000539 91*00            [ 6] 1139 	sta	[DPTR],y
      00053B A5*0A            [ 3] 1140 	lda	*(___ckd_add_ulong_sloc1_1_0 + 2)
      00053D C8               [ 2] 1141 	iny
      00053E 91*00            [ 6] 1142 	sta	[DPTR],y
      000540 A5*0B            [ 3] 1143 	lda	*(___ckd_add_ulong_sloc1_1_0 + 3)
      000542 C8               [ 2] 1144 	iny
      000543 91*00            [ 6] 1145 	sta	[DPTR],y
                                   1146 ;	Raw cost for generated ic 7 : (26, 51.000000) count=1.000000
                                   1147 ;	genCast
                                   1148 ;	genCopy
      000545 64*13            [ 3] 1149 	stz	*(___ckd_add_ulong_sloc2_1_0 + 7)
      000547 64*12            [ 3] 1150 	stz	*(___ckd_add_ulong_sloc2_1_0 + 6)
      000549 64*11            [ 3] 1151 	stz	*(___ckd_add_ulong_sloc2_1_0 + 5)
      00054B 64*10            [ 3] 1152 	stz	*(___ckd_add_ulong_sloc2_1_0 + 4)
      00054D 85*0F            [ 3] 1153 	sta	*(___ckd_add_ulong_sloc2_1_0 + 3)
      00054F A5*0A            [ 3] 1154 	lda	*(___ckd_add_ulong_sloc1_1_0 + 2)
      000551 85*0E            [ 3] 1155 	sta	*(___ckd_add_ulong_sloc2_1_0 + 2)
      000553 A5*09            [ 3] 1156 	lda	*(___ckd_add_ulong_sloc1_1_0 + 1)
      000555 85*0D            [ 3] 1157 	sta	*(___ckd_add_ulong_sloc2_1_0 + 1)
      000557 A5*08            [ 3] 1158 	lda	*___ckd_add_ulong_sloc1_1_0
      000559 85*0C            [ 3] 1159 	sta	*___ckd_add_ulong_sloc2_1_0
                                   1160 ;	Raw cost for generated ic 10 : (26, 37.000000) count=1.000000
                                   1161 ;	genCmpEQorNE
      00055B C5*00            [ 3] 1162 	cmp	*___ckd_add_ulong_sloc0_1_0
      00055D D0 2A            [ 4] 1163 	bne	00104$
      00055F A5*0D            [ 3] 1164 	lda	*(___ckd_add_ulong_sloc2_1_0 + 1)
      000561 C5*01            [ 3] 1165 	cmp	*(___ckd_add_ulong_sloc0_1_0 + 1)
      000563 D0 24            [ 4] 1166 	bne	00104$
      000565 A5*0E            [ 3] 1167 	lda	*(___ckd_add_ulong_sloc2_1_0 + 2)
      000567 C5*02            [ 3] 1168 	cmp	*(___ckd_add_ulong_sloc0_1_0 + 2)
      000569 D0 1E            [ 4] 1169 	bne	00104$
      00056B A5*0F            [ 3] 1170 	lda	*(___ckd_add_ulong_sloc2_1_0 + 3)
      00056D C5*03            [ 3] 1171 	cmp	*(___ckd_add_ulong_sloc0_1_0 + 3)
      00056F D0 18            [ 4] 1172 	bne	00104$
      000571 A5*10            [ 3] 1173 	lda	*(___ckd_add_ulong_sloc2_1_0 + 4)
      000573 C5*04            [ 3] 1174 	cmp	*(___ckd_add_ulong_sloc0_1_0 + 4)
      000575 D0 12            [ 4] 1175 	bne	00104$
      000577 A5*11            [ 3] 1176 	lda	*(___ckd_add_ulong_sloc2_1_0 + 5)
      000579 C5*05            [ 3] 1177 	cmp	*(___ckd_add_ulong_sloc0_1_0 + 5)
      00057B D0 0C            [ 4] 1178 	bne	00104$
      00057D A5*12            [ 3] 1179 	lda	*(___ckd_add_ulong_sloc2_1_0 + 6)
      00057F C5*06            [ 3] 1180 	cmp	*(___ckd_add_ulong_sloc0_1_0 + 6)
      000581 D0 06            [ 4] 1181 	bne	00104$
      000583 A5*13            [ 3] 1182 	lda	*(___ckd_add_ulong_sloc2_1_0 + 7)
      000585 C5*07            [ 3] 1183 	cmp	*(___ckd_add_ulong_sloc0_1_0 + 7)
      000587 F0 04            [ 4] 1184 	beq	00112$
      000589                       1185 00104$:
      000589 A9 00            [ 2] 1186 	lda	#0x00
      00058B 80 02            [ 4] 1187 	bra	00111$
      00058D                       1188 00112$:
      00058D A9 01            [ 2] 1189 	lda	#0x01
      00058F                       1190 00111$:
                                   1191 ;	Raw cost for generated ic 11 : (73, 93.399994) count=1.000000
                                   1192 ;	genNot
      00058F 49 01            [ 2] 1193 	eor	#0x01
                                   1194 ;	Raw cost for generated ic 12 : (2, 2.000000) count=1.000000
                                   1195 ;	genRet
                                   1196 ;	Raw cost for generated ic 13 : (0, 0.000000) count=1.000000
                                   1197 ;	genLabel
                                   1198 ;	Raw cost for generated ic 14 : (0, 0.000000) count=1.000000
                                   1199 ;	genEndFunction
      000591 60               [ 6] 1200 	rts
                                   1201 ;	Raw cost for generated ic 15 : (1, 6.000000) count=1.000000
                                   1202 	.area CODE
                                   1203 	.area RODATA
                                   1204 	.area XINIT
                                   1205 	.area CABS    (ABS)
