                                      1 ;--------------------------------------------------------
                                      2 ; File Created by SDCC : free open source ISO C Compiler
                                      3 ; Version 4.5.10 #15691 (Linux)
                                      4 ;--------------------------------------------------------
                                      5 	.module ckd_mul
                                      6 	
      000000                          7 	.r65c02
                                      8 	.optsdcc -mmos65c02
                                      9 
                                     10 ;--------------------------------------------------------
                                     11 ;  Ordering of segments for the linker.
                                     12 ;--------------------------------------------------------
                                     13 	.area ZP      (PAG)
                                     14 	.area OSEG    (PAG, OVR)
                                     15 	.area _CODE
                                     16 	.area GSINIT
                                     17 	.area GSFINAL
                                     18 	.area CODE
                                     19 	.area RODATA
                                     20 	.area XINIT
                                     21 	.area _DATA
                                     22 	.area DATA
                                     23 	.area BSS
                                     24 ;--------------------------------------------------------
                                     25 ; Public variables in this module
                                     26 ;--------------------------------------------------------
                                     27 	.globl ___ckd_mul_ulong_PARM_3
                                     28 	.globl ___ckd_mul_ulong_PARM_2
                                     29 	.globl ___ckd_mul_long_PARM_3
                                     30 	.globl ___ckd_mul_long_PARM_2
                                     31 	.globl ___ckd_mul_uint_PARM_3
                                     32 	.globl ___ckd_mul_uint_PARM_2
                                     33 	.globl ___ckd_mul_int_PARM_3
                                     34 	.globl ___ckd_mul_int_PARM_2
                                     35 	.globl ___ckd_mul_ushort_PARM_3
                                     36 	.globl ___ckd_mul_ushort_PARM_2
                                     37 	.globl ___ckd_mul_short_PARM_3
                                     38 	.globl ___ckd_mul_short_PARM_2
                                     39 	.globl ___ckd_mul_uchar_PARM_3
                                     40 	.globl ___ckd_mul_uchar_PARM_2
                                     41 	.globl ___ckd_mul_schar_PARM_3
                                     42 	.globl ___ckd_mul_schar_PARM_2
                                     43 	.globl ___ckd_mul_schar
                                     44 	.globl ___ckd_mul_uchar
                                     45 	.globl ___ckd_mul_short
                                     46 	.globl ___ckd_mul_ushort
                                     47 	.globl ___ckd_mul_int
                                     48 	.globl ___ckd_mul_uint
                                     49 	.globl ___ckd_mul_long
                                     50 	.globl ___ckd_mul_ulong
                                     51 ;--------------------------------------------------------
                                     52 ; ZP ram data
                                     53 ;--------------------------------------------------------
                                     54 	.area ZP      (PAG)
      000000                         55 ___ckd_mul_schar_sloc0_1_0:
      000000                         56 	.ds 8
      000008                         57 ___ckd_mul_schar_sloc1_1_0:
      000008                         58 	.ds 8
      000010                         59 ___ckd_mul_uchar_sloc0_1_0:
      000010                         60 	.ds 8
      000018                         61 ___ckd_mul_uchar_sloc1_1_0:
      000018                         62 	.ds 8
      000020                         63 ___ckd_mul_short_sloc0_1_0:
      000020                         64 	.ds 8
      000028                         65 ___ckd_mul_short_sloc1_1_0:
      000028                         66 	.ds 8
      000030                         67 ___ckd_mul_ushort_sloc0_1_0:
      000030                         68 	.ds 8
      000038                         69 ___ckd_mul_ushort_sloc1_1_0:
      000038                         70 	.ds 8
      000040                         71 ___ckd_mul_int_sloc0_1_0:
      000040                         72 	.ds 8
      000048                         73 ___ckd_mul_int_sloc1_1_0:
      000048                         74 	.ds 8
      000050                         75 ___ckd_mul_uint_sloc0_1_0:
      000050                         76 	.ds 8
      000058                         77 ___ckd_mul_uint_sloc1_1_0:
      000058                         78 	.ds 8
      000060                         79 ___ckd_mul_long_sloc0_1_0:
      000060                         80 	.ds 8
      000068                         81 ___ckd_mul_long_sloc1_1_0:
      000068                         82 	.ds 4
      00006C                         83 ___ckd_mul_long_sloc2_1_0:
      00006C                         84 	.ds 8
      000074                         85 ___ckd_mul_ulong_sloc0_1_0:
      000074                         86 	.ds 8
      00007C                         87 ___ckd_mul_ulong_sloc1_1_0:
      00007C                         88 	.ds 4
      000080                         89 ___ckd_mul_ulong_sloc2_1_0:
      000080                         90 	.ds 8
                                     91 ;--------------------------------------------------------
                                     92 ; overlayable items in ram
                                     93 ;--------------------------------------------------------
                                     94 ;--------------------------------------------------------
                                     95 ; uninitialized external ram data
                                     96 ;--------------------------------------------------------
                                     97 	.area BSS
      000000                         98 ___ckd_mul_schar_PARM_2:
      000000                         99 	.ds 8
      000008                        100 ___ckd_mul_schar_PARM_3:
      000008                        101 	.ds 8
      000010                        102 ___ckd_mul_schar_r_10000_41:
      000010                        103 	.ds 2
      000012                        104 ___ckd_mul_uchar_PARM_2:
      000012                        105 	.ds 8
      00001A                        106 ___ckd_mul_uchar_PARM_3:
      00001A                        107 	.ds 8
      000022                        108 ___ckd_mul_uchar_r_10000_43:
      000022                        109 	.ds 2
      000024                        110 ___ckd_mul_short_PARM_2:
      000024                        111 	.ds 8
      00002C                        112 ___ckd_mul_short_PARM_3:
      00002C                        113 	.ds 8
      000034                        114 ___ckd_mul_short_r_10000_45:
      000034                        115 	.ds 2
      000036                        116 ___ckd_mul_ushort_PARM_2:
      000036                        117 	.ds 8
      00003E                        118 ___ckd_mul_ushort_PARM_3:
      00003E                        119 	.ds 8
      000046                        120 ___ckd_mul_ushort_r_10000_47:
      000046                        121 	.ds 2
      000048                        122 ___ckd_mul_int_PARM_2:
      000048                        123 	.ds 8
      000050                        124 ___ckd_mul_int_PARM_3:
      000050                        125 	.ds 8
      000058                        126 ___ckd_mul_int_r_10000_49:
      000058                        127 	.ds 2
      00005A                        128 ___ckd_mul_uint_PARM_2:
      00005A                        129 	.ds 8
      000062                        130 ___ckd_mul_uint_PARM_3:
      000062                        131 	.ds 8
      00006A                        132 ___ckd_mul_uint_r_10000_51:
      00006A                        133 	.ds 2
      00006C                        134 ___ckd_mul_long_PARM_2:
      00006C                        135 	.ds 8
      000074                        136 ___ckd_mul_long_PARM_3:
      000074                        137 	.ds 8
      00007C                        138 ___ckd_mul_long_r_10000_53:
      00007C                        139 	.ds 2
      00007E                        140 ___ckd_mul_ulong_PARM_2:
      00007E                        141 	.ds 8
      000086                        142 ___ckd_mul_ulong_PARM_3:
      000086                        143 	.ds 8
      00008E                        144 ___ckd_mul_ulong_r_10000_55:
      00008E                        145 	.ds 2
                                    146 ;--------------------------------------------------------
                                    147 ; absolute external ram data
                                    148 ;--------------------------------------------------------
                                    149 	.area DABS    (ABS)
                                    150 ;--------------------------------------------------------
                                    151 ; initialized external ram data
                                    152 ;--------------------------------------------------------
                                    153 	.area DATA
                                    154 ;--------------------------------------------------------
                                    155 ; global & static initialisations
                                    156 ;--------------------------------------------------------
                                    157 	.area _CODE
                                    158 	.area GSINIT
                                    159 	.area GSFINAL
                                    160 	.area GSINIT
                                    161 ;--------------------------------------------------------
                                    162 ; Home
                                    163 ;--------------------------------------------------------
                                    164 	.area _CODE
                                    165 	.area _CODE
                                    166 ;--------------------------------------------------------
                                    167 ; code
                                    168 ;--------------------------------------------------------
                                    169 	.area CODE
                                    170 ;------------------------------------------------------------
                                    171 ;Allocation info for local variables in function '__ckd_mul_schar'
                                    172 ;------------------------------------------------------------
                                    173 ;sloc0         Allocated with name '___ckd_mul_schar_sloc0_1_0'
                                    174 ;sloc1         Allocated with name '___ckd_mul_schar_sloc1_1_0'
                                    175 ;a             Allocated with name '___ckd_mul_schar_PARM_2'
                                    176 ;b             Allocated with name '___ckd_mul_schar_PARM_3'
                                    177 ;r             Allocated with name '___ckd_mul_schar_r_10000_41'
                                    178 ;result        Allocated with name '___ckd_mul_schar_result_10000_42'
                                    179 ;------------------------------------------------------------
                                    180 ;	./../../include/stdckdint.h: 70: inline _Bool __ckd_mul_schar __CKD_DEFAULT_IMPL(signed char, *)
                                    181 ;	genLabel
                                    182 ;	Raw cost for generated ic 0 : (0, 0.000000) count=1.000000
                                    183 ;	-----------------------------------------
                                    184 ;	 function __ckd_mul_schar
                                    185 ;	-----------------------------------------
                                    186 ;	Register assignment might be sub-optimal.
                                    187 ;	Stack space usage: 0 bytes.
      000000                        188 ___ckd_mul_schar:
                                    189 ;	Raw cost for generated ic 1 : (0, 0.000000) count=1.000000
                                    190 ;	genReceive
      000000 8Dr10r00         [ 4]  191 	sta	___ckd_mul_schar_r_10000_41
      000003 8Er11r00         [ 4]  192 	stx	(___ckd_mul_schar_r_10000_41 + 1)
                                    193 ;	Raw cost for generated ic 2 : (6, 8.000000) count=1.000000
                                    194 ;	genAssign
                                    195 ;	genCopy
      000006 ADr07r00         [ 4]  196 	lda	(___ckd_mul_schar_PARM_2 + 7)
      000009 8Dr07r00         [ 4]  197 	sta	(__mullonglong_PARM_1 + 7)
      00000C ADr06r00         [ 4]  198 	lda	(___ckd_mul_schar_PARM_2 + 6)
      00000F 8Dr06r00         [ 4]  199 	sta	(__mullonglong_PARM_1 + 6)
      000012 ADr05r00         [ 4]  200 	lda	(___ckd_mul_schar_PARM_2 + 5)
      000015 8Dr05r00         [ 4]  201 	sta	(__mullonglong_PARM_1 + 5)
      000018 ADr04r00         [ 4]  202 	lda	(___ckd_mul_schar_PARM_2 + 4)
      00001B 8Dr04r00         [ 4]  203 	sta	(__mullonglong_PARM_1 + 4)
      00001E ADr03r00         [ 4]  204 	lda	(___ckd_mul_schar_PARM_2 + 3)
      000021 8Dr03r00         [ 4]  205 	sta	(__mullonglong_PARM_1 + 3)
      000024 ADr02r00         [ 4]  206 	lda	(___ckd_mul_schar_PARM_2 + 2)
      000027 8Dr02r00         [ 4]  207 	sta	(__mullonglong_PARM_1 + 2)
      00002A ADr01r00         [ 4]  208 	lda	(___ckd_mul_schar_PARM_2 + 1)
      00002D 8Dr01r00         [ 4]  209 	sta	(__mullonglong_PARM_1 + 1)
      000030 ADr00r00         [ 4]  210 	lda	___ckd_mul_schar_PARM_2
      000033 8Dr00r00         [ 4]  211 	sta	__mullonglong_PARM_1
                                    212 ;	Raw cost for generated ic 16 : (48, 64.000000) count=1.000000
                                    213 ;	genAssign
                                    214 ;	genCopy
      000036 ADr0Fr00         [ 4]  215 	lda	(___ckd_mul_schar_PARM_3 + 7)
      000039 8Dr07r00         [ 4]  216 	sta	(__mullonglong_PARM_2 + 7)
      00003C ADr0Er00         [ 4]  217 	lda	(___ckd_mul_schar_PARM_3 + 6)
      00003F 8Dr06r00         [ 4]  218 	sta	(__mullonglong_PARM_2 + 6)
      000042 ADr0Dr00         [ 4]  219 	lda	(___ckd_mul_schar_PARM_3 + 5)
      000045 8Dr05r00         [ 4]  220 	sta	(__mullonglong_PARM_2 + 5)
      000048 ADr0Cr00         [ 4]  221 	lda	(___ckd_mul_schar_PARM_3 + 4)
      00004B 8Dr04r00         [ 4]  222 	sta	(__mullonglong_PARM_2 + 4)
      00004E ADr0Br00         [ 4]  223 	lda	(___ckd_mul_schar_PARM_3 + 3)
      000051 8Dr03r00         [ 4]  224 	sta	(__mullonglong_PARM_2 + 3)
      000054 ADr0Ar00         [ 4]  225 	lda	(___ckd_mul_schar_PARM_3 + 2)
      000057 8Dr02r00         [ 4]  226 	sta	(__mullonglong_PARM_2 + 2)
      00005A ADr09r00         [ 4]  227 	lda	(___ckd_mul_schar_PARM_3 + 1)
      00005D 8Dr01r00         [ 4]  228 	sta	(__mullonglong_PARM_2 + 1)
      000060 ADr08r00         [ 4]  229 	lda	___ckd_mul_schar_PARM_3
      000063 8Dr00r00         [ 4]  230 	sta	__mullonglong_PARM_2
                                    231 ;	Raw cost for generated ic 17 : (48, 64.000000) count=1.000000
                                    232 ;	genCall
      000066 20r00r00         [ 6]  233 	jsr	__mullonglong
                                    234 ;	assignResultValue
      000069 85*00            [ 3]  235 	sta	*___ckd_mul_schar_sloc0_1_0
      00006B 86*01            [ 3]  236 	stx	*(___ckd_mul_schar_sloc0_1_0 + 1)
      00006D A5*00            [ 3]  237 	lda	*___SDCC_m6502_ret2
      00006F 85*02            [ 3]  238 	sta	*(___ckd_mul_schar_sloc0_1_0 + 2)
      000071 A5*00            [ 3]  239 	lda	*___SDCC_m6502_ret3
      000073 85*03            [ 3]  240 	sta	*(___ckd_mul_schar_sloc0_1_0 + 3)
      000075 A5*00            [ 3]  241 	lda	*___SDCC_m6502_ret4
      000077 85*04            [ 3]  242 	sta	*(___ckd_mul_schar_sloc0_1_0 + 4)
      000079 A5*00            [ 3]  243 	lda	*___SDCC_m6502_ret5
      00007B 85*05            [ 3]  244 	sta	*(___ckd_mul_schar_sloc0_1_0 + 5)
      00007D A5*00            [ 3]  245 	lda	*___SDCC_m6502_ret6
      00007F 85*06            [ 3]  246 	sta	*(___ckd_mul_schar_sloc0_1_0 + 6)
      000081 A5*00            [ 3]  247 	lda	*___SDCC_m6502_ret7
      000083 85*07            [ 3]  248 	sta	*(___ckd_mul_schar_sloc0_1_0 + 7)
                                    249 ;	Raw cost for generated ic 18 : (31, 48.000000) count=1.000000
                                    250 ;	genCast
                                    251 ;	genCopy
                                    252 ;	Raw cost for generated ic 6 : (2, 3.000000) count=1.000000
                                    253 ;	genPointerSet
                                    254 ;	  setupDPTR - off=0 remat=(null) savea=0
      000085 AEr10r00         [ 4]  255 	ldx	___ckd_mul_schar_r_10000_41
      000088 86*00            [ 3]  256 	stx	*(DPTR+0)
      00008A AEr11r00         [ 4]  257 	ldx	(___ckd_mul_schar_r_10000_41 + 1)
      00008D 86*01            [ 3]  258 	stx	*(DPTR+1)
      00008F A6*00            [ 3]  259 	ldx	*(___ckd_mul_schar_sloc0_1_0+0)
      000091 8A               [ 2]  260 	txa
      000092 A0 00            [ 2]  261 	ldy	#0x00
      000094 91*00            [ 6]  262 	sta	[DPTR],y
      000096 A6*00            [ 3]  263 	ldx	*(___ckd_mul_schar_sloc0_1_0+0)
                                    264 ;	Raw cost for generated ic 7 : (21, 32.000000) count=1.000000
                                    265 ;	genCast
      000098 8A               [ 2]  266 	txa
      000099 85*08            [ 3]  267 	sta	*___ckd_mul_schar_sloc1_1_0
      00009B 0A               [ 2]  268 	asl	a
      00009C 98               [ 2]  269 	tya
      00009D 69 FF            [ 3]  270 	adc	#0xff
      00009F 49 FF            [ 2]  271 	eor	#0xff
      0000A1 85*09            [ 3]  272 	sta	*(___ckd_mul_schar_sloc1_1_0 + 1)
      0000A3 85*0A            [ 3]  273 	sta	*(___ckd_mul_schar_sloc1_1_0 + 2)
      0000A5 85*0B            [ 3]  274 	sta	*(___ckd_mul_schar_sloc1_1_0 + 3)
      0000A7 85*0C            [ 3]  275 	sta	*(___ckd_mul_schar_sloc1_1_0 + 4)
      0000A9 85*0D            [ 3]  276 	sta	*(___ckd_mul_schar_sloc1_1_0 + 5)
      0000AB 85*0E            [ 3]  277 	sta	*(___ckd_mul_schar_sloc1_1_0 + 6)
      0000AD 85*0F            [ 3]  278 	sta	*(___ckd_mul_schar_sloc1_1_0 + 7)
                                    279 ;	Raw cost for generated ic 10 : (23, 34.000000) count=1.000000
                                    280 ;	genCmpEQorNE
      0000AF A5*08            [ 3]  281 	lda	*___ckd_mul_schar_sloc1_1_0
      0000B1 C5*00            [ 3]  282 	cmp	*___ckd_mul_schar_sloc0_1_0
      0000B3 D0 2A            [ 4]  283 	bne	00104$
      0000B5 A5*09            [ 3]  284 	lda	*(___ckd_mul_schar_sloc1_1_0 + 1)
      0000B7 C5*01            [ 3]  285 	cmp	*(___ckd_mul_schar_sloc0_1_0 + 1)
      0000B9 D0 24            [ 4]  286 	bne	00104$
      0000BB A5*0A            [ 3]  287 	lda	*(___ckd_mul_schar_sloc1_1_0 + 2)
      0000BD C5*02            [ 3]  288 	cmp	*(___ckd_mul_schar_sloc0_1_0 + 2)
      0000BF D0 1E            [ 4]  289 	bne	00104$
      0000C1 A5*0B            [ 3]  290 	lda	*(___ckd_mul_schar_sloc1_1_0 + 3)
      0000C3 C5*03            [ 3]  291 	cmp	*(___ckd_mul_schar_sloc0_1_0 + 3)
      0000C5 D0 18            [ 4]  292 	bne	00104$
      0000C7 A5*0C            [ 3]  293 	lda	*(___ckd_mul_schar_sloc1_1_0 + 4)
      0000C9 C5*04            [ 3]  294 	cmp	*(___ckd_mul_schar_sloc0_1_0 + 4)
      0000CB D0 12            [ 4]  295 	bne	00104$
      0000CD A5*0D            [ 3]  296 	lda	*(___ckd_mul_schar_sloc1_1_0 + 5)
      0000CF C5*05            [ 3]  297 	cmp	*(___ckd_mul_schar_sloc0_1_0 + 5)
      0000D1 D0 0C            [ 4]  298 	bne	00104$
      0000D3 A5*0E            [ 3]  299 	lda	*(___ckd_mul_schar_sloc1_1_0 + 6)
      0000D5 C5*06            [ 3]  300 	cmp	*(___ckd_mul_schar_sloc0_1_0 + 6)
      0000D7 D0 06            [ 4]  301 	bne	00104$
      0000D9 A5*0F            [ 3]  302 	lda	*(___ckd_mul_schar_sloc1_1_0 + 7)
      0000DB C5*07            [ 3]  303 	cmp	*(___ckd_mul_schar_sloc0_1_0 + 7)
      0000DD F0 03            [ 4]  304 	beq	00112$
      0000DF                        305 00104$:
      0000DF 98               [ 2]  306 	tya
      0000E0 80 02            [ 4]  307 	bra	00111$
      0000E2                        308 00112$:
      0000E2 A9 01            [ 2]  309 	lda	#0x01
      0000E4                        310 00111$:
                                    311 ;	Raw cost for generated ic 11 : (74, 96.399994) count=1.000000
                                    312 ;	genNot
      0000E4 49 01            [ 2]  313 	eor	#0x01
                                    314 ;	Raw cost for generated ic 12 : (2, 2.000000) count=1.000000
                                    315 ;	genRet
                                    316 ;	Raw cost for generated ic 13 : (0, 0.000000) count=1.000000
                                    317 ;	genLabel
                                    318 ;	Raw cost for generated ic 14 : (0, 0.000000) count=1.000000
                                    319 ;	genEndFunction
      0000E6 60               [ 6]  320 	rts
                                    321 ;	Raw cost for generated ic 15 : (1, 6.000000) count=1.000000
                                    322 ;------------------------------------------------------------
                                    323 ;Allocation info for local variables in function '__ckd_mul_uchar'
                                    324 ;------------------------------------------------------------
                                    325 ;sloc0         Allocated with name '___ckd_mul_uchar_sloc0_1_0'
                                    326 ;sloc1         Allocated with name '___ckd_mul_uchar_sloc1_1_0'
                                    327 ;a             Allocated with name '___ckd_mul_uchar_PARM_2'
                                    328 ;b             Allocated with name '___ckd_mul_uchar_PARM_3'
                                    329 ;r             Allocated with name '___ckd_mul_uchar_r_10000_43'
                                    330 ;result        Allocated with name '___ckd_mul_uchar_result_10000_44'
                                    331 ;------------------------------------------------------------
                                    332 ;	./../../include/stdckdint.h: 71: inline _Bool __ckd_mul_uchar __CKD_DEFAULT_IMPL(unsigned char, *)
                                    333 ;	genLabel
                                    334 ;	Raw cost for generated ic 0 : (0, 0.000000) count=1.000000
                                    335 ;	-----------------------------------------
                                    336 ;	 function __ckd_mul_uchar
                                    337 ;	-----------------------------------------
                                    338 ;	Register assignment might be sub-optimal.
                                    339 ;	Stack space usage: 0 bytes.
      0000E7                        340 ___ckd_mul_uchar:
                                    341 ;	Raw cost for generated ic 1 : (0, 0.000000) count=1.000000
                                    342 ;	genReceive
      0000E7 8Dr22r00         [ 4]  343 	sta	___ckd_mul_uchar_r_10000_43
      0000EA 8Er23r00         [ 4]  344 	stx	(___ckd_mul_uchar_r_10000_43 + 1)
                                    345 ;	Raw cost for generated ic 2 : (6, 8.000000) count=1.000000
                                    346 ;	genAssign
                                    347 ;	genCopy
      0000ED ADr19r00         [ 4]  348 	lda	(___ckd_mul_uchar_PARM_2 + 7)
      0000F0 8Dr07r00         [ 4]  349 	sta	(__mullonglong_PARM_1 + 7)
      0000F3 ADr18r00         [ 4]  350 	lda	(___ckd_mul_uchar_PARM_2 + 6)
      0000F6 8Dr06r00         [ 4]  351 	sta	(__mullonglong_PARM_1 + 6)
      0000F9 ADr17r00         [ 4]  352 	lda	(___ckd_mul_uchar_PARM_2 + 5)
      0000FC 8Dr05r00         [ 4]  353 	sta	(__mullonglong_PARM_1 + 5)
      0000FF ADr16r00         [ 4]  354 	lda	(___ckd_mul_uchar_PARM_2 + 4)
      000102 8Dr04r00         [ 4]  355 	sta	(__mullonglong_PARM_1 + 4)
      000105 ADr15r00         [ 4]  356 	lda	(___ckd_mul_uchar_PARM_2 + 3)
      000108 8Dr03r00         [ 4]  357 	sta	(__mullonglong_PARM_1 + 3)
      00010B ADr14r00         [ 4]  358 	lda	(___ckd_mul_uchar_PARM_2 + 2)
      00010E 8Dr02r00         [ 4]  359 	sta	(__mullonglong_PARM_1 + 2)
      000111 ADr13r00         [ 4]  360 	lda	(___ckd_mul_uchar_PARM_2 + 1)
      000114 8Dr01r00         [ 4]  361 	sta	(__mullonglong_PARM_1 + 1)
      000117 ADr12r00         [ 4]  362 	lda	___ckd_mul_uchar_PARM_2
      00011A 8Dr00r00         [ 4]  363 	sta	__mullonglong_PARM_1
                                    364 ;	Raw cost for generated ic 16 : (48, 64.000000) count=1.000000
                                    365 ;	genAssign
                                    366 ;	genCopy
      00011D ADr21r00         [ 4]  367 	lda	(___ckd_mul_uchar_PARM_3 + 7)
      000120 8Dr07r00         [ 4]  368 	sta	(__mullonglong_PARM_2 + 7)
      000123 ADr20r00         [ 4]  369 	lda	(___ckd_mul_uchar_PARM_3 + 6)
      000126 8Dr06r00         [ 4]  370 	sta	(__mullonglong_PARM_2 + 6)
      000129 ADr1Fr00         [ 4]  371 	lda	(___ckd_mul_uchar_PARM_3 + 5)
      00012C 8Dr05r00         [ 4]  372 	sta	(__mullonglong_PARM_2 + 5)
      00012F ADr1Er00         [ 4]  373 	lda	(___ckd_mul_uchar_PARM_3 + 4)
      000132 8Dr04r00         [ 4]  374 	sta	(__mullonglong_PARM_2 + 4)
      000135 ADr1Dr00         [ 4]  375 	lda	(___ckd_mul_uchar_PARM_3 + 3)
      000138 8Dr03r00         [ 4]  376 	sta	(__mullonglong_PARM_2 + 3)
      00013B ADr1Cr00         [ 4]  377 	lda	(___ckd_mul_uchar_PARM_3 + 2)
      00013E 8Dr02r00         [ 4]  378 	sta	(__mullonglong_PARM_2 + 2)
      000141 ADr1Br00         [ 4]  379 	lda	(___ckd_mul_uchar_PARM_3 + 1)
      000144 8Dr01r00         [ 4]  380 	sta	(__mullonglong_PARM_2 + 1)
      000147 ADr1Ar00         [ 4]  381 	lda	___ckd_mul_uchar_PARM_3
      00014A 8Dr00r00         [ 4]  382 	sta	__mullonglong_PARM_2
                                    383 ;	Raw cost for generated ic 17 : (48, 64.000000) count=1.000000
                                    384 ;	genCall
      00014D 20r00r00         [ 6]  385 	jsr	__mullonglong
                                    386 ;	assignResultValue
      000150 85*10            [ 3]  387 	sta	*___ckd_mul_uchar_sloc0_1_0
      000152 86*11            [ 3]  388 	stx	*(___ckd_mul_uchar_sloc0_1_0 + 1)
      000154 A5*00            [ 3]  389 	lda	*___SDCC_m6502_ret2
      000156 85*12            [ 3]  390 	sta	*(___ckd_mul_uchar_sloc0_1_0 + 2)
      000158 A5*00            [ 3]  391 	lda	*___SDCC_m6502_ret3
      00015A 85*13            [ 3]  392 	sta	*(___ckd_mul_uchar_sloc0_1_0 + 3)
      00015C A5*00            [ 3]  393 	lda	*___SDCC_m6502_ret4
      00015E 85*14            [ 3]  394 	sta	*(___ckd_mul_uchar_sloc0_1_0 + 4)
      000160 A5*00            [ 3]  395 	lda	*___SDCC_m6502_ret5
      000162 85*15            [ 3]  396 	sta	*(___ckd_mul_uchar_sloc0_1_0 + 5)
      000164 A5*00            [ 3]  397 	lda	*___SDCC_m6502_ret6
      000166 85*16            [ 3]  398 	sta	*(___ckd_mul_uchar_sloc0_1_0 + 6)
      000168 A5*00            [ 3]  399 	lda	*___SDCC_m6502_ret7
      00016A 85*17            [ 3]  400 	sta	*(___ckd_mul_uchar_sloc0_1_0 + 7)
                                    401 ;	Raw cost for generated ic 18 : (31, 48.000000) count=1.000000
                                    402 ;	genCast
                                    403 ;	genCopy
                                    404 ;	Raw cost for generated ic 6 : (2, 3.000000) count=1.000000
                                    405 ;	genPointerSet
                                    406 ;	  setupDPTR - off=0 remat=(null) savea=0
      00016C AEr22r00         [ 4]  407 	ldx	___ckd_mul_uchar_r_10000_43
      00016F 86*00            [ 3]  408 	stx	*(DPTR+0)
      000171 AEr23r00         [ 4]  409 	ldx	(___ckd_mul_uchar_r_10000_43 + 1)
      000174 86*01            [ 3]  410 	stx	*(DPTR+1)
      000176 A6*10            [ 3]  411 	ldx	*(___ckd_mul_uchar_sloc0_1_0+0)
      000178 8A               [ 2]  412 	txa
      000179 A0 00            [ 2]  413 	ldy	#0x00
      00017B 91*00            [ 6]  414 	sta	[DPTR],y
      00017D A6*10            [ 3]  415 	ldx	*(___ckd_mul_uchar_sloc0_1_0+0)
                                    416 ;	Raw cost for generated ic 7 : (21, 32.000000) count=1.000000
                                    417 ;	genCast
                                    418 ;	genCopy
      00017F 84*1F            [ 3]  419 	sty	*(___ckd_mul_uchar_sloc1_1_0 + 7)
      000181 84*1E            [ 3]  420 	sty	*(___ckd_mul_uchar_sloc1_1_0 + 6)
      000183 84*1D            [ 3]  421 	sty	*(___ckd_mul_uchar_sloc1_1_0 + 5)
      000185 84*1C            [ 3]  422 	sty	*(___ckd_mul_uchar_sloc1_1_0 + 4)
      000187 84*1B            [ 3]  423 	sty	*(___ckd_mul_uchar_sloc1_1_0 + 3)
      000189 84*1A            [ 3]  424 	sty	*(___ckd_mul_uchar_sloc1_1_0 + 2)
      00018B 84*19            [ 3]  425 	sty	*(___ckd_mul_uchar_sloc1_1_0 + 1)
      00018D 86*18            [ 3]  426 	stx	*___ckd_mul_uchar_sloc1_1_0
                                    427 ;	Raw cost for generated ic 10 : (16, 24.000000) count=1.000000
                                    428 ;	genCmpEQorNE
      00018F E4*10            [ 3]  429 	cpx	*___ckd_mul_uchar_sloc0_1_0
      000191 D0 2A            [ 4]  430 	bne	00104$
      000193 A5*19            [ 3]  431 	lda	*(___ckd_mul_uchar_sloc1_1_0 + 1)
      000195 C5*11            [ 3]  432 	cmp	*(___ckd_mul_uchar_sloc0_1_0 + 1)
      000197 D0 24            [ 4]  433 	bne	00104$
      000199 A5*1A            [ 3]  434 	lda	*(___ckd_mul_uchar_sloc1_1_0 + 2)
      00019B C5*12            [ 3]  435 	cmp	*(___ckd_mul_uchar_sloc0_1_0 + 2)
      00019D D0 1E            [ 4]  436 	bne	00104$
      00019F A5*1B            [ 3]  437 	lda	*(___ckd_mul_uchar_sloc1_1_0 + 3)
      0001A1 C5*13            [ 3]  438 	cmp	*(___ckd_mul_uchar_sloc0_1_0 + 3)
      0001A3 D0 18            [ 4]  439 	bne	00104$
      0001A5 A5*1C            [ 3]  440 	lda	*(___ckd_mul_uchar_sloc1_1_0 + 4)
      0001A7 C5*14            [ 3]  441 	cmp	*(___ckd_mul_uchar_sloc0_1_0 + 4)
      0001A9 D0 12            [ 4]  442 	bne	00104$
      0001AB A5*1D            [ 3]  443 	lda	*(___ckd_mul_uchar_sloc1_1_0 + 5)
      0001AD C5*15            [ 3]  444 	cmp	*(___ckd_mul_uchar_sloc0_1_0 + 5)
      0001AF D0 0C            [ 4]  445 	bne	00104$
      0001B1 A5*1E            [ 3]  446 	lda	*(___ckd_mul_uchar_sloc1_1_0 + 6)
      0001B3 C5*16            [ 3]  447 	cmp	*(___ckd_mul_uchar_sloc0_1_0 + 6)
      0001B5 D0 06            [ 4]  448 	bne	00104$
      0001B7 A5*1F            [ 3]  449 	lda	*(___ckd_mul_uchar_sloc1_1_0 + 7)
      0001B9 C5*17            [ 3]  450 	cmp	*(___ckd_mul_uchar_sloc0_1_0 + 7)
      0001BB F0 03            [ 4]  451 	beq	00112$
      0001BD                        452 00104$:
      0001BD 98               [ 2]  453 	tya
      0001BE 80 02            [ 4]  454 	bra	00111$
      0001C0                        455 00112$:
      0001C0 A9 01            [ 2]  456 	lda	#0x01
      0001C2                        457 00111$:
                                    458 ;	Raw cost for generated ic 11 : (72, 93.399994) count=1.000000
                                    459 ;	genNot
      0001C2 49 01            [ 2]  460 	eor	#0x01
                                    461 ;	Raw cost for generated ic 12 : (2, 2.000000) count=1.000000
                                    462 ;	genRet
                                    463 ;	Raw cost for generated ic 13 : (0, 0.000000) count=1.000000
                                    464 ;	genLabel
                                    465 ;	Raw cost for generated ic 14 : (0, 0.000000) count=1.000000
                                    466 ;	genEndFunction
      0001C4 60               [ 6]  467 	rts
                                    468 ;	Raw cost for generated ic 15 : (1, 6.000000) count=1.000000
                                    469 ;------------------------------------------------------------
                                    470 ;Allocation info for local variables in function '__ckd_mul_short'
                                    471 ;------------------------------------------------------------
                                    472 ;sloc0         Allocated with name '___ckd_mul_short_sloc0_1_0'
                                    473 ;sloc1         Allocated with name '___ckd_mul_short_sloc1_1_0'
                                    474 ;a             Allocated with name '___ckd_mul_short_PARM_2'
                                    475 ;b             Allocated with name '___ckd_mul_short_PARM_3'
                                    476 ;r             Allocated with name '___ckd_mul_short_r_10000_45'
                                    477 ;result        Allocated with name '___ckd_mul_short_result_10000_46'
                                    478 ;------------------------------------------------------------
                                    479 ;	./../../include/stdckdint.h: 72: inline _Bool __ckd_mul_short __CKD_DEFAULT_IMPL(short, *)
                                    480 ;	genLabel
                                    481 ;	Raw cost for generated ic 0 : (0, 0.000000) count=1.000000
                                    482 ;	-----------------------------------------
                                    483 ;	 function __ckd_mul_short
                                    484 ;	-----------------------------------------
                                    485 ;	Register assignment might be sub-optimal.
                                    486 ;	Stack space usage: 0 bytes.
      0001C5                        487 ___ckd_mul_short:
                                    488 ;	Raw cost for generated ic 1 : (0, 0.000000) count=1.000000
                                    489 ;	genReceive
      0001C5 8Dr34r00         [ 4]  490 	sta	___ckd_mul_short_r_10000_45
      0001C8 8Er35r00         [ 4]  491 	stx	(___ckd_mul_short_r_10000_45 + 1)
                                    492 ;	Raw cost for generated ic 2 : (6, 8.000000) count=1.000000
                                    493 ;	genAssign
                                    494 ;	genCopy
      0001CB ADr2Br00         [ 4]  495 	lda	(___ckd_mul_short_PARM_2 + 7)
      0001CE 8Dr07r00         [ 4]  496 	sta	(__mullonglong_PARM_1 + 7)
      0001D1 ADr2Ar00         [ 4]  497 	lda	(___ckd_mul_short_PARM_2 + 6)
      0001D4 8Dr06r00         [ 4]  498 	sta	(__mullonglong_PARM_1 + 6)
      0001D7 ADr29r00         [ 4]  499 	lda	(___ckd_mul_short_PARM_2 + 5)
      0001DA 8Dr05r00         [ 4]  500 	sta	(__mullonglong_PARM_1 + 5)
      0001DD ADr28r00         [ 4]  501 	lda	(___ckd_mul_short_PARM_2 + 4)
      0001E0 8Dr04r00         [ 4]  502 	sta	(__mullonglong_PARM_1 + 4)
      0001E3 ADr27r00         [ 4]  503 	lda	(___ckd_mul_short_PARM_2 + 3)
      0001E6 8Dr03r00         [ 4]  504 	sta	(__mullonglong_PARM_1 + 3)
      0001E9 ADr26r00         [ 4]  505 	lda	(___ckd_mul_short_PARM_2 + 2)
      0001EC 8Dr02r00         [ 4]  506 	sta	(__mullonglong_PARM_1 + 2)
      0001EF ADr25r00         [ 4]  507 	lda	(___ckd_mul_short_PARM_2 + 1)
      0001F2 8Dr01r00         [ 4]  508 	sta	(__mullonglong_PARM_1 + 1)
      0001F5 ADr24r00         [ 4]  509 	lda	___ckd_mul_short_PARM_2
      0001F8 8Dr00r00         [ 4]  510 	sta	__mullonglong_PARM_1
                                    511 ;	Raw cost for generated ic 16 : (48, 64.000000) count=1.000000
                                    512 ;	genAssign
                                    513 ;	genCopy
      0001FB ADr33r00         [ 4]  514 	lda	(___ckd_mul_short_PARM_3 + 7)
      0001FE 8Dr07r00         [ 4]  515 	sta	(__mullonglong_PARM_2 + 7)
      000201 ADr32r00         [ 4]  516 	lda	(___ckd_mul_short_PARM_3 + 6)
      000204 8Dr06r00         [ 4]  517 	sta	(__mullonglong_PARM_2 + 6)
      000207 ADr31r00         [ 4]  518 	lda	(___ckd_mul_short_PARM_3 + 5)
      00020A 8Dr05r00         [ 4]  519 	sta	(__mullonglong_PARM_2 + 5)
      00020D ADr30r00         [ 4]  520 	lda	(___ckd_mul_short_PARM_3 + 4)
      000210 8Dr04r00         [ 4]  521 	sta	(__mullonglong_PARM_2 + 4)
      000213 ADr2Fr00         [ 4]  522 	lda	(___ckd_mul_short_PARM_3 + 3)
      000216 8Dr03r00         [ 4]  523 	sta	(__mullonglong_PARM_2 + 3)
      000219 ADr2Er00         [ 4]  524 	lda	(___ckd_mul_short_PARM_3 + 2)
      00021C 8Dr02r00         [ 4]  525 	sta	(__mullonglong_PARM_2 + 2)
      00021F ADr2Dr00         [ 4]  526 	lda	(___ckd_mul_short_PARM_3 + 1)
      000222 8Dr01r00         [ 4]  527 	sta	(__mullonglong_PARM_2 + 1)
      000225 ADr2Cr00         [ 4]  528 	lda	___ckd_mul_short_PARM_3
      000228 8Dr00r00         [ 4]  529 	sta	__mullonglong_PARM_2
                                    530 ;	Raw cost for generated ic 17 : (48, 64.000000) count=1.000000
                                    531 ;	genCall
      00022B 20r00r00         [ 6]  532 	jsr	__mullonglong
                                    533 ;	assignResultValue
      00022E 85*20            [ 3]  534 	sta	*___ckd_mul_short_sloc0_1_0
      000230 86*21            [ 3]  535 	stx	*(___ckd_mul_short_sloc0_1_0 + 1)
      000232 A5*00            [ 3]  536 	lda	*___SDCC_m6502_ret2
      000234 85*22            [ 3]  537 	sta	*(___ckd_mul_short_sloc0_1_0 + 2)
      000236 A5*00            [ 3]  538 	lda	*___SDCC_m6502_ret3
      000238 85*23            [ 3]  539 	sta	*(___ckd_mul_short_sloc0_1_0 + 3)
      00023A A5*00            [ 3]  540 	lda	*___SDCC_m6502_ret4
      00023C 85*24            [ 3]  541 	sta	*(___ckd_mul_short_sloc0_1_0 + 4)
      00023E A5*00            [ 3]  542 	lda	*___SDCC_m6502_ret5
      000240 85*25            [ 3]  543 	sta	*(___ckd_mul_short_sloc0_1_0 + 5)
      000242 A5*00            [ 3]  544 	lda	*___SDCC_m6502_ret6
      000244 85*26            [ 3]  545 	sta	*(___ckd_mul_short_sloc0_1_0 + 6)
      000246 A5*00            [ 3]  546 	lda	*___SDCC_m6502_ret7
      000248 85*27            [ 3]  547 	sta	*(___ckd_mul_short_sloc0_1_0 + 7)
                                    548 ;	Raw cost for generated ic 18 : (31, 48.000000) count=1.000000
                                    549 ;	genCast
                                    550 ;	genCopy
      00024A A5*20            [ 3]  551 	lda	*___ckd_mul_short_sloc0_1_0
                                    552 ;	Raw cost for generated ic 6 : (2, 3.000000) count=1.000000
                                    553 ;	genPointerSet
      00024C 85*00            [ 3]  554 	sta	*(REGTEMP+0)
      00024E 86*01            [ 3]  555 	stx	*(REGTEMP+1)
                                    556 ;	  setupDPTR - off=0 remat=(null) savea=0
      000250 AEr34r00         [ 4]  557 	ldx	___ckd_mul_short_r_10000_45
      000253 86*00            [ 3]  558 	stx	*(DPTR+0)
      000255 AEr35r00         [ 4]  559 	ldx	(___ckd_mul_short_r_10000_45 + 1)
      000258 86*01            [ 3]  560 	stx	*(DPTR+1)
      00025A A5*00            [ 3]  561 	lda	*(REGTEMP+0)
      00025C A6*01            [ 3]  562 	ldx	*(REGTEMP+1)
      00025E A0 00            [ 2]  563 	ldy	#0x00
      000260 91*00            [ 6]  564 	sta	[DPTR],y
      000262 8A               [ 2]  565 	txa
      000263 C8               [ 2]  566 	iny
      000264 91*00            [ 6]  567 	sta	[DPTR],y
      000266 A6*01            [ 3]  568 	ldx	*(REGTEMP+1)
      000268 A5*00            [ 3]  569 	lda	*(REGTEMP+0)
                                    570 ;	Raw cost for generated ic 7 : (30, 50.000000) count=1.000000
                                    571 ;	genCast
      00026A 85*28            [ 3]  572 	sta	*___ckd_mul_short_sloc1_1_0
      00026C 86*29            [ 3]  573 	stx	*(___ckd_mul_short_sloc1_1_0 + 1)
      00026E E0 80            [ 2]  574 	cpx	#0x80
      000270 A2 00            [ 2]  575 	ldx	#0x00
      000272 90 01            [ 4]  576 	bcc	00103$
      000274 CA               [ 2]  577 	dex
      000275                        578 00103$:
      000275 86*2A            [ 3]  579 	stx	*(___ckd_mul_short_sloc1_1_0 + 2)
      000277 86*2B            [ 3]  580 	stx	*(___ckd_mul_short_sloc1_1_0 + 3)
      000279 86*2C            [ 3]  581 	stx	*(___ckd_mul_short_sloc1_1_0 + 4)
      00027B 86*2D            [ 3]  582 	stx	*(___ckd_mul_short_sloc1_1_0 + 5)
      00027D 86*2E            [ 3]  583 	stx	*(___ckd_mul_short_sloc1_1_0 + 6)
      00027F 86*2F            [ 3]  584 	stx	*(___ckd_mul_short_sloc1_1_0 + 7)
                                    585 ;	Raw cost for generated ic 10 : (23, 32.599998) count=1.000000
                                    586 ;	genCmpEQorNE
      000281 C5*20            [ 3]  587 	cmp	*___ckd_mul_short_sloc0_1_0
      000283 D0 28            [ 4]  588 	bne	00105$
      000285 A5*29            [ 3]  589 	lda	*(___ckd_mul_short_sloc1_1_0 + 1)
      000287 C5*21            [ 3]  590 	cmp	*(___ckd_mul_short_sloc0_1_0 + 1)
      000289 D0 22            [ 4]  591 	bne	00105$
      00028B A5*2A            [ 3]  592 	lda	*(___ckd_mul_short_sloc1_1_0 + 2)
      00028D C5*22            [ 3]  593 	cmp	*(___ckd_mul_short_sloc0_1_0 + 2)
      00028F D0 1C            [ 4]  594 	bne	00105$
      000291 A5*2B            [ 3]  595 	lda	*(___ckd_mul_short_sloc1_1_0 + 3)
      000293 C5*23            [ 3]  596 	cmp	*(___ckd_mul_short_sloc0_1_0 + 3)
      000295 D0 16            [ 4]  597 	bne	00105$
      000297 A5*2C            [ 3]  598 	lda	*(___ckd_mul_short_sloc1_1_0 + 4)
      000299 C5*24            [ 3]  599 	cmp	*(___ckd_mul_short_sloc0_1_0 + 4)
      00029B D0 10            [ 4]  600 	bne	00105$
      00029D A5*2D            [ 3]  601 	lda	*(___ckd_mul_short_sloc1_1_0 + 5)
      00029F C5*25            [ 3]  602 	cmp	*(___ckd_mul_short_sloc0_1_0 + 5)
      0002A1 D0 0A            [ 4]  603 	bne	00105$
      0002A3 A5*2E            [ 3]  604 	lda	*(___ckd_mul_short_sloc1_1_0 + 6)
      0002A5 C5*26            [ 3]  605 	cmp	*(___ckd_mul_short_sloc0_1_0 + 6)
      0002A7 D0 04            [ 4]  606 	bne	00105$
      0002A9 E4*27            [ 3]  607 	cpx	*(___ckd_mul_short_sloc0_1_0 + 7)
      0002AB F0 04            [ 4]  608 	beq	00113$
      0002AD                        609 00105$:
      0002AD A9 00            [ 2]  610 	lda	#0x00
      0002AF 80 01            [ 4]  611 	bra	00112$
      0002B1                        612 00113$:
      0002B1 98               [ 2]  613 	tya
      0002B2                        614 00112$:
                                    615 ;	Raw cost for generated ic 11 : (70, 90.399994) count=1.000000
                                    616 ;	genNot
      0002B2 49 01            [ 2]  617 	eor	#0x01
                                    618 ;	Raw cost for generated ic 12 : (2, 2.000000) count=1.000000
                                    619 ;	genRet
                                    620 ;	Raw cost for generated ic 13 : (0, 0.000000) count=1.000000
                                    621 ;	genLabel
                                    622 ;	Raw cost for generated ic 14 : (0, 0.000000) count=1.000000
                                    623 ;	genEndFunction
      0002B4 60               [ 6]  624 	rts
                                    625 ;	Raw cost for generated ic 15 : (1, 6.000000) count=1.000000
                                    626 ;------------------------------------------------------------
                                    627 ;Allocation info for local variables in function '__ckd_mul_ushort'
                                    628 ;------------------------------------------------------------
                                    629 ;sloc0         Allocated with name '___ckd_mul_ushort_sloc0_1_0'
                                    630 ;sloc1         Allocated with name '___ckd_mul_ushort_sloc1_1_0'
                                    631 ;a             Allocated with name '___ckd_mul_ushort_PARM_2'
                                    632 ;b             Allocated with name '___ckd_mul_ushort_PARM_3'
                                    633 ;r             Allocated with name '___ckd_mul_ushort_r_10000_47'
                                    634 ;result        Allocated with name '___ckd_mul_ushort_result_10000_48'
                                    635 ;------------------------------------------------------------
                                    636 ;	./../../include/stdckdint.h: 73: inline _Bool __ckd_mul_ushort __CKD_DEFAULT_IMPL(unsigned short, *)
                                    637 ;	genLabel
                                    638 ;	Raw cost for generated ic 0 : (0, 0.000000) count=1.000000
                                    639 ;	-----------------------------------------
                                    640 ;	 function __ckd_mul_ushort
                                    641 ;	-----------------------------------------
                                    642 ;	Register assignment might be sub-optimal.
                                    643 ;	Stack space usage: 0 bytes.
      0002B5                        644 ___ckd_mul_ushort:
                                    645 ;	Raw cost for generated ic 1 : (0, 0.000000) count=1.000000
                                    646 ;	genReceive
      0002B5 8Dr46r00         [ 4]  647 	sta	___ckd_mul_ushort_r_10000_47
      0002B8 8Er47r00         [ 4]  648 	stx	(___ckd_mul_ushort_r_10000_47 + 1)
                                    649 ;	Raw cost for generated ic 2 : (6, 8.000000) count=1.000000
                                    650 ;	genAssign
                                    651 ;	genCopy
      0002BB ADr3Dr00         [ 4]  652 	lda	(___ckd_mul_ushort_PARM_2 + 7)
      0002BE 8Dr07r00         [ 4]  653 	sta	(__mullonglong_PARM_1 + 7)
      0002C1 ADr3Cr00         [ 4]  654 	lda	(___ckd_mul_ushort_PARM_2 + 6)
      0002C4 8Dr06r00         [ 4]  655 	sta	(__mullonglong_PARM_1 + 6)
      0002C7 ADr3Br00         [ 4]  656 	lda	(___ckd_mul_ushort_PARM_2 + 5)
      0002CA 8Dr05r00         [ 4]  657 	sta	(__mullonglong_PARM_1 + 5)
      0002CD ADr3Ar00         [ 4]  658 	lda	(___ckd_mul_ushort_PARM_2 + 4)
      0002D0 8Dr04r00         [ 4]  659 	sta	(__mullonglong_PARM_1 + 4)
      0002D3 ADr39r00         [ 4]  660 	lda	(___ckd_mul_ushort_PARM_2 + 3)
      0002D6 8Dr03r00         [ 4]  661 	sta	(__mullonglong_PARM_1 + 3)
      0002D9 ADr38r00         [ 4]  662 	lda	(___ckd_mul_ushort_PARM_2 + 2)
      0002DC 8Dr02r00         [ 4]  663 	sta	(__mullonglong_PARM_1 + 2)
      0002DF ADr37r00         [ 4]  664 	lda	(___ckd_mul_ushort_PARM_2 + 1)
      0002E2 8Dr01r00         [ 4]  665 	sta	(__mullonglong_PARM_1 + 1)
      0002E5 ADr36r00         [ 4]  666 	lda	___ckd_mul_ushort_PARM_2
      0002E8 8Dr00r00         [ 4]  667 	sta	__mullonglong_PARM_1
                                    668 ;	Raw cost for generated ic 16 : (48, 64.000000) count=1.000000
                                    669 ;	genAssign
                                    670 ;	genCopy
      0002EB ADr45r00         [ 4]  671 	lda	(___ckd_mul_ushort_PARM_3 + 7)
      0002EE 8Dr07r00         [ 4]  672 	sta	(__mullonglong_PARM_2 + 7)
      0002F1 ADr44r00         [ 4]  673 	lda	(___ckd_mul_ushort_PARM_3 + 6)
      0002F4 8Dr06r00         [ 4]  674 	sta	(__mullonglong_PARM_2 + 6)
      0002F7 ADr43r00         [ 4]  675 	lda	(___ckd_mul_ushort_PARM_3 + 5)
      0002FA 8Dr05r00         [ 4]  676 	sta	(__mullonglong_PARM_2 + 5)
      0002FD ADr42r00         [ 4]  677 	lda	(___ckd_mul_ushort_PARM_3 + 4)
      000300 8Dr04r00         [ 4]  678 	sta	(__mullonglong_PARM_2 + 4)
      000303 ADr41r00         [ 4]  679 	lda	(___ckd_mul_ushort_PARM_3 + 3)
      000306 8Dr03r00         [ 4]  680 	sta	(__mullonglong_PARM_2 + 3)
      000309 ADr40r00         [ 4]  681 	lda	(___ckd_mul_ushort_PARM_3 + 2)
      00030C 8Dr02r00         [ 4]  682 	sta	(__mullonglong_PARM_2 + 2)
      00030F ADr3Fr00         [ 4]  683 	lda	(___ckd_mul_ushort_PARM_3 + 1)
      000312 8Dr01r00         [ 4]  684 	sta	(__mullonglong_PARM_2 + 1)
      000315 ADr3Er00         [ 4]  685 	lda	___ckd_mul_ushort_PARM_3
      000318 8Dr00r00         [ 4]  686 	sta	__mullonglong_PARM_2
                                    687 ;	Raw cost for generated ic 17 : (48, 64.000000) count=1.000000
                                    688 ;	genCall
      00031B 20r00r00         [ 6]  689 	jsr	__mullonglong
                                    690 ;	assignResultValue
      00031E 85*30            [ 3]  691 	sta	*___ckd_mul_ushort_sloc0_1_0
      000320 86*31            [ 3]  692 	stx	*(___ckd_mul_ushort_sloc0_1_0 + 1)
      000322 A5*00            [ 3]  693 	lda	*___SDCC_m6502_ret2
      000324 85*32            [ 3]  694 	sta	*(___ckd_mul_ushort_sloc0_1_0 + 2)
      000326 A5*00            [ 3]  695 	lda	*___SDCC_m6502_ret3
      000328 85*33            [ 3]  696 	sta	*(___ckd_mul_ushort_sloc0_1_0 + 3)
      00032A A5*00            [ 3]  697 	lda	*___SDCC_m6502_ret4
      00032C 85*34            [ 3]  698 	sta	*(___ckd_mul_ushort_sloc0_1_0 + 4)
      00032E A5*00            [ 3]  699 	lda	*___SDCC_m6502_ret5
      000330 85*35            [ 3]  700 	sta	*(___ckd_mul_ushort_sloc0_1_0 + 5)
      000332 A5*00            [ 3]  701 	lda	*___SDCC_m6502_ret6
      000334 85*36            [ 3]  702 	sta	*(___ckd_mul_ushort_sloc0_1_0 + 6)
      000336 A5*00            [ 3]  703 	lda	*___SDCC_m6502_ret7
      000338 85*37            [ 3]  704 	sta	*(___ckd_mul_ushort_sloc0_1_0 + 7)
                                    705 ;	Raw cost for generated ic 18 : (31, 48.000000) count=1.000000
                                    706 ;	genCast
                                    707 ;	genCopy
      00033A A5*30            [ 3]  708 	lda	*___ckd_mul_ushort_sloc0_1_0
                                    709 ;	Raw cost for generated ic 6 : (2, 3.000000) count=1.000000
                                    710 ;	genPointerSet
      00033C 85*00            [ 3]  711 	sta	*(REGTEMP+0)
      00033E 86*01            [ 3]  712 	stx	*(REGTEMP+1)
                                    713 ;	  setupDPTR - off=0 remat=(null) savea=0
      000340 AEr46r00         [ 4]  714 	ldx	___ckd_mul_ushort_r_10000_47
      000343 86*00            [ 3]  715 	stx	*(DPTR+0)
      000345 AEr47r00         [ 4]  716 	ldx	(___ckd_mul_ushort_r_10000_47 + 1)
      000348 86*01            [ 3]  717 	stx	*(DPTR+1)
      00034A A5*00            [ 3]  718 	lda	*(REGTEMP+0)
      00034C A6*01            [ 3]  719 	ldx	*(REGTEMP+1)
      00034E A0 00            [ 2]  720 	ldy	#0x00
      000350 91*00            [ 6]  721 	sta	[DPTR],y
      000352 8A               [ 2]  722 	txa
      000353 C8               [ 2]  723 	iny
      000354 91*00            [ 6]  724 	sta	[DPTR],y
      000356 A6*01            [ 3]  725 	ldx	*(REGTEMP+1)
      000358 A5*00            [ 3]  726 	lda	*(REGTEMP+0)
                                    727 ;	Raw cost for generated ic 7 : (30, 50.000000) count=1.000000
                                    728 ;	genCast
                                    729 ;	genCopy
      00035A 64*3F            [ 3]  730 	stz	*(___ckd_mul_ushort_sloc1_1_0 + 7)
      00035C 64*3E            [ 3]  731 	stz	*(___ckd_mul_ushort_sloc1_1_0 + 6)
      00035E 64*3D            [ 3]  732 	stz	*(___ckd_mul_ushort_sloc1_1_0 + 5)
      000360 64*3C            [ 3]  733 	stz	*(___ckd_mul_ushort_sloc1_1_0 + 4)
      000362 64*3B            [ 3]  734 	stz	*(___ckd_mul_ushort_sloc1_1_0 + 3)
      000364 64*3A            [ 3]  735 	stz	*(___ckd_mul_ushort_sloc1_1_0 + 2)
      000366 86*39            [ 3]  736 	stx	*(___ckd_mul_ushort_sloc1_1_0 + 1)
      000368 85*38            [ 3]  737 	sta	*___ckd_mul_ushort_sloc1_1_0
                                    738 ;	Raw cost for generated ic 10 : (22, 30.000000) count=1.000000
                                    739 ;	genCmpEQorNE
      00036A C5*30            [ 3]  740 	cmp	*___ckd_mul_ushort_sloc0_1_0
      00036C D0 28            [ 4]  741 	bne	00104$
      00036E E4*31            [ 3]  742 	cpx	*(___ckd_mul_ushort_sloc0_1_0 + 1)
      000370 D0 24            [ 4]  743 	bne	00104$
      000372 A5*3A            [ 3]  744 	lda	*(___ckd_mul_ushort_sloc1_1_0 + 2)
      000374 C5*32            [ 3]  745 	cmp	*(___ckd_mul_ushort_sloc0_1_0 + 2)
      000376 D0 1E            [ 4]  746 	bne	00104$
      000378 A5*3B            [ 3]  747 	lda	*(___ckd_mul_ushort_sloc1_1_0 + 3)
      00037A C5*33            [ 3]  748 	cmp	*(___ckd_mul_ushort_sloc0_1_0 + 3)
      00037C D0 18            [ 4]  749 	bne	00104$
      00037E A5*3C            [ 3]  750 	lda	*(___ckd_mul_ushort_sloc1_1_0 + 4)
      000380 C5*34            [ 3]  751 	cmp	*(___ckd_mul_ushort_sloc0_1_0 + 4)
      000382 D0 12            [ 4]  752 	bne	00104$
      000384 A5*3D            [ 3]  753 	lda	*(___ckd_mul_ushort_sloc1_1_0 + 5)
      000386 C5*35            [ 3]  754 	cmp	*(___ckd_mul_ushort_sloc0_1_0 + 5)
      000388 D0 0C            [ 4]  755 	bne	00104$
      00038A A5*3E            [ 3]  756 	lda	*(___ckd_mul_ushort_sloc1_1_0 + 6)
      00038C C5*36            [ 3]  757 	cmp	*(___ckd_mul_ushort_sloc0_1_0 + 6)
      00038E D0 06            [ 4]  758 	bne	00104$
      000390 A5*3F            [ 3]  759 	lda	*(___ckd_mul_ushort_sloc1_1_0 + 7)
      000392 C5*37            [ 3]  760 	cmp	*(___ckd_mul_ushort_sloc0_1_0 + 7)
      000394 F0 04            [ 4]  761 	beq	00112$
      000396                        762 00104$:
      000396 A9 00            [ 2]  763 	lda	#0x00
      000398 80 01            [ 4]  764 	bra	00111$
      00039A                        765 00112$:
      00039A 98               [ 2]  766 	tya
      00039B                        767 00111$:
                                    768 ;	Raw cost for generated ic 11 : (70, 90.399994) count=1.000000
                                    769 ;	genNot
      00039B 49 01            [ 2]  770 	eor	#0x01
                                    771 ;	Raw cost for generated ic 12 : (2, 2.000000) count=1.000000
                                    772 ;	genRet
                                    773 ;	Raw cost for generated ic 13 : (0, 0.000000) count=1.000000
                                    774 ;	genLabel
                                    775 ;	Raw cost for generated ic 14 : (0, 0.000000) count=1.000000
                                    776 ;	genEndFunction
      00039D 60               [ 6]  777 	rts
                                    778 ;	Raw cost for generated ic 15 : (1, 6.000000) count=1.000000
                                    779 ;------------------------------------------------------------
                                    780 ;Allocation info for local variables in function '__ckd_mul_int'
                                    781 ;------------------------------------------------------------
                                    782 ;sloc0         Allocated with name '___ckd_mul_int_sloc0_1_0'
                                    783 ;sloc1         Allocated with name '___ckd_mul_int_sloc1_1_0'
                                    784 ;a             Allocated with name '___ckd_mul_int_PARM_2'
                                    785 ;b             Allocated with name '___ckd_mul_int_PARM_3'
                                    786 ;r             Allocated with name '___ckd_mul_int_r_10000_49'
                                    787 ;result        Allocated with name '___ckd_mul_int_result_10000_50'
                                    788 ;------------------------------------------------------------
                                    789 ;	./../../include/stdckdint.h: 74: inline _Bool __ckd_mul_int __CKD_DEFAULT_IMPL(int, *)
                                    790 ;	genLabel
                                    791 ;	Raw cost for generated ic 0 : (0, 0.000000) count=1.000000
                                    792 ;	-----------------------------------------
                                    793 ;	 function __ckd_mul_int
                                    794 ;	-----------------------------------------
                                    795 ;	Register assignment might be sub-optimal.
                                    796 ;	Stack space usage: 0 bytes.
      00039E                        797 ___ckd_mul_int:
                                    798 ;	Raw cost for generated ic 1 : (0, 0.000000) count=1.000000
                                    799 ;	genReceive
      00039E 8Dr58r00         [ 4]  800 	sta	___ckd_mul_int_r_10000_49
      0003A1 8Er59r00         [ 4]  801 	stx	(___ckd_mul_int_r_10000_49 + 1)
                                    802 ;	Raw cost for generated ic 2 : (6, 8.000000) count=1.000000
                                    803 ;	genAssign
                                    804 ;	genCopy
      0003A4 ADr4Fr00         [ 4]  805 	lda	(___ckd_mul_int_PARM_2 + 7)
      0003A7 8Dr07r00         [ 4]  806 	sta	(__mullonglong_PARM_1 + 7)
      0003AA ADr4Er00         [ 4]  807 	lda	(___ckd_mul_int_PARM_2 + 6)
      0003AD 8Dr06r00         [ 4]  808 	sta	(__mullonglong_PARM_1 + 6)
      0003B0 ADr4Dr00         [ 4]  809 	lda	(___ckd_mul_int_PARM_2 + 5)
      0003B3 8Dr05r00         [ 4]  810 	sta	(__mullonglong_PARM_1 + 5)
      0003B6 ADr4Cr00         [ 4]  811 	lda	(___ckd_mul_int_PARM_2 + 4)
      0003B9 8Dr04r00         [ 4]  812 	sta	(__mullonglong_PARM_1 + 4)
      0003BC ADr4Br00         [ 4]  813 	lda	(___ckd_mul_int_PARM_2 + 3)
      0003BF 8Dr03r00         [ 4]  814 	sta	(__mullonglong_PARM_1 + 3)
      0003C2 ADr4Ar00         [ 4]  815 	lda	(___ckd_mul_int_PARM_2 + 2)
      0003C5 8Dr02r00         [ 4]  816 	sta	(__mullonglong_PARM_1 + 2)
      0003C8 ADr49r00         [ 4]  817 	lda	(___ckd_mul_int_PARM_2 + 1)
      0003CB 8Dr01r00         [ 4]  818 	sta	(__mullonglong_PARM_1 + 1)
      0003CE ADr48r00         [ 4]  819 	lda	___ckd_mul_int_PARM_2
      0003D1 8Dr00r00         [ 4]  820 	sta	__mullonglong_PARM_1
                                    821 ;	Raw cost for generated ic 16 : (48, 64.000000) count=1.000000
                                    822 ;	genAssign
                                    823 ;	genCopy
      0003D4 ADr57r00         [ 4]  824 	lda	(___ckd_mul_int_PARM_3 + 7)
      0003D7 8Dr07r00         [ 4]  825 	sta	(__mullonglong_PARM_2 + 7)
      0003DA ADr56r00         [ 4]  826 	lda	(___ckd_mul_int_PARM_3 + 6)
      0003DD 8Dr06r00         [ 4]  827 	sta	(__mullonglong_PARM_2 + 6)
      0003E0 ADr55r00         [ 4]  828 	lda	(___ckd_mul_int_PARM_3 + 5)
      0003E3 8Dr05r00         [ 4]  829 	sta	(__mullonglong_PARM_2 + 5)
      0003E6 ADr54r00         [ 4]  830 	lda	(___ckd_mul_int_PARM_3 + 4)
      0003E9 8Dr04r00         [ 4]  831 	sta	(__mullonglong_PARM_2 + 4)
      0003EC ADr53r00         [ 4]  832 	lda	(___ckd_mul_int_PARM_3 + 3)
      0003EF 8Dr03r00         [ 4]  833 	sta	(__mullonglong_PARM_2 + 3)
      0003F2 ADr52r00         [ 4]  834 	lda	(___ckd_mul_int_PARM_3 + 2)
      0003F5 8Dr02r00         [ 4]  835 	sta	(__mullonglong_PARM_2 + 2)
      0003F8 ADr51r00         [ 4]  836 	lda	(___ckd_mul_int_PARM_3 + 1)
      0003FB 8Dr01r00         [ 4]  837 	sta	(__mullonglong_PARM_2 + 1)
      0003FE ADr50r00         [ 4]  838 	lda	___ckd_mul_int_PARM_3
      000401 8Dr00r00         [ 4]  839 	sta	__mullonglong_PARM_2
                                    840 ;	Raw cost for generated ic 17 : (48, 64.000000) count=1.000000
                                    841 ;	genCall
      000404 20r00r00         [ 6]  842 	jsr	__mullonglong
                                    843 ;	assignResultValue
      000407 85*40            [ 3]  844 	sta	*___ckd_mul_int_sloc0_1_0
      000409 86*41            [ 3]  845 	stx	*(___ckd_mul_int_sloc0_1_0 + 1)
      00040B A5*00            [ 3]  846 	lda	*___SDCC_m6502_ret2
      00040D 85*42            [ 3]  847 	sta	*(___ckd_mul_int_sloc0_1_0 + 2)
      00040F A5*00            [ 3]  848 	lda	*___SDCC_m6502_ret3
      000411 85*43            [ 3]  849 	sta	*(___ckd_mul_int_sloc0_1_0 + 3)
      000413 A5*00            [ 3]  850 	lda	*___SDCC_m6502_ret4
      000415 85*44            [ 3]  851 	sta	*(___ckd_mul_int_sloc0_1_0 + 4)
      000417 A5*00            [ 3]  852 	lda	*___SDCC_m6502_ret5
      000419 85*45            [ 3]  853 	sta	*(___ckd_mul_int_sloc0_1_0 + 5)
      00041B A5*00            [ 3]  854 	lda	*___SDCC_m6502_ret6
      00041D 85*46            [ 3]  855 	sta	*(___ckd_mul_int_sloc0_1_0 + 6)
      00041F A5*00            [ 3]  856 	lda	*___SDCC_m6502_ret7
      000421 85*47            [ 3]  857 	sta	*(___ckd_mul_int_sloc0_1_0 + 7)
                                    858 ;	Raw cost for generated ic 18 : (31, 48.000000) count=1.000000
                                    859 ;	genCast
                                    860 ;	genCopy
      000423 A5*40            [ 3]  861 	lda	*___ckd_mul_int_sloc0_1_0
                                    862 ;	Raw cost for generated ic 6 : (2, 3.000000) count=1.000000
                                    863 ;	genPointerSet
      000425 85*00            [ 3]  864 	sta	*(REGTEMP+0)
      000427 86*01            [ 3]  865 	stx	*(REGTEMP+1)
                                    866 ;	  setupDPTR - off=0 remat=(null) savea=0
      000429 AEr58r00         [ 4]  867 	ldx	___ckd_mul_int_r_10000_49
      00042C 86*00            [ 3]  868 	stx	*(DPTR+0)
      00042E AEr59r00         [ 4]  869 	ldx	(___ckd_mul_int_r_10000_49 + 1)
      000431 86*01            [ 3]  870 	stx	*(DPTR+1)
      000433 A5*00            [ 3]  871 	lda	*(REGTEMP+0)
      000435 A6*01            [ 3]  872 	ldx	*(REGTEMP+1)
      000437 A0 00            [ 2]  873 	ldy	#0x00
      000439 91*00            [ 6]  874 	sta	[DPTR],y
      00043B 8A               [ 2]  875 	txa
      00043C C8               [ 2]  876 	iny
      00043D 91*00            [ 6]  877 	sta	[DPTR],y
      00043F A6*01            [ 3]  878 	ldx	*(REGTEMP+1)
      000441 A5*00            [ 3]  879 	lda	*(REGTEMP+0)
                                    880 ;	Raw cost for generated ic 7 : (30, 50.000000) count=1.000000
                                    881 ;	genCast
      000443 85*48            [ 3]  882 	sta	*___ckd_mul_int_sloc1_1_0
      000445 86*49            [ 3]  883 	stx	*(___ckd_mul_int_sloc1_1_0 + 1)
      000447 E0 80            [ 2]  884 	cpx	#0x80
      000449 A2 00            [ 2]  885 	ldx	#0x00
      00044B 90 01            [ 4]  886 	bcc	00103$
      00044D CA               [ 2]  887 	dex
      00044E                        888 00103$:
      00044E 86*4A            [ 3]  889 	stx	*(___ckd_mul_int_sloc1_1_0 + 2)
      000450 86*4B            [ 3]  890 	stx	*(___ckd_mul_int_sloc1_1_0 + 3)
      000452 86*4C            [ 3]  891 	stx	*(___ckd_mul_int_sloc1_1_0 + 4)
      000454 86*4D            [ 3]  892 	stx	*(___ckd_mul_int_sloc1_1_0 + 5)
      000456 86*4E            [ 3]  893 	stx	*(___ckd_mul_int_sloc1_1_0 + 6)
      000458 86*4F            [ 3]  894 	stx	*(___ckd_mul_int_sloc1_1_0 + 7)
                                    895 ;	Raw cost for generated ic 10 : (23, 32.599998) count=1.000000
                                    896 ;	genCmpEQorNE
      00045A C5*40            [ 3]  897 	cmp	*___ckd_mul_int_sloc0_1_0
      00045C D0 28            [ 4]  898 	bne	00105$
      00045E A5*49            [ 3]  899 	lda	*(___ckd_mul_int_sloc1_1_0 + 1)
      000460 C5*41            [ 3]  900 	cmp	*(___ckd_mul_int_sloc0_1_0 + 1)
      000462 D0 22            [ 4]  901 	bne	00105$
      000464 A5*4A            [ 3]  902 	lda	*(___ckd_mul_int_sloc1_1_0 + 2)
      000466 C5*42            [ 3]  903 	cmp	*(___ckd_mul_int_sloc0_1_0 + 2)
      000468 D0 1C            [ 4]  904 	bne	00105$
      00046A A5*4B            [ 3]  905 	lda	*(___ckd_mul_int_sloc1_1_0 + 3)
      00046C C5*43            [ 3]  906 	cmp	*(___ckd_mul_int_sloc0_1_0 + 3)
      00046E D0 16            [ 4]  907 	bne	00105$
      000470 A5*4C            [ 3]  908 	lda	*(___ckd_mul_int_sloc1_1_0 + 4)
      000472 C5*44            [ 3]  909 	cmp	*(___ckd_mul_int_sloc0_1_0 + 4)
      000474 D0 10            [ 4]  910 	bne	00105$
      000476 A5*4D            [ 3]  911 	lda	*(___ckd_mul_int_sloc1_1_0 + 5)
      000478 C5*45            [ 3]  912 	cmp	*(___ckd_mul_int_sloc0_1_0 + 5)
      00047A D0 0A            [ 4]  913 	bne	00105$
      00047C A5*4E            [ 3]  914 	lda	*(___ckd_mul_int_sloc1_1_0 + 6)
      00047E C5*46            [ 3]  915 	cmp	*(___ckd_mul_int_sloc0_1_0 + 6)
      000480 D0 04            [ 4]  916 	bne	00105$
      000482 E4*47            [ 3]  917 	cpx	*(___ckd_mul_int_sloc0_1_0 + 7)
      000484 F0 04            [ 4]  918 	beq	00113$
      000486                        919 00105$:
      000486 A9 00            [ 2]  920 	lda	#0x00
      000488 80 01            [ 4]  921 	bra	00112$
      00048A                        922 00113$:
      00048A 98               [ 2]  923 	tya
      00048B                        924 00112$:
                                    925 ;	Raw cost for generated ic 11 : (70, 90.399994) count=1.000000
                                    926 ;	genNot
      00048B 49 01            [ 2]  927 	eor	#0x01
                                    928 ;	Raw cost for generated ic 12 : (2, 2.000000) count=1.000000
                                    929 ;	genRet
                                    930 ;	Raw cost for generated ic 13 : (0, 0.000000) count=1.000000
                                    931 ;	genLabel
                                    932 ;	Raw cost for generated ic 14 : (0, 0.000000) count=1.000000
                                    933 ;	genEndFunction
      00048D 60               [ 6]  934 	rts
                                    935 ;	Raw cost for generated ic 15 : (1, 6.000000) count=1.000000
                                    936 ;------------------------------------------------------------
                                    937 ;Allocation info for local variables in function '__ckd_mul_uint'
                                    938 ;------------------------------------------------------------
                                    939 ;sloc0         Allocated with name '___ckd_mul_uint_sloc0_1_0'
                                    940 ;sloc1         Allocated with name '___ckd_mul_uint_sloc1_1_0'
                                    941 ;a             Allocated with name '___ckd_mul_uint_PARM_2'
                                    942 ;b             Allocated with name '___ckd_mul_uint_PARM_3'
                                    943 ;r             Allocated with name '___ckd_mul_uint_r_10000_51'
                                    944 ;result        Allocated with name '___ckd_mul_uint_result_10000_52'
                                    945 ;------------------------------------------------------------
                                    946 ;	./../../include/stdckdint.h: 75: inline _Bool __ckd_mul_uint __CKD_DEFAULT_IMPL(unsigned int, *)
                                    947 ;	genLabel
                                    948 ;	Raw cost for generated ic 0 : (0, 0.000000) count=1.000000
                                    949 ;	-----------------------------------------
                                    950 ;	 function __ckd_mul_uint
                                    951 ;	-----------------------------------------
                                    952 ;	Register assignment might be sub-optimal.
                                    953 ;	Stack space usage: 0 bytes.
      00048E                        954 ___ckd_mul_uint:
                                    955 ;	Raw cost for generated ic 1 : (0, 0.000000) count=1.000000
                                    956 ;	genReceive
      00048E 8Dr6Ar00         [ 4]  957 	sta	___ckd_mul_uint_r_10000_51
      000491 8Er6Br00         [ 4]  958 	stx	(___ckd_mul_uint_r_10000_51 + 1)
                                    959 ;	Raw cost for generated ic 2 : (6, 8.000000) count=1.000000
                                    960 ;	genAssign
                                    961 ;	genCopy
      000494 ADr61r00         [ 4]  962 	lda	(___ckd_mul_uint_PARM_2 + 7)
      000497 8Dr07r00         [ 4]  963 	sta	(__mullonglong_PARM_1 + 7)
      00049A ADr60r00         [ 4]  964 	lda	(___ckd_mul_uint_PARM_2 + 6)
      00049D 8Dr06r00         [ 4]  965 	sta	(__mullonglong_PARM_1 + 6)
      0004A0 ADr5Fr00         [ 4]  966 	lda	(___ckd_mul_uint_PARM_2 + 5)
      0004A3 8Dr05r00         [ 4]  967 	sta	(__mullonglong_PARM_1 + 5)
      0004A6 ADr5Er00         [ 4]  968 	lda	(___ckd_mul_uint_PARM_2 + 4)
      0004A9 8Dr04r00         [ 4]  969 	sta	(__mullonglong_PARM_1 + 4)
      0004AC ADr5Dr00         [ 4]  970 	lda	(___ckd_mul_uint_PARM_2 + 3)
      0004AF 8Dr03r00         [ 4]  971 	sta	(__mullonglong_PARM_1 + 3)
      0004B2 ADr5Cr00         [ 4]  972 	lda	(___ckd_mul_uint_PARM_2 + 2)
      0004B5 8Dr02r00         [ 4]  973 	sta	(__mullonglong_PARM_1 + 2)
      0004B8 ADr5Br00         [ 4]  974 	lda	(___ckd_mul_uint_PARM_2 + 1)
      0004BB 8Dr01r00         [ 4]  975 	sta	(__mullonglong_PARM_1 + 1)
      0004BE ADr5Ar00         [ 4]  976 	lda	___ckd_mul_uint_PARM_2
      0004C1 8Dr00r00         [ 4]  977 	sta	__mullonglong_PARM_1
                                    978 ;	Raw cost for generated ic 16 : (48, 64.000000) count=1.000000
                                    979 ;	genAssign
                                    980 ;	genCopy
      0004C4 ADr69r00         [ 4]  981 	lda	(___ckd_mul_uint_PARM_3 + 7)
      0004C7 8Dr07r00         [ 4]  982 	sta	(__mullonglong_PARM_2 + 7)
      0004CA ADr68r00         [ 4]  983 	lda	(___ckd_mul_uint_PARM_3 + 6)
      0004CD 8Dr06r00         [ 4]  984 	sta	(__mullonglong_PARM_2 + 6)
      0004D0 ADr67r00         [ 4]  985 	lda	(___ckd_mul_uint_PARM_3 + 5)
      0004D3 8Dr05r00         [ 4]  986 	sta	(__mullonglong_PARM_2 + 5)
      0004D6 ADr66r00         [ 4]  987 	lda	(___ckd_mul_uint_PARM_3 + 4)
      0004D9 8Dr04r00         [ 4]  988 	sta	(__mullonglong_PARM_2 + 4)
      0004DC ADr65r00         [ 4]  989 	lda	(___ckd_mul_uint_PARM_3 + 3)
      0004DF 8Dr03r00         [ 4]  990 	sta	(__mullonglong_PARM_2 + 3)
      0004E2 ADr64r00         [ 4]  991 	lda	(___ckd_mul_uint_PARM_3 + 2)
      0004E5 8Dr02r00         [ 4]  992 	sta	(__mullonglong_PARM_2 + 2)
      0004E8 ADr63r00         [ 4]  993 	lda	(___ckd_mul_uint_PARM_3 + 1)
      0004EB 8Dr01r00         [ 4]  994 	sta	(__mullonglong_PARM_2 + 1)
      0004EE ADr62r00         [ 4]  995 	lda	___ckd_mul_uint_PARM_3
      0004F1 8Dr00r00         [ 4]  996 	sta	__mullonglong_PARM_2
                                    997 ;	Raw cost for generated ic 17 : (48, 64.000000) count=1.000000
                                    998 ;	genCall
      0004F4 20r00r00         [ 6]  999 	jsr	__mullonglong
                                   1000 ;	assignResultValue
      0004F7 85*50            [ 3] 1001 	sta	*___ckd_mul_uint_sloc0_1_0
      0004F9 86*51            [ 3] 1002 	stx	*(___ckd_mul_uint_sloc0_1_0 + 1)
      0004FB A5*00            [ 3] 1003 	lda	*___SDCC_m6502_ret2
      0004FD 85*52            [ 3] 1004 	sta	*(___ckd_mul_uint_sloc0_1_0 + 2)
      0004FF A5*00            [ 3] 1005 	lda	*___SDCC_m6502_ret3
      000501 85*53            [ 3] 1006 	sta	*(___ckd_mul_uint_sloc0_1_0 + 3)
      000503 A5*00            [ 3] 1007 	lda	*___SDCC_m6502_ret4
      000505 85*54            [ 3] 1008 	sta	*(___ckd_mul_uint_sloc0_1_0 + 4)
      000507 A5*00            [ 3] 1009 	lda	*___SDCC_m6502_ret5
      000509 85*55            [ 3] 1010 	sta	*(___ckd_mul_uint_sloc0_1_0 + 5)
      00050B A5*00            [ 3] 1011 	lda	*___SDCC_m6502_ret6
      00050D 85*56            [ 3] 1012 	sta	*(___ckd_mul_uint_sloc0_1_0 + 6)
      00050F A5*00            [ 3] 1013 	lda	*___SDCC_m6502_ret7
      000511 85*57            [ 3] 1014 	sta	*(___ckd_mul_uint_sloc0_1_0 + 7)
                                   1015 ;	Raw cost for generated ic 18 : (31, 48.000000) count=1.000000
                                   1016 ;	genCast
                                   1017 ;	genCopy
      000513 A5*50            [ 3] 1018 	lda	*___ckd_mul_uint_sloc0_1_0
                                   1019 ;	Raw cost for generated ic 6 : (2, 3.000000) count=1.000000
                                   1020 ;	genPointerSet
      000515 85*00            [ 3] 1021 	sta	*(REGTEMP+0)
      000517 86*01            [ 3] 1022 	stx	*(REGTEMP+1)
                                   1023 ;	  setupDPTR - off=0 remat=(null) savea=0
      000519 AEr6Ar00         [ 4] 1024 	ldx	___ckd_mul_uint_r_10000_51
      00051C 86*00            [ 3] 1025 	stx	*(DPTR+0)
      00051E AEr6Br00         [ 4] 1026 	ldx	(___ckd_mul_uint_r_10000_51 + 1)
      000521 86*01            [ 3] 1027 	stx	*(DPTR+1)
      000523 A5*00            [ 3] 1028 	lda	*(REGTEMP+0)
      000525 A6*01            [ 3] 1029 	ldx	*(REGTEMP+1)
      000527 A0 00            [ 2] 1030 	ldy	#0x00
      000529 91*00            [ 6] 1031 	sta	[DPTR],y
      00052B 8A               [ 2] 1032 	txa
      00052C C8               [ 2] 1033 	iny
      00052D 91*00            [ 6] 1034 	sta	[DPTR],y
      00052F A6*01            [ 3] 1035 	ldx	*(REGTEMP+1)
      000531 A5*00            [ 3] 1036 	lda	*(REGTEMP+0)
                                   1037 ;	Raw cost for generated ic 7 : (30, 50.000000) count=1.000000
                                   1038 ;	genCast
                                   1039 ;	genCopy
      000533 64*5F            [ 3] 1040 	stz	*(___ckd_mul_uint_sloc1_1_0 + 7)
      000535 64*5E            [ 3] 1041 	stz	*(___ckd_mul_uint_sloc1_1_0 + 6)
      000537 64*5D            [ 3] 1042 	stz	*(___ckd_mul_uint_sloc1_1_0 + 5)
      000539 64*5C            [ 3] 1043 	stz	*(___ckd_mul_uint_sloc1_1_0 + 4)
      00053B 64*5B            [ 3] 1044 	stz	*(___ckd_mul_uint_sloc1_1_0 + 3)
      00053D 64*5A            [ 3] 1045 	stz	*(___ckd_mul_uint_sloc1_1_0 + 2)
      00053F 86*59            [ 3] 1046 	stx	*(___ckd_mul_uint_sloc1_1_0 + 1)
      000541 85*58            [ 3] 1047 	sta	*___ckd_mul_uint_sloc1_1_0
                                   1048 ;	Raw cost for generated ic 10 : (22, 30.000000) count=1.000000
                                   1049 ;	genCmpEQorNE
      000543 C5*50            [ 3] 1050 	cmp	*___ckd_mul_uint_sloc0_1_0
      000545 D0 28            [ 4] 1051 	bne	00104$
      000547 E4*51            [ 3] 1052 	cpx	*(___ckd_mul_uint_sloc0_1_0 + 1)
      000549 D0 24            [ 4] 1053 	bne	00104$
      00054B A5*5A            [ 3] 1054 	lda	*(___ckd_mul_uint_sloc1_1_0 + 2)
      00054D C5*52            [ 3] 1055 	cmp	*(___ckd_mul_uint_sloc0_1_0 + 2)
      00054F D0 1E            [ 4] 1056 	bne	00104$
      000551 A5*5B            [ 3] 1057 	lda	*(___ckd_mul_uint_sloc1_1_0 + 3)
      000553 C5*53            [ 3] 1058 	cmp	*(___ckd_mul_uint_sloc0_1_0 + 3)
      000555 D0 18            [ 4] 1059 	bne	00104$
      000557 A5*5C            [ 3] 1060 	lda	*(___ckd_mul_uint_sloc1_1_0 + 4)
      000559 C5*54            [ 3] 1061 	cmp	*(___ckd_mul_uint_sloc0_1_0 + 4)
      00055B D0 12            [ 4] 1062 	bne	00104$
      00055D A5*5D            [ 3] 1063 	lda	*(___ckd_mul_uint_sloc1_1_0 + 5)
      00055F C5*55            [ 3] 1064 	cmp	*(___ckd_mul_uint_sloc0_1_0 + 5)
      000561 D0 0C            [ 4] 1065 	bne	00104$
      000563 A5*5E            [ 3] 1066 	lda	*(___ckd_mul_uint_sloc1_1_0 + 6)
      000565 C5*56            [ 3] 1067 	cmp	*(___ckd_mul_uint_sloc0_1_0 + 6)
      000567 D0 06            [ 4] 1068 	bne	00104$
      000569 A5*5F            [ 3] 1069 	lda	*(___ckd_mul_uint_sloc1_1_0 + 7)
      00056B C5*57            [ 3] 1070 	cmp	*(___ckd_mul_uint_sloc0_1_0 + 7)
      00056D F0 04            [ 4] 1071 	beq	00112$
      00056F                       1072 00104$:
      00056F A9 00            [ 2] 1073 	lda	#0x00
      000571 80 01            [ 4] 1074 	bra	00111$
      000573                       1075 00112$:
      000573 98               [ 2] 1076 	tya
      000574                       1077 00111$:
                                   1078 ;	Raw cost for generated ic 11 : (70, 90.399994) count=1.000000
                                   1079 ;	genNot
      000574 49 01            [ 2] 1080 	eor	#0x01
                                   1081 ;	Raw cost for generated ic 12 : (2, 2.000000) count=1.000000
                                   1082 ;	genRet
                                   1083 ;	Raw cost for generated ic 13 : (0, 0.000000) count=1.000000
                                   1084 ;	genLabel
                                   1085 ;	Raw cost for generated ic 14 : (0, 0.000000) count=1.000000
                                   1086 ;	genEndFunction
      000576 60               [ 6] 1087 	rts
                                   1088 ;	Raw cost for generated ic 15 : (1, 6.000000) count=1.000000
                                   1089 ;------------------------------------------------------------
                                   1090 ;Allocation info for local variables in function '__ckd_mul_long'
                                   1091 ;------------------------------------------------------------
                                   1092 ;sloc0         Allocated with name '___ckd_mul_long_sloc0_1_0'
                                   1093 ;sloc1         Allocated with name '___ckd_mul_long_sloc1_1_0'
                                   1094 ;sloc2         Allocated with name '___ckd_mul_long_sloc2_1_0'
                                   1095 ;a             Allocated with name '___ckd_mul_long_PARM_2'
                                   1096 ;b             Allocated with name '___ckd_mul_long_PARM_3'
                                   1097 ;r             Allocated with name '___ckd_mul_long_r_10000_53'
                                   1098 ;result        Allocated with name '___ckd_mul_long_result_10000_54'
                                   1099 ;------------------------------------------------------------
                                   1100 ;	./../../include/stdckdint.h: 76: inline _Bool __ckd_mul_long __CKD_DEFAULT_IMPL(long, *)
                                   1101 ;	genLabel
                                   1102 ;	Raw cost for generated ic 0 : (0, 0.000000) count=1.000000
                                   1103 ;	-----------------------------------------
                                   1104 ;	 function __ckd_mul_long
                                   1105 ;	-----------------------------------------
                                   1106 ;	Register assignment might be sub-optimal.
                                   1107 ;	Stack space usage: 0 bytes.
      000577                       1108 ___ckd_mul_long:
                                   1109 ;	Raw cost for generated ic 1 : (0, 0.000000) count=1.000000
                                   1110 ;	genReceive
      000577 8Dr7Cr00         [ 4] 1111 	sta	___ckd_mul_long_r_10000_53
      00057A 8Er7Dr00         [ 4] 1112 	stx	(___ckd_mul_long_r_10000_53 + 1)
                                   1113 ;	Raw cost for generated ic 2 : (6, 8.000000) count=1.000000
                                   1114 ;	genAssign
                                   1115 ;	genCopy
      00057D ADr73r00         [ 4] 1116 	lda	(___ckd_mul_long_PARM_2 + 7)
      000580 8Dr07r00         [ 4] 1117 	sta	(__mullonglong_PARM_1 + 7)
      000583 ADr72r00         [ 4] 1118 	lda	(___ckd_mul_long_PARM_2 + 6)
      000586 8Dr06r00         [ 4] 1119 	sta	(__mullonglong_PARM_1 + 6)
      000589 ADr71r00         [ 4] 1120 	lda	(___ckd_mul_long_PARM_2 + 5)
      00058C 8Dr05r00         [ 4] 1121 	sta	(__mullonglong_PARM_1 + 5)
      00058F ADr70r00         [ 4] 1122 	lda	(___ckd_mul_long_PARM_2 + 4)
      000592 8Dr04r00         [ 4] 1123 	sta	(__mullonglong_PARM_1 + 4)
      000595 ADr6Fr00         [ 4] 1124 	lda	(___ckd_mul_long_PARM_2 + 3)
      000598 8Dr03r00         [ 4] 1125 	sta	(__mullonglong_PARM_1 + 3)
      00059B ADr6Er00         [ 4] 1126 	lda	(___ckd_mul_long_PARM_2 + 2)
      00059E 8Dr02r00         [ 4] 1127 	sta	(__mullonglong_PARM_1 + 2)
      0005A1 ADr6Dr00         [ 4] 1128 	lda	(___ckd_mul_long_PARM_2 + 1)
      0005A4 8Dr01r00         [ 4] 1129 	sta	(__mullonglong_PARM_1 + 1)
      0005A7 ADr6Cr00         [ 4] 1130 	lda	___ckd_mul_long_PARM_2
      0005AA 8Dr00r00         [ 4] 1131 	sta	__mullonglong_PARM_1
                                   1132 ;	Raw cost for generated ic 16 : (48, 64.000000) count=1.000000
                                   1133 ;	genAssign
                                   1134 ;	genCopy
      0005AD ADr7Br00         [ 4] 1135 	lda	(___ckd_mul_long_PARM_3 + 7)
      0005B0 8Dr07r00         [ 4] 1136 	sta	(__mullonglong_PARM_2 + 7)
      0005B3 ADr7Ar00         [ 4] 1137 	lda	(___ckd_mul_long_PARM_3 + 6)
      0005B6 8Dr06r00         [ 4] 1138 	sta	(__mullonglong_PARM_2 + 6)
      0005B9 ADr79r00         [ 4] 1139 	lda	(___ckd_mul_long_PARM_3 + 5)
      0005BC 8Dr05r00         [ 4] 1140 	sta	(__mullonglong_PARM_2 + 5)
      0005BF ADr78r00         [ 4] 1141 	lda	(___ckd_mul_long_PARM_3 + 4)
      0005C2 8Dr04r00         [ 4] 1142 	sta	(__mullonglong_PARM_2 + 4)
      0005C5 ADr77r00         [ 4] 1143 	lda	(___ckd_mul_long_PARM_3 + 3)
      0005C8 8Dr03r00         [ 4] 1144 	sta	(__mullonglong_PARM_2 + 3)
      0005CB ADr76r00         [ 4] 1145 	lda	(___ckd_mul_long_PARM_3 + 2)
      0005CE 8Dr02r00         [ 4] 1146 	sta	(__mullonglong_PARM_2 + 2)
      0005D1 ADr75r00         [ 4] 1147 	lda	(___ckd_mul_long_PARM_3 + 1)
      0005D4 8Dr01r00         [ 4] 1148 	sta	(__mullonglong_PARM_2 + 1)
      0005D7 ADr74r00         [ 4] 1149 	lda	___ckd_mul_long_PARM_3
      0005DA 8Dr00r00         [ 4] 1150 	sta	__mullonglong_PARM_2
                                   1151 ;	Raw cost for generated ic 17 : (48, 64.000000) count=1.000000
                                   1152 ;	genCall
      0005DD 20r00r00         [ 6] 1153 	jsr	__mullonglong
                                   1154 ;	assignResultValue
      0005E0 85*60            [ 3] 1155 	sta	*___ckd_mul_long_sloc0_1_0
      0005E2 86*61            [ 3] 1156 	stx	*(___ckd_mul_long_sloc0_1_0 + 1)
      0005E4 A5*00            [ 3] 1157 	lda	*___SDCC_m6502_ret2
      0005E6 85*62            [ 3] 1158 	sta	*(___ckd_mul_long_sloc0_1_0 + 2)
      0005E8 A5*00            [ 3] 1159 	lda	*___SDCC_m6502_ret3
      0005EA 85*63            [ 3] 1160 	sta	*(___ckd_mul_long_sloc0_1_0 + 3)
      0005EC A5*00            [ 3] 1161 	lda	*___SDCC_m6502_ret4
      0005EE 85*64            [ 3] 1162 	sta	*(___ckd_mul_long_sloc0_1_0 + 4)
      0005F0 A5*00            [ 3] 1163 	lda	*___SDCC_m6502_ret5
      0005F2 85*65            [ 3] 1164 	sta	*(___ckd_mul_long_sloc0_1_0 + 5)
      0005F4 A5*00            [ 3] 1165 	lda	*___SDCC_m6502_ret6
      0005F6 85*66            [ 3] 1166 	sta	*(___ckd_mul_long_sloc0_1_0 + 6)
      0005F8 A5*00            [ 3] 1167 	lda	*___SDCC_m6502_ret7
      0005FA 85*67            [ 3] 1168 	sta	*(___ckd_mul_long_sloc0_1_0 + 7)
                                   1169 ;	Raw cost for generated ic 18 : (31, 48.000000) count=1.000000
                                   1170 ;	genCast
                                   1171 ;	genCopy
      0005FC A5*63            [ 3] 1172 	lda	*(___ckd_mul_long_sloc0_1_0 + 3)
      0005FE 85*6B            [ 3] 1173 	sta	*(___ckd_mul_long_sloc1_1_0 + 3)
      000600 A5*62            [ 3] 1174 	lda	*(___ckd_mul_long_sloc0_1_0 + 2)
      000602 85*6A            [ 3] 1175 	sta	*(___ckd_mul_long_sloc1_1_0 + 2)
      000604 8A               [ 2] 1176 	txa
      000605 85*69            [ 3] 1177 	sta	*(___ckd_mul_long_sloc1_1_0 + 1)
      000607 A5*60            [ 3] 1178 	lda	*___ckd_mul_long_sloc0_1_0
      000609 85*68            [ 3] 1179 	sta	*___ckd_mul_long_sloc1_1_0
                                   1180 ;	Raw cost for generated ic 6 : (15, 23.000000) count=1.000000
                                   1181 ;	genPointerSet
                                   1182 ;	  setupDPTR - off=0 remat=(null) savea=0
      00060B AEr7Cr00         [ 4] 1183 	ldx	___ckd_mul_long_r_10000_53
      00060E 86*00            [ 3] 1184 	stx	*(DPTR+0)
      000610 AEr7Dr00         [ 4] 1185 	ldx	(___ckd_mul_long_r_10000_53 + 1)
      000613 86*01            [ 3] 1186 	stx	*(DPTR+1)
      000615 A0 00            [ 2] 1187 	ldy	#0x00
      000617 91*00            [ 6] 1188 	sta	[DPTR],y
      000619 A5*69            [ 3] 1189 	lda	*(___ckd_mul_long_sloc1_1_0 + 1)
      00061B C8               [ 2] 1190 	iny
      00061C 91*00            [ 6] 1191 	sta	[DPTR],y
      00061E A5*6A            [ 3] 1192 	lda	*(___ckd_mul_long_sloc1_1_0 + 2)
      000620 C8               [ 2] 1193 	iny
      000621 91*00            [ 6] 1194 	sta	[DPTR],y
      000623 A5*6B            [ 3] 1195 	lda	*(___ckd_mul_long_sloc1_1_0 + 3)
      000625 C8               [ 2] 1196 	iny
      000626 91*00            [ 6] 1197 	sta	[DPTR],y
                                   1198 ;	Raw cost for generated ic 7 : (29, 55.000000) count=1.000000
                                   1199 ;	genCast
      000628 A5*68            [ 3] 1200 	lda	*___ckd_mul_long_sloc1_1_0
      00062A 85*6C            [ 3] 1201 	sta	*___ckd_mul_long_sloc2_1_0
      00062C A5*69            [ 3] 1202 	lda	*(___ckd_mul_long_sloc1_1_0 + 1)
      00062E 85*6D            [ 3] 1203 	sta	*(___ckd_mul_long_sloc2_1_0 + 1)
      000630 A5*6A            [ 3] 1204 	lda	*(___ckd_mul_long_sloc1_1_0 + 2)
      000632 85*6E            [ 3] 1205 	sta	*(___ckd_mul_long_sloc2_1_0 + 2)
      000634 A5*6B            [ 3] 1206 	lda	*(___ckd_mul_long_sloc1_1_0 + 3)
      000636 85*6F            [ 3] 1207 	sta	*(___ckd_mul_long_sloc2_1_0 + 3)
      000638 0A               [ 2] 1208 	asl	a
      000639 A9 00            [ 2] 1209 	lda	#0x00
      00063B 69 FF            [ 3] 1210 	adc	#0xff
      00063D 49 FF            [ 2] 1211 	eor	#0xff
      00063F 85*70            [ 3] 1212 	sta	*(___ckd_mul_long_sloc2_1_0 + 4)
      000641 85*71            [ 3] 1213 	sta	*(___ckd_mul_long_sloc2_1_0 + 5)
      000643 85*72            [ 3] 1214 	sta	*(___ckd_mul_long_sloc2_1_0 + 6)
      000645 85*73            [ 3] 1215 	sta	*(___ckd_mul_long_sloc2_1_0 + 7)
                                   1216 ;	Raw cost for generated ic 10 : (31, 44.000000) count=1.000000
                                   1217 ;	genCmpEQorNE
      000647 A5*6C            [ 3] 1218 	lda	*___ckd_mul_long_sloc2_1_0
      000649 C5*60            [ 3] 1219 	cmp	*___ckd_mul_long_sloc0_1_0
      00064B D0 2A            [ 4] 1220 	bne	00104$
      00064D A5*6D            [ 3] 1221 	lda	*(___ckd_mul_long_sloc2_1_0 + 1)
      00064F C5*61            [ 3] 1222 	cmp	*(___ckd_mul_long_sloc0_1_0 + 1)
      000651 D0 24            [ 4] 1223 	bne	00104$
      000653 A5*6E            [ 3] 1224 	lda	*(___ckd_mul_long_sloc2_1_0 + 2)
      000655 C5*62            [ 3] 1225 	cmp	*(___ckd_mul_long_sloc0_1_0 + 2)
      000657 D0 1E            [ 4] 1226 	bne	00104$
      000659 A5*6F            [ 3] 1227 	lda	*(___ckd_mul_long_sloc2_1_0 + 3)
      00065B C5*63            [ 3] 1228 	cmp	*(___ckd_mul_long_sloc0_1_0 + 3)
      00065D D0 18            [ 4] 1229 	bne	00104$
      00065F A5*70            [ 3] 1230 	lda	*(___ckd_mul_long_sloc2_1_0 + 4)
      000661 C5*64            [ 3] 1231 	cmp	*(___ckd_mul_long_sloc0_1_0 + 4)
      000663 D0 12            [ 4] 1232 	bne	00104$
      000665 A5*71            [ 3] 1233 	lda	*(___ckd_mul_long_sloc2_1_0 + 5)
      000667 C5*65            [ 3] 1234 	cmp	*(___ckd_mul_long_sloc0_1_0 + 5)
      000669 D0 0C            [ 4] 1235 	bne	00104$
      00066B A5*72            [ 3] 1236 	lda	*(___ckd_mul_long_sloc2_1_0 + 6)
      00066D C5*66            [ 3] 1237 	cmp	*(___ckd_mul_long_sloc0_1_0 + 6)
      00066F D0 06            [ 4] 1238 	bne	00104$
      000671 A5*73            [ 3] 1239 	lda	*(___ckd_mul_long_sloc2_1_0 + 7)
      000673 C5*67            [ 3] 1240 	cmp	*(___ckd_mul_long_sloc0_1_0 + 7)
      000675 F0 04            [ 4] 1241 	beq	00112$
      000677                       1242 00104$:
      000677 A9 00            [ 2] 1243 	lda	#0x00
      000679 80 02            [ 4] 1244 	bra	00111$
      00067B                       1245 00112$:
      00067B A9 01            [ 2] 1246 	lda	#0x01
      00067D                       1247 00111$:
                                   1248 ;	Raw cost for generated ic 11 : (75, 96.399994) count=1.000000
                                   1249 ;	genNot
      00067D 49 01            [ 2] 1250 	eor	#0x01
                                   1251 ;	Raw cost for generated ic 12 : (2, 2.000000) count=1.000000
                                   1252 ;	genRet
                                   1253 ;	Raw cost for generated ic 13 : (0, 0.000000) count=1.000000
                                   1254 ;	genLabel
                                   1255 ;	Raw cost for generated ic 14 : (0, 0.000000) count=1.000000
                                   1256 ;	genEndFunction
      00067F 60               [ 6] 1257 	rts
                                   1258 ;	Raw cost for generated ic 15 : (1, 6.000000) count=1.000000
                                   1259 ;------------------------------------------------------------
                                   1260 ;Allocation info for local variables in function '__ckd_mul_ulong'
                                   1261 ;------------------------------------------------------------
                                   1262 ;sloc0         Allocated with name '___ckd_mul_ulong_sloc0_1_0'
                                   1263 ;sloc1         Allocated with name '___ckd_mul_ulong_sloc1_1_0'
                                   1264 ;sloc2         Allocated with name '___ckd_mul_ulong_sloc2_1_0'
                                   1265 ;a             Allocated with name '___ckd_mul_ulong_PARM_2'
                                   1266 ;b             Allocated with name '___ckd_mul_ulong_PARM_3'
                                   1267 ;r             Allocated with name '___ckd_mul_ulong_r_10000_55'
                                   1268 ;result        Allocated with name '___ckd_mul_ulong_result_10000_56'
                                   1269 ;------------------------------------------------------------
                                   1270 ;	./../../include/stdckdint.h: 77: inline _Bool __ckd_mul_ulong __CKD_DEFAULT_IMPL(unsigned long, *)
                                   1271 ;	genLabel
                                   1272 ;	Raw cost for generated ic 0 : (0, 0.000000) count=1.000000
                                   1273 ;	-----------------------------------------
                                   1274 ;	 function __ckd_mul_ulong
                                   1275 ;	-----------------------------------------
                                   1276 ;	Register assignment might be sub-optimal.
                                   1277 ;	Stack space usage: 0 bytes.
      000680                       1278 ___ckd_mul_ulong:
                                   1279 ;	Raw cost for generated ic 1 : (0, 0.000000) count=1.000000
                                   1280 ;	genReceive
      000680 8Dr8Er00         [ 4] 1281 	sta	___ckd_mul_ulong_r_10000_55
      000683 8Er8Fr00         [ 4] 1282 	stx	(___ckd_mul_ulong_r_10000_55 + 1)
                                   1283 ;	Raw cost for generated ic 2 : (6, 8.000000) count=1.000000
                                   1284 ;	genAssign
                                   1285 ;	genCopy
      000686 ADr85r00         [ 4] 1286 	lda	(___ckd_mul_ulong_PARM_2 + 7)
      000689 8Dr07r00         [ 4] 1287 	sta	(__mullonglong_PARM_1 + 7)
      00068C ADr84r00         [ 4] 1288 	lda	(___ckd_mul_ulong_PARM_2 + 6)
      00068F 8Dr06r00         [ 4] 1289 	sta	(__mullonglong_PARM_1 + 6)
      000692 ADr83r00         [ 4] 1290 	lda	(___ckd_mul_ulong_PARM_2 + 5)
      000695 8Dr05r00         [ 4] 1291 	sta	(__mullonglong_PARM_1 + 5)
      000698 ADr82r00         [ 4] 1292 	lda	(___ckd_mul_ulong_PARM_2 + 4)
      00069B 8Dr04r00         [ 4] 1293 	sta	(__mullonglong_PARM_1 + 4)
      00069E ADr81r00         [ 4] 1294 	lda	(___ckd_mul_ulong_PARM_2 + 3)
      0006A1 8Dr03r00         [ 4] 1295 	sta	(__mullonglong_PARM_1 + 3)
      0006A4 ADr80r00         [ 4] 1296 	lda	(___ckd_mul_ulong_PARM_2 + 2)
      0006A7 8Dr02r00         [ 4] 1297 	sta	(__mullonglong_PARM_1 + 2)
      0006AA ADr7Fr00         [ 4] 1298 	lda	(___ckd_mul_ulong_PARM_2 + 1)
      0006AD 8Dr01r00         [ 4] 1299 	sta	(__mullonglong_PARM_1 + 1)
      0006B0 ADr7Er00         [ 4] 1300 	lda	___ckd_mul_ulong_PARM_2
      0006B3 8Dr00r00         [ 4] 1301 	sta	__mullonglong_PARM_1
                                   1302 ;	Raw cost for generated ic 16 : (48, 64.000000) count=1.000000
                                   1303 ;	genAssign
                                   1304 ;	genCopy
      0006B6 ADr8Dr00         [ 4] 1305 	lda	(___ckd_mul_ulong_PARM_3 + 7)
      0006B9 8Dr07r00         [ 4] 1306 	sta	(__mullonglong_PARM_2 + 7)
      0006BC ADr8Cr00         [ 4] 1307 	lda	(___ckd_mul_ulong_PARM_3 + 6)
      0006BF 8Dr06r00         [ 4] 1308 	sta	(__mullonglong_PARM_2 + 6)
      0006C2 ADr8Br00         [ 4] 1309 	lda	(___ckd_mul_ulong_PARM_3 + 5)
      0006C5 8Dr05r00         [ 4] 1310 	sta	(__mullonglong_PARM_2 + 5)
      0006C8 ADr8Ar00         [ 4] 1311 	lda	(___ckd_mul_ulong_PARM_3 + 4)
      0006CB 8Dr04r00         [ 4] 1312 	sta	(__mullonglong_PARM_2 + 4)
      0006CE ADr89r00         [ 4] 1313 	lda	(___ckd_mul_ulong_PARM_3 + 3)
      0006D1 8Dr03r00         [ 4] 1314 	sta	(__mullonglong_PARM_2 + 3)
      0006D4 ADr88r00         [ 4] 1315 	lda	(___ckd_mul_ulong_PARM_3 + 2)
      0006D7 8Dr02r00         [ 4] 1316 	sta	(__mullonglong_PARM_2 + 2)
      0006DA ADr87r00         [ 4] 1317 	lda	(___ckd_mul_ulong_PARM_3 + 1)
      0006DD 8Dr01r00         [ 4] 1318 	sta	(__mullonglong_PARM_2 + 1)
      0006E0 ADr86r00         [ 4] 1319 	lda	___ckd_mul_ulong_PARM_3
      0006E3 8Dr00r00         [ 4] 1320 	sta	__mullonglong_PARM_2
                                   1321 ;	Raw cost for generated ic 17 : (48, 64.000000) count=1.000000
                                   1322 ;	genCall
      0006E6 20r00r00         [ 6] 1323 	jsr	__mullonglong
                                   1324 ;	assignResultValue
      0006E9 85*74            [ 3] 1325 	sta	*___ckd_mul_ulong_sloc0_1_0
      0006EB 86*75            [ 3] 1326 	stx	*(___ckd_mul_ulong_sloc0_1_0 + 1)
      0006ED A5*00            [ 3] 1327 	lda	*___SDCC_m6502_ret2
      0006EF 85*76            [ 3] 1328 	sta	*(___ckd_mul_ulong_sloc0_1_0 + 2)
      0006F1 A5*00            [ 3] 1329 	lda	*___SDCC_m6502_ret3
      0006F3 85*77            [ 3] 1330 	sta	*(___ckd_mul_ulong_sloc0_1_0 + 3)
      0006F5 A5*00            [ 3] 1331 	lda	*___SDCC_m6502_ret4
      0006F7 85*78            [ 3] 1332 	sta	*(___ckd_mul_ulong_sloc0_1_0 + 4)
      0006F9 A5*00            [ 3] 1333 	lda	*___SDCC_m6502_ret5
      0006FB 85*79            [ 3] 1334 	sta	*(___ckd_mul_ulong_sloc0_1_0 + 5)
      0006FD A5*00            [ 3] 1335 	lda	*___SDCC_m6502_ret6
      0006FF 85*7A            [ 3] 1336 	sta	*(___ckd_mul_ulong_sloc0_1_0 + 6)
      000701 A5*00            [ 3] 1337 	lda	*___SDCC_m6502_ret7
      000703 85*7B            [ 3] 1338 	sta	*(___ckd_mul_ulong_sloc0_1_0 + 7)
                                   1339 ;	Raw cost for generated ic 18 : (31, 48.000000) count=1.000000
                                   1340 ;	genCast
                                   1341 ;	genCopy
      000705 A5*77            [ 3] 1342 	lda	*(___ckd_mul_ulong_sloc0_1_0 + 3)
      000707 85*7F            [ 3] 1343 	sta	*(___ckd_mul_ulong_sloc1_1_0 + 3)
      000709 A5*76            [ 3] 1344 	lda	*(___ckd_mul_ulong_sloc0_1_0 + 2)
      00070B 85*7E            [ 3] 1345 	sta	*(___ckd_mul_ulong_sloc1_1_0 + 2)
      00070D 8A               [ 2] 1346 	txa
      00070E 85*7D            [ 3] 1347 	sta	*(___ckd_mul_ulong_sloc1_1_0 + 1)
      000710 A5*74            [ 3] 1348 	lda	*___ckd_mul_ulong_sloc0_1_0
      000712 85*7C            [ 3] 1349 	sta	*___ckd_mul_ulong_sloc1_1_0
                                   1350 ;	Raw cost for generated ic 6 : (15, 23.000000) count=1.000000
                                   1351 ;	genPointerSet
                                   1352 ;	  setupDPTR - off=0 remat=(null) savea=0
      000714 AEr8Er00         [ 4] 1353 	ldx	___ckd_mul_ulong_r_10000_55
      000717 86*00            [ 3] 1354 	stx	*(DPTR+0)
      000719 AEr8Fr00         [ 4] 1355 	ldx	(___ckd_mul_ulong_r_10000_55 + 1)
      00071C 86*01            [ 3] 1356 	stx	*(DPTR+1)
      00071E A0 00            [ 2] 1357 	ldy	#0x00
      000720 91*00            [ 6] 1358 	sta	[DPTR],y
      000722 A5*7D            [ 3] 1359 	lda	*(___ckd_mul_ulong_sloc1_1_0 + 1)
      000724 C8               [ 2] 1360 	iny
      000725 91*00            [ 6] 1361 	sta	[DPTR],y
      000727 A5*7E            [ 3] 1362 	lda	*(___ckd_mul_ulong_sloc1_1_0 + 2)
      000729 C8               [ 2] 1363 	iny
      00072A 91*00            [ 6] 1364 	sta	[DPTR],y
      00072C A5*7F            [ 3] 1365 	lda	*(___ckd_mul_ulong_sloc1_1_0 + 3)
      00072E C8               [ 2] 1366 	iny
      00072F 91*00            [ 6] 1367 	sta	[DPTR],y
                                   1368 ;	Raw cost for generated ic 7 : (29, 55.000000) count=1.000000
                                   1369 ;	genCast
                                   1370 ;	genCopy
      000731 64*87            [ 3] 1371 	stz	*(___ckd_mul_ulong_sloc2_1_0 + 7)
      000733 64*86            [ 3] 1372 	stz	*(___ckd_mul_ulong_sloc2_1_0 + 6)
      000735 64*85            [ 3] 1373 	stz	*(___ckd_mul_ulong_sloc2_1_0 + 5)
      000737 64*84            [ 3] 1374 	stz	*(___ckd_mul_ulong_sloc2_1_0 + 4)
      000739 85*83            [ 3] 1375 	sta	*(___ckd_mul_ulong_sloc2_1_0 + 3)
      00073B A5*7E            [ 3] 1376 	lda	*(___ckd_mul_ulong_sloc1_1_0 + 2)
      00073D 85*82            [ 3] 1377 	sta	*(___ckd_mul_ulong_sloc2_1_0 + 2)
      00073F A5*7D            [ 3] 1378 	lda	*(___ckd_mul_ulong_sloc1_1_0 + 1)
      000741 85*81            [ 3] 1379 	sta	*(___ckd_mul_ulong_sloc2_1_0 + 1)
      000743 A5*7C            [ 3] 1380 	lda	*___ckd_mul_ulong_sloc1_1_0
      000745 85*80            [ 3] 1381 	sta	*___ckd_mul_ulong_sloc2_1_0
                                   1382 ;	Raw cost for generated ic 10 : (26, 37.000000) count=1.000000
                                   1383 ;	genCmpEQorNE
      000747 C5*74            [ 3] 1384 	cmp	*___ckd_mul_ulong_sloc0_1_0
      000749 D0 2A            [ 4] 1385 	bne	00104$
      00074B A5*81            [ 3] 1386 	lda	*(___ckd_mul_ulong_sloc2_1_0 + 1)
      00074D C5*75            [ 3] 1387 	cmp	*(___ckd_mul_ulong_sloc0_1_0 + 1)
      00074F D0 24            [ 4] 1388 	bne	00104$
      000751 A5*82            [ 3] 1389 	lda	*(___ckd_mul_ulong_sloc2_1_0 + 2)
      000753 C5*76            [ 3] 1390 	cmp	*(___ckd_mul_ulong_sloc0_1_0 + 2)
      000755 D0 1E            [ 4] 1391 	bne	00104$
      000757 A5*83            [ 3] 1392 	lda	*(___ckd_mul_ulong_sloc2_1_0 + 3)
      000759 C5*77            [ 3] 1393 	cmp	*(___ckd_mul_ulong_sloc0_1_0 + 3)
      00075B D0 18            [ 4] 1394 	bne	00104$
      00075D A5*84            [ 3] 1395 	lda	*(___ckd_mul_ulong_sloc2_1_0 + 4)
      00075F C5*78            [ 3] 1396 	cmp	*(___ckd_mul_ulong_sloc0_1_0 + 4)
      000761 D0 12            [ 4] 1397 	bne	00104$
      000763 A5*85            [ 3] 1398 	lda	*(___ckd_mul_ulong_sloc2_1_0 + 5)
      000765 C5*79            [ 3] 1399 	cmp	*(___ckd_mul_ulong_sloc0_1_0 + 5)
      000767 D0 0C            [ 4] 1400 	bne	00104$
      000769 A5*86            [ 3] 1401 	lda	*(___ckd_mul_ulong_sloc2_1_0 + 6)
      00076B C5*7A            [ 3] 1402 	cmp	*(___ckd_mul_ulong_sloc0_1_0 + 6)
      00076D D0 06            [ 4] 1403 	bne	00104$
      00076F A5*87            [ 3] 1404 	lda	*(___ckd_mul_ulong_sloc2_1_0 + 7)
      000771 C5*7B            [ 3] 1405 	cmp	*(___ckd_mul_ulong_sloc0_1_0 + 7)
      000773 F0 04            [ 4] 1406 	beq	00112$
      000775                       1407 00104$:
      000775 A9 00            [ 2] 1408 	lda	#0x00
      000777 80 02            [ 4] 1409 	bra	00111$
      000779                       1410 00112$:
      000779 A9 01            [ 2] 1411 	lda	#0x01
      00077B                       1412 00111$:
                                   1413 ;	Raw cost for generated ic 11 : (73, 93.399994) count=1.000000
                                   1414 ;	genNot
      00077B 49 01            [ 2] 1415 	eor	#0x01
                                   1416 ;	Raw cost for generated ic 12 : (2, 2.000000) count=1.000000
                                   1417 ;	genRet
                                   1418 ;	Raw cost for generated ic 13 : (0, 0.000000) count=1.000000
                                   1419 ;	genLabel
                                   1420 ;	Raw cost for generated ic 14 : (0, 0.000000) count=1.000000
                                   1421 ;	genEndFunction
      00077D 60               [ 6] 1422 	rts
                                   1423 ;	Raw cost for generated ic 15 : (1, 6.000000) count=1.000000
                                   1424 	.area CODE
                                   1425 	.area RODATA
                                   1426 	.area XINIT
                                   1427 	.area CABS    (ABS)
