                                      1 ;--------------------------------------------------------
                                      2 ; File Created by SDCC : free open source ISO C Compiler
                                      3 ; Version 4.5.10 #15691 (Linux)
                                      4 ;--------------------------------------------------------
                                      5 	.module expf
                                      6 	
      000000                          7 	.r65c02
                                      8 	.optsdcc -mmos65c02
                                      9 
                                     10 ;--------------------------------------------------------
                                     11 ;  Ordering of segments for the linker.
                                     12 ;--------------------------------------------------------
                                     13 	.area ZP      (PAG)
                                     14 	.area OSEG    (PAG, OVR)
                                     15 	.area _CODE
                                     16 	.area GSINIT
                                     17 	.area GSFINAL
                                     18 	.area CODE
                                     19 	.area RODATA
                                     20 	.area XINIT
                                     21 	.area _DATA
                                     22 	.area DATA
                                     23 	.area BSS
                                     24 ;--------------------------------------------------------
                                     25 ; Public variables in this module
                                     26 ;--------------------------------------------------------
                                     27 	.globl _ldexpf
                                     28 	.globl _expf_PARM_1
                                     29 	.globl _expf
                                     30 ;--------------------------------------------------------
                                     31 ; ZP ram data
                                     32 ;--------------------------------------------------------
                                     33 	.area ZP      (PAG)
      000000                         34 _expf_sloc0_1_0:
      000000                         35 	.ds 4
      000004                         36 _expf_sloc1_1_0:
      000004                         37 	.ds 2
      000006                         38 _expf_sloc2_1_0:
      000006                         39 	.ds 4
                                     40 ;--------------------------------------------------------
                                     41 ; overlayable items in ram
                                     42 ;--------------------------------------------------------
                                     43 ;--------------------------------------------------------
                                     44 ; uninitialized external ram data
                                     45 ;--------------------------------------------------------
                                     46 	.area BSS
      000000                         47 _expf_PARM_1:
      000000                         48 	.ds 4
      000004                         49 _expf_r_10000_26:
      000004                         50 	.ds 4
      000008                         51 _expf_y_10000_26:
      000008                         52 	.ds 4
      00000C                         53 _expf_sign_10000_26:
      00000C                         54 	.ds 1
                                     55 ;--------------------------------------------------------
                                     56 ; absolute external ram data
                                     57 ;--------------------------------------------------------
                                     58 	.area DABS    (ABS)
                                     59 ;--------------------------------------------------------
                                     60 ; initialized external ram data
                                     61 ;--------------------------------------------------------
                                     62 	.area DATA
                                     63 ;--------------------------------------------------------
                                     64 ; global & static initialisations
                                     65 ;--------------------------------------------------------
                                     66 	.area _CODE
                                     67 	.area GSINIT
                                     68 	.area GSFINAL
                                     69 	.area GSINIT
                                     70 ;--------------------------------------------------------
                                     71 ; Home
                                     72 ;--------------------------------------------------------
                                     73 	.area _CODE
                                     74 	.area _CODE
                                     75 ;--------------------------------------------------------
                                     76 ; code
                                     77 ;--------------------------------------------------------
                                     78 	.area CODE
                                     79 ;------------------------------------------------------------
                                     80 ;Allocation info for local variables in function 'expf'
                                     81 ;------------------------------------------------------------
                                     82 ;sloc0         Allocated with name '_expf_sloc0_1_0'
                                     83 ;sloc1         Allocated with name '_expf_sloc1_1_0'
                                     84 ;sloc2         Allocated with name '_expf_sloc2_1_0'
                                     85 ;x             Allocated with name '_expf_PARM_1'
                                     86 ;n             Allocated to registers 
                                     87 ;xn            Allocated with name '_expf_xn_10000_26'
                                     88 ;g             Allocated with name '_expf_g_10000_26'
                                     89 ;r             Allocated with name '_expf_r_10000_26'
                                     90 ;z             Allocated with name '_expf_z_10000_26'
                                     91 ;y             Allocated with name '_expf_y_10000_26'
                                     92 ;sign          Allocated with name '_expf_sign_10000_26'
                                     93 ;------------------------------------------------------------
                                     94 ;	../expf.c: 331: float expf(float x) _FLOAT_FUNC_REENTRANT
                                     95 ;	genLabel
                                     96 ;	Raw cost for generated ic 0 : (0, 0.000000) count=1.000000
                                     97 ;	-----------------------------------------
                                     98 ;	 function expf
                                     99 ;	-----------------------------------------
                                    100 ;	Register assignment is optimal.
                                    101 ;	Stack space usage: 0 bytes.
      000000                        102 _expf:
                                    103 ;	Raw cost for generated ic 1 : (0, 0.000000) count=1.000000
                                    104 ;	../expf.c: 337: if(x>=0.0)
                                    105 ;	genAssign
                                    106 ;	genCopy
      000000 ADr03r00         [ 4]  107 	lda	(_expf_PARM_1 + 3)
      000003 8Dr03r00         [ 4]  108 	sta	(___fslt_PARM_1 + 3)
      000006 ADr02r00         [ 4]  109 	lda	(_expf_PARM_1 + 2)
      000009 8Dr02r00         [ 4]  110 	sta	(___fslt_PARM_1 + 2)
      00000C ADr01r00         [ 4]  111 	lda	(_expf_PARM_1 + 1)
      00000F 8Dr01r00         [ 4]  112 	sta	(___fslt_PARM_1 + 1)
      000012 ADr00r00         [ 4]  113 	lda	_expf_PARM_1
      000015 8Dr00r00         [ 4]  114 	sta	___fslt_PARM_1
                                    115 ;	Raw cost for generated ic 92 : (24, 32.000000) count=1.000000
                                    116 ;	genAssign
                                    117 ;	genAssignLit
      000018 9Cr00r00         [ 4]  118 	stz	___fslt_PARM_2
      00001B 9Cr01r00         [ 4]  119 	stz	(___fslt_PARM_2 + 1)
      00001E 9Cr02r00         [ 4]  120 	stz	(___fslt_PARM_2 + 2)
      000021 9Cr03r00         [ 4]  121 	stz	(___fslt_PARM_2 + 3)
                                    122 ;	Raw cost for generated ic 93 : (12, 16.000000) count=1.000000
                                    123 ;	genCall
      000024 20r00r00         [ 6]  124 	jsr	___fslt
                                    125 ;	assignResultValue
                                    126 ;	Raw cost for generated ic 94 : (3, 6.000000) count=1.000000
                                    127 ;	genIfx
      000027 C9 00            [ 2]  128 	cmp	#0x00
                                    129 ;	genIfxJump : z
      000029 D0 1E            [ 4]  130 	bne	00102$
                                    131 ;	Raw cost for generated ic 3 : (7, 7.600000) count=1.000000
                                    132 ;	../expf.c: 338: { y=x;  sign=0; }
                                    133 ;	genAssign
                                    134 ;	genCopy
      00002B ADr03r00         [ 4]  135 	lda	(_expf_PARM_1 + 3)
      00002E 8Dr0Br00         [ 4]  136 	sta	(_expf_y_10000_26 + 3)
      000031 ADr02r00         [ 4]  137 	lda	(_expf_PARM_1 + 2)
      000034 8Dr0Ar00         [ 4]  138 	sta	(_expf_y_10000_26 + 2)
      000037 ADr01r00         [ 4]  139 	lda	(_expf_PARM_1 + 1)
      00003A 8Dr09r00         [ 4]  140 	sta	(_expf_y_10000_26 + 1)
      00003D ADr00r00         [ 4]  141 	lda	_expf_PARM_1
      000040 8Dr08r00         [ 4]  142 	sta	_expf_y_10000_26
                                    143 ;	Raw cost for generated ic 6 : (24, 32.000000) count=0.750000
                                    144 ;	genAssign
                                    145 ;	genAssignLit
      000043 9Cr0Cr00         [ 4]  146 	stz	_expf_sign_10000_26
                                    147 ;	Raw cost for generated ic 7 : (3, 4.000000) count=0.750000
                                    148 ;	genGoto
      000046 4Cr68r00         [ 3]  149 	jmp	00103$
                                    150 ;	Raw cost for generated ic 8 : (3, 3.000000) count=0.750000
                                    151 ;	genLabel
      000049                        152 00102$:
                                    153 ;	Raw cost for generated ic 9 : (0, 0.000000) count=0.250000
                                    154 ;	../expf.c: 340: { y=-x; sign=1; }
                                    155 ;	genUminus
                                    156 ;	genUminusFloat
      000049 ADr00r00         [ 4]  157 	lda	_expf_PARM_1
      00004C 8Dr08r00         [ 4]  158 	sta	_expf_y_10000_26
      00004F ADr01r00         [ 4]  159 	lda	(_expf_PARM_1 + 1)
      000052 8Dr09r00         [ 4]  160 	sta	(_expf_y_10000_26 + 1)
      000055 ADr02r00         [ 4]  161 	lda	(_expf_PARM_1 + 2)
      000058 8Dr0Ar00         [ 4]  162 	sta	(_expf_y_10000_26 + 2)
      00005B ADr03r00         [ 4]  163 	lda	(_expf_PARM_1 + 3)
      00005E 49 80            [ 2]  164 	eor	#0x80
      000060 8Dr0Br00         [ 4]  165 	sta	(_expf_y_10000_26 + 3)
                                    166 ;	Raw cost for generated ic 10 : (26, 34.000000) count=0.250000
                                    167 ;	genAssign
                                    168 ;	genAssignLit
      000063 A2 01            [ 2]  169 	ldx	#0x01
      000065 8Er0Cr00         [ 4]  170 	stx	_expf_sign_10000_26
                                    171 ;	Raw cost for generated ic 12 : (5, 6.000000) count=0.250000
                                    172 ;	genLabel
      000068                        173 00103$:
                                    174 ;	Raw cost for generated ic 13 : (0, 0.000000) count=1.000000
                                    175 ;	../expf.c: 342: if(y<EXPEPS) return 1.0;
                                    176 ;	genAssign
                                    177 ;	genCopy
      000068 ADr0Br00         [ 4]  178 	lda	(_expf_y_10000_26 + 3)
      00006B 8Dr03r00         [ 4]  179 	sta	(___fslt_PARM_1 + 3)
      00006E ADr0Ar00         [ 4]  180 	lda	(_expf_y_10000_26 + 2)
      000071 8Dr02r00         [ 4]  181 	sta	(___fslt_PARM_1 + 2)
      000074 ADr09r00         [ 4]  182 	lda	(_expf_y_10000_26 + 1)
      000077 8Dr01r00         [ 4]  183 	sta	(___fslt_PARM_1 + 1)
      00007A ADr08r00         [ 4]  184 	lda	_expf_y_10000_26
      00007D 8Dr00r00         [ 4]  185 	sta	___fslt_PARM_1
                                    186 ;	Raw cost for generated ic 95 : (24, 32.000000) count=1.000000
                                    187 ;	genAssign
                                    188 ;	genAssignLit
      000080 A2 95            [ 2]  189 	ldx	#0x95
      000082 8Er00r00         [ 4]  190 	stx	___fslt_PARM_2
      000085 A2 BF            [ 2]  191 	ldx	#0xbf
      000087 8Er01r00         [ 4]  192 	stx	(___fslt_PARM_2 + 1)
      00008A A2 D6            [ 2]  193 	ldx	#0xd6
      00008C 8Er02r00         [ 4]  194 	stx	(___fslt_PARM_2 + 2)
      00008F A2 33            [ 2]  195 	ldx	#0x33
      000091 8Er03r00         [ 4]  196 	stx	(___fslt_PARM_2 + 3)
                                    197 ;	Raw cost for generated ic 96 : (20, 24.000000) count=1.000000
                                    198 ;	genCall
      000094 20r00r00         [ 6]  199 	jsr	___fslt
                                    200 ;	assignResultValue
                                    201 ;	Raw cost for generated ic 97 : (3, 6.000000) count=1.000000
                                    202 ;	genIfx
      000097 C9 00            [ 2]  203 	cmp	#0x00
                                    204 ;	genIfxJump : z
      000099 F0 0C            [ 4]  205 	beq	00105$
                                    206 ;	Raw cost for generated ic 15 : (7, 7.600000) count=1.000000
                                    207 ;	genRet
      00009B A9 00            [ 2]  208 	lda	#0x00
      00009D AA               [ 2]  209 	tax
      00009E A0 80            [ 2]  210 	ldy	#0x80
      0000A0 84*00            [ 3]  211 	sty	*___SDCC_m6502_ret2
      0000A2 A0 3F            [ 2]  212 	ldy	#0x3f
      0000A4 84*00            [ 3]  213 	sty	*___SDCC_m6502_ret3
      0000A6 60               [ 6]  214 	rts
                                    215 ;	Raw cost for generated ic 18 : (14, 17.000000) count=0.750000
                                    216 ;	genLabel
      0000A7                        217 00105$:
                                    218 ;	Raw cost for generated ic 19 : (0, 0.000000) count=1.000000
                                    219 ;	../expf.c: 344: if(y>BIGX)
                                    220 ;	genAssign
                                    221 ;	genAssignLit
      0000A7 A2 18            [ 2]  222 	ldx	#0x18
      0000A9 8Er00r00         [ 4]  223 	stx	___fslt_PARM_1
      0000AC A2 72            [ 2]  224 	ldx	#0x72
      0000AE 8Er01r00         [ 4]  225 	stx	(___fslt_PARM_1 + 1)
      0000B1 A2 B1            [ 2]  226 	ldx	#0xb1
      0000B3 8Er02r00         [ 4]  227 	stx	(___fslt_PARM_1 + 2)
      0000B6 A2 42            [ 2]  228 	ldx	#0x42
      0000B8 8Er03r00         [ 4]  229 	stx	(___fslt_PARM_1 + 3)
                                    230 ;	Raw cost for generated ic 98 : (20, 24.000000) count=1.000000
                                    231 ;	genAssign
                                    232 ;	genCopy
      0000BB ADr0Br00         [ 4]  233 	lda	(_expf_y_10000_26 + 3)
      0000BE 8Dr03r00         [ 4]  234 	sta	(___fslt_PARM_2 + 3)
      0000C1 ADr0Ar00         [ 4]  235 	lda	(_expf_y_10000_26 + 2)
      0000C4 8Dr02r00         [ 4]  236 	sta	(___fslt_PARM_2 + 2)
      0000C7 ADr09r00         [ 4]  237 	lda	(_expf_y_10000_26 + 1)
      0000CA 8Dr01r00         [ 4]  238 	sta	(___fslt_PARM_2 + 1)
      0000CD ADr08r00         [ 4]  239 	lda	_expf_y_10000_26
      0000D0 8Dr00r00         [ 4]  240 	sta	___fslt_PARM_2
                                    241 ;	Raw cost for generated ic 99 : (24, 32.000000) count=1.000000
                                    242 ;	genCall
      0000D3 20r00r00         [ 6]  243 	jsr	___fslt
                                    244 ;	assignResultValue
                                    245 ;	Raw cost for generated ic 100 : (3, 6.000000) count=1.000000
                                    246 ;	genIfx
      0000D6 C9 00            [ 2]  247 	cmp	#0x00
                                    248 ;	genIfxJump : z
      0000D8 F0 1F            [ 4]  249 	beq	00110$
                                    250 ;	Raw cost for generated ic 21 : (7, 7.600000) count=1.000000
                                    251 ;	../expf.c: 346: if(sign)
                                    252 ;	genIfx
      0000DA ADr0Cr00         [ 4]  253 	lda	_expf_sign_10000_26
                                    254 ;	genIfxJump : z
      0000DD F0 12            [ 4]  255 	beq	00107$
                                    256 ;	Raw cost for generated ic 24 : (8, 9.600000) count=0.750000
                                    257 ;	../expf.c: 348: errno=ERANGE;
                                    258 ;	genAssign
                                    259 ;	genAssignLit
      0000DF A2 22            [ 2]  260 	ldx	#0x22
      0000E1 8Er00r00         [ 4]  261 	stx	_errno
      0000E4 9Cr01r00         [ 4]  262 	stz	(_errno + 1)
                                    263 ;	Raw cost for generated ic 28 : (8, 10.000000) count=0.562500
                                    264 ;	../expf.c: 350: ;
                                    265 ;	genRet
      0000E7 A9 FF            [ 2]  266 	lda	#0xff
      0000E9 AA               [ 2]  267 	tax
      0000EA A0 7F            [ 2]  268 	ldy	#0x7f
      0000EC 84*00            [ 3]  269 	sty	*___SDCC_m6502_ret2
      0000EE 84*00            [ 3]  270 	sty	*___SDCC_m6502_ret3
      0000F0 60               [ 6]  271 	rts
                                    272 ;	Raw cost for generated ic 29 : (12, 15.000000) count=0.562500
                                    273 ;	genLabel
      0000F1                        274 00107$:
                                    275 ;	Raw cost for generated ic 31 : (0, 0.000000) count=0.750000
                                    276 ;	../expf.c: 354: return 0.0;
                                    277 ;	genRet
      0000F1 A9 00            [ 2]  278 	lda	#0x00
      0000F3 AA               [ 2]  279 	tax
      0000F4 85*00            [ 3]  280 	sta	*___SDCC_m6502_ret2
      0000F6 85*00            [ 3]  281 	sta	*___SDCC_m6502_ret3
      0000F8 60               [ 6]  282 	rts
                                    283 ;	Raw cost for generated ic 32 : (10, 13.000000) count=0.750000
                                    284 ;	genLabel
      0000F9                        285 00110$:
                                    286 ;	Raw cost for generated ic 34 : (0, 0.000000) count=1.000000
                                    287 ;	../expf.c: 358: z=y*K1;
                                    288 ;	genAssign
                                    289 ;	genAssignLit
      0000F9 A2 3B            [ 2]  290 	ldx	#0x3b
      0000FB 8Er00r00         [ 4]  291 	stx	___fsmul_PARM_1
      0000FE A2 AA            [ 2]  292 	ldx	#0xaa
      000100 8Er01r00         [ 4]  293 	stx	(___fsmul_PARM_1 + 1)
      000103 A2 B8            [ 2]  294 	ldx	#0xb8
      000105 8Er02r00         [ 4]  295 	stx	(___fsmul_PARM_1 + 2)
      000108 A2 3F            [ 2]  296 	ldx	#0x3f
      00010A 8Er03r00         [ 4]  297 	stx	(___fsmul_PARM_1 + 3)
                                    298 ;	Raw cost for generated ic 101 : (20, 24.000000) count=1.000000
                                    299 ;	genAssign
                                    300 ;	genCopy
      00010D ADr0Br00         [ 4]  301 	lda	(_expf_y_10000_26 + 3)
      000110 8Dr03r00         [ 4]  302 	sta	(___fsmul_PARM_2 + 3)
      000113 ADr0Ar00         [ 4]  303 	lda	(_expf_y_10000_26 + 2)
      000116 8Dr02r00         [ 4]  304 	sta	(___fsmul_PARM_2 + 2)
      000119 ADr09r00         [ 4]  305 	lda	(_expf_y_10000_26 + 1)
      00011C 8Dr01r00         [ 4]  306 	sta	(___fsmul_PARM_2 + 1)
      00011F ADr08r00         [ 4]  307 	lda	_expf_y_10000_26
      000122 8Dr00r00         [ 4]  308 	sta	___fsmul_PARM_2
                                    309 ;	Raw cost for generated ic 102 : (24, 32.000000) count=1.000000
                                    310 ;	../expf.c: 359: n=z;
                                    311 ;	genCall
      000125 20r00r00         [ 6]  312 	jsr	___fsmul
                                    313 ;	assignResultValue
      000128 85*00            [ 3]  314 	sta	*_expf_sloc0_1_0
      00012A 86*01            [ 3]  315 	stx	*(_expf_sloc0_1_0 + 1)
      00012C A5*00            [ 3]  316 	lda	*___SDCC_m6502_ret2
      00012E 85*02            [ 3]  317 	sta	*(_expf_sloc0_1_0 + 2)
      000130 A5*00            [ 3]  318 	lda	*___SDCC_m6502_ret3
      000132 85*03            [ 3]  319 	sta	*(_expf_sloc0_1_0 + 3)
                                    320 ;	Raw cost for generated ic 103 : (15, 24.000000) count=1.000000
                                    321 ;	genAssign
                                    322 ;	genCopy
      000134 8Dr03r00         [ 4]  323 	sta	(___fs2sint_PARM_1 + 3)
      000137 A5*02            [ 3]  324 	lda	*(_expf_sloc0_1_0 + 2)
      000139 8Dr02r00         [ 4]  325 	sta	(___fs2sint_PARM_1 + 2)
      00013C 8A               [ 2]  326 	txa
      00013D 8Dr01r00         [ 4]  327 	sta	(___fs2sint_PARM_1 + 1)
      000140 A5*00            [ 3]  328 	lda	*_expf_sloc0_1_0
      000142 8Dr00r00         [ 4]  329 	sta	___fs2sint_PARM_1
                                    330 ;	Raw cost for generated ic 104 : (17, 24.000000) count=1.000000
                                    331 ;	genCall
      000145 20r00r00         [ 6]  332 	jsr	___fs2sint
                                    333 ;	assignResultValue
      000148 85*04            [ 3]  334 	sta	*_expf_sloc1_1_0
      00014A 86*05            [ 3]  335 	stx	*(_expf_sloc1_1_0 + 1)
                                    336 ;	Raw cost for generated ic 105 : (7, 12.000000) count=1.000000
                                    337 ;	../expf.c: 361: if(n<0) --n;
                                    338 ;	genCmp
      00014C 24*05            [ 3]  339 	bit	*(_expf_sloc1_1_0 + 1)
      00014E 10 06            [ 4]  340 	bpl	00112$
                                    341 ;	Raw cost for generated ic 39 : (7, 8.600000) count=1.000000
                                    342 ;	skipping generated iCode
                                    343 ;	Raw cost for generated ic 40 : (0, 0.000000) count=1.000000
                                    344 ;	genMinus
                                    345 ;	  genMinusDec - size=2  icount=1
      000150 D0 02            [ 4]  346 	bne	00178$
      000152 C6*05            [ 5]  347 	dec	*(_expf_sloc1_1_0 + 1)
      000154                        348 00178$:
      000154 C6*04            [ 5]  349 	dec	*_expf_sloc1_1_0
                                    350 ;	Raw cost for generated ic 43 : (6, 12.600000) count=0.750000
                                    351 ;	genLabel
      000156                        352 00112$:
                                    353 ;	Raw cost for generated ic 45 : (0, 0.000000) count=1.000000
                                    354 ;	../expf.c: 362: if(z-n>=0.5) ++n;
                                    355 ;	Raw cost for generated ic 106 : (0, 0.000000) count=1.000000
                                    356 ;	genCall
                                    357 ;	genSend
      000156 A6*05            [ 3]  358 	ldx	*(_expf_sloc1_1_0 + 1)
      000158 A5*04            [ 3]  359 	lda	*_expf_sloc1_1_0
      00015A 20r00r00         [ 6]  360 	jsr	___sint2fs
                                    361 ;	assignResultValue
      00015D 8Dr00r00         [ 4]  362 	sta	___fssub_PARM_2
      000160 8Er01r00         [ 4]  363 	stx	(___fssub_PARM_2 + 1)
      000163 A5*00            [ 3]  364 	lda	*___SDCC_m6502_ret2
      000165 8Dr02r00         [ 4]  365 	sta	(___fssub_PARM_2 + 2)
      000168 A5*00            [ 3]  366 	lda	*___SDCC_m6502_ret3
      00016A 8Dr03r00         [ 4]  367 	sta	(___fssub_PARM_2 + 3)
                                    368 ;	Raw cost for generated ic 107 : (23, 34.000000) count=1.000000
                                    369 ;	genAssign
                                    370 ;	genCopy
      00016D A5*03            [ 3]  371 	lda	*(_expf_sloc0_1_0 + 3)
      00016F 8Dr03r00         [ 4]  372 	sta	(___fssub_PARM_1 + 3)
      000172 A5*02            [ 3]  373 	lda	*(_expf_sloc0_1_0 + 2)
      000174 8Dr02r00         [ 4]  374 	sta	(___fssub_PARM_1 + 2)
      000177 A5*01            [ 3]  375 	lda	*(_expf_sloc0_1_0 + 1)
      000179 8Dr01r00         [ 4]  376 	sta	(___fssub_PARM_1 + 1)
      00017C A5*00            [ 3]  377 	lda	*_expf_sloc0_1_0
      00017E 8Dr00r00         [ 4]  378 	sta	___fssub_PARM_1
                                    379 ;	Raw cost for generated ic 108 : (20, 28.000000) count=1.000000
                                    380 ;	genCall
      000181 20r00r00         [ 6]  381 	jsr	___fssub
                                    382 ;	assignResultValue
      000184 8Dr00r00         [ 4]  383 	sta	___fslt_PARM_1
      000187 8Er01r00         [ 4]  384 	stx	(___fslt_PARM_1 + 1)
      00018A A5*00            [ 3]  385 	lda	*___SDCC_m6502_ret2
      00018C 8Dr02r00         [ 4]  386 	sta	(___fslt_PARM_1 + 2)
      00018F A5*00            [ 3]  387 	lda	*___SDCC_m6502_ret3
      000191 8Dr03r00         [ 4]  388 	sta	(___fslt_PARM_1 + 3)
                                    389 ;	Raw cost for generated ic 110 : (19, 28.000000) count=1.000000
                                    390 ;	genAssign
                                    391 ;	genAssignLit
      000194 9Cr00r00         [ 4]  392 	stz	___fslt_PARM_2
      000197 9Cr01r00         [ 4]  393 	stz	(___fslt_PARM_2 + 1)
      00019A 9Cr02r00         [ 4]  394 	stz	(___fslt_PARM_2 + 2)
      00019D A2 3F            [ 2]  395 	ldx	#0x3f
      00019F 8Er03r00         [ 4]  396 	stx	(___fslt_PARM_2 + 3)
                                    397 ;	Raw cost for generated ic 112 : (14, 18.000000) count=1.000000
                                    398 ;	genCall
      0001A2 20r00r00         [ 6]  399 	jsr	___fslt
                                    400 ;	assignResultValue
                                    401 ;	Raw cost for generated ic 113 : (3, 6.000000) count=1.000000
                                    402 ;	genIfx
      0001A5 C9 00            [ 2]  403 	cmp	#0x00
                                    404 ;	genIfxJump : z
      0001A7 D0 06            [ 4]  405 	bne	00114$
                                    406 ;	Raw cost for generated ic 49 : (7, 7.600000) count=1.000000
                                    407 ;	genPlus
                                    408 ;	  genPlusInc
      0001A9 E6*04            [ 5]  409 	inc	*_expf_sloc1_1_0
      0001AB D0 02            [ 4]  410 	bne	00181$
      0001AD E6*05            [ 5]  411 	inc	*(_expf_sloc1_1_0 + 1)
      0001AF                        412 00181$:
                                    413 ;	Raw cost for generated ic 52 : (6, 12.600000) count=0.750000
                                    414 ;	genLabel
      0001AF                        415 00114$:
                                    416 ;	Raw cost for generated ic 54 : (0, 0.000000) count=1.000000
                                    417 ;	../expf.c: 363: xn=n;
                                    418 ;	Raw cost for generated ic 114 : (0, 0.000000) count=1.000000
                                    419 ;	genCall
                                    420 ;	genSend
      0001AF A6*05            [ 3]  421 	ldx	*(_expf_sloc1_1_0 + 1)
      0001B1 A5*04            [ 3]  422 	lda	*_expf_sloc1_1_0
      0001B3 20r00r00         [ 6]  423 	jsr	___sint2fs
                                    424 ;	assignResultValue
      0001B6 85*00            [ 3]  425 	sta	*_expf_sloc0_1_0
      0001B8 86*01            [ 3]  426 	stx	*(_expf_sloc0_1_0 + 1)
      0001BA A5*00            [ 3]  427 	lda	*___SDCC_m6502_ret2
      0001BC 85*02            [ 3]  428 	sta	*(_expf_sloc0_1_0 + 2)
      0001BE A5*00            [ 3]  429 	lda	*___SDCC_m6502_ret3
      0001C0 85*03            [ 3]  430 	sta	*(_expf_sloc0_1_0 + 3)
                                    431 ;	Raw cost for generated ic 115 : (19, 30.000000) count=1.000000
                                    432 ;	../expf.c: 364: g=((y-xn*C1))-xn*C2;
                                    433 ;	genAssign
                                    434 ;	genAssignLit
      0001C2 9Cr00r00         [ 4]  435 	stz	___fsmul_PARM_1
      0001C5 A2 80            [ 2]  436 	ldx	#0x80
      0001C7 8Er01r00         [ 4]  437 	stx	(___fsmul_PARM_1 + 1)
      0001CA A2 31            [ 2]  438 	ldx	#0x31
      0001CC 8Er02r00         [ 4]  439 	stx	(___fsmul_PARM_1 + 2)
      0001CF A2 3F            [ 2]  440 	ldx	#0x3f
      0001D1 8Er03r00         [ 4]  441 	stx	(___fsmul_PARM_1 + 3)
                                    442 ;	Raw cost for generated ic 116 : (18, 22.000000) count=1.000000
                                    443 ;	genAssign
                                    444 ;	genCopy
      0001D4 8Dr03r00         [ 4]  445 	sta	(___fsmul_PARM_2 + 3)
      0001D7 A5*02            [ 3]  446 	lda	*(_expf_sloc0_1_0 + 2)
      0001D9 8Dr02r00         [ 4]  447 	sta	(___fsmul_PARM_2 + 2)
      0001DC A5*01            [ 3]  448 	lda	*(_expf_sloc0_1_0 + 1)
      0001DE 8Dr01r00         [ 4]  449 	sta	(___fsmul_PARM_2 + 1)
      0001E1 A5*00            [ 3]  450 	lda	*_expf_sloc0_1_0
      0001E3 8Dr00r00         [ 4]  451 	sta	___fsmul_PARM_2
                                    452 ;	Raw cost for generated ic 117 : (18, 25.000000) count=1.000000
                                    453 ;	genCall
      0001E6 20r00r00         [ 6]  454 	jsr	___fsmul
                                    455 ;	assignResultValue
      0001E9 8Dr00r00         [ 4]  456 	sta	___fssub_PARM_2
      0001EC 8Er01r00         [ 4]  457 	stx	(___fssub_PARM_2 + 1)
      0001EF A5*00            [ 3]  458 	lda	*___SDCC_m6502_ret2
      0001F1 8Dr02r00         [ 4]  459 	sta	(___fssub_PARM_2 + 2)
      0001F4 A5*00            [ 3]  460 	lda	*___SDCC_m6502_ret3
      0001F6 8Dr03r00         [ 4]  461 	sta	(___fssub_PARM_2 + 3)
                                    462 ;	Raw cost for generated ic 118 : (19, 28.000000) count=1.000000
                                    463 ;	genAssign
                                    464 ;	genCopy
      0001F9 ADr0Br00         [ 4]  465 	lda	(_expf_y_10000_26 + 3)
      0001FC 8Dr03r00         [ 4]  466 	sta	(___fssub_PARM_1 + 3)
      0001FF ADr0Ar00         [ 4]  467 	lda	(_expf_y_10000_26 + 2)
      000202 8Dr02r00         [ 4]  468 	sta	(___fssub_PARM_1 + 2)
      000205 ADr09r00         [ 4]  469 	lda	(_expf_y_10000_26 + 1)
      000208 8Dr01r00         [ 4]  470 	sta	(___fssub_PARM_1 + 1)
      00020B ADr08r00         [ 4]  471 	lda	_expf_y_10000_26
      00020E 8Dr00r00         [ 4]  472 	sta	___fssub_PARM_1
                                    473 ;	Raw cost for generated ic 119 : (24, 32.000000) count=1.000000
                                    474 ;	genCall
      000211 20r00r00         [ 6]  475 	jsr	___fssub
                                    476 ;	assignResultValue
      000214 85*06            [ 3]  477 	sta	*_expf_sloc2_1_0
      000216 86*07            [ 3]  478 	stx	*(_expf_sloc2_1_0 + 1)
      000218 A5*00            [ 3]  479 	lda	*___SDCC_m6502_ret2
      00021A 85*08            [ 3]  480 	sta	*(_expf_sloc2_1_0 + 2)
      00021C A5*00            [ 3]  481 	lda	*___SDCC_m6502_ret3
      00021E 85*09            [ 3]  482 	sta	*(_expf_sloc2_1_0 + 3)
                                    483 ;	Raw cost for generated ic 121 : (15, 24.000000) count=1.000000
                                    484 ;	genAssign
                                    485 ;	genAssignLit
      000220 A2 83            [ 2]  486 	ldx	#0x83
      000222 8Er00r00         [ 4]  487 	stx	___fsmul_PARM_1
      000225 A2 80            [ 2]  488 	ldx	#0x80
      000227 8Er01r00         [ 4]  489 	stx	(___fsmul_PARM_1 + 1)
      00022A A2 5E            [ 2]  490 	ldx	#0x5e
      00022C 8Er02r00         [ 4]  491 	stx	(___fsmul_PARM_1 + 2)
      00022F A2 B9            [ 2]  492 	ldx	#0xb9
      000231 8Er03r00         [ 4]  493 	stx	(___fsmul_PARM_1 + 3)
                                    494 ;	Raw cost for generated ic 122 : (20, 24.000000) count=1.000000
                                    495 ;	genAssign
                                    496 ;	genCopy
      000234 A5*03            [ 3]  497 	lda	*(_expf_sloc0_1_0 + 3)
      000236 8Dr03r00         [ 4]  498 	sta	(___fsmul_PARM_2 + 3)
      000239 A5*02            [ 3]  499 	lda	*(_expf_sloc0_1_0 + 2)
      00023B 8Dr02r00         [ 4]  500 	sta	(___fsmul_PARM_2 + 2)
      00023E A5*01            [ 3]  501 	lda	*(_expf_sloc0_1_0 + 1)
      000240 8Dr01r00         [ 4]  502 	sta	(___fsmul_PARM_2 + 1)
      000243 A5*00            [ 3]  503 	lda	*_expf_sloc0_1_0
      000245 8Dr00r00         [ 4]  504 	sta	___fsmul_PARM_2
                                    505 ;	Raw cost for generated ic 123 : (20, 28.000000) count=1.000000
                                    506 ;	genCall
      000248 20r00r00         [ 6]  507 	jsr	___fsmul
                                    508 ;	assignResultValue
      00024B 8Dr00r00         [ 4]  509 	sta	___fssub_PARM_2
      00024E 8Er01r00         [ 4]  510 	stx	(___fssub_PARM_2 + 1)
      000251 A5*00            [ 3]  511 	lda	*___SDCC_m6502_ret2
      000253 8Dr02r00         [ 4]  512 	sta	(___fssub_PARM_2 + 2)
      000256 A5*00            [ 3]  513 	lda	*___SDCC_m6502_ret3
      000258 8Dr03r00         [ 4]  514 	sta	(___fssub_PARM_2 + 3)
                                    515 ;	Raw cost for generated ic 124 : (19, 28.000000) count=1.000000
                                    516 ;	genAssign
                                    517 ;	genCopy
      00025B A5*09            [ 3]  518 	lda	*(_expf_sloc2_1_0 + 3)
      00025D 8Dr03r00         [ 4]  519 	sta	(___fssub_PARM_1 + 3)
      000260 A5*08            [ 3]  520 	lda	*(_expf_sloc2_1_0 + 2)
      000262 8Dr02r00         [ 4]  521 	sta	(___fssub_PARM_1 + 2)
      000265 A5*07            [ 3]  522 	lda	*(_expf_sloc2_1_0 + 1)
      000267 8Dr01r00         [ 4]  523 	sta	(___fssub_PARM_1 + 1)
      00026A A5*06            [ 3]  524 	lda	*_expf_sloc2_1_0
      00026C 8Dr00r00         [ 4]  525 	sta	___fssub_PARM_1
                                    526 ;	Raw cost for generated ic 125 : (20, 28.000000) count=1.000000
                                    527 ;	../expf.c: 365: z=g*g;
                                    528 ;	genCall
      00026F 20r00r00         [ 6]  529 	jsr	___fssub
                                    530 ;	assignResultValue
      000272 85*06            [ 3]  531 	sta	*_expf_sloc2_1_0
      000274 86*07            [ 3]  532 	stx	*(_expf_sloc2_1_0 + 1)
      000276 A5*00            [ 3]  533 	lda	*___SDCC_m6502_ret2
      000278 85*08            [ 3]  534 	sta	*(_expf_sloc2_1_0 + 2)
      00027A A5*00            [ 3]  535 	lda	*___SDCC_m6502_ret3
      00027C 85*09            [ 3]  536 	sta	*(_expf_sloc2_1_0 + 3)
                                    537 ;	Raw cost for generated ic 127 : (15, 24.000000) count=1.000000
                                    538 ;	genAssign
                                    539 ;	genCopy
      00027E 8Dr03r00         [ 4]  540 	sta	(___fsmul_PARM_1 + 3)
      000281 A5*08            [ 3]  541 	lda	*(_expf_sloc2_1_0 + 2)
      000283 8Dr02r00         [ 4]  542 	sta	(___fsmul_PARM_1 + 2)
      000286 8A               [ 2]  543 	txa
      000287 8Dr01r00         [ 4]  544 	sta	(___fsmul_PARM_1 + 1)
      00028A A5*06            [ 3]  545 	lda	*_expf_sloc2_1_0
      00028C 8Dr00r00         [ 4]  546 	sta	___fsmul_PARM_1
                                    547 ;	Raw cost for generated ic 128 : (17, 24.000000) count=1.000000
                                    548 ;	genAssign
                                    549 ;	genCopy
      00028F A5*09            [ 3]  550 	lda	*(_expf_sloc2_1_0 + 3)
      000291 8Dr03r00         [ 4]  551 	sta	(___fsmul_PARM_2 + 3)
      000294 A5*08            [ 3]  552 	lda	*(_expf_sloc2_1_0 + 2)
      000296 8Dr02r00         [ 4]  553 	sta	(___fsmul_PARM_2 + 2)
      000299 8A               [ 2]  554 	txa
      00029A 8Dr01r00         [ 4]  555 	sta	(___fsmul_PARM_2 + 1)
      00029D A5*06            [ 3]  556 	lda	*_expf_sloc2_1_0
      00029F 8Dr00r00         [ 4]  557 	sta	___fsmul_PARM_2
                                    558 ;	Raw cost for generated ic 129 : (19, 27.000000) count=1.000000
                                    559 ;	../expf.c: 366: r=P(z)*g;
                                    560 ;	genCall
      0002A2 20r00r00         [ 6]  561 	jsr	___fsmul
                                    562 ;	assignResultValue
      0002A5 85*00            [ 3]  563 	sta	*_expf_sloc0_1_0
      0002A7 86*01            [ 3]  564 	stx	*(_expf_sloc0_1_0 + 1)
      0002A9 A5*00            [ 3]  565 	lda	*___SDCC_m6502_ret2
      0002AB 85*02            [ 3]  566 	sta	*(_expf_sloc0_1_0 + 2)
      0002AD A5*00            [ 3]  567 	lda	*___SDCC_m6502_ret3
      0002AF 85*03            [ 3]  568 	sta	*(_expf_sloc0_1_0 + 3)
                                    569 ;	Raw cost for generated ic 130 : (15, 24.000000) count=1.000000
                                    570 ;	genAssign
                                    571 ;	genAssignLit
      0002B1 A2 08            [ 2]  572 	ldx	#0x08
      0002B3 8Er00r00         [ 4]  573 	stx	___fsmul_PARM_1
      0002B6 A2 53            [ 2]  574 	ldx	#0x53
      0002B8 8Er01r00         [ 4]  575 	stx	(___fsmul_PARM_1 + 1)
      0002BB A2 88            [ 2]  576 	ldx	#0x88
      0002BD 8Er02r00         [ 4]  577 	stx	(___fsmul_PARM_1 + 2)
      0002C0 A2 3B            [ 2]  578 	ldx	#0x3b
      0002C2 8Er03r00         [ 4]  579 	stx	(___fsmul_PARM_1 + 3)
                                    580 ;	Raw cost for generated ic 131 : (20, 24.000000) count=1.000000
                                    581 ;	genAssign
                                    582 ;	genCopy
      0002C5 8Dr03r00         [ 4]  583 	sta	(___fsmul_PARM_2 + 3)
      0002C8 A5*02            [ 3]  584 	lda	*(_expf_sloc0_1_0 + 2)
      0002CA 8Dr02r00         [ 4]  585 	sta	(___fsmul_PARM_2 + 2)
      0002CD A5*01            [ 3]  586 	lda	*(_expf_sloc0_1_0 + 1)
      0002CF 8Dr01r00         [ 4]  587 	sta	(___fsmul_PARM_2 + 1)
      0002D2 A5*00            [ 3]  588 	lda	*_expf_sloc0_1_0
      0002D4 8Dr00r00         [ 4]  589 	sta	___fsmul_PARM_2
                                    590 ;	Raw cost for generated ic 132 : (18, 25.000000) count=1.000000
                                    591 ;	genCall
      0002D7 20r00r00         [ 6]  592 	jsr	___fsmul
                                    593 ;	assignResultValue
      0002DA 8Dr00r00         [ 4]  594 	sta	___fsadd_PARM_1
      0002DD 8Er01r00         [ 4]  595 	stx	(___fsadd_PARM_1 + 1)
      0002E0 A5*00            [ 3]  596 	lda	*___SDCC_m6502_ret2
      0002E2 8Dr02r00         [ 4]  597 	sta	(___fsadd_PARM_1 + 2)
      0002E5 A5*00            [ 3]  598 	lda	*___SDCC_m6502_ret3
      0002E7 8Dr03r00         [ 4]  599 	sta	(___fsadd_PARM_1 + 3)
                                    600 ;	Raw cost for generated ic 133 : (19, 28.000000) count=1.000000
                                    601 ;	genAssign
                                    602 ;	genAssignLit
      0002EA 9Cr00r00         [ 4]  603 	stz	___fsadd_PARM_2
      0002ED 9Cr01r00         [ 4]  604 	stz	(___fsadd_PARM_2 + 1)
      0002F0 A2 80            [ 2]  605 	ldx	#0x80
      0002F2 8Er02r00         [ 4]  606 	stx	(___fsadd_PARM_2 + 2)
      0002F5 A2 3E            [ 2]  607 	ldx	#0x3e
      0002F7 8Er03r00         [ 4]  608 	stx	(___fsadd_PARM_2 + 3)
                                    609 ;	Raw cost for generated ic 135 : (16, 20.000000) count=1.000000
                                    610 ;	genCall
      0002FA 20r00r00         [ 6]  611 	jsr	___fsadd
                                    612 ;	assignResultValue
      0002FD 8Dr00r00         [ 4]  613 	sta	___fsmul_PARM_1
      000300 8Er01r00         [ 4]  614 	stx	(___fsmul_PARM_1 + 1)
      000303 A5*00            [ 3]  615 	lda	*___SDCC_m6502_ret2
      000305 8Dr02r00         [ 4]  616 	sta	(___fsmul_PARM_1 + 2)
      000308 A5*00            [ 3]  617 	lda	*___SDCC_m6502_ret3
      00030A 8Dr03r00         [ 4]  618 	sta	(___fsmul_PARM_1 + 3)
                                    619 ;	Raw cost for generated ic 136 : (19, 28.000000) count=1.000000
                                    620 ;	genAssign
                                    621 ;	genCopy
      00030D A5*09            [ 3]  622 	lda	*(_expf_sloc2_1_0 + 3)
      00030F 8Dr03r00         [ 4]  623 	sta	(___fsmul_PARM_2 + 3)
      000312 A5*08            [ 3]  624 	lda	*(_expf_sloc2_1_0 + 2)
      000314 8Dr02r00         [ 4]  625 	sta	(___fsmul_PARM_2 + 2)
      000317 A5*07            [ 3]  626 	lda	*(_expf_sloc2_1_0 + 1)
      000319 8Dr01r00         [ 4]  627 	sta	(___fsmul_PARM_2 + 1)
      00031C A5*06            [ 3]  628 	lda	*_expf_sloc2_1_0
      00031E 8Dr00r00         [ 4]  629 	sta	___fsmul_PARM_2
                                    630 ;	Raw cost for generated ic 138 : (20, 28.000000) count=1.000000
                                    631 ;	../expf.c: 367: r=0.5+(r/(Q(z)-r));
                                    632 ;	genCall
      000321 20r00r00         [ 6]  633 	jsr	___fsmul
                                    634 ;	assignResultValue
      000324 85*06            [ 3]  635 	sta	*_expf_sloc2_1_0
      000326 86*07            [ 3]  636 	stx	*(_expf_sloc2_1_0 + 1)
      000328 A5*00            [ 3]  637 	lda	*___SDCC_m6502_ret2
      00032A 85*08            [ 3]  638 	sta	*(_expf_sloc2_1_0 + 2)
      00032C A5*00            [ 3]  639 	lda	*___SDCC_m6502_ret3
      00032E 85*09            [ 3]  640 	sta	*(_expf_sloc2_1_0 + 3)
                                    641 ;	Raw cost for generated ic 139 : (15, 24.000000) count=1.000000
                                    642 ;	genAssign
                                    643 ;	genAssignLit
      000330 A2 5B            [ 2]  644 	ldx	#0x5b
      000332 8Er00r00         [ 4]  645 	stx	___fsmul_PARM_1
      000335 A2 BF            [ 2]  646 	ldx	#0xbf
      000337 8Er01r00         [ 4]  647 	stx	(___fsmul_PARM_1 + 1)
      00033A A2 4C            [ 2]  648 	ldx	#0x4c
      00033C 8Er02r00         [ 4]  649 	stx	(___fsmul_PARM_1 + 2)
      00033F A2 3D            [ 2]  650 	ldx	#0x3d
      000341 8Er03r00         [ 4]  651 	stx	(___fsmul_PARM_1 + 3)
                                    652 ;	Raw cost for generated ic 140 : (20, 24.000000) count=1.000000
                                    653 ;	genAssign
                                    654 ;	genCopy
      000344 A5*03            [ 3]  655 	lda	*(_expf_sloc0_1_0 + 3)
      000346 8Dr03r00         [ 4]  656 	sta	(___fsmul_PARM_2 + 3)
      000349 A5*02            [ 3]  657 	lda	*(_expf_sloc0_1_0 + 2)
      00034B 8Dr02r00         [ 4]  658 	sta	(___fsmul_PARM_2 + 2)
      00034E A5*01            [ 3]  659 	lda	*(_expf_sloc0_1_0 + 1)
      000350 8Dr01r00         [ 4]  660 	sta	(___fsmul_PARM_2 + 1)
      000353 A5*00            [ 3]  661 	lda	*_expf_sloc0_1_0
      000355 8Dr00r00         [ 4]  662 	sta	___fsmul_PARM_2
                                    663 ;	Raw cost for generated ic 141 : (20, 28.000000) count=1.000000
                                    664 ;	genCall
      000358 20r00r00         [ 6]  665 	jsr	___fsmul
                                    666 ;	assignResultValue
      00035B 8Dr00r00         [ 4]  667 	sta	___fsadd_PARM_1
      00035E 8Er01r00         [ 4]  668 	stx	(___fsadd_PARM_1 + 1)
      000361 A5*00            [ 3]  669 	lda	*___SDCC_m6502_ret2
      000363 8Dr02r00         [ 4]  670 	sta	(___fsadd_PARM_1 + 2)
      000366 A5*00            [ 3]  671 	lda	*___SDCC_m6502_ret3
      000368 8Dr03r00         [ 4]  672 	sta	(___fsadd_PARM_1 + 3)
                                    673 ;	Raw cost for generated ic 142 : (19, 28.000000) count=1.000000
                                    674 ;	genAssign
                                    675 ;	genAssignLit
      00036B 9Cr00r00         [ 4]  676 	stz	___fsadd_PARM_2
      00036E 9Cr01r00         [ 4]  677 	stz	(___fsadd_PARM_2 + 1)
      000371 9Cr02r00         [ 4]  678 	stz	(___fsadd_PARM_2 + 2)
      000374 A2 3F            [ 2]  679 	ldx	#0x3f
      000376 8Er03r00         [ 4]  680 	stx	(___fsadd_PARM_2 + 3)
                                    681 ;	Raw cost for generated ic 144 : (14, 18.000000) count=1.000000
                                    682 ;	genCall
      000379 20r00r00         [ 6]  683 	jsr	___fsadd
                                    684 ;	assignResultValue
      00037C 8Dr00r00         [ 4]  685 	sta	___fssub_PARM_1
      00037F 8Er01r00         [ 4]  686 	stx	(___fssub_PARM_1 + 1)
      000382 A5*00            [ 3]  687 	lda	*___SDCC_m6502_ret2
      000384 8Dr02r00         [ 4]  688 	sta	(___fssub_PARM_1 + 2)
      000387 A5*00            [ 3]  689 	lda	*___SDCC_m6502_ret3
      000389 8Dr03r00         [ 4]  690 	sta	(___fssub_PARM_1 + 3)
                                    691 ;	Raw cost for generated ic 145 : (19, 28.000000) count=1.000000
                                    692 ;	genAssign
                                    693 ;	genCopy
      00038C A5*09            [ 3]  694 	lda	*(_expf_sloc2_1_0 + 3)
      00038E 8Dr03r00         [ 4]  695 	sta	(___fssub_PARM_2 + 3)
      000391 A5*08            [ 3]  696 	lda	*(_expf_sloc2_1_0 + 2)
      000393 8Dr02r00         [ 4]  697 	sta	(___fssub_PARM_2 + 2)
      000396 A5*07            [ 3]  698 	lda	*(_expf_sloc2_1_0 + 1)
      000398 8Dr01r00         [ 4]  699 	sta	(___fssub_PARM_2 + 1)
      00039B A5*06            [ 3]  700 	lda	*_expf_sloc2_1_0
      00039D 8Dr00r00         [ 4]  701 	sta	___fssub_PARM_2
                                    702 ;	Raw cost for generated ic 147 : (20, 28.000000) count=1.000000
                                    703 ;	genCall
      0003A0 20r00r00         [ 6]  704 	jsr	___fssub
                                    705 ;	assignResultValue
      0003A3 8Dr00r00         [ 4]  706 	sta	___fsdiv_PARM_2
      0003A6 8Er01r00         [ 4]  707 	stx	(___fsdiv_PARM_2 + 1)
      0003A9 A5*00            [ 3]  708 	lda	*___SDCC_m6502_ret2
      0003AB 8Dr02r00         [ 4]  709 	sta	(___fsdiv_PARM_2 + 2)
      0003AE A5*00            [ 3]  710 	lda	*___SDCC_m6502_ret3
      0003B0 8Dr03r00         [ 4]  711 	sta	(___fsdiv_PARM_2 + 3)
                                    712 ;	Raw cost for generated ic 148 : (19, 28.000000) count=1.000000
                                    713 ;	genAssign
                                    714 ;	genCopy
      0003B3 A5*09            [ 3]  715 	lda	*(_expf_sloc2_1_0 + 3)
      0003B5 8Dr03r00         [ 4]  716 	sta	(___fsdiv_PARM_1 + 3)
      0003B8 A5*08            [ 3]  717 	lda	*(_expf_sloc2_1_0 + 2)
      0003BA 8Dr02r00         [ 4]  718 	sta	(___fsdiv_PARM_1 + 2)
      0003BD A5*07            [ 3]  719 	lda	*(_expf_sloc2_1_0 + 1)
      0003BF 8Dr01r00         [ 4]  720 	sta	(___fsdiv_PARM_1 + 1)
      0003C2 A5*06            [ 3]  721 	lda	*_expf_sloc2_1_0
      0003C4 8Dr00r00         [ 4]  722 	sta	___fsdiv_PARM_1
                                    723 ;	Raw cost for generated ic 149 : (20, 28.000000) count=1.000000
                                    724 ;	genCall
      0003C7 20r00r00         [ 6]  725 	jsr	___fsdiv
                                    726 ;	assignResultValue
      0003CA 8Dr00r00         [ 4]  727 	sta	___fsadd_PARM_1
      0003CD 8Er01r00         [ 4]  728 	stx	(___fsadd_PARM_1 + 1)
      0003D0 A5*00            [ 3]  729 	lda	*___SDCC_m6502_ret2
      0003D2 8Dr02r00         [ 4]  730 	sta	(___fsadd_PARM_1 + 2)
      0003D5 A5*00            [ 3]  731 	lda	*___SDCC_m6502_ret3
      0003D7 8Dr03r00         [ 4]  732 	sta	(___fsadd_PARM_1 + 3)
                                    733 ;	Raw cost for generated ic 151 : (19, 28.000000) count=1.000000
                                    734 ;	genAssign
                                    735 ;	genAssignLit
      0003DA 9Cr00r00         [ 4]  736 	stz	___fsadd_PARM_2
      0003DD 9Cr01r00         [ 4]  737 	stz	(___fsadd_PARM_2 + 1)
      0003E0 9Cr02r00         [ 4]  738 	stz	(___fsadd_PARM_2 + 2)
      0003E3 A2 3F            [ 2]  739 	ldx	#0x3f
      0003E5 8Er03r00         [ 4]  740 	stx	(___fsadd_PARM_2 + 3)
                                    741 ;	Raw cost for generated ic 153 : (14, 18.000000) count=1.000000
                                    742 ;	genCall
      0003E8 20r00r00         [ 6]  743 	jsr	___fsadd
                                    744 ;	assignResultValue
      0003EB 8Dr04r00         [ 4]  745 	sta	_expf_r_10000_26
      0003EE 8Er05r00         [ 4]  746 	stx	(_expf_r_10000_26 + 1)
      0003F1 A5*00            [ 3]  747 	lda	*___SDCC_m6502_ret2
      0003F3 8Dr06r00         [ 4]  748 	sta	(_expf_r_10000_26 + 2)
      0003F6 A5*00            [ 3]  749 	lda	*___SDCC_m6502_ret3
      0003F8 8Dr07r00         [ 4]  750 	sta	(_expf_r_10000_26 + 3)
                                    751 ;	Raw cost for generated ic 154 : (19, 28.000000) count=1.000000
                                    752 ;	../expf.c: 369: n++;
                                    753 ;	genPlus
                                    754 ;	  genPlusInc
      0003FB A5*04            [ 3]  755 	lda	*_expf_sloc1_1_0
      0003FD 18               [ 2]  756 	clc
      0003FE 69 01            [ 3]  757 	adc	#0x01
      000400 8Dr00r00         [ 4]  758 	sta	_ldexpf_PARM_2
      000403 A5*05            [ 3]  759 	lda	*(_expf_sloc1_1_0 + 1)
      000405 69 00            [ 3]  760 	adc	#0x00
      000407 8Dr01r00         [ 4]  761 	sta	(_ldexpf_PARM_2 + 1)
                                    762 ;	Raw cost for generated ic 75 : (15, 20.000000) count=1.000000
                                    763 ;	../expf.c: 370: z=ldexpf(r, n);
                                    764 ;	genAssign
                                    765 ;	genCopy
      00040A ADr07r00         [ 4]  766 	lda	(_expf_r_10000_26 + 3)
      00040D 8Dr03r00         [ 4]  767 	sta	(_ldexpf_PARM_1 + 3)
      000410 ADr06r00         [ 4]  768 	lda	(_expf_r_10000_26 + 2)
      000413 8Dr02r00         [ 4]  769 	sta	(_ldexpf_PARM_1 + 2)
      000416 8A               [ 2]  770 	txa
      000417 8Dr01r00         [ 4]  771 	sta	(_ldexpf_PARM_1 + 1)
      00041A ADr04r00         [ 4]  772 	lda	_expf_r_10000_26
      00041D 8Dr00r00         [ 4]  773 	sta	_ldexpf_PARM_1
                                    774 ;	Raw cost for generated ic 77 : (22, 30.000000) count=1.000000
                                    775 ;	genCall
      000420 20r00r00         [ 6]  776 	jsr	_ldexpf
                                    777 ;	assignResultValue
      000423 85*06            [ 3]  778 	sta	*_expf_sloc2_1_0
      000425 86*07            [ 3]  779 	stx	*(_expf_sloc2_1_0 + 1)
      000427 A5*00            [ 3]  780 	lda	*___SDCC_m6502_ret2
      000429 85*08            [ 3]  781 	sta	*(_expf_sloc2_1_0 + 2)
      00042B A5*00            [ 3]  782 	lda	*___SDCC_m6502_ret3
      00042D 85*09            [ 3]  783 	sta	*(_expf_sloc2_1_0 + 3)
                                    784 ;	Raw cost for generated ic 79 : (15, 24.000000) count=1.000000
                                    785 ;	../expf.c: 371: if(sign)
                                    786 ;	genIfx
      00042F ADr0Cr00         [ 4]  787 	lda	_expf_sign_10000_26
                                    788 ;	genIfxJump : z
      000432 F0 3C            [ 4]  789 	beq	00116$
                                    790 ;	Raw cost for generated ic 81 : (8, 9.600000) count=1.000000
                                    791 ;	../expf.c: 372: return 1.0/z;
                                    792 ;	genAssign
                                    793 ;	genAssignLit
      000434 9Cr00r00         [ 4]  794 	stz	___fsdiv_PARM_1
      000437 9Cr01r00         [ 4]  795 	stz	(___fsdiv_PARM_1 + 1)
      00043A A2 80            [ 2]  796 	ldx	#0x80
      00043C 8Er02r00         [ 4]  797 	stx	(___fsdiv_PARM_1 + 2)
      00043F A2 3F            [ 2]  798 	ldx	#0x3f
      000441 8Er03r00         [ 4]  799 	stx	(___fsdiv_PARM_1 + 3)
                                    800 ;	Raw cost for generated ic 155 : (16, 20.000000) count=0.750000
                                    801 ;	genAssign
                                    802 ;	genCopy
      000444 A5*09            [ 3]  803 	lda	*(_expf_sloc2_1_0 + 3)
      000446 8Dr03r00         [ 4]  804 	sta	(___fsdiv_PARM_2 + 3)
      000449 A5*08            [ 3]  805 	lda	*(_expf_sloc2_1_0 + 2)
      00044B 8Dr02r00         [ 4]  806 	sta	(___fsdiv_PARM_2 + 2)
      00044E A5*07            [ 3]  807 	lda	*(_expf_sloc2_1_0 + 1)
      000450 8Dr01r00         [ 4]  808 	sta	(___fsdiv_PARM_2 + 1)
      000453 A5*06            [ 3]  809 	lda	*_expf_sloc2_1_0
      000455 8Dr00r00         [ 4]  810 	sta	___fsdiv_PARM_2
                                    811 ;	Raw cost for generated ic 156 : (20, 28.000000) count=0.750000
                                    812 ;	genCall
      000458 20r00r00         [ 6]  813 	jsr	___fsdiv
                                    814 ;	assignResultValue
      00045B 85*00            [ 3]  815 	sta	*_expf_sloc0_1_0
      00045D 86*01            [ 3]  816 	stx	*(_expf_sloc0_1_0 + 1)
      00045F A5*00            [ 3]  817 	lda	*___SDCC_m6502_ret2
      000461 85*02            [ 3]  818 	sta	*(_expf_sloc0_1_0 + 2)
      000463 A5*00            [ 3]  819 	lda	*___SDCC_m6502_ret3
      000465 85*03            [ 3]  820 	sta	*(_expf_sloc0_1_0 + 3)
                                    821 ;	Raw cost for generated ic 157 : (15, 24.000000) count=0.750000
                                    822 ;	genRet
      000467 85*00            [ 3]  823 	sta	*___SDCC_m6502_ret3
      000469 A5*02            [ 3]  824 	lda	*(_expf_sloc0_1_0 + 2)
      00046B 85*00            [ 3]  825 	sta	*___SDCC_m6502_ret2
      00046D A5*00            [ 3]  826 	lda	*_expf_sloc0_1_0
      00046F 60               [ 6]  827 	rts
                                    828 ;	Raw cost for generated ic 85 : (11, 15.000000) count=0.750000
                                    829 ;	genLabel
      000470                        830 00116$:
                                    831 ;	Raw cost for generated ic 87 : (0, 0.000000) count=1.000000
                                    832 ;	../expf.c: 374: return z;
                                    833 ;	genRet
      000470 A5*09            [ 3]  834 	lda	*(_expf_sloc2_1_0 + 3)
      000472 85*00            [ 3]  835 	sta	*___SDCC_m6502_ret3
      000474 A5*08            [ 3]  836 	lda	*(_expf_sloc2_1_0 + 2)
      000476 85*00            [ 3]  837 	sta	*___SDCC_m6502_ret2
      000478 A6*07            [ 3]  838 	ldx	*(_expf_sloc2_1_0 + 1)
      00047A A5*06            [ 3]  839 	lda	*_expf_sloc2_1_0
                                    840 ;	Raw cost for generated ic 88 : (12, 18.000000) count=1.000000
                                    841 ;	genLabel
                                    842 ;	Raw cost for generated ic 90 : (0, 0.000000) count=1.000000
                                    843 ;	../expf.c: 375: }
                                    844 ;	genEndFunction
      00047C 60               [ 6]  845 	rts
                                    846 ;	Raw cost for generated ic 91 : (1, 6.000000) count=1.000000
                                    847 	.area CODE
                                    848 	.area RODATA
                                    849 	.area XINIT
                                    850 	.area CABS    (ABS)
