                                      1 ;--------------------------------------------------------
                                      2 ; File Created by SDCC : free open source ISO C Compiler
                                      3 ; Version 4.5.10 #15691 (Linux)
                                      4 ;--------------------------------------------------------
                                      5 	.module floorf
                                      6 	
      000000                          7 	.r65c02
                                      8 	.optsdcc -mmos65c02
                                      9 
                                     10 ;--------------------------------------------------------
                                     11 ;  Ordering of segments for the linker.
                                     12 ;--------------------------------------------------------
                                     13 	.area ZP      (PAG)
                                     14 	.area OSEG    (PAG, OVR)
                                     15 	.area _CODE
                                     16 	.area GSINIT
                                     17 	.area GSFINAL
                                     18 	.area CODE
                                     19 	.area RODATA
                                     20 	.area XINIT
                                     21 	.area _DATA
                                     22 	.area DATA
                                     23 	.area BSS
                                     24 ;--------------------------------------------------------
                                     25 ; Public variables in this module
                                     26 ;--------------------------------------------------------
                                     27 	.globl _floorf_PARM_1
                                     28 	.globl _floorf
                                     29 ;--------------------------------------------------------
                                     30 ; ZP ram data
                                     31 ;--------------------------------------------------------
                                     32 	.area ZP      (PAG)
      000000                         33 _floorf_sloc0_1_0:
      000000                         34 	.ds 4
      000004                         35 _floorf_sloc1_1_0:
      000004                         36 	.ds 4
                                     37 ;--------------------------------------------------------
                                     38 ; overlayable items in ram
                                     39 ;--------------------------------------------------------
                                     40 ;--------------------------------------------------------
                                     41 ; uninitialized external ram data
                                     42 ;--------------------------------------------------------
                                     43 	.area BSS
      000000                         44 _floorf_PARM_1:
      000000                         45 	.ds 4
                                     46 ;--------------------------------------------------------
                                     47 ; absolute external ram data
                                     48 ;--------------------------------------------------------
                                     49 	.area DABS    (ABS)
                                     50 ;--------------------------------------------------------
                                     51 ; initialized external ram data
                                     52 ;--------------------------------------------------------
                                     53 	.area DATA
                                     54 ;--------------------------------------------------------
                                     55 ; global & static initialisations
                                     56 ;--------------------------------------------------------
                                     57 	.area _CODE
                                     58 	.area GSINIT
                                     59 	.area GSFINAL
                                     60 	.area GSINIT
                                     61 ;--------------------------------------------------------
                                     62 ; Home
                                     63 ;--------------------------------------------------------
                                     64 	.area _CODE
                                     65 	.area _CODE
                                     66 ;--------------------------------------------------------
                                     67 ; code
                                     68 ;--------------------------------------------------------
                                     69 	.area CODE
                                     70 ;------------------------------------------------------------
                                     71 ;Allocation info for local variables in function 'floorf'
                                     72 ;------------------------------------------------------------
                                     73 ;sloc0         Allocated with name '_floorf_sloc0_1_0'
                                     74 ;sloc1         Allocated with name '_floorf_sloc1_1_0'
                                     75 ;x             Allocated with name '_floorf_PARM_1'
                                     76 ;r             Allocated with name '_floorf_r_10000_26'
                                     77 ;------------------------------------------------------------
                                     78 ;	../floorf.c: 33: float floorf (float x) _FLOAT_FUNC_REENTRANT
                                     79 ;	genLabel
                                     80 ;	Raw cost for generated ic 0 : (0, 0.000000) count=1.000000
                                     81 ;	-----------------------------------------
                                     82 ;	 function floorf
                                     83 ;	-----------------------------------------
                                     84 ;	Register assignment is optimal.
                                     85 ;	Stack space usage: 0 bytes.
      000000                         86 _floorf:
                                     87 ;	Raw cost for generated ic 1 : (0, 0.000000) count=1.000000
                                     88 ;	../floorf.c: 36: r=x;
                                     89 ;	genAssign
                                     90 ;	genCopy
      000000 ADr03r00         [ 4]   91 	lda	(_floorf_PARM_1 + 3)
      000003 8Dr03r00         [ 4]   92 	sta	(___fs2slong_PARM_1 + 3)
      000006 ADr02r00         [ 4]   93 	lda	(_floorf_PARM_1 + 2)
      000009 8Dr02r00         [ 4]   94 	sta	(___fs2slong_PARM_1 + 2)
      00000C ADr01r00         [ 4]   95 	lda	(_floorf_PARM_1 + 1)
      00000F 8Dr01r00         [ 4]   96 	sta	(___fs2slong_PARM_1 + 1)
      000012 ADr00r00         [ 4]   97 	lda	_floorf_PARM_1
      000015 8Dr00r00         [ 4]   98 	sta	___fs2slong_PARM_1
                                     99 ;	Raw cost for generated ic 27 : (24, 32.000000) count=1.000000
                                    100 ;	genCall
      000018 20r00r00         [ 6]  101 	jsr	___fs2slong
                                    102 ;	assignResultValue
      00001B 85*00            [ 3]  103 	sta	*_floorf_sloc0_1_0
      00001D 86*01            [ 3]  104 	stx	*(_floorf_sloc0_1_0 + 1)
      00001F A5*00            [ 3]  105 	lda	*___SDCC_m6502_ret2
      000021 85*02            [ 3]  106 	sta	*(_floorf_sloc0_1_0 + 2)
      000023 A5*00            [ 3]  107 	lda	*___SDCC_m6502_ret3
      000025 85*03            [ 3]  108 	sta	*(_floorf_sloc0_1_0 + 3)
                                    109 ;	Raw cost for generated ic 28 : (15, 24.000000) count=1.000000
                                    110 ;	../floorf.c: 37: if (r<=0)
                                    111 ;	genCmp
      000027 A9 00            [ 2]  112 	lda	#0x00
      000029 38               [ 2]  113 	sec
      00002A E5*00            [ 4]  114 	sbc	*_floorf_sloc0_1_0
      00002C A9 00            [ 2]  115 	lda	#0x00
      00002E E5*01            [ 4]  116 	sbc	*(_floorf_sloc0_1_0 + 1)
      000030 A9 00            [ 2]  117 	lda	#0x00
      000032 E5*02            [ 4]  118 	sbc	*(_floorf_sloc0_1_0 + 2)
      000034 A9 00            [ 2]  119 	lda	#0x00
      000036 E5*03            [ 4]  120 	sbc	*(_floorf_sloc0_1_0 + 3)
      000038 70 04            [ 4]  121 	bvs	00121$
      00003A 10 07            [ 4]  122 	bpl	00120$
      00003C 30 02            [ 4]  123 	bmi	00122$
      00003E                        124 00121$:
      00003E 30 03            [ 4]  125 	bmi	00120$
      000040                        126 00122$:
      000040 4CrD3r00         [ 3]  127 	jmp	00102$
      000043                        128 00120$:
                                    129 ;	Raw cost for generated ic 4 : (28, 35.400002) count=1.000000
                                    130 ;	skipping generated iCode
                                    131 ;	Raw cost for generated ic 5 : (0, 0.000000) count=1.000000
                                    132 ;	../floorf.c: 38: return (r+((r>x)?-1:0));
                                    133 ;	genAssign
                                    134 ;	genCopy
      000043 A5*03            [ 3]  135 	lda	*(_floorf_sloc0_1_0 + 3)
      000045 8Dr03r00         [ 4]  136 	sta	(___slong2fs_PARM_1 + 3)
      000048 A5*02            [ 3]  137 	lda	*(_floorf_sloc0_1_0 + 2)
      00004A 8Dr02r00         [ 4]  138 	sta	(___slong2fs_PARM_1 + 2)
      00004D 8A               [ 2]  139 	txa
      00004E 8Dr01r00         [ 4]  140 	sta	(___slong2fs_PARM_1 + 1)
      000051 A5*00            [ 3]  141 	lda	*_floorf_sloc0_1_0
      000053 8Dr00r00         [ 4]  142 	sta	___slong2fs_PARM_1
                                    143 ;	Raw cost for generated ic 29 : (19, 27.000000) count=0.750000
                                    144 ;	genCall
      000056 20r00r00         [ 6]  145 	jsr	___slong2fs
                                    146 ;	assignResultValue
      000059 8Dr00r00         [ 4]  147 	sta	___fslt_PARM_2
      00005C 8Er01r00         [ 4]  148 	stx	(___fslt_PARM_2 + 1)
      00005F A5*00            [ 3]  149 	lda	*___SDCC_m6502_ret2
      000061 8Dr02r00         [ 4]  150 	sta	(___fslt_PARM_2 + 2)
      000064 A5*00            [ 3]  151 	lda	*___SDCC_m6502_ret3
      000066 8Dr03r00         [ 4]  152 	sta	(___fslt_PARM_2 + 3)
                                    153 ;	Raw cost for generated ic 30 : (19, 28.000000) count=0.750000
                                    154 ;	genAssign
                                    155 ;	genCopy
      000069 ADr03r00         [ 4]  156 	lda	(_floorf_PARM_1 + 3)
      00006C 8Dr03r00         [ 4]  157 	sta	(___fslt_PARM_1 + 3)
      00006F ADr02r00         [ 4]  158 	lda	(_floorf_PARM_1 + 2)
      000072 8Dr02r00         [ 4]  159 	sta	(___fslt_PARM_1 + 2)
      000075 ADr01r00         [ 4]  160 	lda	(_floorf_PARM_1 + 1)
      000078 8Dr01r00         [ 4]  161 	sta	(___fslt_PARM_1 + 1)
      00007B ADr00r00         [ 4]  162 	lda	_floorf_PARM_1
      00007E 8Dr00r00         [ 4]  163 	sta	___fslt_PARM_1
                                    164 ;	Raw cost for generated ic 31 : (24, 32.000000) count=0.750000
                                    165 ;	genCall
      000081 20r00r00         [ 6]  166 	jsr	___fslt
                                    167 ;	assignResultValue
                                    168 ;	Raw cost for generated ic 33 : (3, 6.000000) count=0.750000
                                    169 ;	genIfx
      000084 C9 00            [ 2]  170 	cmp	#0x00
                                    171 ;	genIfxJump : z
      000086 F0 05            [ 4]  172 	beq	00106$
                                    173 ;	Raw cost for generated ic 10 : (7, 7.600000) count=0.750000
                                    174 ;	genAssign
                                    175 ;	genCopy
      000088 A9 FF            [ 2]  176 	lda	#0xff
                                    177 ;	Raw cost for generated ic 11 : (2, 2.000000) count=0.562500
                                    178 ;	genGoto
      00008A 4Cr8Fr00         [ 3]  179 	jmp	00107$
                                    180 ;	Raw cost for generated ic 12 : (3, 3.000000) count=0.562500
                                    181 ;	genLabel
      00008D                        182 00106$:
                                    183 ;	Raw cost for generated ic 13 : (0, 0.000000) count=0.187500
                                    184 ;	genAssign
                                    185 ;	genCopy
      00008D A9 00            [ 2]  186 	lda	#0x00
                                    187 ;	Raw cost for generated ic 14 : (2, 2.000000) count=0.187500
                                    188 ;	genLabel
      00008F                        189 00107$:
                                    190 ;	Raw cost for generated ic 15 : (0, 0.000000) count=0.750000
                                    191 ;	genCast
      00008F 85*04            [ 3]  192 	sta	*_floorf_sloc1_1_0
      000091 0A               [ 2]  193 	asl	a
      000092 A9 00            [ 2]  194 	lda	#0x00
      000094 69 FF            [ 3]  195 	adc	#0xff
      000096 49 FF            [ 2]  196 	eor	#0xff
      000098 85*05            [ 3]  197 	sta	*(_floorf_sloc1_1_0 + 1)
      00009A 85*06            [ 3]  198 	sta	*(_floorf_sloc1_1_0 + 2)
      00009C 85*07            [ 3]  199 	sta	*(_floorf_sloc1_1_0 + 3)
                                    200 ;	Raw cost for generated ic 16 : (15, 20.000000) count=0.750000
                                    201 ;	genPlus
      00009E A5*00            [ 3]  202 	lda	*_floorf_sloc0_1_0
      0000A0 18               [ 2]  203 	clc
      0000A1 65*04            [ 4]  204 	adc	*_floorf_sloc1_1_0
      0000A3 8Dr00r00         [ 4]  205 	sta	___slong2fs_PARM_1
      0000A6 A5*01            [ 3]  206 	lda	*(_floorf_sloc0_1_0 + 1)
      0000A8 65*05            [ 4]  207 	adc	*(_floorf_sloc1_1_0 + 1)
      0000AA 8Dr01r00         [ 4]  208 	sta	(___slong2fs_PARM_1 + 1)
      0000AD A5*02            [ 3]  209 	lda	*(_floorf_sloc0_1_0 + 2)
      0000AF 65*06            [ 4]  210 	adc	*(_floorf_sloc1_1_0 + 2)
      0000B1 8Dr02r00         [ 4]  211 	sta	(___slong2fs_PARM_1 + 2)
      0000B4 A5*03            [ 3]  212 	lda	*(_floorf_sloc0_1_0 + 3)
      0000B6 65*07            [ 4]  213 	adc	*(_floorf_sloc1_1_0 + 3)
      0000B8 8Dr03r00         [ 4]  214 	sta	(___slong2fs_PARM_1 + 3)
                                    215 ;	Raw cost for generated ic 17 : (29, 42.000000) count=0.750000
                                    216 ;	genCall
      0000BB 20r00r00         [ 6]  217 	jsr	___slong2fs
                                    218 ;	assignResultValue
      0000BE 85*04            [ 3]  219 	sta	*_floorf_sloc1_1_0
      0000C0 86*05            [ 3]  220 	stx	*(_floorf_sloc1_1_0 + 1)
      0000C2 A5*00            [ 3]  221 	lda	*___SDCC_m6502_ret2
      0000C4 85*06            [ 3]  222 	sta	*(_floorf_sloc1_1_0 + 2)
      0000C6 A5*00            [ 3]  223 	lda	*___SDCC_m6502_ret3
      0000C8 85*07            [ 3]  224 	sta	*(_floorf_sloc1_1_0 + 3)
                                    225 ;	Raw cost for generated ic 35 : (15, 24.000000) count=0.750000
                                    226 ;	genRet
      0000CA 85*00            [ 3]  227 	sta	*___SDCC_m6502_ret3
      0000CC A5*06            [ 3]  228 	lda	*(_floorf_sloc1_1_0 + 2)
      0000CE 85*00            [ 3]  229 	sta	*___SDCC_m6502_ret2
      0000D0 A5*04            [ 3]  230 	lda	*_floorf_sloc1_1_0
      0000D2 60               [ 6]  231 	rts
                                    232 ;	Raw cost for generated ic 19 : (11, 15.000000) count=0.750000
                                    233 ;	genLabel
      0000D3                        234 00102$:
                                    235 ;	Raw cost for generated ic 21 : (0, 0.000000) count=1.000000
                                    236 ;	../floorf.c: 40: return r;
                                    237 ;	genAssign
                                    238 ;	genCopy
      0000D3 A5*03            [ 3]  239 	lda	*(_floorf_sloc0_1_0 + 3)
      0000D5 8Dr03r00         [ 4]  240 	sta	(___slong2fs_PARM_1 + 3)
      0000D8 A5*02            [ 3]  241 	lda	*(_floorf_sloc0_1_0 + 2)
      0000DA 8Dr02r00         [ 4]  242 	sta	(___slong2fs_PARM_1 + 2)
      0000DD A5*01            [ 3]  243 	lda	*(_floorf_sloc0_1_0 + 1)
      0000DF 8Dr01r00         [ 4]  244 	sta	(___slong2fs_PARM_1 + 1)
      0000E2 A5*00            [ 3]  245 	lda	*_floorf_sloc0_1_0
      0000E4 8Dr00r00         [ 4]  246 	sta	___slong2fs_PARM_1
                                    247 ;	Raw cost for generated ic 36 : (20, 28.000000) count=1.000000
                                    248 ;	genCall
      0000E7 20r00r00         [ 6]  249 	jsr	___slong2fs
                                    250 ;	assignResultValue
      0000EA 85*04            [ 3]  251 	sta	*_floorf_sloc1_1_0
      0000EC 86*05            [ 3]  252 	stx	*(_floorf_sloc1_1_0 + 1)
      0000EE A5*00            [ 3]  253 	lda	*___SDCC_m6502_ret2
      0000F0 85*06            [ 3]  254 	sta	*(_floorf_sloc1_1_0 + 2)
      0000F2 A5*00            [ 3]  255 	lda	*___SDCC_m6502_ret3
      0000F4 85*07            [ 3]  256 	sta	*(_floorf_sloc1_1_0 + 3)
                                    257 ;	Raw cost for generated ic 37 : (15, 24.000000) count=1.000000
                                    258 ;	genRet
      0000F6 85*00            [ 3]  259 	sta	*___SDCC_m6502_ret3
      0000F8 A5*06            [ 3]  260 	lda	*(_floorf_sloc1_1_0 + 2)
      0000FA 85*00            [ 3]  261 	sta	*___SDCC_m6502_ret2
      0000FC A5*04            [ 3]  262 	lda	*_floorf_sloc1_1_0
                                    263 ;	Raw cost for generated ic 23 : (8, 12.000000) count=1.000000
                                    264 ;	genLabel
                                    265 ;	Raw cost for generated ic 25 : (0, 0.000000) count=1.000000
                                    266 ;	../floorf.c: 41: }
                                    267 ;	genEndFunction
      0000FE 60               [ 6]  268 	rts
                                    269 ;	Raw cost for generated ic 26 : (1, 6.000000) count=1.000000
                                    270 	.area CODE
                                    271 	.area RODATA
                                    272 	.area XINIT
                                    273 	.area CABS    (ABS)
