                                      1 ;--------------------------------------------------------
                                      2 ; File Created by SDCC : free open source ISO C Compiler
                                      3 ; Version 4.5.10 #15691 (Linux)
                                      4 ;--------------------------------------------------------
                                      5 	.module isxdigit
                                      6 	
      000000                          7 	.r65c02
                                      8 	.optsdcc -mmos65c02
                                      9 
                                     10 ;--------------------------------------------------------
                                     11 ;  Ordering of segments for the linker.
                                     12 ;--------------------------------------------------------
                                     13 	.area ZP      (PAG)
                                     14 	.area OSEG    (PAG, OVR)
                                     15 	.area _CODE
                                     16 	.area GSINIT
                                     17 	.area GSFINAL
                                     18 	.area CODE
                                     19 	.area RODATA
                                     20 	.area XINIT
                                     21 	.area _DATA
                                     22 	.area DATA
                                     23 	.area BSS
                                     24 ;--------------------------------------------------------
                                     25 ; Public variables in this module
                                     26 ;--------------------------------------------------------
                                     27 	.globl _isxdigit
                                     28 ;--------------------------------------------------------
                                     29 ; ZP ram data
                                     30 ;--------------------------------------------------------
                                     31 	.area ZP      (PAG)
                                     32 ;--------------------------------------------------------
                                     33 ; overlayable items in ram
                                     34 ;--------------------------------------------------------
                                     35 ;--------------------------------------------------------
                                     36 ; uninitialized external ram data
                                     37 ;--------------------------------------------------------
                                     38 	.area BSS
      000000                         39 _isxdigit_c_10000_21:
      000000                         40 	.ds 2
                                     41 ;--------------------------------------------------------
                                     42 ; absolute external ram data
                                     43 ;--------------------------------------------------------
                                     44 	.area DABS    (ABS)
                                     45 ;--------------------------------------------------------
                                     46 ; initialized external ram data
                                     47 ;--------------------------------------------------------
                                     48 	.area DATA
                                     49 ;--------------------------------------------------------
                                     50 ; global & static initialisations
                                     51 ;--------------------------------------------------------
                                     52 	.area _CODE
                                     53 	.area GSINIT
                                     54 	.area GSFINAL
                                     55 	.area GSINIT
                                     56 ;--------------------------------------------------------
                                     57 ; Home
                                     58 ;--------------------------------------------------------
                                     59 	.area _CODE
                                     60 	.area _CODE
                                     61 ;--------------------------------------------------------
                                     62 ; code
                                     63 ;--------------------------------------------------------
                                     64 	.area CODE
                                     65 ;------------------------------------------------------------
                                     66 ;Allocation info for local variables in function 'isxdigit'
                                     67 ;------------------------------------------------------------
                                     68 ;c             Allocated with name '_isxdigit_c_10000_21'
                                     69 ;------------------------------------------------------------
                                     70 ;	../isxdigit.c: 34: int isxdigit (int c)
                                     71 ;	genLabel
                                     72 ;	Raw cost for generated ic 0 : (0, 0.000000) count=1.000000
                                     73 ;	-----------------------------------------
                                     74 ;	 function isxdigit
                                     75 ;	-----------------------------------------
                                     76 ;	Register assignment is optimal.
                                     77 ;	Stack space usage: 0 bytes.
      000000                         78 _isxdigit:
                                     79 ;	Raw cost for generated ic 1 : (0, 0.000000) count=1.000000
                                     80 ;	genReceive
      000000 8Dr00r00         [ 4]   81 	sta	_isxdigit_c_10000_21
      000003 8Er01r00         [ 4]   82 	stx	(_isxdigit_c_10000_21 + 1)
                                     83 ;	Raw cost for generated ic 2 : (6, 8.000000) count=1.000000
                                     84 ;	../isxdigit.c: 41: return (c >= '0' && c <= '9' || c >= 'a' && c <= 'f' || c >= 'A' && c <= 'F');
                                     85 ;	genCmp
      000006 38               [ 2]   86 	sec
      000007 E9 30            [ 3]   87 	sbc	#0x30
      000009 8A               [ 2]   88 	txa
      00000A E9 00            [ 3]   89 	sbc	#0x00
      00000C 70 04            [ 4]   90 	bvs	00137$
      00000E 10 04            [ 4]   91 	bpl	00136$
      000010 30 15            [ 4]   92 	bmi	00111$
      000012                         93 00137$:
      000012 10 13            [ 4]   94 	bpl	00111$
      000014                         95 00136$:
                                     96 ;	Raw cost for generated ic 3 : (17, 21.400002) count=1.000000
                                     97 ;	skipping generated iCode
                                     98 ;	Raw cost for generated ic 5 : (0, 0.000000) count=1.000000
                                     99 ;	genCmp
      000014 A9 39            [ 2]  100 	lda	#0x39
      000016 38               [ 2]  101 	sec
      000017 EDr00r00         [ 5]  102 	sbc	_isxdigit_c_10000_21
      00001A A9 00            [ 2]  103 	lda	#0x00
      00001C EDr01r00         [ 5]  104 	sbc	(_isxdigit_c_10000_21 + 1)
      00001F 50 04            [ 4]  105 	bvc	00140$
      000021 10 04            [ 4]  106 	bpl	00139$
      000023 30 53            [ 4]  107 	bmi	00104$
      000025                        108 00140$:
      000025 10 51            [ 4]  109 	bpl	00104$
      000027                        110 00139$:
                                    111 ;	Raw cost for generated ic 6 : (22, 27.400002) count=0.750000
                                    112 ;	skipping generated iCode
                                    113 ;	Raw cost for generated ic 8 : (0, 0.000000) count=0.750000
                                    114 ;	genLabel
      000027                        115 00111$:
                                    116 ;	Raw cost for generated ic 14 : (0, 0.000000) count=0.812500
                                    117 ;	genCmp
      000027 ADr00r00         [ 4]  118 	lda	_isxdigit_c_10000_21
      00002A 38               [ 2]  119 	sec
      00002B E9 61            [ 3]  120 	sbc	#0x61
      00002D ADr01r00         [ 4]  121 	lda	(_isxdigit_c_10000_21 + 1)
      000030 E9 00            [ 3]  122 	sbc	#0x00
      000032 70 04            [ 4]  123 	bvs	00143$
      000034 10 04            [ 4]  124 	bpl	00142$
      000036 30 15            [ 4]  125 	bmi	00108$
      000038                        126 00143$:
      000038 10 13            [ 4]  127 	bpl	00108$
      00003A                        128 00142$:
                                    129 ;	Raw cost for generated ic 16 : (22, 27.400002) count=0.812500
                                    130 ;	skipping generated iCode
                                    131 ;	Raw cost for generated ic 18 : (0, 0.000000) count=0.812500
                                    132 ;	genCmp
      00003A A9 66            [ 2]  133 	lda	#0x66
      00003C 38               [ 2]  134 	sec
      00003D EDr00r00         [ 5]  135 	sbc	_isxdigit_c_10000_21
      000040 A9 00            [ 2]  136 	lda	#0x00
      000042 EDr01r00         [ 5]  137 	sbc	(_isxdigit_c_10000_21 + 1)
      000045 50 04            [ 4]  138 	bvc	00146$
      000047 10 04            [ 4]  139 	bpl	00145$
      000049 30 2D            [ 4]  140 	bmi	00104$
      00004B                        141 00146$:
      00004B 10 2B            [ 4]  142 	bpl	00104$
      00004D                        143 00145$:
                                    144 ;	Raw cost for generated ic 19 : (22, 27.400002) count=0.609375
                                    145 ;	skipping generated iCode
                                    146 ;	Raw cost for generated ic 21 : (0, 0.000000) count=0.609375
                                    147 ;	genLabel
      00004D                        148 00108$:
                                    149 ;	Raw cost for generated ic 34 : (0, 0.000000) count=0.660156
                                    150 ;	genCmp
      00004D ADr00r00         [ 4]  151 	lda	_isxdigit_c_10000_21
      000050 38               [ 2]  152 	sec
      000051 E9 41            [ 3]  153 	sbc	#0x41
      000053 ADr01r00         [ 4]  154 	lda	(_isxdigit_c_10000_21 + 1)
      000056 E9 00            [ 3]  155 	sbc	#0x00
      000058 70 04            [ 4]  156 	bvs	00149$
      00005A 10 04            [ 4]  157 	bpl	00148$
      00005C 30 15            [ 4]  158 	bmi	00103$
      00005E                        159 00149$:
      00005E 10 13            [ 4]  160 	bpl	00103$
      000060                        161 00148$:
                                    162 ;	Raw cost for generated ic 36 : (22, 27.400002) count=0.660156
                                    163 ;	skipping generated iCode
                                    164 ;	Raw cost for generated ic 38 : (0, 0.000000) count=0.660156
                                    165 ;	genCmp
      000060 A9 46            [ 2]  166 	lda	#0x46
      000062 38               [ 2]  167 	sec
      000063 EDr00r00         [ 5]  168 	sbc	_isxdigit_c_10000_21
      000066 A9 00            [ 2]  169 	lda	#0x00
      000068 EDr01r00         [ 5]  170 	sbc	(_isxdigit_c_10000_21 + 1)
      00006B 50 04            [ 4]  171 	bvc	00152$
      00006D 10 04            [ 4]  172 	bpl	00151$
      00006F 30 07            [ 4]  173 	bmi	00104$
      000071                        174 00152$:
      000071 10 05            [ 4]  175 	bpl	00104$
      000073                        176 00151$:
                                    177 ;	Raw cost for generated ic 39 : (22, 27.400002) count=0.495117
                                    178 ;	skipping generated iCode
                                    179 ;	Raw cost for generated ic 41 : (0, 0.000000) count=0.495117
                                    180 ;	genLabel
      000073                        181 00103$:
                                    182 ;	Raw cost for generated ic 49 : (0, 0.000000) count=0.536377
                                    183 ;	genAssign
                                    184 ;	genCopy
      000073 A9 00            [ 2]  185 	lda	#0x00
                                    186 ;	Raw cost for generated ic 50 : (2, 2.000000) count=0.536377
                                    187 ;	genGoto
      000075 4Cr7Ar00         [ 3]  188 	jmp	00105$
                                    189 ;	Raw cost for generated ic 51 : (3, 3.000000) count=0.536377
                                    190 ;	genLabel
      000078                        191 00104$:
                                    192 ;	Raw cost for generated ic 52 : (0, 0.000000) count=0.463623
                                    193 ;	genAssign
                                    194 ;	genCopy
      000078 A9 01            [ 2]  195 	lda	#0x01
                                    196 ;	Raw cost for generated ic 53 : (2, 2.000000) count=0.463623
                                    197 ;	genLabel
      00007A                        198 00105$:
                                    199 ;	Raw cost for generated ic 54 : (0, 0.000000) count=1.000000
                                    200 ;	genCast
                                    201 ;	genCopy
      00007A A2 00            [ 2]  202 	ldx	#0x00
                                    203 ;	Raw cost for generated ic 55 : (2, 2.000000) count=1.000000
                                    204 ;	genRet
                                    205 ;	Raw cost for generated ic 56 : (0, 0.000000) count=1.000000
                                    206 ;	genLabel
                                    207 ;	Raw cost for generated ic 57 : (0, 0.000000) count=1.000000
                                    208 ;	../isxdigit.c: 43: }
                                    209 ;	genEndFunction
      00007C 60               [ 6]  210 	rts
                                    211 ;	Raw cost for generated ic 58 : (1, 6.000000) count=1.000000
                                    212 	.area CODE
                                    213 	.area RODATA
                                    214 	.area XINIT
                                    215 	.area CABS    (ABS)
