                                      1 ;--------------------------------------------------------
                                      2 ; File Created by SDCC : free open source ISO C Compiler
                                      3 ; Version 4.5.10 #15691 (Linux)
                                      4 ;--------------------------------------------------------
                                      5 	.module stdc_load8
                                      6 	
      000000                          7 	.r65c02
                                      8 	.optsdcc -mmos65c02
                                      9 
                                     10 ;--------------------------------------------------------
                                     11 ;  Ordering of segments for the linker.
                                     12 ;--------------------------------------------------------
                                     13 	.area ZP      (PAG)
                                     14 	.area OSEG    (PAG, OVR)
                                     15 	.area _CODE
                                     16 	.area GSINIT
                                     17 	.area GSFINAL
                                     18 	.area CODE
                                     19 	.area RODATA
                                     20 	.area XINIT
                                     21 	.area _DATA
                                     22 	.area DATA
                                     23 	.area BSS
                                     24 ;--------------------------------------------------------
                                     25 ; Public variables in this module
                                     26 ;--------------------------------------------------------
                                     27 	.globl ___memcpy
                                     28 	.globl _stdc_memreverse8
                                     29 	.globl _stdc_load8_leu8
                                     30 	.globl _stdc_load8_beu8
                                     31 	.globl _stdc_load8_leu_aligned8
                                     32 	.globl _stdc_load8_beu_aligned8
                                     33 	.globl _stdc_load8_les8
                                     34 	.globl _stdc_load8_bes8
                                     35 	.globl _stdc_load8_les_aligned8
                                     36 	.globl _stdc_load8_bes_aligned8
                                     37 	.globl _stdc_load8_leu16
                                     38 	.globl _stdc_load8_beu16
                                     39 	.globl _stdc_load8_leu_aligned16
                                     40 	.globl _stdc_load8_beu_aligned16
                                     41 	.globl _stdc_load8_les16
                                     42 	.globl _stdc_load8_bes16
                                     43 	.globl _stdc_load8_les_aligned16
                                     44 	.globl _stdc_load8_bes_aligned16
                                     45 	.globl _stdc_load8_leu32
                                     46 	.globl _stdc_load8_beu32
                                     47 	.globl _stdc_load8_leu_aligned32
                                     48 	.globl _stdc_load8_beu_aligned32
                                     49 	.globl _stdc_load8_les32
                                     50 	.globl _stdc_load8_bes32
                                     51 	.globl _stdc_load8_les_aligned32
                                     52 	.globl _stdc_load8_bes_aligned32
                                     53 	.globl _stdc_load8_leu64
                                     54 	.globl _stdc_load8_beu64
                                     55 	.globl _stdc_load8_leu_aligned64
                                     56 	.globl _stdc_load8_beu_aligned64
                                     57 	.globl _stdc_load8_les64
                                     58 	.globl _stdc_load8_bes64
                                     59 	.globl _stdc_load8_les_aligned64
                                     60 	.globl _stdc_load8_bes_aligned64
                                     61 ;--------------------------------------------------------
                                     62 ; ZP ram data
                                     63 ;--------------------------------------------------------
                                     64 	.area ZP      (PAG)
                                     65 ;--------------------------------------------------------
                                     66 ; overlayable items in ram
                                     67 ;--------------------------------------------------------
                                     68 ;--------------------------------------------------------
                                     69 ; uninitialized external ram data
                                     70 ;--------------------------------------------------------
                                     71 	.area BSS
      000000                         72 _stdc_load8_leu8_value_10000_67:
      000000                         73 	.ds 1
      000001                         74 _stdc_load8_beu8_value_10000_69:
      000001                         75 	.ds 1
      000002                         76 _stdc_load8_leu_aligned8_value_10000_71:
      000002                         77 	.ds 1
      000003                         78 _stdc_load8_beu_aligned8_value_10000_73:
      000003                         79 	.ds 1
      000004                         80 _stdc_load8_les8_value_10000_75:
      000004                         81 	.ds 1
      000005                         82 _stdc_load8_bes8_value_10000_77:
      000005                         83 	.ds 1
      000006                         84 _stdc_load8_les_aligned8_value_10000_79:
      000006                         85 	.ds 1
      000007                         86 _stdc_load8_bes_aligned8_value_10000_81:
      000007                         87 	.ds 1
      000008                         88 _stdc_load8_leu16_value_10000_83:
      000008                         89 	.ds 2
      00000A                         90 _stdc_load8_beu16_value_10000_85:
      00000A                         91 	.ds 2
      00000C                         92 _stdc_load8_leu_aligned16_value_10000_87:
      00000C                         93 	.ds 2
      00000E                         94 _stdc_load8_beu_aligned16_value_10000_89:
      00000E                         95 	.ds 2
      000010                         96 _stdc_load8_les16_value_10000_91:
      000010                         97 	.ds 2
      000012                         98 _stdc_load8_bes16_value_10000_93:
      000012                         99 	.ds 2
      000014                        100 _stdc_load8_les_aligned16_value_10000_95:
      000014                        101 	.ds 2
      000016                        102 _stdc_load8_bes_aligned16_value_10000_97:
      000016                        103 	.ds 2
      000018                        104 _stdc_load8_leu32_value_10000_99:
      000018                        105 	.ds 4
      00001C                        106 _stdc_load8_beu32_value_10000_101:
      00001C                        107 	.ds 4
      000020                        108 _stdc_load8_leu_aligned32_value_10000_103:
      000020                        109 	.ds 4
      000024                        110 _stdc_load8_beu_aligned32_value_10000_105:
      000024                        111 	.ds 4
      000028                        112 _stdc_load8_les32_value_10000_107:
      000028                        113 	.ds 4
      00002C                        114 _stdc_load8_bes32_value_10000_109:
      00002C                        115 	.ds 4
      000030                        116 _stdc_load8_les_aligned32_value_10000_111:
      000030                        117 	.ds 4
      000034                        118 _stdc_load8_bes_aligned32_value_10000_113:
      000034                        119 	.ds 4
      000038                        120 _stdc_load8_leu64_value_10000_115:
      000038                        121 	.ds 8
      000040                        122 _stdc_load8_beu64_value_10000_117:
      000040                        123 	.ds 8
      000048                        124 _stdc_load8_leu_aligned64_value_10000_119:
      000048                        125 	.ds 8
      000050                        126 _stdc_load8_beu_aligned64_value_10000_121:
      000050                        127 	.ds 8
      000058                        128 _stdc_load8_les64_value_10000_123:
      000058                        129 	.ds 8
      000060                        130 _stdc_load8_bes64_value_10000_125:
      000060                        131 	.ds 8
      000068                        132 _stdc_load8_les_aligned64_value_10000_127:
      000068                        133 	.ds 8
      000070                        134 _stdc_load8_bes_aligned64_value_10000_129:
      000070                        135 	.ds 8
                                    136 ;--------------------------------------------------------
                                    137 ; absolute external ram data
                                    138 ;--------------------------------------------------------
                                    139 	.area DABS    (ABS)
                                    140 ;--------------------------------------------------------
                                    141 ; initialized external ram data
                                    142 ;--------------------------------------------------------
                                    143 	.area DATA
                                    144 ;--------------------------------------------------------
                                    145 ; global & static initialisations
                                    146 ;--------------------------------------------------------
                                    147 	.area _CODE
                                    148 	.area GSINIT
                                    149 	.area GSFINAL
                                    150 	.area GSINIT
                                    151 ;--------------------------------------------------------
                                    152 ; Home
                                    153 ;--------------------------------------------------------
                                    154 	.area _CODE
                                    155 	.area _CODE
                                    156 ;--------------------------------------------------------
                                    157 ; code
                                    158 ;--------------------------------------------------------
                                    159 	.area CODE
                                    160 ;------------------------------------------------------------
                                    161 ;Allocation info for local variables in function 'stdc_load8_leu8'
                                    162 ;------------------------------------------------------------
                                    163 ;ptr           Allocated to registers a x 
                                    164 ;value         Allocated with name '_stdc_load8_leu8_value_10000_67'
                                    165 ;------------------------------------------------------------
                                    166 ;	./../../include/stdbit.h: 421: __STDC_LOAD8(8)
                                    167 ;	genLabel
                                    168 ;	Raw cost for generated ic 0 : (0, 0.000000) count=1.000000
                                    169 ;	-----------------------------------------
                                    170 ;	 function stdc_load8_leu8
                                    171 ;	-----------------------------------------
                                    172 ;	Register assignment is optimal.
                                    173 ;	Stack space usage: 0 bytes.
      000000                        174 _stdc_load8_leu8:
                                    175 ;	Raw cost for generated ic 1 : (0, 0.000000) count=1.000000
                                    176 ;	genReceive
                                    177 ;	Raw cost for generated ic 2 : (0, 0.000000) count=1.000000
                                    178 ;	skipping iCode since result will be rematerialized
                                    179 ;	Raw cost for generated ic 3 : (0, 0.000000) count=1.000000
                                    180 ;	skipping iCode since result will be rematerialized
                                    181 ;	Raw cost for generated ic 4 : (0, 0.000000) count=1.000000
                                    182 ;	genCast
                                    183 ;	genCopy
      000000 8Dr00r00         [ 4]  184 	sta	___memcpy_PARM_2
      000003 8Er01r00         [ 4]  185 	stx	(___memcpy_PARM_2 + 1)
                                    186 ;	Raw cost for generated ic 5 : (6, 8.000000) count=1.000000
                                    187 ;	genAssign
                                    188 ;	genAssignLit
      000006 A2 01            [ 2]  189 	ldx	#0x01
      000008 8Er00r00         [ 4]  190 	stx	___memcpy_PARM_3
      00000B 9Cr01r00         [ 4]  191 	stz	(___memcpy_PARM_3 + 1)
                                    192 ;	Raw cost for generated ic 8 : (8, 10.000000) count=1.000000
                                    193 ;	Raw cost for generated ic 6 : (0, 0.000000) count=1.000000
                                    194 ;	genCall
                                    195 ;	genSend
      00000E A2s00            [ 2]  196 	ldx	#>_stdc_load8_leu8_value_10000_67
      000010 A9r00            [ 2]  197 	lda	#_stdc_load8_leu8_value_10000_67
      000012 20r00r00         [ 6]  198 	jsr	___memcpy
                                    199 ;	Raw cost for generated ic 9 : (7, 10.000000) count=1.000000
                                    200 ;	genRet
      000015 ADr00r00         [ 4]  201 	lda	_stdc_load8_leu8_value_10000_67
                                    202 ;	Raw cost for generated ic 10 : (3, 4.000000) count=1.000000
                                    203 ;	genLabel
                                    204 ;	Raw cost for generated ic 11 : (0, 0.000000) count=1.000000
                                    205 ;	genEndFunction
      000018 60               [ 6]  206 	rts
                                    207 ;	Raw cost for generated ic 12 : (1, 6.000000) count=1.000000
                                    208 ;------------------------------------------------------------
                                    209 ;Allocation info for local variables in function 'stdc_load8_beu8'
                                    210 ;------------------------------------------------------------
                                    211 ;ptr           Allocated to registers a x 
                                    212 ;value         Allocated with name '_stdc_load8_beu8_value_10000_69'
                                    213 ;------------------------------------------------------------
                                    214 ;	./../../include/stdbit.h: 421: __STDC_LOAD8(16)
                                    215 ;	genLabel
                                    216 ;	Raw cost for generated ic 0 : (0, 0.000000) count=1.000000
                                    217 ;	-----------------------------------------
                                    218 ;	 function stdc_load8_beu8
                                    219 ;	-----------------------------------------
                                    220 ;	Register assignment is optimal.
                                    221 ;	Stack space usage: 0 bytes.
      000019                        222 _stdc_load8_beu8:
                                    223 ;	Raw cost for generated ic 1 : (0, 0.000000) count=1.000000
                                    224 ;	genReceive
                                    225 ;	Raw cost for generated ic 2 : (0, 0.000000) count=1.000000
                                    226 ;	skipping iCode since result will be rematerialized
                                    227 ;	Raw cost for generated ic 3 : (0, 0.000000) count=1.000000
                                    228 ;	skipping iCode since result will be rematerialized
                                    229 ;	Raw cost for generated ic 4 : (0, 0.000000) count=1.000000
                                    230 ;	genCast
                                    231 ;	genCopy
      000019 8Dr00r00         [ 4]  232 	sta	___memcpy_PARM_2
      00001C 8Er01r00         [ 4]  233 	stx	(___memcpy_PARM_2 + 1)
                                    234 ;	Raw cost for generated ic 5 : (6, 8.000000) count=1.000000
                                    235 ;	genAssign
                                    236 ;	genAssignLit
      00001F A2 01            [ 2]  237 	ldx	#0x01
      000021 8Er00r00         [ 4]  238 	stx	___memcpy_PARM_3
      000024 9Cr01r00         [ 4]  239 	stz	(___memcpy_PARM_3 + 1)
                                    240 ;	Raw cost for generated ic 8 : (8, 10.000000) count=1.000000
                                    241 ;	Raw cost for generated ic 6 : (0, 0.000000) count=1.000000
                                    242 ;	genCall
                                    243 ;	genSend
      000027 A2s00            [ 2]  244 	ldx	#>_stdc_load8_beu8_value_10000_69
      000029 A9r01            [ 2]  245 	lda	#_stdc_load8_beu8_value_10000_69
      00002B 20r00r00         [ 6]  246 	jsr	___memcpy
                                    247 ;	Raw cost for generated ic 9 : (7, 10.000000) count=1.000000
                                    248 ;	genCast
                                    249 ;	genCopy
      00002E A9s00            [ 2]  250 	lda	#>_stdc_load8_beu8_value_10000_69
      000030 8Dr01r00         [ 4]  251 	sta	(_stdc_memreverse8_PARM_2 + 1)
      000033 A9r01            [ 2]  252 	lda	#_stdc_load8_beu8_value_10000_69
      000035 8Dr00r00         [ 4]  253 	sta	_stdc_memreverse8_PARM_2
                                    254 ;	Raw cost for generated ic 11 : (10, 12.000000) count=1.000000
                                    255 ;	Raw cost for generated ic 12 : (0, 0.000000) count=1.000000
                                    256 ;	genCall
                                    257 ;	genSend
      000038 A2 00            [ 2]  258 	ldx	#0x00
      00003A A9 01            [ 2]  259 	lda	#0x01
      00003C 20r00r00         [ 6]  260 	jsr	_stdc_memreverse8
                                    261 ;	Raw cost for generated ic 14 : (7, 10.000000) count=1.000000
                                    262 ;	genRet
      00003F ADr01r00         [ 4]  263 	lda	_stdc_load8_beu8_value_10000_69
                                    264 ;	Raw cost for generated ic 15 : (3, 4.000000) count=1.000000
                                    265 ;	genLabel
                                    266 ;	Raw cost for generated ic 16 : (0, 0.000000) count=1.000000
                                    267 ;	genEndFunction
      000042 60               [ 6]  268 	rts
                                    269 ;	Raw cost for generated ic 17 : (1, 6.000000) count=1.000000
                                    270 ;------------------------------------------------------------
                                    271 ;Allocation info for local variables in function 'stdc_load8_leu_aligned8'
                                    272 ;------------------------------------------------------------
                                    273 ;ptr           Allocated to registers a x 
                                    274 ;value         Allocated with name '_stdc_load8_leu_aligned8_value_10000_71'
                                    275 ;------------------------------------------------------------
                                    276 ;	./../../include/stdbit.h: 421: __STDC_LOAD8(8)
                                    277 ;	genLabel
                                    278 ;	Raw cost for generated ic 0 : (0, 0.000000) count=1.000000
                                    279 ;	-----------------------------------------
                                    280 ;	 function stdc_load8_leu_aligned8
                                    281 ;	-----------------------------------------
                                    282 ;	Register assignment is optimal.
                                    283 ;	Stack space usage: 0 bytes.
      000043                        284 _stdc_load8_leu_aligned8:
                                    285 ;	Raw cost for generated ic 1 : (0, 0.000000) count=1.000000
                                    286 ;	genReceive
                                    287 ;	Raw cost for generated ic 2 : (0, 0.000000) count=1.000000
                                    288 ;	skipping iCode since result will be rematerialized
                                    289 ;	Raw cost for generated ic 3 : (0, 0.000000) count=1.000000
                                    290 ;	skipping iCode since result will be rematerialized
                                    291 ;	Raw cost for generated ic 4 : (0, 0.000000) count=1.000000
                                    292 ;	genCast
                                    293 ;	genCopy
      000043 8Dr00r00         [ 4]  294 	sta	___memcpy_PARM_2
      000046 8Er01r00         [ 4]  295 	stx	(___memcpy_PARM_2 + 1)
                                    296 ;	Raw cost for generated ic 5 : (6, 8.000000) count=1.000000
                                    297 ;	genAssign
                                    298 ;	genAssignLit
      000049 A2 01            [ 2]  299 	ldx	#0x01
      00004B 8Er00r00         [ 4]  300 	stx	___memcpy_PARM_3
      00004E 9Cr01r00         [ 4]  301 	stz	(___memcpy_PARM_3 + 1)
                                    302 ;	Raw cost for generated ic 8 : (8, 10.000000) count=1.000000
                                    303 ;	Raw cost for generated ic 6 : (0, 0.000000) count=1.000000
                                    304 ;	genCall
                                    305 ;	genSend
      000051 A2s00            [ 2]  306 	ldx	#>_stdc_load8_leu_aligned8_value_10000_71
      000053 A9r02            [ 2]  307 	lda	#_stdc_load8_leu_aligned8_value_10000_71
      000055 20r00r00         [ 6]  308 	jsr	___memcpy
                                    309 ;	Raw cost for generated ic 9 : (7, 10.000000) count=1.000000
                                    310 ;	genRet
      000058 ADr02r00         [ 4]  311 	lda	_stdc_load8_leu_aligned8_value_10000_71
                                    312 ;	Raw cost for generated ic 10 : (3, 4.000000) count=1.000000
                                    313 ;	genLabel
                                    314 ;	Raw cost for generated ic 11 : (0, 0.000000) count=1.000000
                                    315 ;	genEndFunction
      00005B 60               [ 6]  316 	rts
                                    317 ;	Raw cost for generated ic 12 : (1, 6.000000) count=1.000000
                                    318 ;------------------------------------------------------------
                                    319 ;Allocation info for local variables in function 'stdc_load8_beu_aligned8'
                                    320 ;------------------------------------------------------------
                                    321 ;ptr           Allocated to registers a x 
                                    322 ;value         Allocated with name '_stdc_load8_beu_aligned8_value_10000_73'
                                    323 ;------------------------------------------------------------
                                    324 ;	./../../include/stdbit.h: 421: __STDC_LOAD8(16)
                                    325 ;	genLabel
                                    326 ;	Raw cost for generated ic 0 : (0, 0.000000) count=1.000000
                                    327 ;	-----------------------------------------
                                    328 ;	 function stdc_load8_beu_aligned8
                                    329 ;	-----------------------------------------
                                    330 ;	Register assignment is optimal.
                                    331 ;	Stack space usage: 0 bytes.
      00005C                        332 _stdc_load8_beu_aligned8:
                                    333 ;	Raw cost for generated ic 1 : (0, 0.000000) count=1.000000
                                    334 ;	genReceive
                                    335 ;	Raw cost for generated ic 2 : (0, 0.000000) count=1.000000
                                    336 ;	skipping iCode since result will be rematerialized
                                    337 ;	Raw cost for generated ic 3 : (0, 0.000000) count=1.000000
                                    338 ;	skipping iCode since result will be rematerialized
                                    339 ;	Raw cost for generated ic 4 : (0, 0.000000) count=1.000000
                                    340 ;	genCast
                                    341 ;	genCopy
      00005C 8Dr00r00         [ 4]  342 	sta	___memcpy_PARM_2
      00005F 8Er01r00         [ 4]  343 	stx	(___memcpy_PARM_2 + 1)
                                    344 ;	Raw cost for generated ic 5 : (6, 8.000000) count=1.000000
                                    345 ;	genAssign
                                    346 ;	genAssignLit
      000062 A2 01            [ 2]  347 	ldx	#0x01
      000064 8Er00r00         [ 4]  348 	stx	___memcpy_PARM_3
      000067 9Cr01r00         [ 4]  349 	stz	(___memcpy_PARM_3 + 1)
                                    350 ;	Raw cost for generated ic 8 : (8, 10.000000) count=1.000000
                                    351 ;	Raw cost for generated ic 6 : (0, 0.000000) count=1.000000
                                    352 ;	genCall
                                    353 ;	genSend
      00006A A2s00            [ 2]  354 	ldx	#>_stdc_load8_beu_aligned8_value_10000_73
      00006C A9r03            [ 2]  355 	lda	#_stdc_load8_beu_aligned8_value_10000_73
      00006E 20r00r00         [ 6]  356 	jsr	___memcpy
                                    357 ;	Raw cost for generated ic 9 : (7, 10.000000) count=1.000000
                                    358 ;	genCast
                                    359 ;	genCopy
      000071 A9s00            [ 2]  360 	lda	#>_stdc_load8_beu_aligned8_value_10000_73
      000073 8Dr01r00         [ 4]  361 	sta	(_stdc_memreverse8_PARM_2 + 1)
      000076 A9r03            [ 2]  362 	lda	#_stdc_load8_beu_aligned8_value_10000_73
      000078 8Dr00r00         [ 4]  363 	sta	_stdc_memreverse8_PARM_2
                                    364 ;	Raw cost for generated ic 11 : (10, 12.000000) count=1.000000
                                    365 ;	Raw cost for generated ic 12 : (0, 0.000000) count=1.000000
                                    366 ;	genCall
                                    367 ;	genSend
      00007B A2 00            [ 2]  368 	ldx	#0x00
      00007D A9 01            [ 2]  369 	lda	#0x01
      00007F 20r00r00         [ 6]  370 	jsr	_stdc_memreverse8
                                    371 ;	Raw cost for generated ic 14 : (7, 10.000000) count=1.000000
                                    372 ;	genRet
      000082 ADr03r00         [ 4]  373 	lda	_stdc_load8_beu_aligned8_value_10000_73
                                    374 ;	Raw cost for generated ic 15 : (3, 4.000000) count=1.000000
                                    375 ;	genLabel
                                    376 ;	Raw cost for generated ic 16 : (0, 0.000000) count=1.000000
                                    377 ;	genEndFunction
      000085 60               [ 6]  378 	rts
                                    379 ;	Raw cost for generated ic 17 : (1, 6.000000) count=1.000000
                                    380 ;------------------------------------------------------------
                                    381 ;Allocation info for local variables in function 'stdc_load8_les8'
                                    382 ;------------------------------------------------------------
                                    383 ;ptr           Allocated to registers a x 
                                    384 ;value         Allocated with name '_stdc_load8_les8_value_10000_75'
                                    385 ;------------------------------------------------------------
                                    386 ;	./../../include/stdbit.h: 421: __STDC_LOAD8(8)
                                    387 ;	genLabel
                                    388 ;	Raw cost for generated ic 0 : (0, 0.000000) count=1.000000
                                    389 ;	-----------------------------------------
                                    390 ;	 function stdc_load8_les8
                                    391 ;	-----------------------------------------
                                    392 ;	Register assignment is optimal.
                                    393 ;	Stack space usage: 0 bytes.
      000086                        394 _stdc_load8_les8:
                                    395 ;	Raw cost for generated ic 1 : (0, 0.000000) count=1.000000
                                    396 ;	genReceive
                                    397 ;	Raw cost for generated ic 2 : (0, 0.000000) count=1.000000
                                    398 ;	skipping iCode since result will be rematerialized
                                    399 ;	Raw cost for generated ic 3 : (0, 0.000000) count=1.000000
                                    400 ;	skipping iCode since result will be rematerialized
                                    401 ;	Raw cost for generated ic 4 : (0, 0.000000) count=1.000000
                                    402 ;	genCast
                                    403 ;	genCopy
      000086 8Dr00r00         [ 4]  404 	sta	___memcpy_PARM_2
      000089 8Er01r00         [ 4]  405 	stx	(___memcpy_PARM_2 + 1)
                                    406 ;	Raw cost for generated ic 5 : (6, 8.000000) count=1.000000
                                    407 ;	genAssign
                                    408 ;	genAssignLit
      00008C A2 01            [ 2]  409 	ldx	#0x01
      00008E 8Er00r00         [ 4]  410 	stx	___memcpy_PARM_3
      000091 9Cr01r00         [ 4]  411 	stz	(___memcpy_PARM_3 + 1)
                                    412 ;	Raw cost for generated ic 8 : (8, 10.000000) count=1.000000
                                    413 ;	Raw cost for generated ic 6 : (0, 0.000000) count=1.000000
                                    414 ;	genCall
                                    415 ;	genSend
      000094 A2s00            [ 2]  416 	ldx	#>_stdc_load8_les8_value_10000_75
      000096 A9r04            [ 2]  417 	lda	#_stdc_load8_les8_value_10000_75
      000098 20r00r00         [ 6]  418 	jsr	___memcpy
                                    419 ;	Raw cost for generated ic 9 : (7, 10.000000) count=1.000000
                                    420 ;	genRet
      00009B ADr04r00         [ 4]  421 	lda	_stdc_load8_les8_value_10000_75
                                    422 ;	Raw cost for generated ic 10 : (3, 4.000000) count=1.000000
                                    423 ;	genLabel
                                    424 ;	Raw cost for generated ic 11 : (0, 0.000000) count=1.000000
                                    425 ;	genEndFunction
      00009E 60               [ 6]  426 	rts
                                    427 ;	Raw cost for generated ic 12 : (1, 6.000000) count=1.000000
                                    428 ;------------------------------------------------------------
                                    429 ;Allocation info for local variables in function 'stdc_load8_bes8'
                                    430 ;------------------------------------------------------------
                                    431 ;ptr           Allocated to registers a x 
                                    432 ;value         Allocated with name '_stdc_load8_bes8_value_10000_77'
                                    433 ;------------------------------------------------------------
                                    434 ;	./../../include/stdbit.h: 421: __STDC_LOAD8(16)
                                    435 ;	genLabel
                                    436 ;	Raw cost for generated ic 0 : (0, 0.000000) count=1.000000
                                    437 ;	-----------------------------------------
                                    438 ;	 function stdc_load8_bes8
                                    439 ;	-----------------------------------------
                                    440 ;	Register assignment is optimal.
                                    441 ;	Stack space usage: 0 bytes.
      00009F                        442 _stdc_load8_bes8:
                                    443 ;	Raw cost for generated ic 1 : (0, 0.000000) count=1.000000
                                    444 ;	genReceive
                                    445 ;	Raw cost for generated ic 2 : (0, 0.000000) count=1.000000
                                    446 ;	skipping iCode since result will be rematerialized
                                    447 ;	Raw cost for generated ic 3 : (0, 0.000000) count=1.000000
                                    448 ;	skipping iCode since result will be rematerialized
                                    449 ;	Raw cost for generated ic 4 : (0, 0.000000) count=1.000000
                                    450 ;	genCast
                                    451 ;	genCopy
      00009F 8Dr00r00         [ 4]  452 	sta	___memcpy_PARM_2
      0000A2 8Er01r00         [ 4]  453 	stx	(___memcpy_PARM_2 + 1)
                                    454 ;	Raw cost for generated ic 5 : (6, 8.000000) count=1.000000
                                    455 ;	genAssign
                                    456 ;	genAssignLit
      0000A5 A2 01            [ 2]  457 	ldx	#0x01
      0000A7 8Er00r00         [ 4]  458 	stx	___memcpy_PARM_3
      0000AA 9Cr01r00         [ 4]  459 	stz	(___memcpy_PARM_3 + 1)
                                    460 ;	Raw cost for generated ic 8 : (8, 10.000000) count=1.000000
                                    461 ;	Raw cost for generated ic 6 : (0, 0.000000) count=1.000000
                                    462 ;	genCall
                                    463 ;	genSend
      0000AD A2s00            [ 2]  464 	ldx	#>_stdc_load8_bes8_value_10000_77
      0000AF A9r05            [ 2]  465 	lda	#_stdc_load8_bes8_value_10000_77
      0000B1 20r00r00         [ 6]  466 	jsr	___memcpy
                                    467 ;	Raw cost for generated ic 9 : (7, 10.000000) count=1.000000
                                    468 ;	genCast
                                    469 ;	genCopy
      0000B4 A9s00            [ 2]  470 	lda	#>_stdc_load8_bes8_value_10000_77
      0000B6 8Dr01r00         [ 4]  471 	sta	(_stdc_memreverse8_PARM_2 + 1)
      0000B9 A9r05            [ 2]  472 	lda	#_stdc_load8_bes8_value_10000_77
      0000BB 8Dr00r00         [ 4]  473 	sta	_stdc_memreverse8_PARM_2
                                    474 ;	Raw cost for generated ic 11 : (10, 12.000000) count=1.000000
                                    475 ;	Raw cost for generated ic 12 : (0, 0.000000) count=1.000000
                                    476 ;	genCall
                                    477 ;	genSend
      0000BE A2 00            [ 2]  478 	ldx	#0x00
      0000C0 A9 01            [ 2]  479 	lda	#0x01
      0000C2 20r00r00         [ 6]  480 	jsr	_stdc_memreverse8
                                    481 ;	Raw cost for generated ic 14 : (7, 10.000000) count=1.000000
                                    482 ;	genRet
      0000C5 ADr05r00         [ 4]  483 	lda	_stdc_load8_bes8_value_10000_77
                                    484 ;	Raw cost for generated ic 15 : (3, 4.000000) count=1.000000
                                    485 ;	genLabel
                                    486 ;	Raw cost for generated ic 16 : (0, 0.000000) count=1.000000
                                    487 ;	genEndFunction
      0000C8 60               [ 6]  488 	rts
                                    489 ;	Raw cost for generated ic 17 : (1, 6.000000) count=1.000000
                                    490 ;------------------------------------------------------------
                                    491 ;Allocation info for local variables in function 'stdc_load8_les_aligned8'
                                    492 ;------------------------------------------------------------
                                    493 ;ptr           Allocated to registers a x 
                                    494 ;value         Allocated with name '_stdc_load8_les_aligned8_value_10000_79'
                                    495 ;------------------------------------------------------------
                                    496 ;	./../../include/stdbit.h: 421: __STDC_LOAD8(8)
                                    497 ;	genLabel
                                    498 ;	Raw cost for generated ic 0 : (0, 0.000000) count=1.000000
                                    499 ;	-----------------------------------------
                                    500 ;	 function stdc_load8_les_aligned8
                                    501 ;	-----------------------------------------
                                    502 ;	Register assignment is optimal.
                                    503 ;	Stack space usage: 0 bytes.
      0000C9                        504 _stdc_load8_les_aligned8:
                                    505 ;	Raw cost for generated ic 1 : (0, 0.000000) count=1.000000
                                    506 ;	genReceive
                                    507 ;	Raw cost for generated ic 2 : (0, 0.000000) count=1.000000
                                    508 ;	skipping iCode since result will be rematerialized
                                    509 ;	Raw cost for generated ic 3 : (0, 0.000000) count=1.000000
                                    510 ;	skipping iCode since result will be rematerialized
                                    511 ;	Raw cost for generated ic 4 : (0, 0.000000) count=1.000000
                                    512 ;	genCast
                                    513 ;	genCopy
      0000C9 8Dr00r00         [ 4]  514 	sta	___memcpy_PARM_2
      0000CC 8Er01r00         [ 4]  515 	stx	(___memcpy_PARM_2 + 1)
                                    516 ;	Raw cost for generated ic 5 : (6, 8.000000) count=1.000000
                                    517 ;	genAssign
                                    518 ;	genAssignLit
      0000CF A2 01            [ 2]  519 	ldx	#0x01
      0000D1 8Er00r00         [ 4]  520 	stx	___memcpy_PARM_3
      0000D4 9Cr01r00         [ 4]  521 	stz	(___memcpy_PARM_3 + 1)
                                    522 ;	Raw cost for generated ic 8 : (8, 10.000000) count=1.000000
                                    523 ;	Raw cost for generated ic 6 : (0, 0.000000) count=1.000000
                                    524 ;	genCall
                                    525 ;	genSend
      0000D7 A2s00            [ 2]  526 	ldx	#>_stdc_load8_les_aligned8_value_10000_79
      0000D9 A9r06            [ 2]  527 	lda	#_stdc_load8_les_aligned8_value_10000_79
      0000DB 20r00r00         [ 6]  528 	jsr	___memcpy
                                    529 ;	Raw cost for generated ic 9 : (7, 10.000000) count=1.000000
                                    530 ;	genRet
      0000DE ADr06r00         [ 4]  531 	lda	_stdc_load8_les_aligned8_value_10000_79
                                    532 ;	Raw cost for generated ic 10 : (3, 4.000000) count=1.000000
                                    533 ;	genLabel
                                    534 ;	Raw cost for generated ic 11 : (0, 0.000000) count=1.000000
                                    535 ;	genEndFunction
      0000E1 60               [ 6]  536 	rts
                                    537 ;	Raw cost for generated ic 12 : (1, 6.000000) count=1.000000
                                    538 ;------------------------------------------------------------
                                    539 ;Allocation info for local variables in function 'stdc_load8_bes_aligned8'
                                    540 ;------------------------------------------------------------
                                    541 ;ptr           Allocated to registers a x 
                                    542 ;value         Allocated with name '_stdc_load8_bes_aligned8_value_10000_81'
                                    543 ;------------------------------------------------------------
                                    544 ;	./../../include/stdbit.h: 421: __STDC_LOAD8(16)
                                    545 ;	genLabel
                                    546 ;	Raw cost for generated ic 0 : (0, 0.000000) count=1.000000
                                    547 ;	-----------------------------------------
                                    548 ;	 function stdc_load8_bes_aligned8
                                    549 ;	-----------------------------------------
                                    550 ;	Register assignment is optimal.
                                    551 ;	Stack space usage: 0 bytes.
      0000E2                        552 _stdc_load8_bes_aligned8:
                                    553 ;	Raw cost for generated ic 1 : (0, 0.000000) count=1.000000
                                    554 ;	genReceive
                                    555 ;	Raw cost for generated ic 2 : (0, 0.000000) count=1.000000
                                    556 ;	skipping iCode since result will be rematerialized
                                    557 ;	Raw cost for generated ic 3 : (0, 0.000000) count=1.000000
                                    558 ;	skipping iCode since result will be rematerialized
                                    559 ;	Raw cost for generated ic 4 : (0, 0.000000) count=1.000000
                                    560 ;	genCast
                                    561 ;	genCopy
      0000E2 8Dr00r00         [ 4]  562 	sta	___memcpy_PARM_2
      0000E5 8Er01r00         [ 4]  563 	stx	(___memcpy_PARM_2 + 1)
                                    564 ;	Raw cost for generated ic 5 : (6, 8.000000) count=1.000000
                                    565 ;	genAssign
                                    566 ;	genAssignLit
      0000E8 A2 01            [ 2]  567 	ldx	#0x01
      0000EA 8Er00r00         [ 4]  568 	stx	___memcpy_PARM_3
      0000ED 9Cr01r00         [ 4]  569 	stz	(___memcpy_PARM_3 + 1)
                                    570 ;	Raw cost for generated ic 8 : (8, 10.000000) count=1.000000
                                    571 ;	Raw cost for generated ic 6 : (0, 0.000000) count=1.000000
                                    572 ;	genCall
                                    573 ;	genSend
      0000F0 A2s00            [ 2]  574 	ldx	#>_stdc_load8_bes_aligned8_value_10000_81
      0000F2 A9r07            [ 2]  575 	lda	#_stdc_load8_bes_aligned8_value_10000_81
      0000F4 20r00r00         [ 6]  576 	jsr	___memcpy
                                    577 ;	Raw cost for generated ic 9 : (7, 10.000000) count=1.000000
                                    578 ;	genCast
                                    579 ;	genCopy
      0000F7 A9s00            [ 2]  580 	lda	#>_stdc_load8_bes_aligned8_value_10000_81
      0000F9 8Dr01r00         [ 4]  581 	sta	(_stdc_memreverse8_PARM_2 + 1)
      0000FC A9r07            [ 2]  582 	lda	#_stdc_load8_bes_aligned8_value_10000_81
      0000FE 8Dr00r00         [ 4]  583 	sta	_stdc_memreverse8_PARM_2
                                    584 ;	Raw cost for generated ic 11 : (10, 12.000000) count=1.000000
                                    585 ;	Raw cost for generated ic 12 : (0, 0.000000) count=1.000000
                                    586 ;	genCall
                                    587 ;	genSend
      000101 A2 00            [ 2]  588 	ldx	#0x00
      000103 A9 01            [ 2]  589 	lda	#0x01
      000105 20r00r00         [ 6]  590 	jsr	_stdc_memreverse8
                                    591 ;	Raw cost for generated ic 14 : (7, 10.000000) count=1.000000
                                    592 ;	genRet
      000108 ADr07r00         [ 4]  593 	lda	_stdc_load8_bes_aligned8_value_10000_81
                                    594 ;	Raw cost for generated ic 15 : (3, 4.000000) count=1.000000
                                    595 ;	genLabel
                                    596 ;	Raw cost for generated ic 16 : (0, 0.000000) count=1.000000
                                    597 ;	genEndFunction
      00010B 60               [ 6]  598 	rts
                                    599 ;	Raw cost for generated ic 17 : (1, 6.000000) count=1.000000
                                    600 ;------------------------------------------------------------
                                    601 ;Allocation info for local variables in function 'stdc_load8_leu16'
                                    602 ;------------------------------------------------------------
                                    603 ;ptr           Allocated to registers a x 
                                    604 ;value         Allocated with name '_stdc_load8_leu16_value_10000_83'
                                    605 ;------------------------------------------------------------
                                    606 ;	./../../include/stdbit.h: 422: __STDC_LOAD8(32)
                                    607 ;	genLabel
                                    608 ;	Raw cost for generated ic 0 : (0, 0.000000) count=1.000000
                                    609 ;	-----------------------------------------
                                    610 ;	 function stdc_load8_leu16
                                    611 ;	-----------------------------------------
                                    612 ;	Register assignment is optimal.
                                    613 ;	Stack space usage: 0 bytes.
      00010C                        614 _stdc_load8_leu16:
                                    615 ;	Raw cost for generated ic 1 : (0, 0.000000) count=1.000000
                                    616 ;	genReceive
                                    617 ;	Raw cost for generated ic 2 : (0, 0.000000) count=1.000000
                                    618 ;	skipping iCode since result will be rematerialized
                                    619 ;	Raw cost for generated ic 3 : (0, 0.000000) count=1.000000
                                    620 ;	skipping iCode since result will be rematerialized
                                    621 ;	Raw cost for generated ic 4 : (0, 0.000000) count=1.000000
                                    622 ;	genCast
                                    623 ;	genCopy
      00010C 8Dr00r00         [ 4]  624 	sta	___memcpy_PARM_2
      00010F 8Er01r00         [ 4]  625 	stx	(___memcpy_PARM_2 + 1)
                                    626 ;	Raw cost for generated ic 5 : (6, 8.000000) count=1.000000
                                    627 ;	genAssign
                                    628 ;	genAssignLit
      000112 A2 02            [ 2]  629 	ldx	#0x02
      000114 8Er00r00         [ 4]  630 	stx	___memcpy_PARM_3
      000117 9Cr01r00         [ 4]  631 	stz	(___memcpy_PARM_3 + 1)
                                    632 ;	Raw cost for generated ic 8 : (8, 10.000000) count=1.000000
                                    633 ;	Raw cost for generated ic 6 : (0, 0.000000) count=1.000000
                                    634 ;	genCall
                                    635 ;	genSend
      00011A A2s00            [ 2]  636 	ldx	#>_stdc_load8_leu16_value_10000_83
      00011C A9r08            [ 2]  637 	lda	#_stdc_load8_leu16_value_10000_83
      00011E 20r00r00         [ 6]  638 	jsr	___memcpy
                                    639 ;	Raw cost for generated ic 9 : (7, 10.000000) count=1.000000
                                    640 ;	genRet
      000121 AEr09r00         [ 4]  641 	ldx	(_stdc_load8_leu16_value_10000_83 + 1)
      000124 ADr08r00         [ 4]  642 	lda	_stdc_load8_leu16_value_10000_83
                                    643 ;	Raw cost for generated ic 10 : (6, 8.000000) count=1.000000
                                    644 ;	genLabel
                                    645 ;	Raw cost for generated ic 11 : (0, 0.000000) count=1.000000
                                    646 ;	genEndFunction
      000127 60               [ 6]  647 	rts
                                    648 ;	Raw cost for generated ic 12 : (1, 6.000000) count=1.000000
                                    649 ;------------------------------------------------------------
                                    650 ;Allocation info for local variables in function 'stdc_load8_beu16'
                                    651 ;------------------------------------------------------------
                                    652 ;ptr           Allocated to registers a x 
                                    653 ;value         Allocated with name '_stdc_load8_beu16_value_10000_85'
                                    654 ;------------------------------------------------------------
                                    655 ;	./../../include/stdbit.h: 422: __STDC_LOAD8(16)
                                    656 ;	genLabel
                                    657 ;	Raw cost for generated ic 0 : (0, 0.000000) count=1.000000
                                    658 ;	-----------------------------------------
                                    659 ;	 function stdc_load8_beu16
                                    660 ;	-----------------------------------------
                                    661 ;	Register assignment is optimal.
                                    662 ;	Stack space usage: 0 bytes.
      000128                        663 _stdc_load8_beu16:
                                    664 ;	Raw cost for generated ic 1 : (0, 0.000000) count=1.000000
                                    665 ;	genReceive
                                    666 ;	Raw cost for generated ic 2 : (0, 0.000000) count=1.000000
                                    667 ;	skipping iCode since result will be rematerialized
                                    668 ;	Raw cost for generated ic 3 : (0, 0.000000) count=1.000000
                                    669 ;	skipping iCode since result will be rematerialized
                                    670 ;	Raw cost for generated ic 4 : (0, 0.000000) count=1.000000
                                    671 ;	genCast
                                    672 ;	genCopy
      000128 8Dr00r00         [ 4]  673 	sta	___memcpy_PARM_2
      00012B 8Er01r00         [ 4]  674 	stx	(___memcpy_PARM_2 + 1)
                                    675 ;	Raw cost for generated ic 5 : (6, 8.000000) count=1.000000
                                    676 ;	genAssign
                                    677 ;	genAssignLit
      00012E A2 02            [ 2]  678 	ldx	#0x02
      000130 8Er00r00         [ 4]  679 	stx	___memcpy_PARM_3
      000133 9Cr01r00         [ 4]  680 	stz	(___memcpy_PARM_3 + 1)
                                    681 ;	Raw cost for generated ic 8 : (8, 10.000000) count=1.000000
                                    682 ;	Raw cost for generated ic 6 : (0, 0.000000) count=1.000000
                                    683 ;	genCall
                                    684 ;	genSend
      000136 A2s00            [ 2]  685 	ldx	#>_stdc_load8_beu16_value_10000_85
      000138 A9r0A            [ 2]  686 	lda	#_stdc_load8_beu16_value_10000_85
      00013A 20r00r00         [ 6]  687 	jsr	___memcpy
                                    688 ;	Raw cost for generated ic 9 : (7, 10.000000) count=1.000000
                                    689 ;	genCast
                                    690 ;	genCopy
      00013D A9s00            [ 2]  691 	lda	#>_stdc_load8_beu16_value_10000_85
      00013F 8Dr01r00         [ 4]  692 	sta	(_stdc_memreverse8_PARM_2 + 1)
      000142 A9r0A            [ 2]  693 	lda	#_stdc_load8_beu16_value_10000_85
      000144 8Dr00r00         [ 4]  694 	sta	_stdc_memreverse8_PARM_2
                                    695 ;	Raw cost for generated ic 11 : (10, 12.000000) count=1.000000
                                    696 ;	Raw cost for generated ic 12 : (0, 0.000000) count=1.000000
                                    697 ;	genCall
                                    698 ;	genSend
      000147 A2 00            [ 2]  699 	ldx	#0x00
      000149 A9 02            [ 2]  700 	lda	#0x02
      00014B 20r00r00         [ 6]  701 	jsr	_stdc_memreverse8
                                    702 ;	Raw cost for generated ic 14 : (7, 10.000000) count=1.000000
                                    703 ;	genRet
      00014E AEr0Br00         [ 4]  704 	ldx	(_stdc_load8_beu16_value_10000_85 + 1)
      000151 ADr0Ar00         [ 4]  705 	lda	_stdc_load8_beu16_value_10000_85
                                    706 ;	Raw cost for generated ic 15 : (6, 8.000000) count=1.000000
                                    707 ;	genLabel
                                    708 ;	Raw cost for generated ic 16 : (0, 0.000000) count=1.000000
                                    709 ;	genEndFunction
      000154 60               [ 6]  710 	rts
                                    711 ;	Raw cost for generated ic 17 : (1, 6.000000) count=1.000000
                                    712 ;------------------------------------------------------------
                                    713 ;Allocation info for local variables in function 'stdc_load8_leu_aligned16'
                                    714 ;------------------------------------------------------------
                                    715 ;ptr           Allocated to registers a x 
                                    716 ;value         Allocated with name '_stdc_load8_leu_aligned16_value_10000_87'
                                    717 ;------------------------------------------------------------
                                    718 ;	./../../include/stdbit.h: 422: __STDC_LOAD8(32)
                                    719 ;	genLabel
                                    720 ;	Raw cost for generated ic 0 : (0, 0.000000) count=1.000000
                                    721 ;	-----------------------------------------
                                    722 ;	 function stdc_load8_leu_aligned16
                                    723 ;	-----------------------------------------
                                    724 ;	Register assignment is optimal.
                                    725 ;	Stack space usage: 0 bytes.
      000155                        726 _stdc_load8_leu_aligned16:
                                    727 ;	Raw cost for generated ic 1 : (0, 0.000000) count=1.000000
                                    728 ;	genReceive
                                    729 ;	Raw cost for generated ic 2 : (0, 0.000000) count=1.000000
                                    730 ;	skipping iCode since result will be rematerialized
                                    731 ;	Raw cost for generated ic 3 : (0, 0.000000) count=1.000000
                                    732 ;	skipping iCode since result will be rematerialized
                                    733 ;	Raw cost for generated ic 4 : (0, 0.000000) count=1.000000
                                    734 ;	genCast
                                    735 ;	genCopy
      000155 8Dr00r00         [ 4]  736 	sta	___memcpy_PARM_2
      000158 8Er01r00         [ 4]  737 	stx	(___memcpy_PARM_2 + 1)
                                    738 ;	Raw cost for generated ic 5 : (6, 8.000000) count=1.000000
                                    739 ;	genAssign
                                    740 ;	genAssignLit
      00015B A2 02            [ 2]  741 	ldx	#0x02
      00015D 8Er00r00         [ 4]  742 	stx	___memcpy_PARM_3
      000160 9Cr01r00         [ 4]  743 	stz	(___memcpy_PARM_3 + 1)
                                    744 ;	Raw cost for generated ic 8 : (8, 10.000000) count=1.000000
                                    745 ;	Raw cost for generated ic 6 : (0, 0.000000) count=1.000000
                                    746 ;	genCall
                                    747 ;	genSend
      000163 A2s00            [ 2]  748 	ldx	#>_stdc_load8_leu_aligned16_value_10000_87
      000165 A9r0C            [ 2]  749 	lda	#_stdc_load8_leu_aligned16_value_10000_87
      000167 20r00r00         [ 6]  750 	jsr	___memcpy
                                    751 ;	Raw cost for generated ic 9 : (7, 10.000000) count=1.000000
                                    752 ;	genRet
      00016A AEr0Dr00         [ 4]  753 	ldx	(_stdc_load8_leu_aligned16_value_10000_87 + 1)
      00016D ADr0Cr00         [ 4]  754 	lda	_stdc_load8_leu_aligned16_value_10000_87
                                    755 ;	Raw cost for generated ic 10 : (6, 8.000000) count=1.000000
                                    756 ;	genLabel
                                    757 ;	Raw cost for generated ic 11 : (0, 0.000000) count=1.000000
                                    758 ;	genEndFunction
      000170 60               [ 6]  759 	rts
                                    760 ;	Raw cost for generated ic 12 : (1, 6.000000) count=1.000000
                                    761 ;------------------------------------------------------------
                                    762 ;Allocation info for local variables in function 'stdc_load8_beu_aligned16'
                                    763 ;------------------------------------------------------------
                                    764 ;ptr           Allocated to registers a x 
                                    765 ;value         Allocated with name '_stdc_load8_beu_aligned16_value_10000_89'
                                    766 ;------------------------------------------------------------
                                    767 ;	./../../include/stdbit.h: 422: __STDC_LOAD8(16)
                                    768 ;	genLabel
                                    769 ;	Raw cost for generated ic 0 : (0, 0.000000) count=1.000000
                                    770 ;	-----------------------------------------
                                    771 ;	 function stdc_load8_beu_aligned16
                                    772 ;	-----------------------------------------
                                    773 ;	Register assignment is optimal.
                                    774 ;	Stack space usage: 0 bytes.
      000171                        775 _stdc_load8_beu_aligned16:
                                    776 ;	Raw cost for generated ic 1 : (0, 0.000000) count=1.000000
                                    777 ;	genReceive
                                    778 ;	Raw cost for generated ic 2 : (0, 0.000000) count=1.000000
                                    779 ;	skipping iCode since result will be rematerialized
                                    780 ;	Raw cost for generated ic 3 : (0, 0.000000) count=1.000000
                                    781 ;	skipping iCode since result will be rematerialized
                                    782 ;	Raw cost for generated ic 4 : (0, 0.000000) count=1.000000
                                    783 ;	genCast
                                    784 ;	genCopy
      000171 8Dr00r00         [ 4]  785 	sta	___memcpy_PARM_2
      000174 8Er01r00         [ 4]  786 	stx	(___memcpy_PARM_2 + 1)
                                    787 ;	Raw cost for generated ic 5 : (6, 8.000000) count=1.000000
                                    788 ;	genAssign
                                    789 ;	genAssignLit
      000177 A2 02            [ 2]  790 	ldx	#0x02
      000179 8Er00r00         [ 4]  791 	stx	___memcpy_PARM_3
      00017C 9Cr01r00         [ 4]  792 	stz	(___memcpy_PARM_3 + 1)
                                    793 ;	Raw cost for generated ic 8 : (8, 10.000000) count=1.000000
                                    794 ;	Raw cost for generated ic 6 : (0, 0.000000) count=1.000000
                                    795 ;	genCall
                                    796 ;	genSend
      00017F A2s00            [ 2]  797 	ldx	#>_stdc_load8_beu_aligned16_value_10000_89
      000181 A9r0E            [ 2]  798 	lda	#_stdc_load8_beu_aligned16_value_10000_89
      000183 20r00r00         [ 6]  799 	jsr	___memcpy
                                    800 ;	Raw cost for generated ic 9 : (7, 10.000000) count=1.000000
                                    801 ;	genCast
                                    802 ;	genCopy
      000186 A9s00            [ 2]  803 	lda	#>_stdc_load8_beu_aligned16_value_10000_89
      000188 8Dr01r00         [ 4]  804 	sta	(_stdc_memreverse8_PARM_2 + 1)
      00018B A9r0E            [ 2]  805 	lda	#_stdc_load8_beu_aligned16_value_10000_89
      00018D 8Dr00r00         [ 4]  806 	sta	_stdc_memreverse8_PARM_2
                                    807 ;	Raw cost for generated ic 11 : (10, 12.000000) count=1.000000
                                    808 ;	Raw cost for generated ic 12 : (0, 0.000000) count=1.000000
                                    809 ;	genCall
                                    810 ;	genSend
      000190 A2 00            [ 2]  811 	ldx	#0x00
      000192 A9 02            [ 2]  812 	lda	#0x02
      000194 20r00r00         [ 6]  813 	jsr	_stdc_memreverse8
                                    814 ;	Raw cost for generated ic 14 : (7, 10.000000) count=1.000000
                                    815 ;	genRet
      000197 AEr0Fr00         [ 4]  816 	ldx	(_stdc_load8_beu_aligned16_value_10000_89 + 1)
      00019A ADr0Er00         [ 4]  817 	lda	_stdc_load8_beu_aligned16_value_10000_89
                                    818 ;	Raw cost for generated ic 15 : (6, 8.000000) count=1.000000
                                    819 ;	genLabel
                                    820 ;	Raw cost for generated ic 16 : (0, 0.000000) count=1.000000
                                    821 ;	genEndFunction
      00019D 60               [ 6]  822 	rts
                                    823 ;	Raw cost for generated ic 17 : (1, 6.000000) count=1.000000
                                    824 ;------------------------------------------------------------
                                    825 ;Allocation info for local variables in function 'stdc_load8_les16'
                                    826 ;------------------------------------------------------------
                                    827 ;ptr           Allocated to registers a x 
                                    828 ;value         Allocated with name '_stdc_load8_les16_value_10000_91'
                                    829 ;------------------------------------------------------------
                                    830 ;	./../../include/stdbit.h: 422: __STDC_LOAD8(32)
                                    831 ;	genLabel
                                    832 ;	Raw cost for generated ic 0 : (0, 0.000000) count=1.000000
                                    833 ;	-----------------------------------------
                                    834 ;	 function stdc_load8_les16
                                    835 ;	-----------------------------------------
                                    836 ;	Register assignment is optimal.
                                    837 ;	Stack space usage: 0 bytes.
      00019E                        838 _stdc_load8_les16:
                                    839 ;	Raw cost for generated ic 1 : (0, 0.000000) count=1.000000
                                    840 ;	genReceive
                                    841 ;	Raw cost for generated ic 2 : (0, 0.000000) count=1.000000
                                    842 ;	skipping iCode since result will be rematerialized
                                    843 ;	Raw cost for generated ic 3 : (0, 0.000000) count=1.000000
                                    844 ;	skipping iCode since result will be rematerialized
                                    845 ;	Raw cost for generated ic 4 : (0, 0.000000) count=1.000000
                                    846 ;	genCast
                                    847 ;	genCopy
      00019E 8Dr00r00         [ 4]  848 	sta	___memcpy_PARM_2
      0001A1 8Er01r00         [ 4]  849 	stx	(___memcpy_PARM_2 + 1)
                                    850 ;	Raw cost for generated ic 5 : (6, 8.000000) count=1.000000
                                    851 ;	genAssign
                                    852 ;	genAssignLit
      0001A4 A2 02            [ 2]  853 	ldx	#0x02
      0001A6 8Er00r00         [ 4]  854 	stx	___memcpy_PARM_3
      0001A9 9Cr01r00         [ 4]  855 	stz	(___memcpy_PARM_3 + 1)
                                    856 ;	Raw cost for generated ic 8 : (8, 10.000000) count=1.000000
                                    857 ;	Raw cost for generated ic 6 : (0, 0.000000) count=1.000000
                                    858 ;	genCall
                                    859 ;	genSend
      0001AC A2s00            [ 2]  860 	ldx	#>_stdc_load8_les16_value_10000_91
      0001AE A9r10            [ 2]  861 	lda	#_stdc_load8_les16_value_10000_91
      0001B0 20r00r00         [ 6]  862 	jsr	___memcpy
                                    863 ;	Raw cost for generated ic 9 : (7, 10.000000) count=1.000000
                                    864 ;	genRet
      0001B3 AEr11r00         [ 4]  865 	ldx	(_stdc_load8_les16_value_10000_91 + 1)
      0001B6 ADr10r00         [ 4]  866 	lda	_stdc_load8_les16_value_10000_91
                                    867 ;	Raw cost for generated ic 10 : (6, 8.000000) count=1.000000
                                    868 ;	genLabel
                                    869 ;	Raw cost for generated ic 11 : (0, 0.000000) count=1.000000
                                    870 ;	genEndFunction
      0001B9 60               [ 6]  871 	rts
                                    872 ;	Raw cost for generated ic 12 : (1, 6.000000) count=1.000000
                                    873 ;------------------------------------------------------------
                                    874 ;Allocation info for local variables in function 'stdc_load8_bes16'
                                    875 ;------------------------------------------------------------
                                    876 ;ptr           Allocated to registers a x 
                                    877 ;value         Allocated with name '_stdc_load8_bes16_value_10000_93'
                                    878 ;------------------------------------------------------------
                                    879 ;	./../../include/stdbit.h: 422: __STDC_LOAD8(16)
                                    880 ;	genLabel
                                    881 ;	Raw cost for generated ic 0 : (0, 0.000000) count=1.000000
                                    882 ;	-----------------------------------------
                                    883 ;	 function stdc_load8_bes16
                                    884 ;	-----------------------------------------
                                    885 ;	Register assignment is optimal.
                                    886 ;	Stack space usage: 0 bytes.
      0001BA                        887 _stdc_load8_bes16:
                                    888 ;	Raw cost for generated ic 1 : (0, 0.000000) count=1.000000
                                    889 ;	genReceive
                                    890 ;	Raw cost for generated ic 2 : (0, 0.000000) count=1.000000
                                    891 ;	skipping iCode since result will be rematerialized
                                    892 ;	Raw cost for generated ic 3 : (0, 0.000000) count=1.000000
                                    893 ;	skipping iCode since result will be rematerialized
                                    894 ;	Raw cost for generated ic 4 : (0, 0.000000) count=1.000000
                                    895 ;	genCast
                                    896 ;	genCopy
      0001BA 8Dr00r00         [ 4]  897 	sta	___memcpy_PARM_2
      0001BD 8Er01r00         [ 4]  898 	stx	(___memcpy_PARM_2 + 1)
                                    899 ;	Raw cost for generated ic 5 : (6, 8.000000) count=1.000000
                                    900 ;	genAssign
                                    901 ;	genAssignLit
      0001C0 A2 02            [ 2]  902 	ldx	#0x02
      0001C2 8Er00r00         [ 4]  903 	stx	___memcpy_PARM_3
      0001C5 9Cr01r00         [ 4]  904 	stz	(___memcpy_PARM_3 + 1)
                                    905 ;	Raw cost for generated ic 8 : (8, 10.000000) count=1.000000
                                    906 ;	Raw cost for generated ic 6 : (0, 0.000000) count=1.000000
                                    907 ;	genCall
                                    908 ;	genSend
      0001C8 A2s00            [ 2]  909 	ldx	#>_stdc_load8_bes16_value_10000_93
      0001CA A9r12            [ 2]  910 	lda	#_stdc_load8_bes16_value_10000_93
      0001CC 20r00r00         [ 6]  911 	jsr	___memcpy
                                    912 ;	Raw cost for generated ic 9 : (7, 10.000000) count=1.000000
                                    913 ;	genCast
                                    914 ;	genCopy
      0001CF A9s00            [ 2]  915 	lda	#>_stdc_load8_bes16_value_10000_93
      0001D1 8Dr01r00         [ 4]  916 	sta	(_stdc_memreverse8_PARM_2 + 1)
      0001D4 A9r12            [ 2]  917 	lda	#_stdc_load8_bes16_value_10000_93
      0001D6 8Dr00r00         [ 4]  918 	sta	_stdc_memreverse8_PARM_2
                                    919 ;	Raw cost for generated ic 11 : (10, 12.000000) count=1.000000
                                    920 ;	Raw cost for generated ic 12 : (0, 0.000000) count=1.000000
                                    921 ;	genCall
                                    922 ;	genSend
      0001D9 A2 00            [ 2]  923 	ldx	#0x00
      0001DB A9 02            [ 2]  924 	lda	#0x02
      0001DD 20r00r00         [ 6]  925 	jsr	_stdc_memreverse8
                                    926 ;	Raw cost for generated ic 14 : (7, 10.000000) count=1.000000
                                    927 ;	genRet
      0001E0 AEr13r00         [ 4]  928 	ldx	(_stdc_load8_bes16_value_10000_93 + 1)
      0001E3 ADr12r00         [ 4]  929 	lda	_stdc_load8_bes16_value_10000_93
                                    930 ;	Raw cost for generated ic 15 : (6, 8.000000) count=1.000000
                                    931 ;	genLabel
                                    932 ;	Raw cost for generated ic 16 : (0, 0.000000) count=1.000000
                                    933 ;	genEndFunction
      0001E6 60               [ 6]  934 	rts
                                    935 ;	Raw cost for generated ic 17 : (1, 6.000000) count=1.000000
                                    936 ;------------------------------------------------------------
                                    937 ;Allocation info for local variables in function 'stdc_load8_les_aligned16'
                                    938 ;------------------------------------------------------------
                                    939 ;ptr           Allocated to registers a x 
                                    940 ;value         Allocated with name '_stdc_load8_les_aligned16_value_10000_95'
                                    941 ;------------------------------------------------------------
                                    942 ;	./../../include/stdbit.h: 422: __STDC_LOAD8(32)
                                    943 ;	genLabel
                                    944 ;	Raw cost for generated ic 0 : (0, 0.000000) count=1.000000
                                    945 ;	-----------------------------------------
                                    946 ;	 function stdc_load8_les_aligned16
                                    947 ;	-----------------------------------------
                                    948 ;	Register assignment is optimal.
                                    949 ;	Stack space usage: 0 bytes.
      0001E7                        950 _stdc_load8_les_aligned16:
                                    951 ;	Raw cost for generated ic 1 : (0, 0.000000) count=1.000000
                                    952 ;	genReceive
                                    953 ;	Raw cost for generated ic 2 : (0, 0.000000) count=1.000000
                                    954 ;	skipping iCode since result will be rematerialized
                                    955 ;	Raw cost for generated ic 3 : (0, 0.000000) count=1.000000
                                    956 ;	skipping iCode since result will be rematerialized
                                    957 ;	Raw cost for generated ic 4 : (0, 0.000000) count=1.000000
                                    958 ;	genCast
                                    959 ;	genCopy
      0001E7 8Dr00r00         [ 4]  960 	sta	___memcpy_PARM_2
      0001EA 8Er01r00         [ 4]  961 	stx	(___memcpy_PARM_2 + 1)
                                    962 ;	Raw cost for generated ic 5 : (6, 8.000000) count=1.000000
                                    963 ;	genAssign
                                    964 ;	genAssignLit
      0001ED A2 02            [ 2]  965 	ldx	#0x02
      0001EF 8Er00r00         [ 4]  966 	stx	___memcpy_PARM_3
      0001F2 9Cr01r00         [ 4]  967 	stz	(___memcpy_PARM_3 + 1)
                                    968 ;	Raw cost for generated ic 8 : (8, 10.000000) count=1.000000
                                    969 ;	Raw cost for generated ic 6 : (0, 0.000000) count=1.000000
                                    970 ;	genCall
                                    971 ;	genSend
      0001F5 A2s00            [ 2]  972 	ldx	#>_stdc_load8_les_aligned16_value_10000_95
      0001F7 A9r14            [ 2]  973 	lda	#_stdc_load8_les_aligned16_value_10000_95
      0001F9 20r00r00         [ 6]  974 	jsr	___memcpy
                                    975 ;	Raw cost for generated ic 9 : (7, 10.000000) count=1.000000
                                    976 ;	genRet
      0001FC AEr15r00         [ 4]  977 	ldx	(_stdc_load8_les_aligned16_value_10000_95 + 1)
      0001FF ADr14r00         [ 4]  978 	lda	_stdc_load8_les_aligned16_value_10000_95
                                    979 ;	Raw cost for generated ic 10 : (6, 8.000000) count=1.000000
                                    980 ;	genLabel
                                    981 ;	Raw cost for generated ic 11 : (0, 0.000000) count=1.000000
                                    982 ;	genEndFunction
      000202 60               [ 6]  983 	rts
                                    984 ;	Raw cost for generated ic 12 : (1, 6.000000) count=1.000000
                                    985 ;------------------------------------------------------------
                                    986 ;Allocation info for local variables in function 'stdc_load8_bes_aligned16'
                                    987 ;------------------------------------------------------------
                                    988 ;ptr           Allocated to registers a x 
                                    989 ;value         Allocated with name '_stdc_load8_bes_aligned16_value_10000_97'
                                    990 ;------------------------------------------------------------
                                    991 ;	./../../include/stdbit.h: 422: __STDC_LOAD8(16)
                                    992 ;	genLabel
                                    993 ;	Raw cost for generated ic 0 : (0, 0.000000) count=1.000000
                                    994 ;	-----------------------------------------
                                    995 ;	 function stdc_load8_bes_aligned16
                                    996 ;	-----------------------------------------
                                    997 ;	Register assignment is optimal.
                                    998 ;	Stack space usage: 0 bytes.
      000203                        999 _stdc_load8_bes_aligned16:
                                   1000 ;	Raw cost for generated ic 1 : (0, 0.000000) count=1.000000
                                   1001 ;	genReceive
                                   1002 ;	Raw cost for generated ic 2 : (0, 0.000000) count=1.000000
                                   1003 ;	skipping iCode since result will be rematerialized
                                   1004 ;	Raw cost for generated ic 3 : (0, 0.000000) count=1.000000
                                   1005 ;	skipping iCode since result will be rematerialized
                                   1006 ;	Raw cost for generated ic 4 : (0, 0.000000) count=1.000000
                                   1007 ;	genCast
                                   1008 ;	genCopy
      000203 8Dr00r00         [ 4] 1009 	sta	___memcpy_PARM_2
      000206 8Er01r00         [ 4] 1010 	stx	(___memcpy_PARM_2 + 1)
                                   1011 ;	Raw cost for generated ic 5 : (6, 8.000000) count=1.000000
                                   1012 ;	genAssign
                                   1013 ;	genAssignLit
      000209 A2 02            [ 2] 1014 	ldx	#0x02
      00020B 8Er00r00         [ 4] 1015 	stx	___memcpy_PARM_3
      00020E 9Cr01r00         [ 4] 1016 	stz	(___memcpy_PARM_3 + 1)
                                   1017 ;	Raw cost for generated ic 8 : (8, 10.000000) count=1.000000
                                   1018 ;	Raw cost for generated ic 6 : (0, 0.000000) count=1.000000
                                   1019 ;	genCall
                                   1020 ;	genSend
      000211 A2s00            [ 2] 1021 	ldx	#>_stdc_load8_bes_aligned16_value_10000_97
      000213 A9r16            [ 2] 1022 	lda	#_stdc_load8_bes_aligned16_value_10000_97
      000215 20r00r00         [ 6] 1023 	jsr	___memcpy
                                   1024 ;	Raw cost for generated ic 9 : (7, 10.000000) count=1.000000
                                   1025 ;	genCast
                                   1026 ;	genCopy
      000218 A9s00            [ 2] 1027 	lda	#>_stdc_load8_bes_aligned16_value_10000_97
      00021A 8Dr01r00         [ 4] 1028 	sta	(_stdc_memreverse8_PARM_2 + 1)
      00021D A9r16            [ 2] 1029 	lda	#_stdc_load8_bes_aligned16_value_10000_97
      00021F 8Dr00r00         [ 4] 1030 	sta	_stdc_memreverse8_PARM_2
                                   1031 ;	Raw cost for generated ic 11 : (10, 12.000000) count=1.000000
                                   1032 ;	Raw cost for generated ic 12 : (0, 0.000000) count=1.000000
                                   1033 ;	genCall
                                   1034 ;	genSend
      000222 A2 00            [ 2] 1035 	ldx	#0x00
      000224 A9 02            [ 2] 1036 	lda	#0x02
      000226 20r00r00         [ 6] 1037 	jsr	_stdc_memreverse8
                                   1038 ;	Raw cost for generated ic 14 : (7, 10.000000) count=1.000000
                                   1039 ;	genRet
      000229 AEr17r00         [ 4] 1040 	ldx	(_stdc_load8_bes_aligned16_value_10000_97 + 1)
      00022C ADr16r00         [ 4] 1041 	lda	_stdc_load8_bes_aligned16_value_10000_97
                                   1042 ;	Raw cost for generated ic 15 : (6, 8.000000) count=1.000000
                                   1043 ;	genLabel
                                   1044 ;	Raw cost for generated ic 16 : (0, 0.000000) count=1.000000
                                   1045 ;	genEndFunction
      00022F 60               [ 6] 1046 	rts
                                   1047 ;	Raw cost for generated ic 17 : (1, 6.000000) count=1.000000
                                   1048 ;------------------------------------------------------------
                                   1049 ;Allocation info for local variables in function 'stdc_load8_leu32'
                                   1050 ;------------------------------------------------------------
                                   1051 ;ptr           Allocated to registers a x 
                                   1052 ;value         Allocated with name '_stdc_load8_leu32_value_10000_99'
                                   1053 ;------------------------------------------------------------
                                   1054 ;	./../../include/stdbit.h: 423: __STDC_LOAD8(32)
                                   1055 ;	genLabel
                                   1056 ;	Raw cost for generated ic 0 : (0, 0.000000) count=1.000000
                                   1057 ;	-----------------------------------------
                                   1058 ;	 function stdc_load8_leu32
                                   1059 ;	-----------------------------------------
                                   1060 ;	Register assignment is optimal.
                                   1061 ;	Stack space usage: 0 bytes.
      000230                       1062 _stdc_load8_leu32:
                                   1063 ;	Raw cost for generated ic 1 : (0, 0.000000) count=1.000000
                                   1064 ;	genReceive
                                   1065 ;	Raw cost for generated ic 2 : (0, 0.000000) count=1.000000
                                   1066 ;	skipping iCode since result will be rematerialized
                                   1067 ;	Raw cost for generated ic 3 : (0, 0.000000) count=1.000000
                                   1068 ;	skipping iCode since result will be rematerialized
                                   1069 ;	Raw cost for generated ic 4 : (0, 0.000000) count=1.000000
                                   1070 ;	genCast
                                   1071 ;	genCopy
      000230 8Dr00r00         [ 4] 1072 	sta	___memcpy_PARM_2
      000233 8Er01r00         [ 4] 1073 	stx	(___memcpy_PARM_2 + 1)
                                   1074 ;	Raw cost for generated ic 5 : (6, 8.000000) count=1.000000
                                   1075 ;	genAssign
                                   1076 ;	genAssignLit
      000236 A2 04            [ 2] 1077 	ldx	#0x04
      000238 8Er00r00         [ 4] 1078 	stx	___memcpy_PARM_3
      00023B 9Cr01r00         [ 4] 1079 	stz	(___memcpy_PARM_3 + 1)
                                   1080 ;	Raw cost for generated ic 8 : (8, 10.000000) count=1.000000
                                   1081 ;	Raw cost for generated ic 6 : (0, 0.000000) count=1.000000
                                   1082 ;	genCall
                                   1083 ;	genSend
      00023E A2s00            [ 2] 1084 	ldx	#>_stdc_load8_leu32_value_10000_99
      000240 A9r18            [ 2] 1085 	lda	#_stdc_load8_leu32_value_10000_99
      000242 20r00r00         [ 6] 1086 	jsr	___memcpy
                                   1087 ;	Raw cost for generated ic 9 : (7, 10.000000) count=1.000000
                                   1088 ;	genRet
      000245 ADr1Br00         [ 4] 1089 	lda	(_stdc_load8_leu32_value_10000_99 + 3)
      000248 85*00            [ 3] 1090 	sta	*___SDCC_m6502_ret3
      00024A ADr1Ar00         [ 4] 1091 	lda	(_stdc_load8_leu32_value_10000_99 + 2)
      00024D 85*00            [ 3] 1092 	sta	*___SDCC_m6502_ret2
      00024F AEr19r00         [ 4] 1093 	ldx	(_stdc_load8_leu32_value_10000_99 + 1)
      000252 ADr18r00         [ 4] 1094 	lda	_stdc_load8_leu32_value_10000_99
                                   1095 ;	Raw cost for generated ic 10 : (16, 22.000000) count=1.000000
                                   1096 ;	genLabel
                                   1097 ;	Raw cost for generated ic 11 : (0, 0.000000) count=1.000000
                                   1098 ;	genEndFunction
      000255 60               [ 6] 1099 	rts
                                   1100 ;	Raw cost for generated ic 12 : (1, 6.000000) count=1.000000
                                   1101 ;------------------------------------------------------------
                                   1102 ;Allocation info for local variables in function 'stdc_load8_beu32'
                                   1103 ;------------------------------------------------------------
                                   1104 ;ptr           Allocated to registers a x 
                                   1105 ;value         Allocated with name '_stdc_load8_beu32_value_10000_101'
                                   1106 ;------------------------------------------------------------
                                   1107 ;	./../../include/stdbit.h: 423: __STDC_LOAD8(64)
                                   1108 ;	genLabel
                                   1109 ;	Raw cost for generated ic 0 : (0, 0.000000) count=1.000000
                                   1110 ;	-----------------------------------------
                                   1111 ;	 function stdc_load8_beu32
                                   1112 ;	-----------------------------------------
                                   1113 ;	Register assignment is optimal.
                                   1114 ;	Stack space usage: 0 bytes.
      000256                       1115 _stdc_load8_beu32:
                                   1116 ;	Raw cost for generated ic 1 : (0, 0.000000) count=1.000000
                                   1117 ;	genReceive
                                   1118 ;	Raw cost for generated ic 2 : (0, 0.000000) count=1.000000
                                   1119 ;	skipping iCode since result will be rematerialized
                                   1120 ;	Raw cost for generated ic 3 : (0, 0.000000) count=1.000000
                                   1121 ;	skipping iCode since result will be rematerialized
                                   1122 ;	Raw cost for generated ic 4 : (0, 0.000000) count=1.000000
                                   1123 ;	genCast
                                   1124 ;	genCopy
      000256 8Dr00r00         [ 4] 1125 	sta	___memcpy_PARM_2
      000259 8Er01r00         [ 4] 1126 	stx	(___memcpy_PARM_2 + 1)
                                   1127 ;	Raw cost for generated ic 5 : (6, 8.000000) count=1.000000
                                   1128 ;	genAssign
                                   1129 ;	genAssignLit
      00025C A2 04            [ 2] 1130 	ldx	#0x04
      00025E 8Er00r00         [ 4] 1131 	stx	___memcpy_PARM_3
      000261 9Cr01r00         [ 4] 1132 	stz	(___memcpy_PARM_3 + 1)
                                   1133 ;	Raw cost for generated ic 8 : (8, 10.000000) count=1.000000
                                   1134 ;	Raw cost for generated ic 6 : (0, 0.000000) count=1.000000
                                   1135 ;	genCall
                                   1136 ;	genSend
      000264 A2s00            [ 2] 1137 	ldx	#>_stdc_load8_beu32_value_10000_101
      000266 A9r1C            [ 2] 1138 	lda	#_stdc_load8_beu32_value_10000_101
      000268 20r00r00         [ 6] 1139 	jsr	___memcpy
                                   1140 ;	Raw cost for generated ic 9 : (7, 10.000000) count=1.000000
                                   1141 ;	genCast
                                   1142 ;	genCopy
      00026B A9s00            [ 2] 1143 	lda	#>_stdc_load8_beu32_value_10000_101
      00026D 8Dr01r00         [ 4] 1144 	sta	(_stdc_memreverse8_PARM_2 + 1)
      000270 A9r1C            [ 2] 1145 	lda	#_stdc_load8_beu32_value_10000_101
      000272 8Dr00r00         [ 4] 1146 	sta	_stdc_memreverse8_PARM_2
                                   1147 ;	Raw cost for generated ic 11 : (10, 12.000000) count=1.000000
                                   1148 ;	Raw cost for generated ic 12 : (0, 0.000000) count=1.000000
                                   1149 ;	genCall
                                   1150 ;	genSend
      000275 A2 00            [ 2] 1151 	ldx	#0x00
      000277 A9 04            [ 2] 1152 	lda	#0x04
      000279 20r00r00         [ 6] 1153 	jsr	_stdc_memreverse8
                                   1154 ;	Raw cost for generated ic 14 : (7, 10.000000) count=1.000000
                                   1155 ;	genRet
      00027C ADr1Fr00         [ 4] 1156 	lda	(_stdc_load8_beu32_value_10000_101 + 3)
      00027F 85*00            [ 3] 1157 	sta	*___SDCC_m6502_ret3
      000281 ADr1Er00         [ 4] 1158 	lda	(_stdc_load8_beu32_value_10000_101 + 2)
      000284 85*00            [ 3] 1159 	sta	*___SDCC_m6502_ret2
      000286 AEr1Dr00         [ 4] 1160 	ldx	(_stdc_load8_beu32_value_10000_101 + 1)
      000289 ADr1Cr00         [ 4] 1161 	lda	_stdc_load8_beu32_value_10000_101
                                   1162 ;	Raw cost for generated ic 15 : (16, 22.000000) count=1.000000
                                   1163 ;	genLabel
                                   1164 ;	Raw cost for generated ic 16 : (0, 0.000000) count=1.000000
                                   1165 ;	genEndFunction
      00028C 60               [ 6] 1166 	rts
                                   1167 ;	Raw cost for generated ic 17 : (1, 6.000000) count=1.000000
                                   1168 ;------------------------------------------------------------
                                   1169 ;Allocation info for local variables in function 'stdc_load8_leu_aligned32'
                                   1170 ;------------------------------------------------------------
                                   1171 ;ptr           Allocated to registers a x 
                                   1172 ;value         Allocated with name '_stdc_load8_leu_aligned32_value_10000_103'
                                   1173 ;------------------------------------------------------------
                                   1174 ;	./../../include/stdbit.h: 423: __STDC_LOAD8(32)
                                   1175 ;	genLabel
                                   1176 ;	Raw cost for generated ic 0 : (0, 0.000000) count=1.000000
                                   1177 ;	-----------------------------------------
                                   1178 ;	 function stdc_load8_leu_aligned32
                                   1179 ;	-----------------------------------------
                                   1180 ;	Register assignment is optimal.
                                   1181 ;	Stack space usage: 0 bytes.
      00028D                       1182 _stdc_load8_leu_aligned32:
                                   1183 ;	Raw cost for generated ic 1 : (0, 0.000000) count=1.000000
                                   1184 ;	genReceive
                                   1185 ;	Raw cost for generated ic 2 : (0, 0.000000) count=1.000000
                                   1186 ;	skipping iCode since result will be rematerialized
                                   1187 ;	Raw cost for generated ic 3 : (0, 0.000000) count=1.000000
                                   1188 ;	skipping iCode since result will be rematerialized
                                   1189 ;	Raw cost for generated ic 4 : (0, 0.000000) count=1.000000
                                   1190 ;	genCast
                                   1191 ;	genCopy
      00028D 8Dr00r00         [ 4] 1192 	sta	___memcpy_PARM_2
      000290 8Er01r00         [ 4] 1193 	stx	(___memcpy_PARM_2 + 1)
                                   1194 ;	Raw cost for generated ic 5 : (6, 8.000000) count=1.000000
                                   1195 ;	genAssign
                                   1196 ;	genAssignLit
      000293 A2 04            [ 2] 1197 	ldx	#0x04
      000295 8Er00r00         [ 4] 1198 	stx	___memcpy_PARM_3
      000298 9Cr01r00         [ 4] 1199 	stz	(___memcpy_PARM_3 + 1)
                                   1200 ;	Raw cost for generated ic 8 : (8, 10.000000) count=1.000000
                                   1201 ;	Raw cost for generated ic 6 : (0, 0.000000) count=1.000000
                                   1202 ;	genCall
                                   1203 ;	genSend
      00029B A2s00            [ 2] 1204 	ldx	#>_stdc_load8_leu_aligned32_value_10000_103
      00029D A9r20            [ 2] 1205 	lda	#_stdc_load8_leu_aligned32_value_10000_103
      00029F 20r00r00         [ 6] 1206 	jsr	___memcpy
                                   1207 ;	Raw cost for generated ic 9 : (7, 10.000000) count=1.000000
                                   1208 ;	genRet
      0002A2 ADr23r00         [ 4] 1209 	lda	(_stdc_load8_leu_aligned32_value_10000_103 + 3)
      0002A5 85*00            [ 3] 1210 	sta	*___SDCC_m6502_ret3
      0002A7 ADr22r00         [ 4] 1211 	lda	(_stdc_load8_leu_aligned32_value_10000_103 + 2)
      0002AA 85*00            [ 3] 1212 	sta	*___SDCC_m6502_ret2
      0002AC AEr21r00         [ 4] 1213 	ldx	(_stdc_load8_leu_aligned32_value_10000_103 + 1)
      0002AF ADr20r00         [ 4] 1214 	lda	_stdc_load8_leu_aligned32_value_10000_103
                                   1215 ;	Raw cost for generated ic 10 : (16, 22.000000) count=1.000000
                                   1216 ;	genLabel
                                   1217 ;	Raw cost for generated ic 11 : (0, 0.000000) count=1.000000
                                   1218 ;	genEndFunction
      0002B2 60               [ 6] 1219 	rts
                                   1220 ;	Raw cost for generated ic 12 : (1, 6.000000) count=1.000000
                                   1221 ;------------------------------------------------------------
                                   1222 ;Allocation info for local variables in function 'stdc_load8_beu_aligned32'
                                   1223 ;------------------------------------------------------------
                                   1224 ;ptr           Allocated to registers a x 
                                   1225 ;value         Allocated with name '_stdc_load8_beu_aligned32_value_10000_105'
                                   1226 ;------------------------------------------------------------
                                   1227 ;	./../../include/stdbit.h: 423: __STDC_LOAD8(64)
                                   1228 ;	genLabel
                                   1229 ;	Raw cost for generated ic 0 : (0, 0.000000) count=1.000000
                                   1230 ;	-----------------------------------------
                                   1231 ;	 function stdc_load8_beu_aligned32
                                   1232 ;	-----------------------------------------
                                   1233 ;	Register assignment is optimal.
                                   1234 ;	Stack space usage: 0 bytes.
      0002B3                       1235 _stdc_load8_beu_aligned32:
                                   1236 ;	Raw cost for generated ic 1 : (0, 0.000000) count=1.000000
                                   1237 ;	genReceive
                                   1238 ;	Raw cost for generated ic 2 : (0, 0.000000) count=1.000000
                                   1239 ;	skipping iCode since result will be rematerialized
                                   1240 ;	Raw cost for generated ic 3 : (0, 0.000000) count=1.000000
                                   1241 ;	skipping iCode since result will be rematerialized
                                   1242 ;	Raw cost for generated ic 4 : (0, 0.000000) count=1.000000
                                   1243 ;	genCast
                                   1244 ;	genCopy
      0002B3 8Dr00r00         [ 4] 1245 	sta	___memcpy_PARM_2
      0002B6 8Er01r00         [ 4] 1246 	stx	(___memcpy_PARM_2 + 1)
                                   1247 ;	Raw cost for generated ic 5 : (6, 8.000000) count=1.000000
                                   1248 ;	genAssign
                                   1249 ;	genAssignLit
      0002B9 A2 04            [ 2] 1250 	ldx	#0x04
      0002BB 8Er00r00         [ 4] 1251 	stx	___memcpy_PARM_3
      0002BE 9Cr01r00         [ 4] 1252 	stz	(___memcpy_PARM_3 + 1)
                                   1253 ;	Raw cost for generated ic 8 : (8, 10.000000) count=1.000000
                                   1254 ;	Raw cost for generated ic 6 : (0, 0.000000) count=1.000000
                                   1255 ;	genCall
                                   1256 ;	genSend
      0002C1 A2s00            [ 2] 1257 	ldx	#>_stdc_load8_beu_aligned32_value_10000_105
      0002C3 A9r24            [ 2] 1258 	lda	#_stdc_load8_beu_aligned32_value_10000_105
      0002C5 20r00r00         [ 6] 1259 	jsr	___memcpy
                                   1260 ;	Raw cost for generated ic 9 : (7, 10.000000) count=1.000000
                                   1261 ;	genCast
                                   1262 ;	genCopy
      0002C8 A9s00            [ 2] 1263 	lda	#>_stdc_load8_beu_aligned32_value_10000_105
      0002CA 8Dr01r00         [ 4] 1264 	sta	(_stdc_memreverse8_PARM_2 + 1)
      0002CD A9r24            [ 2] 1265 	lda	#_stdc_load8_beu_aligned32_value_10000_105
      0002CF 8Dr00r00         [ 4] 1266 	sta	_stdc_memreverse8_PARM_2
                                   1267 ;	Raw cost for generated ic 11 : (10, 12.000000) count=1.000000
                                   1268 ;	Raw cost for generated ic 12 : (0, 0.000000) count=1.000000
                                   1269 ;	genCall
                                   1270 ;	genSend
      0002D2 A2 00            [ 2] 1271 	ldx	#0x00
      0002D4 A9 04            [ 2] 1272 	lda	#0x04
      0002D6 20r00r00         [ 6] 1273 	jsr	_stdc_memreverse8
                                   1274 ;	Raw cost for generated ic 14 : (7, 10.000000) count=1.000000
                                   1275 ;	genRet
      0002D9 ADr27r00         [ 4] 1276 	lda	(_stdc_load8_beu_aligned32_value_10000_105 + 3)
      0002DC 85*00            [ 3] 1277 	sta	*___SDCC_m6502_ret3
      0002DE ADr26r00         [ 4] 1278 	lda	(_stdc_load8_beu_aligned32_value_10000_105 + 2)
      0002E1 85*00            [ 3] 1279 	sta	*___SDCC_m6502_ret2
      0002E3 AEr25r00         [ 4] 1280 	ldx	(_stdc_load8_beu_aligned32_value_10000_105 + 1)
      0002E6 ADr24r00         [ 4] 1281 	lda	_stdc_load8_beu_aligned32_value_10000_105
                                   1282 ;	Raw cost for generated ic 15 : (16, 22.000000) count=1.000000
                                   1283 ;	genLabel
                                   1284 ;	Raw cost for generated ic 16 : (0, 0.000000) count=1.000000
                                   1285 ;	genEndFunction
      0002E9 60               [ 6] 1286 	rts
                                   1287 ;	Raw cost for generated ic 17 : (1, 6.000000) count=1.000000
                                   1288 ;------------------------------------------------------------
                                   1289 ;Allocation info for local variables in function 'stdc_load8_les32'
                                   1290 ;------------------------------------------------------------
                                   1291 ;ptr           Allocated to registers a x 
                                   1292 ;value         Allocated with name '_stdc_load8_les32_value_10000_107'
                                   1293 ;------------------------------------------------------------
                                   1294 ;	./../../include/stdbit.h: 423: __STDC_LOAD8(32)
                                   1295 ;	genLabel
                                   1296 ;	Raw cost for generated ic 0 : (0, 0.000000) count=1.000000
                                   1297 ;	-----------------------------------------
                                   1298 ;	 function stdc_load8_les32
                                   1299 ;	-----------------------------------------
                                   1300 ;	Register assignment is optimal.
                                   1301 ;	Stack space usage: 0 bytes.
      0002EA                       1302 _stdc_load8_les32:
                                   1303 ;	Raw cost for generated ic 1 : (0, 0.000000) count=1.000000
                                   1304 ;	genReceive
                                   1305 ;	Raw cost for generated ic 2 : (0, 0.000000) count=1.000000
                                   1306 ;	skipping iCode since result will be rematerialized
                                   1307 ;	Raw cost for generated ic 3 : (0, 0.000000) count=1.000000
                                   1308 ;	skipping iCode since result will be rematerialized
                                   1309 ;	Raw cost for generated ic 4 : (0, 0.000000) count=1.000000
                                   1310 ;	genCast
                                   1311 ;	genCopy
      0002EA 8Dr00r00         [ 4] 1312 	sta	___memcpy_PARM_2
      0002ED 8Er01r00         [ 4] 1313 	stx	(___memcpy_PARM_2 + 1)
                                   1314 ;	Raw cost for generated ic 5 : (6, 8.000000) count=1.000000
                                   1315 ;	genAssign
                                   1316 ;	genAssignLit
      0002F0 A2 04            [ 2] 1317 	ldx	#0x04
      0002F2 8Er00r00         [ 4] 1318 	stx	___memcpy_PARM_3
      0002F5 9Cr01r00         [ 4] 1319 	stz	(___memcpy_PARM_3 + 1)
                                   1320 ;	Raw cost for generated ic 8 : (8, 10.000000) count=1.000000
                                   1321 ;	Raw cost for generated ic 6 : (0, 0.000000) count=1.000000
                                   1322 ;	genCall
                                   1323 ;	genSend
      0002F8 A2s00            [ 2] 1324 	ldx	#>_stdc_load8_les32_value_10000_107
      0002FA A9r28            [ 2] 1325 	lda	#_stdc_load8_les32_value_10000_107
      0002FC 20r00r00         [ 6] 1326 	jsr	___memcpy
                                   1327 ;	Raw cost for generated ic 9 : (7, 10.000000) count=1.000000
                                   1328 ;	genRet
      0002FF ADr2Br00         [ 4] 1329 	lda	(_stdc_load8_les32_value_10000_107 + 3)
      000302 85*00            [ 3] 1330 	sta	*___SDCC_m6502_ret3
      000304 ADr2Ar00         [ 4] 1331 	lda	(_stdc_load8_les32_value_10000_107 + 2)
      000307 85*00            [ 3] 1332 	sta	*___SDCC_m6502_ret2
      000309 AEr29r00         [ 4] 1333 	ldx	(_stdc_load8_les32_value_10000_107 + 1)
      00030C ADr28r00         [ 4] 1334 	lda	_stdc_load8_les32_value_10000_107
                                   1335 ;	Raw cost for generated ic 10 : (16, 22.000000) count=1.000000
                                   1336 ;	genLabel
                                   1337 ;	Raw cost for generated ic 11 : (0, 0.000000) count=1.000000
                                   1338 ;	genEndFunction
      00030F 60               [ 6] 1339 	rts
                                   1340 ;	Raw cost for generated ic 12 : (1, 6.000000) count=1.000000
                                   1341 ;------------------------------------------------------------
                                   1342 ;Allocation info for local variables in function 'stdc_load8_bes32'
                                   1343 ;------------------------------------------------------------
                                   1344 ;ptr           Allocated to registers a x 
                                   1345 ;value         Allocated with name '_stdc_load8_bes32_value_10000_109'
                                   1346 ;------------------------------------------------------------
                                   1347 ;	./../../include/stdbit.h: 423: __STDC_LOAD8(64)
                                   1348 ;	genLabel
                                   1349 ;	Raw cost for generated ic 0 : (0, 0.000000) count=1.000000
                                   1350 ;	-----------------------------------------
                                   1351 ;	 function stdc_load8_bes32
                                   1352 ;	-----------------------------------------
                                   1353 ;	Register assignment is optimal.
                                   1354 ;	Stack space usage: 0 bytes.
      000310                       1355 _stdc_load8_bes32:
                                   1356 ;	Raw cost for generated ic 1 : (0, 0.000000) count=1.000000
                                   1357 ;	genReceive
                                   1358 ;	Raw cost for generated ic 2 : (0, 0.000000) count=1.000000
                                   1359 ;	skipping iCode since result will be rematerialized
                                   1360 ;	Raw cost for generated ic 3 : (0, 0.000000) count=1.000000
                                   1361 ;	skipping iCode since result will be rematerialized
                                   1362 ;	Raw cost for generated ic 4 : (0, 0.000000) count=1.000000
                                   1363 ;	genCast
                                   1364 ;	genCopy
      000310 8Dr00r00         [ 4] 1365 	sta	___memcpy_PARM_2
      000313 8Er01r00         [ 4] 1366 	stx	(___memcpy_PARM_2 + 1)
                                   1367 ;	Raw cost for generated ic 5 : (6, 8.000000) count=1.000000
                                   1368 ;	genAssign
                                   1369 ;	genAssignLit
      000316 A2 04            [ 2] 1370 	ldx	#0x04
      000318 8Er00r00         [ 4] 1371 	stx	___memcpy_PARM_3
      00031B 9Cr01r00         [ 4] 1372 	stz	(___memcpy_PARM_3 + 1)
                                   1373 ;	Raw cost for generated ic 8 : (8, 10.000000) count=1.000000
                                   1374 ;	Raw cost for generated ic 6 : (0, 0.000000) count=1.000000
                                   1375 ;	genCall
                                   1376 ;	genSend
      00031E A2s00            [ 2] 1377 	ldx	#>_stdc_load8_bes32_value_10000_109
      000320 A9r2C            [ 2] 1378 	lda	#_stdc_load8_bes32_value_10000_109
      000322 20r00r00         [ 6] 1379 	jsr	___memcpy
                                   1380 ;	Raw cost for generated ic 9 : (7, 10.000000) count=1.000000
                                   1381 ;	genCast
                                   1382 ;	genCopy
      000325 A9s00            [ 2] 1383 	lda	#>_stdc_load8_bes32_value_10000_109
      000327 8Dr01r00         [ 4] 1384 	sta	(_stdc_memreverse8_PARM_2 + 1)
      00032A A9r2C            [ 2] 1385 	lda	#_stdc_load8_bes32_value_10000_109
      00032C 8Dr00r00         [ 4] 1386 	sta	_stdc_memreverse8_PARM_2
                                   1387 ;	Raw cost for generated ic 11 : (10, 12.000000) count=1.000000
                                   1388 ;	Raw cost for generated ic 12 : (0, 0.000000) count=1.000000
                                   1389 ;	genCall
                                   1390 ;	genSend
      00032F A2 00            [ 2] 1391 	ldx	#0x00
      000331 A9 04            [ 2] 1392 	lda	#0x04
      000333 20r00r00         [ 6] 1393 	jsr	_stdc_memreverse8
                                   1394 ;	Raw cost for generated ic 14 : (7, 10.000000) count=1.000000
                                   1395 ;	genRet
      000336 ADr2Fr00         [ 4] 1396 	lda	(_stdc_load8_bes32_value_10000_109 + 3)
      000339 85*00            [ 3] 1397 	sta	*___SDCC_m6502_ret3
      00033B ADr2Er00         [ 4] 1398 	lda	(_stdc_load8_bes32_value_10000_109 + 2)
      00033E 85*00            [ 3] 1399 	sta	*___SDCC_m6502_ret2
      000340 AEr2Dr00         [ 4] 1400 	ldx	(_stdc_load8_bes32_value_10000_109 + 1)
      000343 ADr2Cr00         [ 4] 1401 	lda	_stdc_load8_bes32_value_10000_109
                                   1402 ;	Raw cost for generated ic 15 : (16, 22.000000) count=1.000000
                                   1403 ;	genLabel
                                   1404 ;	Raw cost for generated ic 16 : (0, 0.000000) count=1.000000
                                   1405 ;	genEndFunction
      000346 60               [ 6] 1406 	rts
                                   1407 ;	Raw cost for generated ic 17 : (1, 6.000000) count=1.000000
                                   1408 ;------------------------------------------------------------
                                   1409 ;Allocation info for local variables in function 'stdc_load8_les_aligned32'
                                   1410 ;------------------------------------------------------------
                                   1411 ;ptr           Allocated to registers a x 
                                   1412 ;value         Allocated with name '_stdc_load8_les_aligned32_value_10000_111'
                                   1413 ;------------------------------------------------------------
                                   1414 ;	./../../include/stdbit.h: 423: __STDC_LOAD8(32)
                                   1415 ;	genLabel
                                   1416 ;	Raw cost for generated ic 0 : (0, 0.000000) count=1.000000
                                   1417 ;	-----------------------------------------
                                   1418 ;	 function stdc_load8_les_aligned32
                                   1419 ;	-----------------------------------------
                                   1420 ;	Register assignment is optimal.
                                   1421 ;	Stack space usage: 0 bytes.
      000347                       1422 _stdc_load8_les_aligned32:
                                   1423 ;	Raw cost for generated ic 1 : (0, 0.000000) count=1.000000
                                   1424 ;	genReceive
                                   1425 ;	Raw cost for generated ic 2 : (0, 0.000000) count=1.000000
                                   1426 ;	skipping iCode since result will be rematerialized
                                   1427 ;	Raw cost for generated ic 3 : (0, 0.000000) count=1.000000
                                   1428 ;	skipping iCode since result will be rematerialized
                                   1429 ;	Raw cost for generated ic 4 : (0, 0.000000) count=1.000000
                                   1430 ;	genCast
                                   1431 ;	genCopy
      000347 8Dr00r00         [ 4] 1432 	sta	___memcpy_PARM_2
      00034A 8Er01r00         [ 4] 1433 	stx	(___memcpy_PARM_2 + 1)
                                   1434 ;	Raw cost for generated ic 5 : (6, 8.000000) count=1.000000
                                   1435 ;	genAssign
                                   1436 ;	genAssignLit
      00034D A2 04            [ 2] 1437 	ldx	#0x04
      00034F 8Er00r00         [ 4] 1438 	stx	___memcpy_PARM_3
      000352 9Cr01r00         [ 4] 1439 	stz	(___memcpy_PARM_3 + 1)
                                   1440 ;	Raw cost for generated ic 8 : (8, 10.000000) count=1.000000
                                   1441 ;	Raw cost for generated ic 6 : (0, 0.000000) count=1.000000
                                   1442 ;	genCall
                                   1443 ;	genSend
      000355 A2s00            [ 2] 1444 	ldx	#>_stdc_load8_les_aligned32_value_10000_111
      000357 A9r30            [ 2] 1445 	lda	#_stdc_load8_les_aligned32_value_10000_111
      000359 20r00r00         [ 6] 1446 	jsr	___memcpy
                                   1447 ;	Raw cost for generated ic 9 : (7, 10.000000) count=1.000000
                                   1448 ;	genRet
      00035C ADr33r00         [ 4] 1449 	lda	(_stdc_load8_les_aligned32_value_10000_111 + 3)
      00035F 85*00            [ 3] 1450 	sta	*___SDCC_m6502_ret3
      000361 ADr32r00         [ 4] 1451 	lda	(_stdc_load8_les_aligned32_value_10000_111 + 2)
      000364 85*00            [ 3] 1452 	sta	*___SDCC_m6502_ret2
      000366 AEr31r00         [ 4] 1453 	ldx	(_stdc_load8_les_aligned32_value_10000_111 + 1)
      000369 ADr30r00         [ 4] 1454 	lda	_stdc_load8_les_aligned32_value_10000_111
                                   1455 ;	Raw cost for generated ic 10 : (16, 22.000000) count=1.000000
                                   1456 ;	genLabel
                                   1457 ;	Raw cost for generated ic 11 : (0, 0.000000) count=1.000000
                                   1458 ;	genEndFunction
      00036C 60               [ 6] 1459 	rts
                                   1460 ;	Raw cost for generated ic 12 : (1, 6.000000) count=1.000000
                                   1461 ;------------------------------------------------------------
                                   1462 ;Allocation info for local variables in function 'stdc_load8_bes_aligned32'
                                   1463 ;------------------------------------------------------------
                                   1464 ;ptr           Allocated to registers a x 
                                   1465 ;value         Allocated with name '_stdc_load8_bes_aligned32_value_10000_113'
                                   1466 ;------------------------------------------------------------
                                   1467 ;	./../../include/stdbit.h: 423: __STDC_LOAD8(64)
                                   1468 ;	genLabel
                                   1469 ;	Raw cost for generated ic 0 : (0, 0.000000) count=1.000000
                                   1470 ;	-----------------------------------------
                                   1471 ;	 function stdc_load8_bes_aligned32
                                   1472 ;	-----------------------------------------
                                   1473 ;	Register assignment is optimal.
                                   1474 ;	Stack space usage: 0 bytes.
      00036D                       1475 _stdc_load8_bes_aligned32:
                                   1476 ;	Raw cost for generated ic 1 : (0, 0.000000) count=1.000000
                                   1477 ;	genReceive
                                   1478 ;	Raw cost for generated ic 2 : (0, 0.000000) count=1.000000
                                   1479 ;	skipping iCode since result will be rematerialized
                                   1480 ;	Raw cost for generated ic 3 : (0, 0.000000) count=1.000000
                                   1481 ;	skipping iCode since result will be rematerialized
                                   1482 ;	Raw cost for generated ic 4 : (0, 0.000000) count=1.000000
                                   1483 ;	genCast
                                   1484 ;	genCopy
      00036D 8Dr00r00         [ 4] 1485 	sta	___memcpy_PARM_2
      000370 8Er01r00         [ 4] 1486 	stx	(___memcpy_PARM_2 + 1)
                                   1487 ;	Raw cost for generated ic 5 : (6, 8.000000) count=1.000000
                                   1488 ;	genAssign
                                   1489 ;	genAssignLit
      000373 A2 04            [ 2] 1490 	ldx	#0x04
      000375 8Er00r00         [ 4] 1491 	stx	___memcpy_PARM_3
      000378 9Cr01r00         [ 4] 1492 	stz	(___memcpy_PARM_3 + 1)
                                   1493 ;	Raw cost for generated ic 8 : (8, 10.000000) count=1.000000
                                   1494 ;	Raw cost for generated ic 6 : (0, 0.000000) count=1.000000
                                   1495 ;	genCall
                                   1496 ;	genSend
      00037B A2s00            [ 2] 1497 	ldx	#>_stdc_load8_bes_aligned32_value_10000_113
      00037D A9r34            [ 2] 1498 	lda	#_stdc_load8_bes_aligned32_value_10000_113
      00037F 20r00r00         [ 6] 1499 	jsr	___memcpy
                                   1500 ;	Raw cost for generated ic 9 : (7, 10.000000) count=1.000000
                                   1501 ;	genCast
                                   1502 ;	genCopy
      000382 A9s00            [ 2] 1503 	lda	#>_stdc_load8_bes_aligned32_value_10000_113
      000384 8Dr01r00         [ 4] 1504 	sta	(_stdc_memreverse8_PARM_2 + 1)
      000387 A9r34            [ 2] 1505 	lda	#_stdc_load8_bes_aligned32_value_10000_113
      000389 8Dr00r00         [ 4] 1506 	sta	_stdc_memreverse8_PARM_2
                                   1507 ;	Raw cost for generated ic 11 : (10, 12.000000) count=1.000000
                                   1508 ;	Raw cost for generated ic 12 : (0, 0.000000) count=1.000000
                                   1509 ;	genCall
                                   1510 ;	genSend
      00038C A2 00            [ 2] 1511 	ldx	#0x00
      00038E A9 04            [ 2] 1512 	lda	#0x04
      000390 20r00r00         [ 6] 1513 	jsr	_stdc_memreverse8
                                   1514 ;	Raw cost for generated ic 14 : (7, 10.000000) count=1.000000
                                   1515 ;	genRet
      000393 ADr37r00         [ 4] 1516 	lda	(_stdc_load8_bes_aligned32_value_10000_113 + 3)
      000396 85*00            [ 3] 1517 	sta	*___SDCC_m6502_ret3
      000398 ADr36r00         [ 4] 1518 	lda	(_stdc_load8_bes_aligned32_value_10000_113 + 2)
      00039B 85*00            [ 3] 1519 	sta	*___SDCC_m6502_ret2
      00039D AEr35r00         [ 4] 1520 	ldx	(_stdc_load8_bes_aligned32_value_10000_113 + 1)
      0003A0 ADr34r00         [ 4] 1521 	lda	_stdc_load8_bes_aligned32_value_10000_113
                                   1522 ;	Raw cost for generated ic 15 : (16, 22.000000) count=1.000000
                                   1523 ;	genLabel
                                   1524 ;	Raw cost for generated ic 16 : (0, 0.000000) count=1.000000
                                   1525 ;	genEndFunction
      0003A3 60               [ 6] 1526 	rts
                                   1527 ;	Raw cost for generated ic 17 : (1, 6.000000) count=1.000000
                                   1528 ;------------------------------------------------------------
                                   1529 ;Allocation info for local variables in function 'stdc_load8_leu64'
                                   1530 ;------------------------------------------------------------
                                   1531 ;ptr           Allocated to registers a x 
                                   1532 ;value         Allocated with name '_stdc_load8_leu64_value_10000_115'
                                   1533 ;------------------------------------------------------------
                                   1534 ;	./../../include/stdbit.h: 424: 
                                   1535 ;	genLabel
                                   1536 ;	Raw cost for generated ic 0 : (0, 0.000000) count=1.000000
                                   1537 ;	-----------------------------------------
                                   1538 ;	 function stdc_load8_leu64
                                   1539 ;	-----------------------------------------
                                   1540 ;	Register assignment is optimal.
                                   1541 ;	Stack space usage: 0 bytes.
      0003A4                       1542 _stdc_load8_leu64:
                                   1543 ;	Raw cost for generated ic 1 : (0, 0.000000) count=1.000000
                                   1544 ;	genReceive
                                   1545 ;	Raw cost for generated ic 2 : (0, 0.000000) count=1.000000
                                   1546 ;	skipping iCode since result will be rematerialized
                                   1547 ;	Raw cost for generated ic 3 : (0, 0.000000) count=1.000000
                                   1548 ;	skipping iCode since result will be rematerialized
                                   1549 ;	Raw cost for generated ic 4 : (0, 0.000000) count=1.000000
                                   1550 ;	genCast
                                   1551 ;	genCopy
      0003A4 8Dr00r00         [ 4] 1552 	sta	___memcpy_PARM_2
      0003A7 8Er01r00         [ 4] 1553 	stx	(___memcpy_PARM_2 + 1)
                                   1554 ;	Raw cost for generated ic 5 : (6, 8.000000) count=1.000000
                                   1555 ;	genAssign
                                   1556 ;	genAssignLit
      0003AA A2 08            [ 2] 1557 	ldx	#0x08
      0003AC 8Er00r00         [ 4] 1558 	stx	___memcpy_PARM_3
      0003AF 9Cr01r00         [ 4] 1559 	stz	(___memcpy_PARM_3 + 1)
                                   1560 ;	Raw cost for generated ic 8 : (8, 10.000000) count=1.000000
                                   1561 ;	Raw cost for generated ic 6 : (0, 0.000000) count=1.000000
                                   1562 ;	genCall
                                   1563 ;	genSend
      0003B2 A2s00            [ 2] 1564 	ldx	#>_stdc_load8_leu64_value_10000_115
      0003B4 A9r38            [ 2] 1565 	lda	#_stdc_load8_leu64_value_10000_115
      0003B6 20r00r00         [ 6] 1566 	jsr	___memcpy
                                   1567 ;	Raw cost for generated ic 9 : (7, 10.000000) count=1.000000
                                   1568 ;	genRet
      0003B9 ADr3Fr00         [ 4] 1569 	lda	(_stdc_load8_leu64_value_10000_115 + 7)
      0003BC 85*00            [ 3] 1570 	sta	*___SDCC_m6502_ret7
      0003BE ADr3Er00         [ 4] 1571 	lda	(_stdc_load8_leu64_value_10000_115 + 6)
      0003C1 85*00            [ 3] 1572 	sta	*___SDCC_m6502_ret6
      0003C3 ADr3Dr00         [ 4] 1573 	lda	(_stdc_load8_leu64_value_10000_115 + 5)
      0003C6 85*00            [ 3] 1574 	sta	*___SDCC_m6502_ret5
      0003C8 ADr3Cr00         [ 4] 1575 	lda	(_stdc_load8_leu64_value_10000_115 + 4)
      0003CB 85*00            [ 3] 1576 	sta	*___SDCC_m6502_ret4
      0003CD ADr3Br00         [ 4] 1577 	lda	(_stdc_load8_leu64_value_10000_115 + 3)
      0003D0 85*00            [ 3] 1578 	sta	*___SDCC_m6502_ret3
      0003D2 ADr3Ar00         [ 4] 1579 	lda	(_stdc_load8_leu64_value_10000_115 + 2)
      0003D5 85*00            [ 3] 1580 	sta	*___SDCC_m6502_ret2
      0003D7 AEr39r00         [ 4] 1581 	ldx	(_stdc_load8_leu64_value_10000_115 + 1)
      0003DA ADr38r00         [ 4] 1582 	lda	_stdc_load8_leu64_value_10000_115
                                   1583 ;	Raw cost for generated ic 10 : (36, 50.000000) count=1.000000
                                   1584 ;	genLabel
                                   1585 ;	Raw cost for generated ic 11 : (0, 0.000000) count=1.000000
                                   1586 ;	genEndFunction
      0003DD 60               [ 6] 1587 	rts
                                   1588 ;	Raw cost for generated ic 12 : (1, 6.000000) count=1.000000
                                   1589 ;------------------------------------------------------------
                                   1590 ;Allocation info for local variables in function 'stdc_load8_beu64'
                                   1591 ;------------------------------------------------------------
                                   1592 ;ptr           Allocated to registers a x 
                                   1593 ;value         Allocated with name '_stdc_load8_beu64_value_10000_117'
                                   1594 ;------------------------------------------------------------
                                   1595 ;	./../../include/stdbit.h: 424: __STDC_LOAD8(64)
                                   1596 ;	genLabel
                                   1597 ;	Raw cost for generated ic 0 : (0, 0.000000) count=1.000000
                                   1598 ;	-----------------------------------------
                                   1599 ;	 function stdc_load8_beu64
                                   1600 ;	-----------------------------------------
                                   1601 ;	Register assignment is optimal.
                                   1602 ;	Stack space usage: 0 bytes.
      0003DE                       1603 _stdc_load8_beu64:
                                   1604 ;	Raw cost for generated ic 1 : (0, 0.000000) count=1.000000
                                   1605 ;	genReceive
                                   1606 ;	Raw cost for generated ic 2 : (0, 0.000000) count=1.000000
                                   1607 ;	skipping iCode since result will be rematerialized
                                   1608 ;	Raw cost for generated ic 3 : (0, 0.000000) count=1.000000
                                   1609 ;	skipping iCode since result will be rematerialized
                                   1610 ;	Raw cost for generated ic 4 : (0, 0.000000) count=1.000000
                                   1611 ;	genCast
                                   1612 ;	genCopy
      0003DE 8Dr00r00         [ 4] 1613 	sta	___memcpy_PARM_2
      0003E1 8Er01r00         [ 4] 1614 	stx	(___memcpy_PARM_2 + 1)
                                   1615 ;	Raw cost for generated ic 5 : (6, 8.000000) count=1.000000
                                   1616 ;	genAssign
                                   1617 ;	genAssignLit
      0003E4 A2 08            [ 2] 1618 	ldx	#0x08
      0003E6 8Er00r00         [ 4] 1619 	stx	___memcpy_PARM_3
      0003E9 9Cr01r00         [ 4] 1620 	stz	(___memcpy_PARM_3 + 1)
                                   1621 ;	Raw cost for generated ic 8 : (8, 10.000000) count=1.000000
                                   1622 ;	Raw cost for generated ic 6 : (0, 0.000000) count=1.000000
                                   1623 ;	genCall
                                   1624 ;	genSend
      0003EC A2s00            [ 2] 1625 	ldx	#>_stdc_load8_beu64_value_10000_117
      0003EE A9r40            [ 2] 1626 	lda	#_stdc_load8_beu64_value_10000_117
      0003F0 20r00r00         [ 6] 1627 	jsr	___memcpy
                                   1628 ;	Raw cost for generated ic 9 : (7, 10.000000) count=1.000000
                                   1629 ;	genCast
                                   1630 ;	genCopy
      0003F3 A9s00            [ 2] 1631 	lda	#>_stdc_load8_beu64_value_10000_117
      0003F5 8Dr01r00         [ 4] 1632 	sta	(_stdc_memreverse8_PARM_2 + 1)
      0003F8 A9r40            [ 2] 1633 	lda	#_stdc_load8_beu64_value_10000_117
      0003FA 8Dr00r00         [ 4] 1634 	sta	_stdc_memreverse8_PARM_2
                                   1635 ;	Raw cost for generated ic 11 : (10, 12.000000) count=1.000000
                                   1636 ;	Raw cost for generated ic 12 : (0, 0.000000) count=1.000000
                                   1637 ;	genCall
                                   1638 ;	genSend
      0003FD A2 00            [ 2] 1639 	ldx	#0x00
      0003FF A9 08            [ 2] 1640 	lda	#0x08
      000401 20r00r00         [ 6] 1641 	jsr	_stdc_memreverse8
                                   1642 ;	Raw cost for generated ic 14 : (7, 10.000000) count=1.000000
                                   1643 ;	genRet
      000404 ADr47r00         [ 4] 1644 	lda	(_stdc_load8_beu64_value_10000_117 + 7)
      000407 85*00            [ 3] 1645 	sta	*___SDCC_m6502_ret7
      000409 ADr46r00         [ 4] 1646 	lda	(_stdc_load8_beu64_value_10000_117 + 6)
      00040C 85*00            [ 3] 1647 	sta	*___SDCC_m6502_ret6
      00040E ADr45r00         [ 4] 1648 	lda	(_stdc_load8_beu64_value_10000_117 + 5)
      000411 85*00            [ 3] 1649 	sta	*___SDCC_m6502_ret5
      000413 ADr44r00         [ 4] 1650 	lda	(_stdc_load8_beu64_value_10000_117 + 4)
      000416 85*00            [ 3] 1651 	sta	*___SDCC_m6502_ret4
      000418 ADr43r00         [ 4] 1652 	lda	(_stdc_load8_beu64_value_10000_117 + 3)
      00041B 85*00            [ 3] 1653 	sta	*___SDCC_m6502_ret3
      00041D ADr42r00         [ 4] 1654 	lda	(_stdc_load8_beu64_value_10000_117 + 2)
      000420 85*00            [ 3] 1655 	sta	*___SDCC_m6502_ret2
      000422 AEr41r00         [ 4] 1656 	ldx	(_stdc_load8_beu64_value_10000_117 + 1)
      000425 ADr40r00         [ 4] 1657 	lda	_stdc_load8_beu64_value_10000_117
                                   1658 ;	Raw cost for generated ic 15 : (36, 50.000000) count=1.000000
                                   1659 ;	genLabel
                                   1660 ;	Raw cost for generated ic 16 : (0, 0.000000) count=1.000000
                                   1661 ;	genEndFunction
      000428 60               [ 6] 1662 	rts
                                   1663 ;	Raw cost for generated ic 17 : (1, 6.000000) count=1.000000
                                   1664 ;------------------------------------------------------------
                                   1665 ;Allocation info for local variables in function 'stdc_load8_leu_aligned64'
                                   1666 ;------------------------------------------------------------
                                   1667 ;ptr           Allocated to registers a x 
                                   1668 ;value         Allocated with name '_stdc_load8_leu_aligned64_value_10000_119'
                                   1669 ;------------------------------------------------------------
                                   1670 ;	./../../include/stdbit.h: 424: 
                                   1671 ;	genLabel
                                   1672 ;	Raw cost for generated ic 0 : (0, 0.000000) count=1.000000
                                   1673 ;	-----------------------------------------
                                   1674 ;	 function stdc_load8_leu_aligned64
                                   1675 ;	-----------------------------------------
                                   1676 ;	Register assignment is optimal.
                                   1677 ;	Stack space usage: 0 bytes.
      000429                       1678 _stdc_load8_leu_aligned64:
                                   1679 ;	Raw cost for generated ic 1 : (0, 0.000000) count=1.000000
                                   1680 ;	genReceive
                                   1681 ;	Raw cost for generated ic 2 : (0, 0.000000) count=1.000000
                                   1682 ;	skipping iCode since result will be rematerialized
                                   1683 ;	Raw cost for generated ic 3 : (0, 0.000000) count=1.000000
                                   1684 ;	skipping iCode since result will be rematerialized
                                   1685 ;	Raw cost for generated ic 4 : (0, 0.000000) count=1.000000
                                   1686 ;	genCast
                                   1687 ;	genCopy
      000429 8Dr00r00         [ 4] 1688 	sta	___memcpy_PARM_2
      00042C 8Er01r00         [ 4] 1689 	stx	(___memcpy_PARM_2 + 1)
                                   1690 ;	Raw cost for generated ic 5 : (6, 8.000000) count=1.000000
                                   1691 ;	genAssign
                                   1692 ;	genAssignLit
      00042F A2 08            [ 2] 1693 	ldx	#0x08
      000431 8Er00r00         [ 4] 1694 	stx	___memcpy_PARM_3
      000434 9Cr01r00         [ 4] 1695 	stz	(___memcpy_PARM_3 + 1)
                                   1696 ;	Raw cost for generated ic 8 : (8, 10.000000) count=1.000000
                                   1697 ;	Raw cost for generated ic 6 : (0, 0.000000) count=1.000000
                                   1698 ;	genCall
                                   1699 ;	genSend
      000437 A2s00            [ 2] 1700 	ldx	#>_stdc_load8_leu_aligned64_value_10000_119
      000439 A9r48            [ 2] 1701 	lda	#_stdc_load8_leu_aligned64_value_10000_119
      00043B 20r00r00         [ 6] 1702 	jsr	___memcpy
                                   1703 ;	Raw cost for generated ic 9 : (7, 10.000000) count=1.000000
                                   1704 ;	genRet
      00043E ADr4Fr00         [ 4] 1705 	lda	(_stdc_load8_leu_aligned64_value_10000_119 + 7)
      000441 85*00            [ 3] 1706 	sta	*___SDCC_m6502_ret7
      000443 ADr4Er00         [ 4] 1707 	lda	(_stdc_load8_leu_aligned64_value_10000_119 + 6)
      000446 85*00            [ 3] 1708 	sta	*___SDCC_m6502_ret6
      000448 ADr4Dr00         [ 4] 1709 	lda	(_stdc_load8_leu_aligned64_value_10000_119 + 5)
      00044B 85*00            [ 3] 1710 	sta	*___SDCC_m6502_ret5
      00044D ADr4Cr00         [ 4] 1711 	lda	(_stdc_load8_leu_aligned64_value_10000_119 + 4)
      000450 85*00            [ 3] 1712 	sta	*___SDCC_m6502_ret4
      000452 ADr4Br00         [ 4] 1713 	lda	(_stdc_load8_leu_aligned64_value_10000_119 + 3)
      000455 85*00            [ 3] 1714 	sta	*___SDCC_m6502_ret3
      000457 ADr4Ar00         [ 4] 1715 	lda	(_stdc_load8_leu_aligned64_value_10000_119 + 2)
      00045A 85*00            [ 3] 1716 	sta	*___SDCC_m6502_ret2
      00045C AEr49r00         [ 4] 1717 	ldx	(_stdc_load8_leu_aligned64_value_10000_119 + 1)
      00045F ADr48r00         [ 4] 1718 	lda	_stdc_load8_leu_aligned64_value_10000_119
                                   1719 ;	Raw cost for generated ic 10 : (36, 50.000000) count=1.000000
                                   1720 ;	genLabel
                                   1721 ;	Raw cost for generated ic 11 : (0, 0.000000) count=1.000000
                                   1722 ;	genEndFunction
      000462 60               [ 6] 1723 	rts
                                   1724 ;	Raw cost for generated ic 12 : (1, 6.000000) count=1.000000
                                   1725 ;------------------------------------------------------------
                                   1726 ;Allocation info for local variables in function 'stdc_load8_beu_aligned64'
                                   1727 ;------------------------------------------------------------
                                   1728 ;ptr           Allocated to registers a x 
                                   1729 ;value         Allocated with name '_stdc_load8_beu_aligned64_value_10000_121'
                                   1730 ;------------------------------------------------------------
                                   1731 ;	./../../include/stdbit.h: 424: __STDC_LOAD8(64)
                                   1732 ;	genLabel
                                   1733 ;	Raw cost for generated ic 0 : (0, 0.000000) count=1.000000
                                   1734 ;	-----------------------------------------
                                   1735 ;	 function stdc_load8_beu_aligned64
                                   1736 ;	-----------------------------------------
                                   1737 ;	Register assignment is optimal.
                                   1738 ;	Stack space usage: 0 bytes.
      000463                       1739 _stdc_load8_beu_aligned64:
                                   1740 ;	Raw cost for generated ic 1 : (0, 0.000000) count=1.000000
                                   1741 ;	genReceive
                                   1742 ;	Raw cost for generated ic 2 : (0, 0.000000) count=1.000000
                                   1743 ;	skipping iCode since result will be rematerialized
                                   1744 ;	Raw cost for generated ic 3 : (0, 0.000000) count=1.000000
                                   1745 ;	skipping iCode since result will be rematerialized
                                   1746 ;	Raw cost for generated ic 4 : (0, 0.000000) count=1.000000
                                   1747 ;	genCast
                                   1748 ;	genCopy
      000463 8Dr00r00         [ 4] 1749 	sta	___memcpy_PARM_2
      000466 8Er01r00         [ 4] 1750 	stx	(___memcpy_PARM_2 + 1)
                                   1751 ;	Raw cost for generated ic 5 : (6, 8.000000) count=1.000000
                                   1752 ;	genAssign
                                   1753 ;	genAssignLit
      000469 A2 08            [ 2] 1754 	ldx	#0x08
      00046B 8Er00r00         [ 4] 1755 	stx	___memcpy_PARM_3
      00046E 9Cr01r00         [ 4] 1756 	stz	(___memcpy_PARM_3 + 1)
                                   1757 ;	Raw cost for generated ic 8 : (8, 10.000000) count=1.000000
                                   1758 ;	Raw cost for generated ic 6 : (0, 0.000000) count=1.000000
                                   1759 ;	genCall
                                   1760 ;	genSend
      000471 A2s00            [ 2] 1761 	ldx	#>_stdc_load8_beu_aligned64_value_10000_121
      000473 A9r50            [ 2] 1762 	lda	#_stdc_load8_beu_aligned64_value_10000_121
      000475 20r00r00         [ 6] 1763 	jsr	___memcpy
                                   1764 ;	Raw cost for generated ic 9 : (7, 10.000000) count=1.000000
                                   1765 ;	genCast
                                   1766 ;	genCopy
      000478 A9s00            [ 2] 1767 	lda	#>_stdc_load8_beu_aligned64_value_10000_121
      00047A 8Dr01r00         [ 4] 1768 	sta	(_stdc_memreverse8_PARM_2 + 1)
      00047D A9r50            [ 2] 1769 	lda	#_stdc_load8_beu_aligned64_value_10000_121
      00047F 8Dr00r00         [ 4] 1770 	sta	_stdc_memreverse8_PARM_2
                                   1771 ;	Raw cost for generated ic 11 : (10, 12.000000) count=1.000000
                                   1772 ;	Raw cost for generated ic 12 : (0, 0.000000) count=1.000000
                                   1773 ;	genCall
                                   1774 ;	genSend
      000482 A2 00            [ 2] 1775 	ldx	#0x00
      000484 A9 08            [ 2] 1776 	lda	#0x08
      000486 20r00r00         [ 6] 1777 	jsr	_stdc_memreverse8
                                   1778 ;	Raw cost for generated ic 14 : (7, 10.000000) count=1.000000
                                   1779 ;	genRet
      000489 ADr57r00         [ 4] 1780 	lda	(_stdc_load8_beu_aligned64_value_10000_121 + 7)
      00048C 85*00            [ 3] 1781 	sta	*___SDCC_m6502_ret7
      00048E ADr56r00         [ 4] 1782 	lda	(_stdc_load8_beu_aligned64_value_10000_121 + 6)
      000491 85*00            [ 3] 1783 	sta	*___SDCC_m6502_ret6
      000493 ADr55r00         [ 4] 1784 	lda	(_stdc_load8_beu_aligned64_value_10000_121 + 5)
      000496 85*00            [ 3] 1785 	sta	*___SDCC_m6502_ret5
      000498 ADr54r00         [ 4] 1786 	lda	(_stdc_load8_beu_aligned64_value_10000_121 + 4)
      00049B 85*00            [ 3] 1787 	sta	*___SDCC_m6502_ret4
      00049D ADr53r00         [ 4] 1788 	lda	(_stdc_load8_beu_aligned64_value_10000_121 + 3)
      0004A0 85*00            [ 3] 1789 	sta	*___SDCC_m6502_ret3
      0004A2 ADr52r00         [ 4] 1790 	lda	(_stdc_load8_beu_aligned64_value_10000_121 + 2)
      0004A5 85*00            [ 3] 1791 	sta	*___SDCC_m6502_ret2
      0004A7 AEr51r00         [ 4] 1792 	ldx	(_stdc_load8_beu_aligned64_value_10000_121 + 1)
      0004AA ADr50r00         [ 4] 1793 	lda	_stdc_load8_beu_aligned64_value_10000_121
                                   1794 ;	Raw cost for generated ic 15 : (36, 50.000000) count=1.000000
                                   1795 ;	genLabel
                                   1796 ;	Raw cost for generated ic 16 : (0, 0.000000) count=1.000000
                                   1797 ;	genEndFunction
      0004AD 60               [ 6] 1798 	rts
                                   1799 ;	Raw cost for generated ic 17 : (1, 6.000000) count=1.000000
                                   1800 ;------------------------------------------------------------
                                   1801 ;Allocation info for local variables in function 'stdc_load8_les64'
                                   1802 ;------------------------------------------------------------
                                   1803 ;ptr           Allocated to registers a x 
                                   1804 ;value         Allocated with name '_stdc_load8_les64_value_10000_123'
                                   1805 ;------------------------------------------------------------
                                   1806 ;	./../../include/stdbit.h: 424: 
                                   1807 ;	genLabel
                                   1808 ;	Raw cost for generated ic 0 : (0, 0.000000) count=1.000000
                                   1809 ;	-----------------------------------------
                                   1810 ;	 function stdc_load8_les64
                                   1811 ;	-----------------------------------------
                                   1812 ;	Register assignment is optimal.
                                   1813 ;	Stack space usage: 0 bytes.
      0004AE                       1814 _stdc_load8_les64:
                                   1815 ;	Raw cost for generated ic 1 : (0, 0.000000) count=1.000000
                                   1816 ;	genReceive
                                   1817 ;	Raw cost for generated ic 2 : (0, 0.000000) count=1.000000
                                   1818 ;	skipping iCode since result will be rematerialized
                                   1819 ;	Raw cost for generated ic 3 : (0, 0.000000) count=1.000000
                                   1820 ;	skipping iCode since result will be rematerialized
                                   1821 ;	Raw cost for generated ic 4 : (0, 0.000000) count=1.000000
                                   1822 ;	genCast
                                   1823 ;	genCopy
      0004AE 8Dr00r00         [ 4] 1824 	sta	___memcpy_PARM_2
      0004B1 8Er01r00         [ 4] 1825 	stx	(___memcpy_PARM_2 + 1)
                                   1826 ;	Raw cost for generated ic 5 : (6, 8.000000) count=1.000000
                                   1827 ;	genAssign
                                   1828 ;	genAssignLit
      0004B4 A2 08            [ 2] 1829 	ldx	#0x08
      0004B6 8Er00r00         [ 4] 1830 	stx	___memcpy_PARM_3
      0004B9 9Cr01r00         [ 4] 1831 	stz	(___memcpy_PARM_3 + 1)
                                   1832 ;	Raw cost for generated ic 8 : (8, 10.000000) count=1.000000
                                   1833 ;	Raw cost for generated ic 6 : (0, 0.000000) count=1.000000
                                   1834 ;	genCall
                                   1835 ;	genSend
      0004BC A2s00            [ 2] 1836 	ldx	#>_stdc_load8_les64_value_10000_123
      0004BE A9r58            [ 2] 1837 	lda	#_stdc_load8_les64_value_10000_123
      0004C0 20r00r00         [ 6] 1838 	jsr	___memcpy
                                   1839 ;	Raw cost for generated ic 9 : (7, 10.000000) count=1.000000
                                   1840 ;	genRet
      0004C3 ADr5Fr00         [ 4] 1841 	lda	(_stdc_load8_les64_value_10000_123 + 7)
      0004C6 85*00            [ 3] 1842 	sta	*___SDCC_m6502_ret7
      0004C8 ADr5Er00         [ 4] 1843 	lda	(_stdc_load8_les64_value_10000_123 + 6)
      0004CB 85*00            [ 3] 1844 	sta	*___SDCC_m6502_ret6
      0004CD ADr5Dr00         [ 4] 1845 	lda	(_stdc_load8_les64_value_10000_123 + 5)
      0004D0 85*00            [ 3] 1846 	sta	*___SDCC_m6502_ret5
      0004D2 ADr5Cr00         [ 4] 1847 	lda	(_stdc_load8_les64_value_10000_123 + 4)
      0004D5 85*00            [ 3] 1848 	sta	*___SDCC_m6502_ret4
      0004D7 ADr5Br00         [ 4] 1849 	lda	(_stdc_load8_les64_value_10000_123 + 3)
      0004DA 85*00            [ 3] 1850 	sta	*___SDCC_m6502_ret3
      0004DC ADr5Ar00         [ 4] 1851 	lda	(_stdc_load8_les64_value_10000_123 + 2)
      0004DF 85*00            [ 3] 1852 	sta	*___SDCC_m6502_ret2
      0004E1 AEr59r00         [ 4] 1853 	ldx	(_stdc_load8_les64_value_10000_123 + 1)
      0004E4 ADr58r00         [ 4] 1854 	lda	_stdc_load8_les64_value_10000_123
                                   1855 ;	Raw cost for generated ic 10 : (36, 50.000000) count=1.000000
                                   1856 ;	genLabel
                                   1857 ;	Raw cost for generated ic 11 : (0, 0.000000) count=1.000000
                                   1858 ;	genEndFunction
      0004E7 60               [ 6] 1859 	rts
                                   1860 ;	Raw cost for generated ic 12 : (1, 6.000000) count=1.000000
                                   1861 ;------------------------------------------------------------
                                   1862 ;Allocation info for local variables in function 'stdc_load8_bes64'
                                   1863 ;------------------------------------------------------------
                                   1864 ;ptr           Allocated to registers a x 
                                   1865 ;value         Allocated with name '_stdc_load8_bes64_value_10000_125'
                                   1866 ;------------------------------------------------------------
                                   1867 ;	./../../include/stdbit.h: 424: __STDC_LOAD8(64)
                                   1868 ;	genLabel
                                   1869 ;	Raw cost for generated ic 0 : (0, 0.000000) count=1.000000
                                   1870 ;	-----------------------------------------
                                   1871 ;	 function stdc_load8_bes64
                                   1872 ;	-----------------------------------------
                                   1873 ;	Register assignment is optimal.
                                   1874 ;	Stack space usage: 0 bytes.
      0004E8                       1875 _stdc_load8_bes64:
                                   1876 ;	Raw cost for generated ic 1 : (0, 0.000000) count=1.000000
                                   1877 ;	genReceive
                                   1878 ;	Raw cost for generated ic 2 : (0, 0.000000) count=1.000000
                                   1879 ;	skipping iCode since result will be rematerialized
                                   1880 ;	Raw cost for generated ic 3 : (0, 0.000000) count=1.000000
                                   1881 ;	skipping iCode since result will be rematerialized
                                   1882 ;	Raw cost for generated ic 4 : (0, 0.000000) count=1.000000
                                   1883 ;	genCast
                                   1884 ;	genCopy
      0004E8 8Dr00r00         [ 4] 1885 	sta	___memcpy_PARM_2
      0004EB 8Er01r00         [ 4] 1886 	stx	(___memcpy_PARM_2 + 1)
                                   1887 ;	Raw cost for generated ic 5 : (6, 8.000000) count=1.000000
                                   1888 ;	genAssign
                                   1889 ;	genAssignLit
      0004EE A2 08            [ 2] 1890 	ldx	#0x08
      0004F0 8Er00r00         [ 4] 1891 	stx	___memcpy_PARM_3
      0004F3 9Cr01r00         [ 4] 1892 	stz	(___memcpy_PARM_3 + 1)
                                   1893 ;	Raw cost for generated ic 8 : (8, 10.000000) count=1.000000
                                   1894 ;	Raw cost for generated ic 6 : (0, 0.000000) count=1.000000
                                   1895 ;	genCall
                                   1896 ;	genSend
      0004F6 A2s00            [ 2] 1897 	ldx	#>_stdc_load8_bes64_value_10000_125
      0004F8 A9r60            [ 2] 1898 	lda	#_stdc_load8_bes64_value_10000_125
      0004FA 20r00r00         [ 6] 1899 	jsr	___memcpy
                                   1900 ;	Raw cost for generated ic 9 : (7, 10.000000) count=1.000000
                                   1901 ;	genCast
                                   1902 ;	genCopy
      0004FD A9s00            [ 2] 1903 	lda	#>_stdc_load8_bes64_value_10000_125
      0004FF 8Dr01r00         [ 4] 1904 	sta	(_stdc_memreverse8_PARM_2 + 1)
      000502 A9r60            [ 2] 1905 	lda	#_stdc_load8_bes64_value_10000_125
      000504 8Dr00r00         [ 4] 1906 	sta	_stdc_memreverse8_PARM_2
                                   1907 ;	Raw cost for generated ic 11 : (10, 12.000000) count=1.000000
                                   1908 ;	Raw cost for generated ic 12 : (0, 0.000000) count=1.000000
                                   1909 ;	genCall
                                   1910 ;	genSend
      000507 A2 00            [ 2] 1911 	ldx	#0x00
      000509 A9 08            [ 2] 1912 	lda	#0x08
      00050B 20r00r00         [ 6] 1913 	jsr	_stdc_memreverse8
                                   1914 ;	Raw cost for generated ic 14 : (7, 10.000000) count=1.000000
                                   1915 ;	genRet
      00050E ADr67r00         [ 4] 1916 	lda	(_stdc_load8_bes64_value_10000_125 + 7)
      000511 85*00            [ 3] 1917 	sta	*___SDCC_m6502_ret7
      000513 ADr66r00         [ 4] 1918 	lda	(_stdc_load8_bes64_value_10000_125 + 6)
      000516 85*00            [ 3] 1919 	sta	*___SDCC_m6502_ret6
      000518 ADr65r00         [ 4] 1920 	lda	(_stdc_load8_bes64_value_10000_125 + 5)
      00051B 85*00            [ 3] 1921 	sta	*___SDCC_m6502_ret5
      00051D ADr64r00         [ 4] 1922 	lda	(_stdc_load8_bes64_value_10000_125 + 4)
      000520 85*00            [ 3] 1923 	sta	*___SDCC_m6502_ret4
      000522 ADr63r00         [ 4] 1924 	lda	(_stdc_load8_bes64_value_10000_125 + 3)
      000525 85*00            [ 3] 1925 	sta	*___SDCC_m6502_ret3
      000527 ADr62r00         [ 4] 1926 	lda	(_stdc_load8_bes64_value_10000_125 + 2)
      00052A 85*00            [ 3] 1927 	sta	*___SDCC_m6502_ret2
      00052C AEr61r00         [ 4] 1928 	ldx	(_stdc_load8_bes64_value_10000_125 + 1)
      00052F ADr60r00         [ 4] 1929 	lda	_stdc_load8_bes64_value_10000_125
                                   1930 ;	Raw cost for generated ic 15 : (36, 50.000000) count=1.000000
                                   1931 ;	genLabel
                                   1932 ;	Raw cost for generated ic 16 : (0, 0.000000) count=1.000000
                                   1933 ;	genEndFunction
      000532 60               [ 6] 1934 	rts
                                   1935 ;	Raw cost for generated ic 17 : (1, 6.000000) count=1.000000
                                   1936 ;------------------------------------------------------------
                                   1937 ;Allocation info for local variables in function 'stdc_load8_les_aligned64'
                                   1938 ;------------------------------------------------------------
                                   1939 ;ptr           Allocated to registers a x 
                                   1940 ;value         Allocated with name '_stdc_load8_les_aligned64_value_10000_127'
                                   1941 ;------------------------------------------------------------
                                   1942 ;	./../../include/stdbit.h: 424: 
                                   1943 ;	genLabel
                                   1944 ;	Raw cost for generated ic 0 : (0, 0.000000) count=1.000000
                                   1945 ;	-----------------------------------------
                                   1946 ;	 function stdc_load8_les_aligned64
                                   1947 ;	-----------------------------------------
                                   1948 ;	Register assignment is optimal.
                                   1949 ;	Stack space usage: 0 bytes.
      000533                       1950 _stdc_load8_les_aligned64:
                                   1951 ;	Raw cost for generated ic 1 : (0, 0.000000) count=1.000000
                                   1952 ;	genReceive
                                   1953 ;	Raw cost for generated ic 2 : (0, 0.000000) count=1.000000
                                   1954 ;	skipping iCode since result will be rematerialized
                                   1955 ;	Raw cost for generated ic 3 : (0, 0.000000) count=1.000000
                                   1956 ;	skipping iCode since result will be rematerialized
                                   1957 ;	Raw cost for generated ic 4 : (0, 0.000000) count=1.000000
                                   1958 ;	genCast
                                   1959 ;	genCopy
      000533 8Dr00r00         [ 4] 1960 	sta	___memcpy_PARM_2
      000536 8Er01r00         [ 4] 1961 	stx	(___memcpy_PARM_2 + 1)
                                   1962 ;	Raw cost for generated ic 5 : (6, 8.000000) count=1.000000
                                   1963 ;	genAssign
                                   1964 ;	genAssignLit
      000539 A2 08            [ 2] 1965 	ldx	#0x08
      00053B 8Er00r00         [ 4] 1966 	stx	___memcpy_PARM_3
      00053E 9Cr01r00         [ 4] 1967 	stz	(___memcpy_PARM_3 + 1)
                                   1968 ;	Raw cost for generated ic 8 : (8, 10.000000) count=1.000000
                                   1969 ;	Raw cost for generated ic 6 : (0, 0.000000) count=1.000000
                                   1970 ;	genCall
                                   1971 ;	genSend
      000541 A2s00            [ 2] 1972 	ldx	#>_stdc_load8_les_aligned64_value_10000_127
      000543 A9r68            [ 2] 1973 	lda	#_stdc_load8_les_aligned64_value_10000_127
      000545 20r00r00         [ 6] 1974 	jsr	___memcpy
                                   1975 ;	Raw cost for generated ic 9 : (7, 10.000000) count=1.000000
                                   1976 ;	genRet
      000548 ADr6Fr00         [ 4] 1977 	lda	(_stdc_load8_les_aligned64_value_10000_127 + 7)
      00054B 85*00            [ 3] 1978 	sta	*___SDCC_m6502_ret7
      00054D ADr6Er00         [ 4] 1979 	lda	(_stdc_load8_les_aligned64_value_10000_127 + 6)
      000550 85*00            [ 3] 1980 	sta	*___SDCC_m6502_ret6
      000552 ADr6Dr00         [ 4] 1981 	lda	(_stdc_load8_les_aligned64_value_10000_127 + 5)
      000555 85*00            [ 3] 1982 	sta	*___SDCC_m6502_ret5
      000557 ADr6Cr00         [ 4] 1983 	lda	(_stdc_load8_les_aligned64_value_10000_127 + 4)
      00055A 85*00            [ 3] 1984 	sta	*___SDCC_m6502_ret4
      00055C ADr6Br00         [ 4] 1985 	lda	(_stdc_load8_les_aligned64_value_10000_127 + 3)
      00055F 85*00            [ 3] 1986 	sta	*___SDCC_m6502_ret3
      000561 ADr6Ar00         [ 4] 1987 	lda	(_stdc_load8_les_aligned64_value_10000_127 + 2)
      000564 85*00            [ 3] 1988 	sta	*___SDCC_m6502_ret2
      000566 AEr69r00         [ 4] 1989 	ldx	(_stdc_load8_les_aligned64_value_10000_127 + 1)
      000569 ADr68r00         [ 4] 1990 	lda	_stdc_load8_les_aligned64_value_10000_127
                                   1991 ;	Raw cost for generated ic 10 : (36, 50.000000) count=1.000000
                                   1992 ;	genLabel
                                   1993 ;	Raw cost for generated ic 11 : (0, 0.000000) count=1.000000
                                   1994 ;	genEndFunction
      00056C 60               [ 6] 1995 	rts
                                   1996 ;	Raw cost for generated ic 12 : (1, 6.000000) count=1.000000
                                   1997 ;------------------------------------------------------------
                                   1998 ;Allocation info for local variables in function 'stdc_load8_bes_aligned64'
                                   1999 ;------------------------------------------------------------
                                   2000 ;ptr           Allocated to registers a x 
                                   2001 ;value         Allocated with name '_stdc_load8_bes_aligned64_value_10000_129'
                                   2002 ;------------------------------------------------------------
                                   2003 ;	./../../include/stdbit.h: 424: __STDC_LOAD8(64)
                                   2004 ;	genLabel
                                   2005 ;	Raw cost for generated ic 0 : (0, 0.000000) count=1.000000
                                   2006 ;	-----------------------------------------
                                   2007 ;	 function stdc_load8_bes_aligned64
                                   2008 ;	-----------------------------------------
                                   2009 ;	Register assignment is optimal.
                                   2010 ;	Stack space usage: 0 bytes.
      00056D                       2011 _stdc_load8_bes_aligned64:
                                   2012 ;	Raw cost for generated ic 1 : (0, 0.000000) count=1.000000
                                   2013 ;	genReceive
                                   2014 ;	Raw cost for generated ic 2 : (0, 0.000000) count=1.000000
                                   2015 ;	skipping iCode since result will be rematerialized
                                   2016 ;	Raw cost for generated ic 3 : (0, 0.000000) count=1.000000
                                   2017 ;	skipping iCode since result will be rematerialized
                                   2018 ;	Raw cost for generated ic 4 : (0, 0.000000) count=1.000000
                                   2019 ;	genCast
                                   2020 ;	genCopy
      00056D 8Dr00r00         [ 4] 2021 	sta	___memcpy_PARM_2
      000570 8Er01r00         [ 4] 2022 	stx	(___memcpy_PARM_2 + 1)
                                   2023 ;	Raw cost for generated ic 5 : (6, 8.000000) count=1.000000
                                   2024 ;	genAssign
                                   2025 ;	genAssignLit
      000573 A2 08            [ 2] 2026 	ldx	#0x08
      000575 8Er00r00         [ 4] 2027 	stx	___memcpy_PARM_3
      000578 9Cr01r00         [ 4] 2028 	stz	(___memcpy_PARM_3 + 1)
                                   2029 ;	Raw cost for generated ic 8 : (8, 10.000000) count=1.000000
                                   2030 ;	Raw cost for generated ic 6 : (0, 0.000000) count=1.000000
                                   2031 ;	genCall
                                   2032 ;	genSend
      00057B A2s00            [ 2] 2033 	ldx	#>_stdc_load8_bes_aligned64_value_10000_129
      00057D A9r70            [ 2] 2034 	lda	#_stdc_load8_bes_aligned64_value_10000_129
      00057F 20r00r00         [ 6] 2035 	jsr	___memcpy
                                   2036 ;	Raw cost for generated ic 9 : (7, 10.000000) count=1.000000
                                   2037 ;	genCast
                                   2038 ;	genCopy
      000582 A9s00            [ 2] 2039 	lda	#>_stdc_load8_bes_aligned64_value_10000_129
      000584 8Dr01r00         [ 4] 2040 	sta	(_stdc_memreverse8_PARM_2 + 1)
      000587 A9r70            [ 2] 2041 	lda	#_stdc_load8_bes_aligned64_value_10000_129
      000589 8Dr00r00         [ 4] 2042 	sta	_stdc_memreverse8_PARM_2
                                   2043 ;	Raw cost for generated ic 11 : (10, 12.000000) count=1.000000
                                   2044 ;	Raw cost for generated ic 12 : (0, 0.000000) count=1.000000
                                   2045 ;	genCall
                                   2046 ;	genSend
      00058C A2 00            [ 2] 2047 	ldx	#0x00
      00058E A9 08            [ 2] 2048 	lda	#0x08
      000590 20r00r00         [ 6] 2049 	jsr	_stdc_memreverse8
                                   2050 ;	Raw cost for generated ic 14 : (7, 10.000000) count=1.000000
                                   2051 ;	genRet
      000593 ADr77r00         [ 4] 2052 	lda	(_stdc_load8_bes_aligned64_value_10000_129 + 7)
      000596 85*00            [ 3] 2053 	sta	*___SDCC_m6502_ret7
      000598 ADr76r00         [ 4] 2054 	lda	(_stdc_load8_bes_aligned64_value_10000_129 + 6)
      00059B 85*00            [ 3] 2055 	sta	*___SDCC_m6502_ret6
      00059D ADr75r00         [ 4] 2056 	lda	(_stdc_load8_bes_aligned64_value_10000_129 + 5)
      0005A0 85*00            [ 3] 2057 	sta	*___SDCC_m6502_ret5
      0005A2 ADr74r00         [ 4] 2058 	lda	(_stdc_load8_bes_aligned64_value_10000_129 + 4)
      0005A5 85*00            [ 3] 2059 	sta	*___SDCC_m6502_ret4
      0005A7 ADr73r00         [ 4] 2060 	lda	(_stdc_load8_bes_aligned64_value_10000_129 + 3)
      0005AA 85*00            [ 3] 2061 	sta	*___SDCC_m6502_ret3
      0005AC ADr72r00         [ 4] 2062 	lda	(_stdc_load8_bes_aligned64_value_10000_129 + 2)
      0005AF 85*00            [ 3] 2063 	sta	*___SDCC_m6502_ret2
      0005B1 AEr71r00         [ 4] 2064 	ldx	(_stdc_load8_bes_aligned64_value_10000_129 + 1)
      0005B4 ADr70r00         [ 4] 2065 	lda	_stdc_load8_bes_aligned64_value_10000_129
                                   2066 ;	Raw cost for generated ic 15 : (36, 50.000000) count=1.000000
                                   2067 ;	genLabel
                                   2068 ;	Raw cost for generated ic 16 : (0, 0.000000) count=1.000000
                                   2069 ;	genEndFunction
      0005B7 60               [ 6] 2070 	rts
                                   2071 ;	Raw cost for generated ic 17 : (1, 6.000000) count=1.000000
                                   2072 	.area CODE
                                   2073 	.area RODATA
                                   2074 	.area XINIT
                                   2075 	.area CABS    (ABS)
