                                      1 ;--------------------------------------------------------
                                      2 ; File Created by SDCC : free open source ISO C Compiler
                                      3 ; Version 4.5.10 #15691 (Linux)
                                      4 ;--------------------------------------------------------
                                      5 	.module strtoull
                                      6 	
      000000                          7 	.r65c02
                                      8 	.optsdcc -mmos65c02
                                      9 
                                     10 ;--------------------------------------------------------
                                     11 ;  Ordering of segments for the linker.
                                     12 ;--------------------------------------------------------
                                     13 	.area ZP      (PAG)
                                     14 	.area OSEG    (PAG, OVR)
                                     15 	.area _CODE
                                     16 	.area GSINIT
                                     17 	.area GSFINAL
                                     18 	.area CODE
                                     19 	.area RODATA
                                     20 	.area XINIT
                                     21 	.area _DATA
                                     22 	.area DATA
                                     23 	.area BSS
                                     24 ;--------------------------------------------------------
                                     25 ; Public variables in this module
                                     26 ;--------------------------------------------------------
                                     27 	.globl _strncmp
                                     28 	.globl _strtoull_PARM_3
                                     29 	.globl _strtoull_PARM_2
                                     30 	.globl _strtoull
                                     31 ;--------------------------------------------------------
                                     32 ; ZP ram data
                                     33 ;--------------------------------------------------------
                                     34 	.area ZP      (PAG)
      000000                         35 _strtoull_sloc0_1_0:
      000000                         36 	.ds 2
      000002                         37 _strtoull_sloc1_1_0:
      000002                         38 	.ds 8
                                     39 ;--------------------------------------------------------
                                     40 ; overlayable items in ram
                                     41 ;--------------------------------------------------------
                                     42 ;--------------------------------------------------------
                                     43 ; uninitialized external ram data
                                     44 ;--------------------------------------------------------
                                     45 	.area BSS
      000000                         46 __isdigit_base_10000_88:
      000000                         47 	.ds 1
      000001                         48 _strtoull_PARM_2:
      000001                         49 	.ds 2
      000003                         50 _strtoull_PARM_3:
      000003                         51 	.ds 2
      000005                         52 _strtoull_nptr_10000_94:
      000005                         53 	.ds 2
      000007                         54 _strtoull_ptr_10000_95:
      000007                         55 	.ds 2
      000009                         56 _strtoull_ret_10000_95:
      000009                         57 	.ds 8
      000011                         58 _strtoull_range_error_10000_95:
      000011                         59 	.ds 1
      000012                         60 _strtoull_neg_10000_95:
      000012                         61 	.ds 1
      000013                         62 _strtoull_b_10000_95:
      000013                         63 	.ds 1
      000014                         64 _strtoull_digit_30000_112:
      000014                         65 	.ds 1
      000015                         66 _strtoull_oldret_30001_114:
      000015                         67 	.ds 8
                                     68 ;--------------------------------------------------------
                                     69 ; absolute external ram data
                                     70 ;--------------------------------------------------------
                                     71 	.area DABS    (ABS)
                                     72 ;--------------------------------------------------------
                                     73 ; initialized external ram data
                                     74 ;--------------------------------------------------------
                                     75 	.area DATA
                                     76 ;--------------------------------------------------------
                                     77 ; global & static initialisations
                                     78 ;--------------------------------------------------------
                                     79 	.area _CODE
                                     80 	.area GSINIT
                                     81 	.area GSFINAL
                                     82 	.area GSINIT
                                     83 ;--------------------------------------------------------
                                     84 ; Home
                                     85 ;--------------------------------------------------------
                                     86 	.area _CODE
                                     87 	.area _CODE
                                     88 ;--------------------------------------------------------
                                     89 ; code
                                     90 ;--------------------------------------------------------
                                     91 	.area CODE
                                     92 ;------------------------------------------------------------
                                     93 ;Allocation info for local variables in function '_isdigit'
                                     94 ;------------------------------------------------------------
                                     95 ;base          Allocated with name '__isdigit_base_10000_88'
                                     96 ;c             Allocated to registers a 
                                     97 ;v             Allocated to registers a 
                                     98 ;------------------------------------------------------------
                                     99 ;	../strtoull.c: 42: static signed char _isdigit(const char c, unsigned char base)
                                    100 ;	genLabel
                                    101 ;	Raw cost for generated ic 0 : (0, 0.000000) count=1.000000
                                    102 ;	-----------------------------------------
                                    103 ;	 function _isdigit
                                    104 ;	-----------------------------------------
                                    105 ;	Register assignment is optimal.
                                    106 ;	Stack space usage: 0 bytes.
      000000                        107 __isdigit:
                                    108 ;	Raw cost for generated ic 1 : (0, 0.000000) count=1.000000
                                    109 ;	genReceive
                                    110 ;	Raw cost for generated ic 2 : (0, 0.000000) count=1.000000
                                    111 ;	genReceive
      000000 8Er00r00         [ 4]  112 	stx	__isdigit_base_10000_88
                                    113 ;	Raw cost for generated ic 3 : (3, 4.000000) count=1.000000
                                    114 ;	../strtoull.c: 46: if (c >= '0' && c <= '9')
                                    115 ;	genCmp
      000003 C9 30            [ 2]  116 	cmp	#0x30
      000005 90 0C            [ 4]  117 	bcc	00110$
                                    118 ;	Raw cost for generated ic 4 : (7, 7.600000) count=1.000000
                                    119 ;	skipping generated iCode
                                    120 ;	Raw cost for generated ic 5 : (0, 0.000000) count=1.000000
                                    121 ;	genCmp
      000007 C9 39            [ 2]  122 	cmp	#0x39
      000009 F0 02            [ 4]  123 	beq	00160$
      00000B B0 06            [ 4]  124 	bcs	00110$
      00000D                        125 00160$:
                                    126 ;	Raw cost for generated ic 8 : (9, 10.200000) count=0.750000
                                    127 ;	skipping generated iCode
                                    128 ;	Raw cost for generated ic 9 : (0, 0.000000) count=0.750000
                                    129 ;	../strtoull.c: 47: v = c - '0';
                                    130 ;	genCast
                                    131 ;	genCopy
                                    132 ;	Raw cost for generated ic 12 : (0, 0.000000) count=0.562500
                                    133 ;	genMinus
                                    134 ;	  genMinusDec - size=1  icount=48
      00000D 38               [ 2]  135 	sec
      00000E E9 30            [ 3]  136 	sbc	#0x30
                                    137 ;	Raw cost for generated ic 13 : (3, 4.000000) count=0.562500
                                    138 ;	genGoto
      000010 4Cr36r00         [ 3]  139 	jmp	00111$
                                    140 ;	Raw cost for generated ic 15 : (3, 3.000000) count=0.562500
                                    141 ;	genLabel
      000013                        142 00110$:
                                    143 ;	Raw cost for generated ic 16 : (0, 0.000000) count=0.437500
                                    144 ;	../strtoull.c: 48: else if (c >= 'a' && c <='z')
                                    145 ;	genCmp
      000013 C9 61            [ 2]  146 	cmp	#0x61
      000015 90 0C            [ 4]  147 	bcc	00106$
                                    148 ;	Raw cost for generated ic 17 : (7, 7.600000) count=0.437500
                                    149 ;	skipping generated iCode
                                    150 ;	Raw cost for generated ic 18 : (0, 0.000000) count=0.437500
                                    151 ;	genCmp
      000017 C9 7A            [ 2]  152 	cmp	#0x7a
      000019 F0 02            [ 4]  153 	beq	00163$
      00001B B0 06            [ 4]  154 	bcs	00106$
      00001D                        155 00163$:
                                    156 ;	Raw cost for generated ic 21 : (9, 10.200000) count=0.328125
                                    157 ;	skipping generated iCode
                                    158 ;	Raw cost for generated ic 22 : (0, 0.000000) count=0.328125
                                    159 ;	../strtoull.c: 49: v = c - 'a' + 10;
                                    160 ;	genCast
                                    161 ;	genCopy
                                    162 ;	Raw cost for generated ic 25 : (0, 0.000000) count=0.246094
                                    163 ;	genPlus
                                    164 ;	  genPlusInc
      00001D 18               [ 2]  165 	clc
      00001E 69 A9            [ 3]  166 	adc	#0xa9
                                    167 ;	Raw cost for generated ic 26 : (3, 4.000000) count=0.246094
                                    168 ;	genGoto
      000020 4Cr36r00         [ 3]  169 	jmp	00111$
                                    170 ;	Raw cost for generated ic 28 : (3, 3.000000) count=0.246094
                                    171 ;	genLabel
      000023                        172 00106$:
                                    173 ;	Raw cost for generated ic 29 : (0, 0.000000) count=0.191406
                                    174 ;	../strtoull.c: 50: else if (c >= 'A' && c <='Z')
                                    175 ;	genCmp
      000023 C9 41            [ 2]  176 	cmp	#0x41
      000025 90 0C            [ 4]  177 	bcc	00102$
                                    178 ;	Raw cost for generated ic 30 : (7, 7.600000) count=0.191406
                                    179 ;	skipping generated iCode
                                    180 ;	Raw cost for generated ic 31 : (0, 0.000000) count=0.191406
                                    181 ;	genCmp
      000027 C9 5A            [ 2]  182 	cmp	#0x5a
      000029 F0 02            [ 4]  183 	beq	00166$
      00002B B0 06            [ 4]  184 	bcs	00102$
      00002D                        185 00166$:
                                    186 ;	Raw cost for generated ic 34 : (9, 10.200000) count=0.143555
                                    187 ;	skipping generated iCode
                                    188 ;	Raw cost for generated ic 35 : (0, 0.000000) count=0.143555
                                    189 ;	../strtoull.c: 51: v = c - 'A' + 10;
                                    190 ;	genCast
                                    191 ;	genCopy
                                    192 ;	Raw cost for generated ic 38 : (0, 0.000000) count=0.107666
                                    193 ;	genPlus
                                    194 ;	  genPlusInc
      00002D 18               [ 2]  195 	clc
      00002E 69 C9            [ 3]  196 	adc	#0xc9
                                    197 ;	Raw cost for generated ic 39 : (3, 4.000000) count=0.107666
                                    198 ;	genGoto
      000030 4Cr36r00         [ 3]  199 	jmp	00111$
                                    200 ;	Raw cost for generated ic 41 : (3, 3.000000) count=0.107666
                                    201 ;	genLabel
      000033                        202 00102$:
                                    203 ;	Raw cost for generated ic 42 : (0, 0.000000) count=0.083740
                                    204 ;	../strtoull.c: 53: return (-1);
                                    205 ;	genRet
      000033 A9 FF            [ 2]  206 	lda	#0xff
      000035 60               [ 6]  207 	rts
                                    208 ;	Raw cost for generated ic 43 : (5, 5.000000) count=0.083740
                                    209 ;	genLabel
      000036                        210 00111$:
                                    211 ;	Raw cost for generated ic 46 : (0, 0.000000) count=1.000000
                                    212 ;	../strtoull.c: 55: if (v >= base)
                                    213 ;	genCmp
      000036 CDr00r00         [ 4]  214 	cmp	__isdigit_base_10000_88
      000039 90 02            [ 4]  215 	bcc	00114$
                                    216 ;	Raw cost for generated ic 47 : (8, 9.600000) count=1.000000
                                    217 ;	skipping generated iCode
                                    218 ;	Raw cost for generated ic 48 : (0, 0.000000) count=1.000000
                                    219 ;	../strtoull.c: 56: return (-1);
                                    220 ;	genRet
      00003B A9 FF            [ 2]  221 	lda	#0xff
                                    222 ;	Raw cost for generated ic 51 : (5, 5.000000) count=0.750000
                                    223 ;	genLabel
                                    224 ;	Raw cost for generated ic 52 : (0, 0.000000) count=1.000000
                                    225 ;	../strtoull.c: 58: return (v);
                                    226 ;	genRet
                                    227 ;	Raw cost for generated ic 53 : (0, 0.000000) count=1.000000
                                    228 ;	genLabel
                                    229 ;	Raw cost for generated ic 54 : (0, 0.000000) count=1.000000
                                    230 ;	../strtoull.c: 59: }
                                    231 ;	genEndFunction
      00003D                        232 00114$:
      00003D 60               [ 6]  233 	rts
                                    234 ;	Raw cost for generated ic 55 : (1, 6.000000) count=1.000000
                                    235 ;------------------------------------------------------------
                                    236 ;Allocation info for local variables in function 'strtoull'
                                    237 ;------------------------------------------------------------
                                    238 ;sloc0         Allocated with name '_strtoull_sloc0_1_0'
                                    239 ;sloc1         Allocated with name '_strtoull_sloc1_1_0'
                                    240 ;endptr        Allocated with name '_strtoull_PARM_2'
                                    241 ;base          Allocated with name '_strtoull_PARM_3'
                                    242 ;nptr          Allocated with name '_strtoull_nptr_10000_94'
                                    243 ;__200000004   Allocated to registers 
                                    244 ;ptr           Allocated with name '_strtoull_ptr_10000_95'
                                    245 ;ret           Allocated with name '_strtoull_ret_10000_95'
                                    246 ;range_error   Allocated with name '_strtoull_range_error_10000_95'
                                    247 ;neg           Allocated with name '_strtoull_neg_10000_95'
                                    248 ;b             Allocated with name '_strtoull_b_10000_95'
                                    249 ;__200000005   Allocated to registers 
                                    250 ;c             Allocated to registers 
                                    251 ;digit         Allocated with name '_strtoull_digit_30000_112'
                                    252 ;oldret        Allocated with name '_strtoull_oldret_30001_114'
                                    253 ;------------------------------------------------------------
                                    254 ;	../strtoull.c: 63: unsigned long long int strtoull(const char *nptr, char **endptr, int base)
                                    255 ;	genLabel
                                    256 ;	Raw cost for generated ic 0 : (0, 0.000000) count=1.000000
                                    257 ;	-----------------------------------------
                                    258 ;	 function strtoull
                                    259 ;	-----------------------------------------
                                    260 ;	Register assignment might be sub-optimal.
                                    261 ;	Stack space usage: 0 bytes.
      00003E                        262 _strtoull:
                                    263 ;	Raw cost for generated ic 1 : (0, 0.000000) count=1.000000
                                    264 ;	genReceive
      00003E 8Dr05r00         [ 4]  265 	sta	_strtoull_nptr_10000_94
      000041 8Er06r00         [ 4]  266 	stx	(_strtoull_nptr_10000_94 + 1)
                                    267 ;	Raw cost for generated ic 2 : (6, 8.000000) count=1.000000
                                    268 ;	../strtoull.c: 67: bool range_error = false;
                                    269 ;	genAssign
                                    270 ;	genAssignLit
      000044 9Cr11r00         [ 4]  271 	stz	_strtoull_range_error_10000_95
                                    272 ;	Raw cost for generated ic 4 : (3, 4.000000) count=1.000000
                                    273 ;	../strtoull.c: 68: bool neg = false;
                                    274 ;	genAssign
                                    275 ;	genAssignLit
      000047 9Cr12r00         [ 4]  276 	stz	_strtoull_neg_10000_95
                                    277 ;	Raw cost for generated ic 5 : (3, 4.000000) count=1.000000
                                    278 ;	../strtoull.c: 69: unsigned char b = base;
                                    279 ;	genCast
                                    280 ;	genCopy
      00004A ADr03r00         [ 4]  281 	lda	_strtoull_PARM_3
      00004D 8Dr13r00         [ 4]  282 	sta	_strtoull_b_10000_95
                                    283 ;	Raw cost for generated ic 6 : (6, 8.000000) count=1.000000
                                    284 ;	../strtoull.c: 71: while (isblank (*ptr))
                                    285 ;	genAssign
                                    286 ;	genCopy
      000050 8A               [ 2]  287 	txa
      000051 85*01            [ 3]  288 	sta	*(_strtoull_sloc0_1_0 + 1)
      000053 ADr05r00         [ 4]  289 	lda	_strtoull_nptr_10000_94
      000056 85*00            [ 3]  290 	sta	*_strtoull_sloc0_1_0
                                    291 ;	Raw cost for generated ic 249 : (8, 12.000000) count=1.000000
                                    292 ;	genLabel
      000058                        293 00101$:
                                    294 ;	Raw cost for generated ic 8 : (0, 0.000000) count=5.333324
                                    295 ;	genPointerGet
      000058 A0 00            [ 2]  296 	ldy	#0x00
      00005A B1*00            [ 6]  297 	lda	[*_strtoull_sloc0_1_0],y
                                    298 ;	Raw cost for generated ic 10 : (4, 7.000000) count=5.333324
                                    299 ;	./../../include/ctype.h: 53: return ((unsigned char)c == ' ' || (unsigned char)c == '\t');
                                    300 ;	genCast
                                    301 ;	genCopy
                                    302 ;	Raw cost for generated ic 14 : (0, 0.000000) count=5.333324
                                    303 ;	genCmpEQorNE
      00005C C9 20            [ 2]  304 	cmp	#0x20
      00005E F0 04            [ 4]  305 	beq	00149$
                                    306 ;	Raw cost for generated ic 15 : (7, 7.600000) count=5.333324
                                    307 ;	skipping generated iCode
                                    308 ;	Raw cost for generated ic 16 : (0, 0.000000) count=5.333324
                                    309 ;	genCmpEQorNE
      000060 C9 09            [ 2]  310 	cmp	#0x09
      000062 D0 09            [ 4]  311 	bne	00175$
                                    312 ;	Raw cost for generated ic 18 : (7, 7.600000) count=3.999992
                                    313 ;	skipping generated iCode
                                    314 ;	Raw cost for generated ic 19 : (0, 0.000000) count=3.999992
                                    315 ;	genLabel
      000064                        316 00149$:
                                    317 ;	Raw cost for generated ic 23 : (0, 0.000000) count=4.333324
                                    318 ;	../strtoull.c: 72: ptr++;
                                    319 ;	genPlus
                                    320 ;	  genPlusInc
      000064 E6*00            [ 5]  321 	inc	*_strtoull_sloc0_1_0
      000066 D0 F0            [ 4]  322 	bne	00101$
      000068 E6*01            [ 5]  323 	inc	*(_strtoull_sloc0_1_0 + 1)
                                    324 ;	Raw cost for generated ic 34 : (6, 12.600000) count=4.333324
                                    325 ;	genGoto
      00006A 4Cr58r00         [ 3]  326 	jmp	00101$
                                    327 ;	Raw cost for generated ic 36 : (3, 3.000000) count=4.333324
                                    328 ;	genLabel
      00006D                        329 00175$:
                                    330 ;	Raw cost for generated ic 250 : (0, 0.000000) count=0.999997
                                    331 ;	genAssign
                                    332 ;	genCopy
      00006D A5*01            [ 3]  333 	lda	*(_strtoull_sloc0_1_0 + 1)
      00006F 8Dr08r00         [ 4]  334 	sta	(_strtoull_ptr_10000_95 + 1)
      000072 A5*00            [ 3]  335 	lda	*_strtoull_sloc0_1_0
      000074 8Dr07r00         [ 4]  336 	sta	_strtoull_ptr_10000_95
                                    337 ;	Raw cost for generated ic 251 : (10, 14.000000) count=0.999997
                                    338 ;	../strtoull.c: 75: switch(*ptr)
                                    339 ;	genPointerGet
      000077 A0 00            [ 2]  340 	ldy	#0x00
      000079 B1*00            [ 6]  341 	lda	[*_strtoull_sloc0_1_0],y
                                    342 ;	Raw cost for generated ic 39 : (4, 7.000000) count=0.999997
                                    343 ;	genCmpEQorNE
      00007B C9 2B            [ 2]  344 	cmp	#0x2b
      00007D F0 09            [ 4]  345 	beq	00105$
                                    346 ;	Raw cost for generated ic 40 : (7, 7.600000) count=0.999997
                                    347 ;	skipping generated iCode
                                    348 ;	Raw cost for generated ic 41 : (0, 0.000000) count=0.999997
                                    349 ;	genCmpEQorNE
      00007F C9 2D            [ 2]  350 	cmp	#0x2d
      000081 D0 0D            [ 4]  351 	bne	00106$
                                    352 ;	Raw cost for generated ic 42 : (7, 7.600000) count=0.749996
                                    353 ;	skipping generated iCode
                                    354 ;	Raw cost for generated ic 43 : (0, 0.000000) count=0.749996
                                    355 ;	../strtoull.c: 78: neg = true;
                                    356 ;	genAssign
                                    357 ;	genAssignLit
      000083 A2 01            [ 2]  358 	ldx	#0x01
      000085 8Er12r00         [ 4]  359 	stx	_strtoull_neg_10000_95
                                    360 ;	Raw cost for generated ic 46 : (5, 6.000000) count=0.562496
                                    361 ;	../strtoull.c: 79: case '+':
                                    362 ;	genLabel
      000088                        363 00105$:
                                    364 ;	Raw cost for generated ic 47 : (0, 0.000000) count=0.812494
                                    365 ;	../strtoull.c: 80: ptr++;
                                    366 ;	genPlus
                                    367 ;	  genPlusInc
      000088 EEr07r00         [ 6]  368 	inc	_strtoull_ptr_10000_95
      00008B D0 03            [ 4]  369 	bne	00283$
      00008D EEr08r00         [ 6]  370 	inc	(_strtoull_ptr_10000_95 + 1)
      000090                        371 00283$:
                                    372 ;	Raw cost for generated ic 49 : (8, 14.600000) count=0.812494
                                    373 ;	../strtoull.c: 81: }
                                    374 ;	genLabel
      000090                        375 00106$:
                                    376 ;	Raw cost for generated ic 51 : (0, 0.000000) count=0.999993
                                    377 ;	../strtoull.c: 84: if (!b)
                                    378 ;	genIfx
      000090 ADr13r00         [ 4]  379 	lda	_strtoull_b_10000_95
                                    380 ;	genIfxJump : z
      000093 F0 03            [ 4]  381 	beq	00285$
      000095 4Cr7Ar01         [ 3]  382 	jmp	00128$
      000098                        383 00285$:
                                    384 ;	Raw cost for generated ic 52 : (8, 9.600000) count=0.999993
                                    385 ;	../strtoull.c: 86: if (!strncmp (ptr, "0x", 2) || !strncmp (ptr, "0X", 2))
                                    386 ;	skipping iCode since result will be rematerialized
                                    387 ;	Raw cost for generated ic 55 : (0, 0.000000) count=0.749995
                                    388 ;	genCast
                                    389 ;	genCopy
      000098 A9s00            [ 2]  390 	lda	#>___str_0
      00009A 8Dr01r00         [ 4]  391 	sta	(_strncmp_PARM_2 + 1)
      00009D A9r00            [ 2]  392 	lda	#___str_0
      00009F 8Dr00r00         [ 4]  393 	sta	_strncmp_PARM_2
                                    394 ;	Raw cost for generated ic 56 : (10, 12.000000) count=0.749995
                                    395 ;	genAssign
                                    396 ;	genAssignLit
      0000A2 A2 02            [ 2]  397 	ldx	#0x02
      0000A4 8Er00r00         [ 4]  398 	stx	_strncmp_PARM_3
      0000A7 9Cr01r00         [ 4]  399 	stz	(_strncmp_PARM_3 + 1)
                                    400 ;	Raw cost for generated ic 59 : (8, 10.000000) count=0.749995
                                    401 ;	Raw cost for generated ic 57 : (0, 0.000000) count=0.749995
                                    402 ;	genCall
                                    403 ;	genSend
      0000AA AEr08r00         [ 4]  404 	ldx	(_strtoull_ptr_10000_95 + 1)
      0000AD ADr07r00         [ 4]  405 	lda	_strtoull_ptr_10000_95
      0000B0 20r00r00         [ 6]  406 	jsr	_strncmp
                                    407 ;	assignResultValue
                                    408 ;	Raw cost for generated ic 60 : (9, 14.000000) count=0.749995
                                    409 ;	genIfx
      0000B3 C9 00            [ 2]  410 	cmp	#0x00
                                    411 ;	genIfxJump : z
      0000B5 D0 04            [ 4]  412 	bne	00287$
      0000B7 E0 00            [ 2]  413 	cpx	#0x00
      0000B9 F0 23            [ 4]  414 	beq	00114$
      0000BB                        415 00287$:
                                    416 ;	Raw cost for generated ic 61 : (11, 12.200000) count=0.749995
                                    417 ;	skipping iCode since result will be rematerialized
                                    418 ;	Raw cost for generated ic 64 : (0, 0.000000) count=0.562496
                                    419 ;	genCast
                                    420 ;	genCopy
      0000BB A9s00            [ 2]  421 	lda	#>___str_1
      0000BD 8Dr01r00         [ 4]  422 	sta	(_strncmp_PARM_2 + 1)
      0000C0 A9r03            [ 2]  423 	lda	#___str_1
      0000C2 8Dr00r00         [ 4]  424 	sta	_strncmp_PARM_2
                                    425 ;	Raw cost for generated ic 65 : (10, 12.000000) count=0.562496
                                    426 ;	genAssign
                                    427 ;	genAssignLit
      0000C5 A2 02            [ 2]  428 	ldx	#0x02
      0000C7 8Er00r00         [ 4]  429 	stx	_strncmp_PARM_3
      0000CA 9Cr01r00         [ 4]  430 	stz	(_strncmp_PARM_3 + 1)
                                    431 ;	Raw cost for generated ic 68 : (8, 10.000000) count=0.562496
                                    432 ;	Raw cost for generated ic 66 : (0, 0.000000) count=0.562496
                                    433 ;	genCall
                                    434 ;	genSend
      0000CD AEr08r00         [ 4]  435 	ldx	(_strtoull_ptr_10000_95 + 1)
      0000D0 ADr07r00         [ 4]  436 	lda	_strtoull_ptr_10000_95
      0000D3 20r00r00         [ 6]  437 	jsr	_strncmp
                                    438 ;	assignResultValue
                                    439 ;	Raw cost for generated ic 69 : (9, 14.000000) count=0.562496
                                    440 ;	genIfx
      0000D6 C9 00            [ 2]  441 	cmp	#0x00
                                    442 ;	genIfxJump : z
      0000D8 D0 1A            [ 4]  443 	bne	00115$
      0000DA E0 00            [ 2]  444 	cpx	#0x00
      0000DC D0 16            [ 4]  445 	bne	00115$
                                    446 ;	Raw cost for generated ic 70 : (11, 12.200000) count=0.562496
                                    447 ;	genLabel
      0000DE                        448 00114$:
                                    449 ;	Raw cost for generated ic 72 : (0, 0.000000) count=0.609371
                                    450 ;	../strtoull.c: 88: b = 16;
                                    451 ;	genAssign
                                    452 ;	genAssignLit
      0000DE A2 10            [ 2]  453 	ldx	#0x10
      0000E0 8Er13r00         [ 4]  454 	stx	_strtoull_b_10000_95
                                    455 ;	Raw cost for generated ic 73 : (5, 6.000000) count=0.609371
                                    456 ;	../strtoull.c: 89: ptr += 2;
                                    457 ;	genPlus
                                    458 ;	  genPlusInc
      0000E3 ADr07r00         [ 4]  459 	lda	_strtoull_ptr_10000_95
      0000E6 18               [ 2]  460 	clc
      0000E7 69 02            [ 3]  461 	adc	#0x02
      0000E9 8Dr07r00         [ 4]  462 	sta	_strtoull_ptr_10000_95
      0000EC 90 03            [ 4]  463 	bcc	00290$
      0000EE EEr08r00         [ 6]  464 	inc	(_strtoull_ptr_10000_95 + 1)
      0000F1                        465 00290$:
                                    466 ;	Raw cost for generated ic 74 : (14, 20.600000) count=0.609371
                                    467 ;	genGoto
      0000F1 4Cr33r02         [ 3]  468 	jmp	00129$
                                    469 ;	Raw cost for generated ic 76 : (3, 3.000000) count=0.609371
                                    470 ;	genLabel
      0000F4                        471 00115$:
                                    472 ;	Raw cost for generated ic 77 : (0, 0.000000) count=0.140623
                                    473 ;	../strtoull.c: 91: else if (!strncmp (ptr, "0b", 2) || !strncmp (ptr, "0B", 2))
                                    474 ;	skipping iCode since result will be rematerialized
                                    475 ;	Raw cost for generated ic 78 : (0, 0.000000) count=0.140623
                                    476 ;	genCast
                                    477 ;	genCopy
      0000F4 A9s00            [ 2]  478 	lda	#>___str_2
      0000F6 8Dr01r00         [ 4]  479 	sta	(_strncmp_PARM_2 + 1)
      0000F9 A9r06            [ 2]  480 	lda	#___str_2
      0000FB 8Dr00r00         [ 4]  481 	sta	_strncmp_PARM_2
                                    482 ;	Raw cost for generated ic 79 : (10, 12.000000) count=0.140623
                                    483 ;	genAssign
                                    484 ;	genAssignLit
      0000FE A2 02            [ 2]  485 	ldx	#0x02
      000100 8Er00r00         [ 4]  486 	stx	_strncmp_PARM_3
      000103 9Cr01r00         [ 4]  487 	stz	(_strncmp_PARM_3 + 1)
                                    488 ;	Raw cost for generated ic 82 : (8, 10.000000) count=0.140623
                                    489 ;	Raw cost for generated ic 80 : (0, 0.000000) count=0.140623
                                    490 ;	genCall
                                    491 ;	genSend
      000106 AEr08r00         [ 4]  492 	ldx	(_strtoull_ptr_10000_95 + 1)
      000109 ADr07r00         [ 4]  493 	lda	_strtoull_ptr_10000_95
      00010C 20r00r00         [ 6]  494 	jsr	_strncmp
                                    495 ;	assignResultValue
                                    496 ;	Raw cost for generated ic 83 : (9, 14.000000) count=0.140623
                                    497 ;	genIfx
      00010F C9 00            [ 2]  498 	cmp	#0x00
                                    499 ;	genIfxJump : z
      000111 D0 04            [ 4]  500 	bne	00292$
      000113 E0 00            [ 2]  501 	cpx	#0x00
      000115 F0 23            [ 4]  502 	beq	00110$
      000117                        503 00292$:
                                    504 ;	Raw cost for generated ic 84 : (11, 12.200000) count=0.140623
                                    505 ;	skipping iCode since result will be rematerialized
                                    506 ;	Raw cost for generated ic 87 : (0, 0.000000) count=0.105467
                                    507 ;	genCast
                                    508 ;	genCopy
      000117 A9s00            [ 2]  509 	lda	#>___str_3
      000119 8Dr01r00         [ 4]  510 	sta	(_strncmp_PARM_2 + 1)
      00011C A9r09            [ 2]  511 	lda	#___str_3
      00011E 8Dr00r00         [ 4]  512 	sta	_strncmp_PARM_2
                                    513 ;	Raw cost for generated ic 88 : (10, 12.000000) count=0.105467
                                    514 ;	genAssign
                                    515 ;	genAssignLit
      000121 A2 02            [ 2]  516 	ldx	#0x02
      000123 8Er00r00         [ 4]  517 	stx	_strncmp_PARM_3
      000126 9Cr01r00         [ 4]  518 	stz	(_strncmp_PARM_3 + 1)
                                    519 ;	Raw cost for generated ic 91 : (8, 10.000000) count=0.105467
                                    520 ;	Raw cost for generated ic 89 : (0, 0.000000) count=0.105467
                                    521 ;	genCall
                                    522 ;	genSend
      000129 AEr08r00         [ 4]  523 	ldx	(_strtoull_ptr_10000_95 + 1)
      00012C ADr07r00         [ 4]  524 	lda	_strtoull_ptr_10000_95
      00012F 20r00r00         [ 6]  525 	jsr	_strncmp
                                    526 ;	assignResultValue
                                    527 ;	Raw cost for generated ic 92 : (9, 14.000000) count=0.105467
                                    528 ;	genIfx
      000132 C9 00            [ 2]  529 	cmp	#0x00
                                    530 ;	genIfxJump : z
      000134 D0 1A            [ 4]  531 	bne	00111$
      000136 E0 00            [ 2]  532 	cpx	#0x00
      000138 D0 16            [ 4]  533 	bne	00111$
                                    534 ;	Raw cost for generated ic 93 : (11, 12.200000) count=0.105467
                                    535 ;	genLabel
      00013A                        536 00110$:
                                    537 ;	Raw cost for generated ic 95 : (0, 0.000000) count=0.114256
                                    538 ;	../strtoull.c: 93: b = 2;
                                    539 ;	genAssign
                                    540 ;	genAssignLit
      00013A A2 02            [ 2]  541 	ldx	#0x02
      00013C 8Er13r00         [ 4]  542 	stx	_strtoull_b_10000_95
                                    543 ;	Raw cost for generated ic 96 : (5, 6.000000) count=0.114256
                                    544 ;	../strtoull.c: 94: ptr += 2;
                                    545 ;	genPlus
                                    546 ;	  genPlusInc
      00013F ADr07r00         [ 4]  547 	lda	_strtoull_ptr_10000_95
      000142 18               [ 2]  548 	clc
      000143 69 02            [ 3]  549 	adc	#0x02
      000145 8Dr07r00         [ 4]  550 	sta	_strtoull_ptr_10000_95
      000148 90 03            [ 4]  551 	bcc	00295$
      00014A EEr08r00         [ 6]  552 	inc	(_strtoull_ptr_10000_95 + 1)
      00014D                        553 00295$:
                                    554 ;	Raw cost for generated ic 97 : (14, 20.600000) count=0.114256
                                    555 ;	genGoto
      00014D 4Cr33r02         [ 3]  556 	jmp	00129$
                                    557 ;	Raw cost for generated ic 99 : (3, 3.000000) count=0.114256
                                    558 ;	genLabel
      000150                        559 00111$:
                                    560 ;	Raw cost for generated ic 100 : (0, 0.000000) count=0.020970
                                    561 ;	../strtoull.c: 96: else if (*ptr == '0')
                                    562 ;	genPointerGet
                                    563 ;	  setupDPTR - off=0 remat=(null) savea=0
      000150 AEr07r00         [ 4]  564 	ldx	_strtoull_ptr_10000_95
      000153 86*00            [ 3]  565 	stx	*(DPTR+0)
      000155 AEr08r00         [ 4]  566 	ldx	(_strtoull_ptr_10000_95 + 1)
      000158 86*01            [ 3]  567 	stx	*(DPTR+1)
      00015A A0 00            [ 2]  568 	ldy	#0x00
      00015C B1*00            [ 6]  569 	lda	[DPTR],y
                                    570 ;	Raw cost for generated ic 102 : (14, 21.000000) count=0.020970
                                    571 ;	genCmpEQorNE
      00015E C9 30            [ 2]  572 	cmp	#0x30
      000160 D0 10            [ 4]  573 	bne	00108$
                                    574 ;	Raw cost for generated ic 103 : (7, 7.600000) count=0.020970
                                    575 ;	skipping generated iCode
                                    576 ;	Raw cost for generated ic 104 : (0, 0.000000) count=0.020970
                                    577 ;	../strtoull.c: 98: b = 8;
                                    578 ;	genAssign
                                    579 ;	genAssignLit
      000162 A2 08            [ 2]  580 	ldx	#0x08
      000164 8Er13r00         [ 4]  581 	stx	_strtoull_b_10000_95
                                    582 ;	Raw cost for generated ic 107 : (5, 6.000000) count=0.015727
                                    583 ;	../strtoull.c: 99: ptr++;
                                    584 ;	genPlus
                                    585 ;	  genPlusInc
      000167 EEr07r00         [ 6]  586 	inc	_strtoull_ptr_10000_95
      00016A D0 03            [ 4]  587 	bne	00297$
      00016C EEr08r00         [ 6]  588 	inc	(_strtoull_ptr_10000_95 + 1)
      00016F                        589 00297$:
                                    590 ;	Raw cost for generated ic 109 : (8, 14.600000) count=0.015727
                                    591 ;	genGoto
      00016F 4Cr33r02         [ 3]  592 	jmp	00129$
                                    593 ;	Raw cost for generated ic 111 : (3, 3.000000) count=0.015727
                                    594 ;	genLabel
      000172                        595 00108$:
                                    596 ;	Raw cost for generated ic 112 : (0, 0.000000) count=0.000000
                                    597 ;	../strtoull.c: 102: b = 10;
                                    598 ;	genAssign
                                    599 ;	genAssignLit
      000172 A2 0A            [ 2]  600 	ldx	#0x0a
      000174 8Er13r00         [ 4]  601 	stx	_strtoull_b_10000_95
                                    602 ;	Raw cost for generated ic 113 : (5, 6.000000) count=0.000000
                                    603 ;	genGoto
      000177 4Cr33r02         [ 3]  604 	jmp	00129$
                                    605 ;	Raw cost for generated ic 117 : (3, 3.000000) count=0.000000
                                    606 ;	genLabel
      00017A                        607 00128$:
                                    608 ;	Raw cost for generated ic 118 : (0, 0.000000) count=0.249997
                                    609 ;	../strtoull.c: 105: else if (b == 16 && (!strncmp (ptr, "0x", 2) || !strncmp (ptr, "0X", 2)))
                                    610 ;	genCmpEQorNE
      00017A ADr13r00         [ 4]  611 	lda	_strtoull_b_10000_95
      00017D C9 10            [ 2]  612 	cmp	#0x10
      00017F D0 57            [ 4]  613 	bne	00123$
                                    614 ;	Raw cost for generated ic 119 : (10, 11.600000) count=0.249997
                                    615 ;	skipping generated iCode
                                    616 ;	Raw cost for generated ic 120 : (0, 0.000000) count=0.249997
                                    617 ;	skipping iCode since result will be rematerialized
                                    618 ;	Raw cost for generated ic 123 : (0, 0.000000) count=0.187496
                                    619 ;	genCast
                                    620 ;	genCopy
      000181 A9s00            [ 2]  621 	lda	#>___str_0
      000183 8Dr01r00         [ 4]  622 	sta	(_strncmp_PARM_2 + 1)
      000186 A9r00            [ 2]  623 	lda	#___str_0
      000188 8Dr00r00         [ 4]  624 	sta	_strncmp_PARM_2
                                    625 ;	Raw cost for generated ic 124 : (10, 12.000000) count=0.187496
                                    626 ;	genAssign
                                    627 ;	genAssignLit
      00018B A2 02            [ 2]  628 	ldx	#0x02
      00018D 8Er00r00         [ 4]  629 	stx	_strncmp_PARM_3
      000190 9Cr01r00         [ 4]  630 	stz	(_strncmp_PARM_3 + 1)
                                    631 ;	Raw cost for generated ic 127 : (8, 10.000000) count=0.187496
                                    632 ;	Raw cost for generated ic 125 : (0, 0.000000) count=0.187496
                                    633 ;	genCall
                                    634 ;	genSend
      000193 AEr08r00         [ 4]  635 	ldx	(_strtoull_ptr_10000_95 + 1)
      000196 ADr07r00         [ 4]  636 	lda	_strtoull_ptr_10000_95
      000199 20r00r00         [ 6]  637 	jsr	_strncmp
                                    638 ;	assignResultValue
                                    639 ;	Raw cost for generated ic 128 : (9, 14.000000) count=0.187496
                                    640 ;	genIfx
      00019C C9 00            [ 2]  641 	cmp	#0x00
                                    642 ;	genIfxJump : z
      00019E D0 04            [ 4]  643 	bne	00300$
      0001A0 E0 00            [ 2]  644 	cpx	#0x00
      0001A2 F0 23            [ 4]  645 	beq	00122$
      0001A4                        646 00300$:
                                    647 ;	Raw cost for generated ic 129 : (11, 12.200000) count=0.187496
                                    648 ;	skipping iCode since result will be rematerialized
                                    649 ;	Raw cost for generated ic 132 : (0, 0.000000) count=0.140622
                                    650 ;	genCast
                                    651 ;	genCopy
      0001A4 A9s00            [ 2]  652 	lda	#>___str_1
      0001A6 8Dr01r00         [ 4]  653 	sta	(_strncmp_PARM_2 + 1)
      0001A9 A9r03            [ 2]  654 	lda	#___str_1
      0001AB 8Dr00r00         [ 4]  655 	sta	_strncmp_PARM_2
                                    656 ;	Raw cost for generated ic 133 : (10, 12.000000) count=0.140622
                                    657 ;	genAssign
                                    658 ;	genAssignLit
      0001AE A2 02            [ 2]  659 	ldx	#0x02
      0001B0 8Er00r00         [ 4]  660 	stx	_strncmp_PARM_3
      0001B3 9Cr01r00         [ 4]  661 	stz	(_strncmp_PARM_3 + 1)
                                    662 ;	Raw cost for generated ic 136 : (8, 10.000000) count=0.140622
                                    663 ;	Raw cost for generated ic 134 : (0, 0.000000) count=0.140622
                                    664 ;	genCall
                                    665 ;	genSend
      0001B6 AEr08r00         [ 4]  666 	ldx	(_strtoull_ptr_10000_95 + 1)
      0001B9 ADr07r00         [ 4]  667 	lda	_strtoull_ptr_10000_95
      0001BC 20r00r00         [ 6]  668 	jsr	_strncmp
                                    669 ;	assignResultValue
                                    670 ;	Raw cost for generated ic 137 : (9, 14.000000) count=0.140622
                                    671 ;	genIfx
      0001BF C9 00            [ 2]  672 	cmp	#0x00
                                    673 ;	genIfxJump : z
      0001C1 D0 15            [ 4]  674 	bne	00123$
      0001C3 E0 00            [ 2]  675 	cpx	#0x00
      0001C5 D0 11            [ 4]  676 	bne	00123$
                                    677 ;	Raw cost for generated ic 138 : (11, 12.200000) count=0.140622
                                    678 ;	genLabel
      0001C7                        679 00122$:
                                    680 ;	Raw cost for generated ic 140 : (0, 0.000000) count=0.152341
                                    681 ;	../strtoull.c: 106: ptr += 2;
                                    682 ;	genPlus
                                    683 ;	  genPlusInc
      0001C7 ADr07r00         [ 4]  684 	lda	_strtoull_ptr_10000_95
      0001CA 18               [ 2]  685 	clc
      0001CB 69 02            [ 3]  686 	adc	#0x02
      0001CD 8Dr07r00         [ 4]  687 	sta	_strtoull_ptr_10000_95
      0001D0 90 61            [ 4]  688 	bcc	00129$
      0001D2 EEr08r00         [ 6]  689 	inc	(_strtoull_ptr_10000_95 + 1)
                                    690 ;	Raw cost for generated ic 141 : (14, 20.600000) count=0.152341
                                    691 ;	genGoto
      0001D5 4Cr33r02         [ 3]  692 	jmp	00129$
                                    693 ;	Raw cost for generated ic 143 : (3, 3.000000) count=0.152341
                                    694 ;	genLabel
      0001D8                        695 00123$:
                                    696 ;	Raw cost for generated ic 144 : (0, 0.000000) count=0.097654
                                    697 ;	../strtoull.c: 107: else if (b == 2 && (!strncmp (ptr, "0b", 2) || !strncmp (ptr, "0B", 2)))
                                    698 ;	genCmpEQorNE
      0001D8 ADr13r00         [ 4]  699 	lda	_strtoull_b_10000_95
      0001DB C9 02            [ 2]  700 	cmp	#0x02
      0001DD D0 54            [ 4]  701 	bne	00129$
                                    702 ;	Raw cost for generated ic 145 : (10, 11.600000) count=0.097654
                                    703 ;	skipping generated iCode
                                    704 ;	Raw cost for generated ic 146 : (0, 0.000000) count=0.097654
                                    705 ;	skipping iCode since result will be rematerialized
                                    706 ;	Raw cost for generated ic 149 : (0, 0.000000) count=0.073241
                                    707 ;	genCast
                                    708 ;	genCopy
      0001DF A9s00            [ 2]  709 	lda	#>___str_2
      0001E1 8Dr01r00         [ 4]  710 	sta	(_strncmp_PARM_2 + 1)
      0001E4 A9r06            [ 2]  711 	lda	#___str_2
      0001E6 8Dr00r00         [ 4]  712 	sta	_strncmp_PARM_2
                                    713 ;	Raw cost for generated ic 150 : (10, 12.000000) count=0.073241
                                    714 ;	genAssign
                                    715 ;	genAssignLit
      0001E9 A2 02            [ 2]  716 	ldx	#0x02
      0001EB 8Er00r00         [ 4]  717 	stx	_strncmp_PARM_3
      0001EE 9Cr01r00         [ 4]  718 	stz	(_strncmp_PARM_3 + 1)
                                    719 ;	Raw cost for generated ic 153 : (8, 10.000000) count=0.073241
                                    720 ;	Raw cost for generated ic 151 : (0, 0.000000) count=0.073241
                                    721 ;	genCall
                                    722 ;	genSend
      0001F1 AEr08r00         [ 4]  723 	ldx	(_strtoull_ptr_10000_95 + 1)
      0001F4 ADr07r00         [ 4]  724 	lda	_strtoull_ptr_10000_95
      0001F7 20r00r00         [ 6]  725 	jsr	_strncmp
                                    726 ;	assignResultValue
                                    727 ;	Raw cost for generated ic 154 : (9, 14.000000) count=0.073241
                                    728 ;	genIfx
      0001FA C9 00            [ 2]  729 	cmp	#0x00
                                    730 ;	genIfxJump : z
      0001FC D0 04            [ 4]  731 	bne	00306$
      0001FE E0 00            [ 2]  732 	cpx	#0x00
      000200 F0 23            [ 4]  733 	beq	00118$
      000202                        734 00306$:
                                    735 ;	Raw cost for generated ic 155 : (11, 12.200000) count=0.073241
                                    736 ;	skipping iCode since result will be rematerialized
                                    737 ;	Raw cost for generated ic 158 : (0, 0.000000) count=0.054931
                                    738 ;	genCast
                                    739 ;	genCopy
      000202 A9s00            [ 2]  740 	lda	#>___str_3
      000204 8Dr01r00         [ 4]  741 	sta	(_strncmp_PARM_2 + 1)
      000207 A9r09            [ 2]  742 	lda	#___str_3
      000209 8Dr00r00         [ 4]  743 	sta	_strncmp_PARM_2
                                    744 ;	Raw cost for generated ic 159 : (10, 12.000000) count=0.054931
                                    745 ;	genAssign
                                    746 ;	genAssignLit
      00020C A2 02            [ 2]  747 	ldx	#0x02
      00020E 8Er00r00         [ 4]  748 	stx	_strncmp_PARM_3
      000211 9Cr01r00         [ 4]  749 	stz	(_strncmp_PARM_3 + 1)
                                    750 ;	Raw cost for generated ic 162 : (8, 10.000000) count=0.054931
                                    751 ;	Raw cost for generated ic 160 : (0, 0.000000) count=0.054931
                                    752 ;	genCall
                                    753 ;	genSend
      000214 AEr08r00         [ 4]  754 	ldx	(_strtoull_ptr_10000_95 + 1)
      000217 ADr07r00         [ 4]  755 	lda	_strtoull_ptr_10000_95
      00021A 20r00r00         [ 6]  756 	jsr	_strncmp
                                    757 ;	assignResultValue
                                    758 ;	Raw cost for generated ic 163 : (9, 14.000000) count=0.054931
                                    759 ;	genIfx
      00021D C9 00            [ 2]  760 	cmp	#0x00
                                    761 ;	genIfxJump : z
      00021F D0 12            [ 4]  762 	bne	00129$
      000221 E0 00            [ 2]  763 	cpx	#0x00
      000223 D0 0E            [ 4]  764 	bne	00129$
                                    765 ;	Raw cost for generated ic 164 : (11, 12.200000) count=0.054931
                                    766 ;	genLabel
      000225                        767 00118$:
                                    768 ;	Raw cost for generated ic 166 : (0, 0.000000) count=0.059508
                                    769 ;	../strtoull.c: 108: ptr += 2;
                                    770 ;	genPlus
                                    771 ;	  genPlusInc
      000225 ADr07r00         [ 4]  772 	lda	_strtoull_ptr_10000_95
      000228 18               [ 2]  773 	clc
      000229 69 02            [ 3]  774 	adc	#0x02
      00022B 8Dr07r00         [ 4]  775 	sta	_strtoull_ptr_10000_95
      00022E 90 03            [ 4]  776 	bcc	00309$
      000230 EEr08r00         [ 6]  777 	inc	(_strtoull_ptr_10000_95 + 1)
      000233                        778 00309$:
                                    779 ;	Raw cost for generated ic 167 : (14, 20.600000) count=0.059508
                                    780 ;	genLabel
      000233                        781 00129$:
                                    782 ;	Raw cost for generated ic 171 : (0, 0.000000) count=0.989349
                                    783 ;	../strtoull.c: 111: if (_isdigit (*ptr, b) < 0)
                                    784 ;	genPointerGet
                                    785 ;	  setupDPTR - off=0 remat=(null) savea=0
      000233 AEr07r00         [ 4]  786 	ldx	_strtoull_ptr_10000_95
      000236 86*00            [ 3]  787 	stx	*(DPTR+0)
      000238 AEr08r00         [ 4]  788 	ldx	(_strtoull_ptr_10000_95 + 1)
      00023B 86*01            [ 3]  789 	stx	*(DPTR+1)
      00023D A0 00            [ 2]  790 	ldy	#0x00
      00023F B1*00            [ 6]  791 	lda	[DPTR],y
                                    792 ;	Raw cost for generated ic 173 : (14, 21.000000) count=0.989349
                                    793 ;	Raw cost for generated ic 174 : (0, 0.000000) count=0.989349
                                    794 ;	Raw cost for generated ic 175 : (0, 0.000000) count=0.989349
                                    795 ;	genCall
                                    796 ;	genSend
      000241 AEr13r00         [ 4]  797 	ldx	_strtoull_b_10000_95
      000244 20r00r00         [ 6]  798 	jsr	__isdigit
                                    799 ;	assignResultValue
      000247 85*00            [ 3]  800 	sta	*_strtoull_sloc0_1_0
                                    801 ;	Raw cost for generated ic 176 : (8, 13.000000) count=0.989349
                                    802 ;	genCmp
      000249 24*00            [ 3]  803 	bit	*_strtoull_sloc0_1_0
      00024B 10 2F            [ 4]  804 	bpl	00133$
                                    805 ;	Raw cost for generated ic 177 : (7, 8.600000) count=0.989349
                                    806 ;	skipping generated iCode
                                    807 ;	Raw cost for generated ic 178 : (0, 0.000000) count=0.989349
                                    808 ;	../strtoull.c: 113: if (endptr)
                                    809 ;	genIfx
      00024D ADr02r00         [ 4]  810 	lda	(_strtoull_PARM_2 + 1)
      000250 0Dr01r00         [ 4]  811 	ora	_strtoull_PARM_2
                                    812 ;	genIfxJump : z
      000253 F0 17            [ 4]  813 	beq	00131$
                                    814 ;	Raw cost for generated ic 181 : (11, 13.600000) count=0.742012
                                    815 ;	../strtoull.c: 114: *endptr = (char*)nptr;
                                    816 ;	genAssign
                                    817 ;	genCopy
      000255 AEr02r00         [ 4]  818 	ldx	(_strtoull_PARM_2 + 1)
      000258 ADr01r00         [ 4]  819 	lda	_strtoull_PARM_2
                                    820 ;	Raw cost for generated ic 184 : (6, 8.000000) count=0.556509
                                    821 ;	genPointerSet
                                    822 ;	  setupDPTR - off=0 remat=(null) savea=0
      00025B 85*00            [ 3]  823 	sta	*(DPTR+0)
      00025D 86*01            [ 3]  824 	stx	*(DPTR+1)
      00025F ADr05r00         [ 4]  825 	lda	_strtoull_nptr_10000_94
      000262 A0 00            [ 2]  826 	ldy	#0x00
      000264 91*00            [ 6]  827 	sta	[DPTR],y
      000266 ADr06r00         [ 4]  828 	lda	(_strtoull_nptr_10000_94 + 1)
      000269 C8               [ 2]  829 	iny
      00026A 91*00            [ 6]  830 	sta	[DPTR],y
                                    831 ;	Raw cost for generated ic 185 : (17, 30.000000) count=0.556509
                                    832 ;	genLabel
      00026C                        833 00131$:
                                    834 ;	Raw cost for generated ic 186 : (0, 0.000000) count=0.742012
                                    835 ;	../strtoull.c: 115: return (0);
                                    836 ;	genRet
      00026C A9 00            [ 2]  837 	lda	#0x00
      00026E AA               [ 2]  838 	tax
      00026F 85*00            [ 3]  839 	sta	*___SDCC_m6502_ret2
      000271 85*00            [ 3]  840 	sta	*___SDCC_m6502_ret3
      000273 85*00            [ 3]  841 	sta	*___SDCC_m6502_ret4
      000275 85*00            [ 3]  842 	sta	*___SDCC_m6502_ret5
      000277 85*00            [ 3]  843 	sta	*___SDCC_m6502_ret6
      000279 85*00            [ 3]  844 	sta	*___SDCC_m6502_ret7
      00027B 60               [ 6]  845 	rts
                                    846 ;	Raw cost for generated ic 187 : (18, 25.000000) count=0.742012
                                    847 ;	genLabel
      00027C                        848 00133$:
                                    849 ;	Raw cost for generated ic 188 : (0, 0.000000) count=0.989349
                                    850 ;	../strtoull.c: 118: for (ret = 0;; ptr++)
                                    851 ;	genAssign
                                    852 ;	genAssignLit
      00027C 9Cr09r00         [ 4]  853 	stz	_strtoull_ret_10000_95
      00027F 9Cr0Ar00         [ 4]  854 	stz	(_strtoull_ret_10000_95 + 1)
      000282 9Cr0Br00         [ 4]  855 	stz	(_strtoull_ret_10000_95 + 2)
      000285 9Cr0Cr00         [ 4]  856 	stz	(_strtoull_ret_10000_95 + 3)
      000288 9Cr0Dr00         [ 4]  857 	stz	(_strtoull_ret_10000_95 + 4)
      00028B 9Cr0Er00         [ 4]  858 	stz	(_strtoull_ret_10000_95 + 5)
      00028E 9Cr0Fr00         [ 4]  859 	stz	(_strtoull_ret_10000_95 + 6)
      000291 9Cr10r00         [ 4]  860 	stz	(_strtoull_ret_10000_95 + 7)
                                    861 ;	Raw cost for generated ic 189 : (24, 32.000000) count=0.989349
                                    862 ;	genAssign
                                    863 ;	genCopy
      000294 ADr08r00         [ 4]  864 	lda	(_strtoull_ptr_10000_95 + 1)
      000297 85*01            [ 3]  865 	sta	*(_strtoull_sloc0_1_0 + 1)
      000299 ADr07r00         [ 4]  866 	lda	_strtoull_ptr_10000_95
      00029C 85*00            [ 3]  867 	sta	*_strtoull_sloc0_1_0
                                    868 ;	Raw cost for generated ic 252 : (10, 14.000000) count=0.989349
                                    869 ;	genLabel
      00029E                        870 00144$:
                                    871 ;	Raw cost for generated ic 190 : (0, 0.000000) count=3.958165
                                    872 ;	../strtoull.c: 120: signed char digit = _isdigit (*ptr, b);
                                    873 ;	genPointerGet
      00029E A0 00            [ 2]  874 	ldy	#0x00
      0002A0 B1*00            [ 6]  875 	lda	[*_strtoull_sloc0_1_0],y
                                    876 ;	Raw cost for generated ic 192 : (4, 7.000000) count=3.958165
                                    877 ;	Raw cost for generated ic 193 : (0, 0.000000) count=3.958165
                                    878 ;	Raw cost for generated ic 194 : (0, 0.000000) count=3.958165
                                    879 ;	genCall
                                    880 ;	genSend
      0002A2 AEr13r00         [ 4]  881 	ldx	_strtoull_b_10000_95
      0002A5 20r00r00         [ 6]  882 	jsr	__isdigit
                                    883 ;	assignResultValue
      0002A8 8Dr14r00         [ 4]  884 	sta	_strtoull_digit_30000_112
                                    885 ;	Raw cost for generated ic 195 : (9, 14.000000) count=3.958165
                                    886 ;	../strtoull.c: 122: if (digit < 0)
                                    887 ;	genCmp
      0002AB 2Cr14r00         [ 4]  888 	bit	_strtoull_digit_30000_112
      0002AE 10 03            [ 4]  889 	bpl	00313$
      0002B0 4CrE8r03         [ 3]  890 	jmp	00138$
      0002B3                        891 00313$:
                                    892 ;	Raw cost for generated ic 197 : (8, 9.600000) count=3.958165
                                    893 ;	skipping generated iCode
                                    894 ;	Raw cost for generated ic 198 : (0, 0.000000) count=3.958165
                                    895 ;	../strtoull.c: 129: unsigned long long int oldret = ret;
                                    896 ;	genAssign
                                    897 ;	genCopy
      0002B3 ADr10r00         [ 4]  898 	lda	(_strtoull_ret_10000_95 + 7)
      0002B6 8Dr1Cr00         [ 4]  899 	sta	(_strtoull_oldret_30001_114 + 7)
      0002B9 ADr0Fr00         [ 4]  900 	lda	(_strtoull_ret_10000_95 + 6)
      0002BC 8Dr1Br00         [ 4]  901 	sta	(_strtoull_oldret_30001_114 + 6)
      0002BF ADr0Er00         [ 4]  902 	lda	(_strtoull_ret_10000_95 + 5)
      0002C2 8Dr1Ar00         [ 4]  903 	sta	(_strtoull_oldret_30001_114 + 5)
      0002C5 ADr0Dr00         [ 4]  904 	lda	(_strtoull_ret_10000_95 + 4)
      0002C8 8Dr19r00         [ 4]  905 	sta	(_strtoull_oldret_30001_114 + 4)
      0002CB ADr0Cr00         [ 4]  906 	lda	(_strtoull_ret_10000_95 + 3)
      0002CE 8Dr18r00         [ 4]  907 	sta	(_strtoull_oldret_30001_114 + 3)
      0002D1 ADr0Br00         [ 4]  908 	lda	(_strtoull_ret_10000_95 + 2)
      0002D4 8Dr17r00         [ 4]  909 	sta	(_strtoull_oldret_30001_114 + 2)
      0002D7 ADr0Ar00         [ 4]  910 	lda	(_strtoull_ret_10000_95 + 1)
      0002DA 8Dr16r00         [ 4]  911 	sta	(_strtoull_oldret_30001_114 + 1)
      0002DD ADr09r00         [ 4]  912 	lda	_strtoull_ret_10000_95
      0002E0 8Dr15r00         [ 4]  913 	sta	_strtoull_oldret_30001_114
                                    914 ;	Raw cost for generated ic 203 : (48, 64.000000) count=2.968624
                                    915 ;	../strtoull.c: 130: ret *= b;
                                    916 ;	genCast
                                    917 ;	genCopy
      0002E3 9Cr07r00         [ 4]  918 	stz	(__mullonglong_PARM_2 + 7)
      0002E6 9Cr06r00         [ 4]  919 	stz	(__mullonglong_PARM_2 + 6)
      0002E9 9Cr05r00         [ 4]  920 	stz	(__mullonglong_PARM_2 + 5)
      0002EC 9Cr04r00         [ 4]  921 	stz	(__mullonglong_PARM_2 + 4)
      0002EF 9Cr03r00         [ 4]  922 	stz	(__mullonglong_PARM_2 + 3)
      0002F2 9Cr02r00         [ 4]  923 	stz	(__mullonglong_PARM_2 + 2)
      0002F5 9Cr01r00         [ 4]  924 	stz	(__mullonglong_PARM_2 + 1)
      0002F8 ADr13r00         [ 4]  925 	lda	_strtoull_b_10000_95
      0002FB 8Dr00r00         [ 4]  926 	sta	__mullonglong_PARM_2
                                    927 ;	Raw cost for generated ic 204 : (27, 36.000000) count=2.968624
                                    928 ;	genAssign
                                    929 ;	genCopy
      0002FE ADr10r00         [ 4]  930 	lda	(_strtoull_ret_10000_95 + 7)
      000301 8Dr07r00         [ 4]  931 	sta	(__mullonglong_PARM_1 + 7)
      000304 ADr0Fr00         [ 4]  932 	lda	(_strtoull_ret_10000_95 + 6)
      000307 8Dr06r00         [ 4]  933 	sta	(__mullonglong_PARM_1 + 6)
      00030A ADr0Er00         [ 4]  934 	lda	(_strtoull_ret_10000_95 + 5)
      00030D 8Dr05r00         [ 4]  935 	sta	(__mullonglong_PARM_1 + 5)
      000310 ADr0Dr00         [ 4]  936 	lda	(_strtoull_ret_10000_95 + 4)
      000313 8Dr04r00         [ 4]  937 	sta	(__mullonglong_PARM_1 + 4)
      000316 ADr0Cr00         [ 4]  938 	lda	(_strtoull_ret_10000_95 + 3)
      000319 8Dr03r00         [ 4]  939 	sta	(__mullonglong_PARM_1 + 3)
      00031C ADr0Br00         [ 4]  940 	lda	(_strtoull_ret_10000_95 + 2)
      00031F 8Dr02r00         [ 4]  941 	sta	(__mullonglong_PARM_1 + 2)
      000322 ADr0Ar00         [ 4]  942 	lda	(_strtoull_ret_10000_95 + 1)
      000325 8Dr01r00         [ 4]  943 	sta	(__mullonglong_PARM_1 + 1)
      000328 ADr09r00         [ 4]  944 	lda	_strtoull_ret_10000_95
      00032B 8Dr00r00         [ 4]  945 	sta	__mullonglong_PARM_1
                                    946 ;	Raw cost for generated ic 261 : (48, 64.000000) count=2.968624
                                    947 ;	genCall
      00032E 20r00r00         [ 6]  948 	jsr	__mullonglong
                                    949 ;	assignResultValue
      000331 8Dr09r00         [ 4]  950 	sta	_strtoull_ret_10000_95
      000334 8Er0Ar00         [ 4]  951 	stx	(_strtoull_ret_10000_95 + 1)
      000337 A5*00            [ 3]  952 	lda	*___SDCC_m6502_ret2
      000339 8Dr0Br00         [ 4]  953 	sta	(_strtoull_ret_10000_95 + 2)
      00033C A5*00            [ 3]  954 	lda	*___SDCC_m6502_ret3
      00033E 8Dr0Cr00         [ 4]  955 	sta	(_strtoull_ret_10000_95 + 3)
      000341 A5*00            [ 3]  956 	lda	*___SDCC_m6502_ret4
      000343 8Dr0Dr00         [ 4]  957 	sta	(_strtoull_ret_10000_95 + 4)
      000346 A5*00            [ 3]  958 	lda	*___SDCC_m6502_ret5
      000348 8Dr0Er00         [ 4]  959 	sta	(_strtoull_ret_10000_95 + 5)
      00034B A5*00            [ 3]  960 	lda	*___SDCC_m6502_ret6
      00034D 8Dr0Fr00         [ 4]  961 	sta	(_strtoull_ret_10000_95 + 6)
      000350 A5*00            [ 3]  962 	lda	*___SDCC_m6502_ret7
      000352 8Dr10r00         [ 4]  963 	sta	(_strtoull_ret_10000_95 + 7)
                                    964 ;	Raw cost for generated ic 263 : (39, 56.000000) count=2.968624
                                    965 ;	../strtoull.c: 131: if (ret < oldret)
                                    966 ;	genCmp
      000355 ADr09r00         [ 4]  967 	lda	_strtoull_ret_10000_95
      000358 38               [ 2]  968 	sec
      000359 EDr15r00         [ 5]  969 	sbc	_strtoull_oldret_30001_114
      00035C 8A               [ 2]  970 	txa
      00035D EDr16r00         [ 5]  971 	sbc	(_strtoull_oldret_30001_114 + 1)
      000360 ADr0Br00         [ 4]  972 	lda	(_strtoull_ret_10000_95 + 2)
      000363 EDr17r00         [ 5]  973 	sbc	(_strtoull_oldret_30001_114 + 2)
      000366 ADr0Cr00         [ 4]  974 	lda	(_strtoull_ret_10000_95 + 3)
      000369 EDr18r00         [ 5]  975 	sbc	(_strtoull_oldret_30001_114 + 3)
      00036C ADr0Dr00         [ 4]  976 	lda	(_strtoull_ret_10000_95 + 4)
      00036F EDr19r00         [ 5]  977 	sbc	(_strtoull_oldret_30001_114 + 4)
      000372 ADr0Er00         [ 4]  978 	lda	(_strtoull_ret_10000_95 + 5)
      000375 EDr1Ar00         [ 5]  979 	sbc	(_strtoull_oldret_30001_114 + 5)
      000378 ADr0Fr00         [ 4]  980 	lda	(_strtoull_ret_10000_95 + 6)
      00037B EDr1Br00         [ 5]  981 	sbc	(_strtoull_oldret_30001_114 + 6)
      00037E ADr10r00         [ 4]  982 	lda	(_strtoull_ret_10000_95 + 7)
      000381 EDr1Cr00         [ 5]  983 	sbc	(_strtoull_oldret_30001_114 + 7)
      000384 B0 05            [ 4]  984 	bcs	00137$
                                    985 ;	Raw cost for generated ic 207 : (52, 69.599998) count=2.968624
                                    986 ;	skipping generated iCode
                                    987 ;	Raw cost for generated ic 208 : (0, 0.000000) count=2.968624
                                    988 ;	../strtoull.c: 132: range_error = true;
                                    989 ;	genAssign
                                    990 ;	genAssignLit
      000386 A2 01            [ 2]  991 	ldx	#0x01
      000388 8Er11r00         [ 4]  992 	stx	_strtoull_range_error_10000_95
                                    993 ;	Raw cost for generated ic 211 : (5, 6.000000) count=2.226612
                                    994 ;	genLabel
      00038B                        995 00137$:
                                    996 ;	Raw cost for generated ic 212 : (0, 0.000000) count=2.968816
                                    997 ;	../strtoull.c: 133: ret += (unsigned char)digit;
                                    998 ;	genCast
                                    999 ;	genCopy
      00038B ADr14r00         [ 4] 1000 	lda	_strtoull_digit_30000_112
                                   1001 ;	Raw cost for generated ic 213 : (3, 4.000000) count=2.968816
                                   1002 ;	genCast
      00038E 85*02            [ 3] 1003 	sta	*_strtoull_sloc1_1_0
      000390 64*03            [ 3] 1004 	stz	*(_strtoull_sloc1_1_0 + 1)
      000392 64*04            [ 3] 1005 	stz	*(_strtoull_sloc1_1_0 + 2)
      000394 64*05            [ 3] 1006 	stz	*(_strtoull_sloc1_1_0 + 3)
      000396 64*06            [ 3] 1007 	stz	*(_strtoull_sloc1_1_0 + 4)
      000398 64*07            [ 3] 1008 	stz	*(_strtoull_sloc1_1_0 + 5)
      00039A 64*08            [ 3] 1009 	stz	*(_strtoull_sloc1_1_0 + 6)
      00039C 64*09            [ 3] 1010 	stz	*(_strtoull_sloc1_1_0 + 7)
                                   1011 ;	Raw cost for generated ic 215 : (23, 31.000000) count=2.968816
                                   1012 ;	genPlus
      00039E ADr09r00         [ 4] 1013 	lda	_strtoull_ret_10000_95
      0003A1 18               [ 2] 1014 	clc
      0003A2 65*02            [ 4] 1015 	adc	*_strtoull_sloc1_1_0
      0003A4 8Dr09r00         [ 4] 1016 	sta	_strtoull_ret_10000_95
      0003A7 ADr0Ar00         [ 4] 1017 	lda	(_strtoull_ret_10000_95 + 1)
      0003AA 65*03            [ 4] 1018 	adc	*(_strtoull_sloc1_1_0 + 1)
      0003AC 8Dr0Ar00         [ 4] 1019 	sta	(_strtoull_ret_10000_95 + 1)
      0003AF ADr0Br00         [ 4] 1020 	lda	(_strtoull_ret_10000_95 + 2)
      0003B2 65*04            [ 4] 1021 	adc	*(_strtoull_sloc1_1_0 + 2)
      0003B4 8Dr0Br00         [ 4] 1022 	sta	(_strtoull_ret_10000_95 + 2)
      0003B7 ADr0Cr00         [ 4] 1023 	lda	(_strtoull_ret_10000_95 + 3)
      0003BA 65*05            [ 4] 1024 	adc	*(_strtoull_sloc1_1_0 + 3)
      0003BC 8Dr0Cr00         [ 4] 1025 	sta	(_strtoull_ret_10000_95 + 3)
      0003BF ADr0Dr00         [ 4] 1026 	lda	(_strtoull_ret_10000_95 + 4)
      0003C2 65*06            [ 4] 1027 	adc	*(_strtoull_sloc1_1_0 + 4)
      0003C4 8Dr0Dr00         [ 4] 1028 	sta	(_strtoull_ret_10000_95 + 4)
      0003C7 ADr0Er00         [ 4] 1029 	lda	(_strtoull_ret_10000_95 + 5)
      0003CA 65*07            [ 4] 1030 	adc	*(_strtoull_sloc1_1_0 + 5)
      0003CC 8Dr0Er00         [ 4] 1031 	sta	(_strtoull_ret_10000_95 + 5)
      0003CF ADr0Fr00         [ 4] 1032 	lda	(_strtoull_ret_10000_95 + 6)
      0003D2 65*08            [ 4] 1033 	adc	*(_strtoull_sloc1_1_0 + 6)
      0003D4 8Dr0Fr00         [ 4] 1034 	sta	(_strtoull_ret_10000_95 + 6)
      0003D7 ADr10r00         [ 4] 1035 	lda	(_strtoull_ret_10000_95 + 7)
      0003DA 65*09            [ 4] 1036 	adc	*(_strtoull_sloc1_1_0 + 7)
      0003DC 8Dr10r00         [ 4] 1037 	sta	(_strtoull_ret_10000_95 + 7)
                                   1038 ;	Raw cost for generated ic 216 : (65, 90.000000) count=2.968816
                                   1039 ;	../strtoull.c: 118: for (ret = 0;; ptr++)
                                   1040 ;	genPlus
                                   1041 ;	  genPlusInc
      0003DF E6*00            [ 5] 1042 	inc	*_strtoull_sloc0_1_0
      0003E1 D0 02            [ 4] 1043 	bne	00315$
      0003E3 E6*01            [ 5] 1044 	inc	*(_strtoull_sloc0_1_0 + 1)
      0003E5                       1045 00315$:
                                   1046 ;	Raw cost for generated ic 220 : (6, 12.600000) count=2.968816
                                   1047 ;	genGoto
      0003E5 4Cr9Er02         [ 3] 1048 	jmp	00144$
                                   1049 ;	Raw cost for generated ic 222 : (3, 3.000000) count=2.968816
                                   1050 ;	genLabel
      0003E8                       1051 00138$:
                                   1052 ;	Raw cost for generated ic 223 : (0, 0.000000) count=0.989605
                                   1053 ;	../strtoull.c: 138: if (endptr)
                                   1054 ;	genIfx
      0003E8 ADr02r00         [ 4] 1055 	lda	(_strtoull_PARM_2 + 1)
      0003EB 0Dr01r00         [ 4] 1056 	ora	_strtoull_PARM_2
                                   1057 ;	genIfxJump : z
      0003EE F0 15            [ 4] 1058 	beq	00140$
                                   1059 ;	Raw cost for generated ic 224 : (11, 13.600000) count=0.989605
                                   1060 ;	../strtoull.c: 139: *endptr = (char*)ptr;
                                   1061 ;	genAssign
                                   1062 ;	genCopy
      0003F0 AEr02r00         [ 4] 1063 	ldx	(_strtoull_PARM_2 + 1)
      0003F3 ADr01r00         [ 4] 1064 	lda	_strtoull_PARM_2
                                   1065 ;	Raw cost for generated ic 227 : (6, 8.000000) count=0.742204
                                   1066 ;	genPointerSet
                                   1067 ;	  setupDPTR - off=0 remat=(null) savea=0
      0003F6 85*00            [ 3] 1068 	sta	*(DPTR+0)
      0003F8 86*01            [ 3] 1069 	stx	*(DPTR+1)
      0003FA A5*00            [ 3] 1070 	lda	*_strtoull_sloc0_1_0
      0003FC A0 00            [ 2] 1071 	ldy	#0x00
      0003FE 91*00            [ 6] 1072 	sta	[DPTR],y
      000400 A5*01            [ 3] 1073 	lda	*(_strtoull_sloc0_1_0 + 1)
      000402 C8               [ 2] 1074 	iny
      000403 91*00            [ 6] 1075 	sta	[DPTR],y
                                   1076 ;	Raw cost for generated ic 228 : (15, 28.000000) count=0.742204
                                   1077 ;	genLabel
      000405                       1078 00140$:
                                   1079 ;	Raw cost for generated ic 229 : (0, 0.000000) count=0.989605
                                   1080 ;	../strtoull.c: 141: if (range_error)
                                   1081 ;	genIfx
      000405 ADr11r00         [ 4] 1082 	lda	_strtoull_range_error_10000_95
                                   1083 ;	genIfxJump : z
      000408 F0 18            [ 4] 1084 	beq	00142$
                                   1085 ;	Raw cost for generated ic 230 : (8, 9.600000) count=0.989605
                                   1086 ;	../strtoull.c: 143: errno = ERANGE;
                                   1087 ;	genAssign
                                   1088 ;	genAssignLit
      00040A A2 22            [ 2] 1089 	ldx	#0x22
      00040C 8Er00r00         [ 4] 1090 	stx	_errno
      00040F 9Cr01r00         [ 4] 1091 	stz	(_errno + 1)
                                   1092 ;	Raw cost for generated ic 234 : (8, 10.000000) count=0.742204
                                   1093 ;	../strtoull.c: 144: return (ULLONG_MAX);
                                   1094 ;	genRet
      000412 A9 FF            [ 2] 1095 	lda	#0xff
      000414 AA               [ 2] 1096 	tax
      000415 85*00            [ 3] 1097 	sta	*___SDCC_m6502_ret2
      000417 85*00            [ 3] 1098 	sta	*___SDCC_m6502_ret3
      000419 85*00            [ 3] 1099 	sta	*___SDCC_m6502_ret4
      00041B 85*00            [ 3] 1100 	sta	*___SDCC_m6502_ret5
      00041D 85*00            [ 3] 1101 	sta	*___SDCC_m6502_ret6
      00041F 85*00            [ 3] 1102 	sta	*___SDCC_m6502_ret7
      000421 60               [ 6] 1103 	rts
                                   1104 ;	Raw cost for generated ic 235 : (18, 25.000000) count=0.742204
                                   1105 ;	genLabel
      000422                       1106 00142$:
                                   1107 ;	Raw cost for generated ic 236 : (0, 0.000000) count=0.989605
                                   1108 ;	../strtoull.c: 147: return (neg ? -ret : ret);
                                   1109 ;	genIfx
      000422 ADr12r00         [ 4] 1110 	lda	_strtoull_neg_10000_95
                                   1111 ;	genIfxJump : z
      000425 F0 3C            [ 4] 1112 	beq	00151$
                                   1113 ;	Raw cost for generated ic 237 : (8, 9.600000) count=0.989605
                                   1114 ;	genUminus
      000427 A9 00            [ 2] 1115 	lda	#0x00
      000429 38               [ 2] 1116 	sec
      00042A EDr09r00         [ 5] 1117 	sbc	_strtoull_ret_10000_95
      00042D 85*02            [ 3] 1118 	sta	*_strtoull_sloc1_1_0
      00042F A9 00            [ 2] 1119 	lda	#0x00
      000431 EDr0Ar00         [ 5] 1120 	sbc	(_strtoull_ret_10000_95 + 1)
      000434 85*03            [ 3] 1121 	sta	*(_strtoull_sloc1_1_0 + 1)
      000436 A9 00            [ 2] 1122 	lda	#0x00
      000438 EDr0Br00         [ 5] 1123 	sbc	(_strtoull_ret_10000_95 + 2)
      00043B 85*04            [ 3] 1124 	sta	*(_strtoull_sloc1_1_0 + 2)
      00043D A9 00            [ 2] 1125 	lda	#0x00
      00043F EDr0Cr00         [ 5] 1126 	sbc	(_strtoull_ret_10000_95 + 3)
      000442 85*05            [ 3] 1127 	sta	*(_strtoull_sloc1_1_0 + 3)
      000444 A9 00            [ 2] 1128 	lda	#0x00
      000446 EDr0Dr00         [ 5] 1129 	sbc	(_strtoull_ret_10000_95 + 4)
      000449 85*06            [ 3] 1130 	sta	*(_strtoull_sloc1_1_0 + 4)
      00044B A9 00            [ 2] 1131 	lda	#0x00
      00044D EDr0Er00         [ 5] 1132 	sbc	(_strtoull_ret_10000_95 + 5)
      000450 85*07            [ 3] 1133 	sta	*(_strtoull_sloc1_1_0 + 5)
      000452 A9 00            [ 2] 1134 	lda	#0x00
      000454 EDr0Fr00         [ 5] 1135 	sbc	(_strtoull_ret_10000_95 + 6)
      000457 85*08            [ 3] 1136 	sta	*(_strtoull_sloc1_1_0 + 6)
      000459 A9 00            [ 2] 1137 	lda	#0x00
      00045B EDr10r00         [ 5] 1138 	sbc	(_strtoull_ret_10000_95 + 7)
      00045E 85*09            [ 3] 1139 	sta	*(_strtoull_sloc1_1_0 + 7)
                                   1140 ;	Raw cost for generated ic 238 : (57, 74.000000) count=0.742204
                                   1141 ;	genGoto
      000460 4Cr8Br04         [ 3] 1142 	jmp	00152$
                                   1143 ;	Raw cost for generated ic 240 : (3, 3.000000) count=0.742204
                                   1144 ;	genLabel
      000463                       1145 00151$:
                                   1146 ;	Raw cost for generated ic 241 : (0, 0.000000) count=0.247540
                                   1147 ;	genAssign
                                   1148 ;	genCopy
      000463 ADr10r00         [ 4] 1149 	lda	(_strtoull_ret_10000_95 + 7)
      000466 85*09            [ 3] 1150 	sta	*(_strtoull_sloc1_1_0 + 7)
      000468 ADr0Fr00         [ 4] 1151 	lda	(_strtoull_ret_10000_95 + 6)
      00046B 85*08            [ 3] 1152 	sta	*(_strtoull_sloc1_1_0 + 6)
      00046D ADr0Er00         [ 4] 1153 	lda	(_strtoull_ret_10000_95 + 5)
      000470 85*07            [ 3] 1154 	sta	*(_strtoull_sloc1_1_0 + 5)
      000472 ADr0Dr00         [ 4] 1155 	lda	(_strtoull_ret_10000_95 + 4)
      000475 85*06            [ 3] 1156 	sta	*(_strtoull_sloc1_1_0 + 4)
      000477 ADr0Cr00         [ 4] 1157 	lda	(_strtoull_ret_10000_95 + 3)
      00047A 85*05            [ 3] 1158 	sta	*(_strtoull_sloc1_1_0 + 3)
      00047C ADr0Br00         [ 4] 1159 	lda	(_strtoull_ret_10000_95 + 2)
      00047F 85*04            [ 3] 1160 	sta	*(_strtoull_sloc1_1_0 + 2)
      000481 ADr0Ar00         [ 4] 1161 	lda	(_strtoull_ret_10000_95 + 1)
      000484 85*03            [ 3] 1162 	sta	*(_strtoull_sloc1_1_0 + 1)
      000486 ADr09r00         [ 4] 1163 	lda	_strtoull_ret_10000_95
      000489 85*02            [ 3] 1164 	sta	*_strtoull_sloc1_1_0
                                   1165 ;	Raw cost for generated ic 242 : (40, 56.000000) count=0.247540
                                   1166 ;	genLabel
      00048B                       1167 00152$:
                                   1168 ;	Raw cost for generated ic 243 : (0, 0.000000) count=0.989744
                                   1169 ;	genRet
      00048B A5*09            [ 3] 1170 	lda	*(_strtoull_sloc1_1_0 + 7)
      00048D 85*00            [ 3] 1171 	sta	*___SDCC_m6502_ret7
      00048F A5*08            [ 3] 1172 	lda	*(_strtoull_sloc1_1_0 + 6)
      000491 85*00            [ 3] 1173 	sta	*___SDCC_m6502_ret6
      000493 A5*07            [ 3] 1174 	lda	*(_strtoull_sloc1_1_0 + 5)
      000495 85*00            [ 3] 1175 	sta	*___SDCC_m6502_ret5
      000497 A5*06            [ 3] 1176 	lda	*(_strtoull_sloc1_1_0 + 4)
      000499 85*00            [ 3] 1177 	sta	*___SDCC_m6502_ret4
      00049B A5*05            [ 3] 1178 	lda	*(_strtoull_sloc1_1_0 + 3)
      00049D 85*00            [ 3] 1179 	sta	*___SDCC_m6502_ret3
      00049F A5*04            [ 3] 1180 	lda	*(_strtoull_sloc1_1_0 + 2)
      0004A1 85*00            [ 3] 1181 	sta	*___SDCC_m6502_ret2
      0004A3 A6*03            [ 3] 1182 	ldx	*(_strtoull_sloc1_1_0 + 1)
      0004A5 A5*02            [ 3] 1183 	lda	*_strtoull_sloc1_1_0
                                   1184 ;	Raw cost for generated ic 244 : (28, 42.000000) count=0.989744
                                   1185 ;	genLabel
                                   1186 ;	Raw cost for generated ic 245 : (0, 0.000000) count=0.989744
                                   1187 ;	../strtoull.c: 148: }
                                   1188 ;	genEndFunction
      0004A7 60               [ 6] 1189 	rts
                                   1190 ;	Raw cost for generated ic 246 : (1, 6.000000) count=0.989744
                                   1191 	.area CODE
                                   1192 	.area RODATA
                                   1193 	.area RODATA
      000000                       1194 ___str_0:
      000000 30 78                 1195 	.ascii "0x"
      000002 00                    1196 	.db 0x00
                                   1197 	.area CODE
                                   1198 	.area RODATA
      000003                       1199 ___str_1:
      000003 30 58                 1200 	.ascii "0X"
      000005 00                    1201 	.db 0x00
                                   1202 	.area CODE
                                   1203 	.area RODATA
      000006                       1204 ___str_2:
      000006 30 62                 1205 	.ascii "0b"
      000008 00                    1206 	.db 0x00
                                   1207 	.area CODE
                                   1208 	.area RODATA
      000009                       1209 ___str_3:
      000009 30 42                 1210 	.ascii "0B"
      00000B 00                    1211 	.db 0x00
                                   1212 	.area CODE
                                   1213 	.area XINIT
                                   1214 	.area CABS    (ABS)
