                                      1 ;--------------------------------------------------------
                                      2 ; File Created by SDCC : free open source ISO C Compiler
                                      3 ; Version 4.5.10 #15691 (Linux)
                                      4 ;--------------------------------------------------------
                                      5 	.module strtoul
                                      6 	
      000000                          7 	.r65c02
                                      8 	.optsdcc -mmos65c02
                                      9 
                                     10 ;--------------------------------------------------------
                                     11 ;  Ordering of segments for the linker.
                                     12 ;--------------------------------------------------------
                                     13 	.area ZP      (PAG)
                                     14 	.area OSEG    (PAG, OVR)
                                     15 	.area _CODE
                                     16 	.area GSINIT
                                     17 	.area GSFINAL
                                     18 	.area CODE
                                     19 	.area RODATA
                                     20 	.area XINIT
                                     21 	.area _DATA
                                     22 	.area DATA
                                     23 	.area BSS
                                     24 ;--------------------------------------------------------
                                     25 ; Public variables in this module
                                     26 ;--------------------------------------------------------
                                     27 	.globl _strncmp
                                     28 	.globl _strtoul_PARM_3
                                     29 	.globl _strtoul_PARM_2
                                     30 	.globl _strtoul
                                     31 ;--------------------------------------------------------
                                     32 ; ZP ram data
                                     33 ;--------------------------------------------------------
                                     34 	.area ZP      (PAG)
      000000                         35 _strtoul_sloc0_1_0:
      000000                         36 	.ds 1
      000001                         37 _strtoul_sloc1_1_0:
      000001                         38 	.ds 2
      000003                         39 _strtoul_sloc2_1_0:
      000003                         40 	.ds 8
      00000B                         41 _strtoul_sloc3_1_0:
      00000B                         42 	.ds 8
                                     43 ;--------------------------------------------------------
                                     44 ; overlayable items in ram
                                     45 ;--------------------------------------------------------
                                     46 ;--------------------------------------------------------
                                     47 ; uninitialized external ram data
                                     48 ;--------------------------------------------------------
                                     49 	.area BSS
      000000                         50 __isdigit_base_10000_141:
      000000                         51 	.ds 1
      000001                         52 _strtoul_PARM_2:
      000001                         53 	.ds 2
      000003                         54 _strtoul_PARM_3:
      000003                         55 	.ds 2
      000005                         56 _strtoul_nptr_10000_147:
      000005                         57 	.ds 2
      000007                         58 _strtoul_ptr_10000_148:
      000007                         59 	.ds 2
      000009                         60 _strtoul_ret_10000_148:
      000009                         61 	.ds 4
      00000D                         62 _strtoul_range_error_10000_148:
      00000D                         63 	.ds 1
      00000E                         64 _strtoul_neg_10000_148:
      00000E                         65 	.ds 1
      00000F                         66 _strtoul_b_10000_148:
      00000F                         67 	.ds 1
      000010                         68 _strtoul_digit_30000_165:
      000010                         69 	.ds 1
      000011                         70 _strtoul_result_60000_199:
      000011                         71 	.ds 8
      000019                         72 _strtoul_result_60000_247:
      000019                         73 	.ds 8
                                     74 ;--------------------------------------------------------
                                     75 ; absolute external ram data
                                     76 ;--------------------------------------------------------
                                     77 	.area DABS    (ABS)
                                     78 ;--------------------------------------------------------
                                     79 ; initialized external ram data
                                     80 ;--------------------------------------------------------
                                     81 	.area DATA
                                     82 ;--------------------------------------------------------
                                     83 ; global & static initialisations
                                     84 ;--------------------------------------------------------
                                     85 	.area _CODE
                                     86 	.area GSINIT
                                     87 	.area GSFINAL
                                     88 	.area GSINIT
                                     89 ;--------------------------------------------------------
                                     90 ; Home
                                     91 ;--------------------------------------------------------
                                     92 	.area _CODE
                                     93 	.area _CODE
                                     94 ;--------------------------------------------------------
                                     95 ; code
                                     96 ;--------------------------------------------------------
                                     97 	.area CODE
                                     98 ;------------------------------------------------------------
                                     99 ;Allocation info for local variables in function '_isdigit'
                                    100 ;------------------------------------------------------------
                                    101 ;base          Allocated with name '__isdigit_base_10000_141'
                                    102 ;c             Allocated to registers a 
                                    103 ;v             Allocated to registers a 
                                    104 ;------------------------------------------------------------
                                    105 ;	../strtoul.c: 40: static signed char _isdigit(const char c, unsigned char base)
                                    106 ;	genLabel
                                    107 ;	Raw cost for generated ic 0 : (0, 0.000000) count=1.000000
                                    108 ;	-----------------------------------------
                                    109 ;	 function _isdigit
                                    110 ;	-----------------------------------------
                                    111 ;	Register assignment is optimal.
                                    112 ;	Stack space usage: 0 bytes.
      000000                        113 __isdigit:
                                    114 ;	Raw cost for generated ic 1 : (0, 0.000000) count=1.000000
                                    115 ;	genReceive
                                    116 ;	Raw cost for generated ic 2 : (0, 0.000000) count=1.000000
                                    117 ;	genReceive
      000000 8Er00r00         [ 4]  118 	stx	__isdigit_base_10000_141
                                    119 ;	Raw cost for generated ic 3 : (3, 4.000000) count=1.000000
                                    120 ;	../strtoul.c: 44: if (c >= '0' && c <= '9')
                                    121 ;	genCmp
      000003 C9 30            [ 2]  122 	cmp	#0x30
      000005 90 0C            [ 4]  123 	bcc	00110$
                                    124 ;	Raw cost for generated ic 4 : (7, 7.600000) count=1.000000
                                    125 ;	skipping generated iCode
                                    126 ;	Raw cost for generated ic 5 : (0, 0.000000) count=1.000000
                                    127 ;	genCmp
      000007 C9 39            [ 2]  128 	cmp	#0x39
      000009 F0 02            [ 4]  129 	beq	00160$
      00000B B0 06            [ 4]  130 	bcs	00110$
      00000D                        131 00160$:
                                    132 ;	Raw cost for generated ic 8 : (9, 10.200000) count=0.750000
                                    133 ;	skipping generated iCode
                                    134 ;	Raw cost for generated ic 9 : (0, 0.000000) count=0.750000
                                    135 ;	../strtoul.c: 45: v = c - '0';
                                    136 ;	genCast
                                    137 ;	genCopy
                                    138 ;	Raw cost for generated ic 12 : (0, 0.000000) count=0.562500
                                    139 ;	genMinus
                                    140 ;	  genMinusDec - size=1  icount=48
      00000D 38               [ 2]  141 	sec
      00000E E9 30            [ 3]  142 	sbc	#0x30
                                    143 ;	Raw cost for generated ic 13 : (3, 4.000000) count=0.562500
                                    144 ;	genGoto
      000010 4Cr36r00         [ 3]  145 	jmp	00111$
                                    146 ;	Raw cost for generated ic 15 : (3, 3.000000) count=0.562500
                                    147 ;	genLabel
      000013                        148 00110$:
                                    149 ;	Raw cost for generated ic 16 : (0, 0.000000) count=0.437500
                                    150 ;	../strtoul.c: 46: else if (c >= 'a' && c <='z')
                                    151 ;	genCmp
      000013 C9 61            [ 2]  152 	cmp	#0x61
      000015 90 0C            [ 4]  153 	bcc	00106$
                                    154 ;	Raw cost for generated ic 17 : (7, 7.600000) count=0.437500
                                    155 ;	skipping generated iCode
                                    156 ;	Raw cost for generated ic 18 : (0, 0.000000) count=0.437500
                                    157 ;	genCmp
      000017 C9 7A            [ 2]  158 	cmp	#0x7a
      000019 F0 02            [ 4]  159 	beq	00163$
      00001B B0 06            [ 4]  160 	bcs	00106$
      00001D                        161 00163$:
                                    162 ;	Raw cost for generated ic 21 : (9, 10.200000) count=0.328125
                                    163 ;	skipping generated iCode
                                    164 ;	Raw cost for generated ic 22 : (0, 0.000000) count=0.328125
                                    165 ;	../strtoul.c: 47: v = c - 'a' + 10;
                                    166 ;	genCast
                                    167 ;	genCopy
                                    168 ;	Raw cost for generated ic 25 : (0, 0.000000) count=0.246094
                                    169 ;	genPlus
                                    170 ;	  genPlusInc
      00001D 18               [ 2]  171 	clc
      00001E 69 A9            [ 3]  172 	adc	#0xa9
                                    173 ;	Raw cost for generated ic 26 : (3, 4.000000) count=0.246094
                                    174 ;	genGoto
      000020 4Cr36r00         [ 3]  175 	jmp	00111$
                                    176 ;	Raw cost for generated ic 28 : (3, 3.000000) count=0.246094
                                    177 ;	genLabel
      000023                        178 00106$:
                                    179 ;	Raw cost for generated ic 29 : (0, 0.000000) count=0.191406
                                    180 ;	../strtoul.c: 48: else if (c >= 'A' && c <='Z')
                                    181 ;	genCmp
      000023 C9 41            [ 2]  182 	cmp	#0x41
      000025 90 0C            [ 4]  183 	bcc	00102$
                                    184 ;	Raw cost for generated ic 30 : (7, 7.600000) count=0.191406
                                    185 ;	skipping generated iCode
                                    186 ;	Raw cost for generated ic 31 : (0, 0.000000) count=0.191406
                                    187 ;	genCmp
      000027 C9 5A            [ 2]  188 	cmp	#0x5a
      000029 F0 02            [ 4]  189 	beq	00166$
      00002B B0 06            [ 4]  190 	bcs	00102$
      00002D                        191 00166$:
                                    192 ;	Raw cost for generated ic 34 : (9, 10.200000) count=0.143555
                                    193 ;	skipping generated iCode
                                    194 ;	Raw cost for generated ic 35 : (0, 0.000000) count=0.143555
                                    195 ;	../strtoul.c: 49: v = c - 'A' + 10;
                                    196 ;	genCast
                                    197 ;	genCopy
                                    198 ;	Raw cost for generated ic 38 : (0, 0.000000) count=0.107666
                                    199 ;	genPlus
                                    200 ;	  genPlusInc
      00002D 18               [ 2]  201 	clc
      00002E 69 C9            [ 3]  202 	adc	#0xc9
                                    203 ;	Raw cost for generated ic 39 : (3, 4.000000) count=0.107666
                                    204 ;	genGoto
      000030 4Cr36r00         [ 3]  205 	jmp	00111$
                                    206 ;	Raw cost for generated ic 41 : (3, 3.000000) count=0.107666
                                    207 ;	genLabel
      000033                        208 00102$:
                                    209 ;	Raw cost for generated ic 42 : (0, 0.000000) count=0.083740
                                    210 ;	../strtoul.c: 51: return (-1);
                                    211 ;	genRet
      000033 A9 FF            [ 2]  212 	lda	#0xff
      000035 60               [ 6]  213 	rts
                                    214 ;	Raw cost for generated ic 43 : (5, 5.000000) count=0.083740
                                    215 ;	genLabel
      000036                        216 00111$:
                                    217 ;	Raw cost for generated ic 46 : (0, 0.000000) count=1.000000
                                    218 ;	../strtoul.c: 53: if (v >= base)
                                    219 ;	genCmp
      000036 CDr00r00         [ 4]  220 	cmp	__isdigit_base_10000_141
      000039 90 02            [ 4]  221 	bcc	00114$
                                    222 ;	Raw cost for generated ic 47 : (8, 9.600000) count=1.000000
                                    223 ;	skipping generated iCode
                                    224 ;	Raw cost for generated ic 48 : (0, 0.000000) count=1.000000
                                    225 ;	../strtoul.c: 54: return (-1);
                                    226 ;	genRet
      00003B A9 FF            [ 2]  227 	lda	#0xff
                                    228 ;	Raw cost for generated ic 51 : (5, 5.000000) count=0.750000
                                    229 ;	genLabel
                                    230 ;	Raw cost for generated ic 52 : (0, 0.000000) count=1.000000
                                    231 ;	../strtoul.c: 56: return (v);
                                    232 ;	genRet
                                    233 ;	Raw cost for generated ic 53 : (0, 0.000000) count=1.000000
                                    234 ;	genLabel
                                    235 ;	Raw cost for generated ic 54 : (0, 0.000000) count=1.000000
                                    236 ;	../strtoul.c: 57: }
                                    237 ;	genEndFunction
      00003D                        238 00114$:
      00003D 60               [ 6]  239 	rts
                                    240 ;	Raw cost for generated ic 55 : (1, 6.000000) count=1.000000
                                    241 ;------------------------------------------------------------
                                    242 ;Allocation info for local variables in function 'strtoul'
                                    243 ;------------------------------------------------------------
                                    244 ;sloc0         Allocated with name '_strtoul_sloc0_1_0'
                                    245 ;sloc1         Allocated with name '_strtoul_sloc1_1_0'
                                    246 ;sloc2         Allocated with name '_strtoul_sloc2_1_0'
                                    247 ;sloc3         Allocated with name '_strtoul_sloc3_1_0'
                                    248 ;endptr        Allocated with name '_strtoul_PARM_2'
                                    249 ;base          Allocated with name '_strtoul_PARM_3'
                                    250 ;nptr          Allocated with name '_strtoul_nptr_10000_147'
                                    251 ;__200000004   Allocated to registers 
                                    252 ;ptr           Allocated with name '_strtoul_ptr_10000_148'
                                    253 ;ret           Allocated with name '_strtoul_ret_10000_148'
                                    254 ;range_error   Allocated with name '_strtoul_range_error_10000_148'
                                    255 ;neg           Allocated with name '_strtoul_neg_10000_148'
                                    256 ;b             Allocated with name '_strtoul_b_10000_148'
                                    257 ;__200000005   Allocated to registers 
                                    258 ;c             Allocated to registers 
                                    259 ;__400000127   Allocated to registers a 
                                    260 ;__400000122   Allocated with name '_strtoul___400000122_40000_165'
                                    261 ;__400000117   Allocated with name '_strtoul___400000117_40000_165'
                                    262 ;__400000112   Allocated with name '_strtoul___400000112_40000_165'
                                    263 ;__400000107   Allocated with name '_strtoul___400000107_40000_165'
                                    264 ;__400000102   Allocated with name '_strtoul___400000102_40000_165'
                                    265 ;__400000097   Allocated with name '_strtoul___400000097_40000_165'
                                    266 ;__400000092   Allocated with name '_strtoul___400000092_40000_165'
                                    267 ;__400000087   Allocated with name '_strtoul___400000087_40000_165'
                                    268 ;__400000082   Allocated with name '_strtoul___400000082_40000_165'
                                    269 ;__400000077   Allocated with name '_strtoul___400000077_40000_165'
                                    270 ;__400000072   Allocated with name '_strtoul___400000072_40000_165'
                                    271 ;__400000067   Allocated with name '_strtoul___400000067_40000_165'
                                    272 ;__400000062   Allocated with name '_strtoul___400000062_40000_165'
                                    273 ;__400000057   Allocated with name '_strtoul___400000057_40000_165'
                                    274 ;__400000052   Allocated with name '_strtoul___400000052_40000_165'
                                    275 ;__400000047   Allocated to registers a 
                                    276 ;__400000042   Allocated with name '_strtoul___400000042_40000_165'
                                    277 ;__400000037   Allocated with name '_strtoul___400000037_40000_165'
                                    278 ;__400000032   Allocated with name '_strtoul___400000032_40000_165'
                                    279 ;__400000027   Allocated with name '_strtoul___400000027_40000_165'
                                    280 ;__400000022   Allocated with name '_strtoul___400000022_40000_165'
                                    281 ;__400000017   Allocated with name '_strtoul___400000017_40000_165'
                                    282 ;__400000012   Allocated with name '_strtoul___400000012_40000_165'
                                    283 ;__400000007   Allocated with name '_strtoul___400000007_40000_165'
                                    284 ;digit         Allocated with name '_strtoul_digit_30000_165'
                                    285 ;__400000008   Allocated with name '_strtoul___400000008_40000_173'
                                    286 ;__400000009   Allocated with name '_strtoul___400000009_40000_173'
                                    287 ;__400000010   Allocated with name '_strtoul___400000010_40000_173'
                                    288 ;r             Allocated with name '_strtoul_r_50000_174'
                                    289 ;a             Allocated with name '_strtoul_a_50000_174'
                                    290 ;b             Allocated with name '_strtoul_b_50000_174'
                                    291 ;result        Allocated with name '_strtoul_result_60000_175'
                                    292 ;__400000013   Allocated with name '_strtoul___400000013_40000_176'
                                    293 ;__400000014   Allocated with name '_strtoul___400000014_40000_176'
                                    294 ;__400000015   Allocated with name '_strtoul___400000015_40000_176'
                                    295 ;r             Allocated with name '_strtoul_r_50000_177'
                                    296 ;a             Allocated with name '_strtoul_a_50000_177'
                                    297 ;b             Allocated with name '_strtoul_b_50000_177'
                                    298 ;result        Allocated with name '_strtoul_result_60000_178'
                                    299 ;__400000018   Allocated with name '_strtoul___400000018_40000_179'
                                    300 ;__400000019   Allocated with name '_strtoul___400000019_40000_179'
                                    301 ;__400000020   Allocated with name '_strtoul___400000020_40000_179'
                                    302 ;r             Allocated with name '_strtoul_r_50000_180'
                                    303 ;a             Allocated with name '_strtoul_a_50000_180'
                                    304 ;b             Allocated with name '_strtoul_b_50000_180'
                                    305 ;result        Allocated with name '_strtoul_result_60000_181'
                                    306 ;__400000023   Allocated with name '_strtoul___400000023_40000_182'
                                    307 ;__400000024   Allocated with name '_strtoul___400000024_40000_182'
                                    308 ;__400000025   Allocated with name '_strtoul___400000025_40000_182'
                                    309 ;r             Allocated with name '_strtoul_r_50000_183'
                                    310 ;a             Allocated with name '_strtoul_a_50000_183'
                                    311 ;b             Allocated with name '_strtoul_b_50000_183'
                                    312 ;result        Allocated with name '_strtoul_result_60000_184'
                                    313 ;__400000028   Allocated with name '_strtoul___400000028_40000_185'
                                    314 ;__400000029   Allocated with name '_strtoul___400000029_40000_185'
                                    315 ;__400000030   Allocated with name '_strtoul___400000030_40000_185'
                                    316 ;r             Allocated with name '_strtoul_r_50000_186'
                                    317 ;a             Allocated with name '_strtoul_a_50000_186'
                                    318 ;b             Allocated with name '_strtoul_b_50000_186'
                                    319 ;result        Allocated with name '_strtoul_result_60000_187'
                                    320 ;__400000033   Allocated with name '_strtoul___400000033_40000_188'
                                    321 ;__400000034   Allocated with name '_strtoul___400000034_40000_188'
                                    322 ;__400000035   Allocated with name '_strtoul___400000035_40000_188'
                                    323 ;r             Allocated with name '_strtoul_r_50000_189'
                                    324 ;a             Allocated with name '_strtoul_a_50000_189'
                                    325 ;b             Allocated with name '_strtoul_b_50000_189'
                                    326 ;result        Allocated with name '_strtoul_result_60000_190'
                                    327 ;__400000038   Allocated with name '_strtoul___400000038_40000_191'
                                    328 ;__400000039   Allocated with name '_strtoul___400000039_40000_191'
                                    329 ;__400000040   Allocated with name '_strtoul___400000040_40000_191'
                                    330 ;r             Allocated with name '_strtoul_r_50000_192'
                                    331 ;a             Allocated with name '_strtoul_a_50000_192'
                                    332 ;b             Allocated with name '_strtoul_b_50000_192'
                                    333 ;result        Allocated with name '_strtoul_result_60000_193'
                                    334 ;__400000043   Allocated with name '_strtoul___400000043_40000_194'
                                    335 ;__400000044   Allocated with name '_strtoul___400000044_40000_194'
                                    336 ;__400000045   Allocated with name '_strtoul___400000045_40000_194'
                                    337 ;r             Allocated with name '_strtoul_r_50000_195'
                                    338 ;a             Allocated with name '_strtoul_a_50000_195'
                                    339 ;b             Allocated with name '_strtoul_b_50000_195'
                                    340 ;result        Allocated with name '_strtoul_result_60000_196'
                                    341 ;__400000048   Allocated to registers 
                                    342 ;__400000049   Allocated with name '_strtoul___400000049_40000_197'
                                    343 ;__400000050   Allocated with name '_strtoul___400000050_40000_197'
                                    344 ;r             Allocated to registers 
                                    345 ;a             Allocated with name '_strtoul_a_50000_198'
                                    346 ;b             Allocated with name '_strtoul_b_50000_198'
                                    347 ;result        Allocated with name '_strtoul_result_60000_199'
                                    348 ;__400000053   Allocated with name '_strtoul___400000053_40000_200'
                                    349 ;__400000054   Allocated with name '_strtoul___400000054_40000_200'
                                    350 ;__400000055   Allocated with name '_strtoul___400000055_40000_200'
                                    351 ;r             Allocated with name '_strtoul_r_50000_201'
                                    352 ;a             Allocated with name '_strtoul_a_50000_201'
                                    353 ;b             Allocated with name '_strtoul_b_50000_201'
                                    354 ;result        Allocated with name '_strtoul_result_60000_202'
                                    355 ;__400000058   Allocated with name '_strtoul___400000058_40000_203'
                                    356 ;__400000059   Allocated with name '_strtoul___400000059_40000_203'
                                    357 ;__400000060   Allocated with name '_strtoul___400000060_40000_203'
                                    358 ;r             Allocated with name '_strtoul_r_50000_204'
                                    359 ;a             Allocated with name '_strtoul_a_50000_204'
                                    360 ;b             Allocated with name '_strtoul_b_50000_204'
                                    361 ;result        Allocated with name '_strtoul_result_60000_205'
                                    362 ;__400000063   Allocated with name '_strtoul___400000063_40000_206'
                                    363 ;__400000064   Allocated with name '_strtoul___400000064_40000_206'
                                    364 ;__400000065   Allocated with name '_strtoul___400000065_40000_206'
                                    365 ;r             Allocated with name '_strtoul_r_50000_207'
                                    366 ;a             Allocated with name '_strtoul_a_50000_207'
                                    367 ;b             Allocated with name '_strtoul_b_50000_207'
                                    368 ;result        Allocated with name '_strtoul_result_60000_208'
                                    369 ;__400000068   Allocated with name '_strtoul___400000068_40000_209'
                                    370 ;__400000069   Allocated with name '_strtoul___400000069_40000_209'
                                    371 ;__400000070   Allocated with name '_strtoul___400000070_40000_209'
                                    372 ;r             Allocated with name '_strtoul_r_50000_210'
                                    373 ;a             Allocated with name '_strtoul_a_50000_210'
                                    374 ;b             Allocated with name '_strtoul_b_50000_210'
                                    375 ;result        Allocated with name '_strtoul_result_60000_211'
                                    376 ;__400000073   Allocated with name '_strtoul___400000073_40000_212'
                                    377 ;__400000074   Allocated with name '_strtoul___400000074_40000_212'
                                    378 ;__400000075   Allocated with name '_strtoul___400000075_40000_212'
                                    379 ;r             Allocated with name '_strtoul_r_50000_213'
                                    380 ;a             Allocated with name '_strtoul_a_50000_213'
                                    381 ;b             Allocated with name '_strtoul_b_50000_213'
                                    382 ;result        Allocated with name '_strtoul_result_60000_214'
                                    383 ;__400000078   Allocated with name '_strtoul___400000078_40000_215'
                                    384 ;__400000079   Allocated with name '_strtoul___400000079_40000_215'
                                    385 ;__400000080   Allocated with name '_strtoul___400000080_40000_215'
                                    386 ;r             Allocated with name '_strtoul_r_50000_216'
                                    387 ;a             Allocated with name '_strtoul_a_50000_216'
                                    388 ;b             Allocated with name '_strtoul_b_50000_216'
                                    389 ;result        Allocated with name '_strtoul_result_60000_217'
                                    390 ;__400000083   Allocated with name '_strtoul___400000083_40000_218'
                                    391 ;__400000084   Allocated with name '_strtoul___400000084_40000_218'
                                    392 ;__400000085   Allocated with name '_strtoul___400000085_40000_218'
                                    393 ;r             Allocated with name '_strtoul_r_50000_219'
                                    394 ;a             Allocated with name '_strtoul_a_50000_219'
                                    395 ;b             Allocated with name '_strtoul_b_50000_219'
                                    396 ;result        Allocated with name '_strtoul_result_60000_220'
                                    397 ;__400000088   Allocated with name '_strtoul___400000088_40000_221'
                                    398 ;__400000089   Allocated with name '_strtoul___400000089_40000_221'
                                    399 ;__400000090   Allocated with name '_strtoul___400000090_40000_221'
                                    400 ;r             Allocated with name '_strtoul_r_50000_222'
                                    401 ;a             Allocated with name '_strtoul_a_50000_222'
                                    402 ;b             Allocated with name '_strtoul_b_50000_222'
                                    403 ;result        Allocated with name '_strtoul_result_60000_223'
                                    404 ;__400000093   Allocated with name '_strtoul___400000093_40000_224'
                                    405 ;__400000094   Allocated with name '_strtoul___400000094_40000_224'
                                    406 ;__400000095   Allocated with name '_strtoul___400000095_40000_224'
                                    407 ;r             Allocated with name '_strtoul_r_50000_225'
                                    408 ;a             Allocated with name '_strtoul_a_50000_225'
                                    409 ;b             Allocated with name '_strtoul_b_50000_225'
                                    410 ;result        Allocated with name '_strtoul_result_60000_226'
                                    411 ;__400000098   Allocated with name '_strtoul___400000098_40000_227'
                                    412 ;__400000099   Allocated with name '_strtoul___400000099_40000_227'
                                    413 ;__400000100   Allocated with name '_strtoul___400000100_40000_227'
                                    414 ;r             Allocated with name '_strtoul_r_50000_228'
                                    415 ;a             Allocated with name '_strtoul_a_50000_228'
                                    416 ;b             Allocated with name '_strtoul_b_50000_228'
                                    417 ;result        Allocated with name '_strtoul_result_60000_229'
                                    418 ;__400000103   Allocated with name '_strtoul___400000103_40000_230'
                                    419 ;__400000104   Allocated with name '_strtoul___400000104_40000_230'
                                    420 ;__400000105   Allocated with name '_strtoul___400000105_40000_230'
                                    421 ;r             Allocated with name '_strtoul_r_50000_231'
                                    422 ;a             Allocated with name '_strtoul_a_50000_231'
                                    423 ;b             Allocated with name '_strtoul_b_50000_231'
                                    424 ;result        Allocated with name '_strtoul_result_60000_232'
                                    425 ;__400000108   Allocated with name '_strtoul___400000108_40000_233'
                                    426 ;__400000109   Allocated with name '_strtoul___400000109_40000_233'
                                    427 ;__400000110   Allocated with name '_strtoul___400000110_40000_233'
                                    428 ;r             Allocated with name '_strtoul_r_50000_234'
                                    429 ;a             Allocated with name '_strtoul_a_50000_234'
                                    430 ;b             Allocated with name '_strtoul_b_50000_234'
                                    431 ;result        Allocated with name '_strtoul_result_60000_235'
                                    432 ;__400000113   Allocated with name '_strtoul___400000113_40000_236'
                                    433 ;__400000114   Allocated with name '_strtoul___400000114_40000_236'
                                    434 ;__400000115   Allocated with name '_strtoul___400000115_40000_236'
                                    435 ;r             Allocated with name '_strtoul_r_50000_237'
                                    436 ;a             Allocated with name '_strtoul_a_50000_237'
                                    437 ;b             Allocated with name '_strtoul_b_50000_237'
                                    438 ;result        Allocated with name '_strtoul_result_60000_238'
                                    439 ;__400000118   Allocated with name '_strtoul___400000118_40000_239'
                                    440 ;__400000119   Allocated with name '_strtoul___400000119_40000_239'
                                    441 ;__400000120   Allocated with name '_strtoul___400000120_40000_239'
                                    442 ;r             Allocated with name '_strtoul_r_50000_240'
                                    443 ;a             Allocated with name '_strtoul_a_50000_240'
                                    444 ;b             Allocated with name '_strtoul_b_50000_240'
                                    445 ;result        Allocated with name '_strtoul_result_60000_241'
                                    446 ;__400000123   Allocated with name '_strtoul___400000123_40000_242'
                                    447 ;__400000124   Allocated with name '_strtoul___400000124_40000_242'
                                    448 ;__400000125   Allocated with name '_strtoul___400000125_40000_242'
                                    449 ;r             Allocated with name '_strtoul_r_50000_243'
                                    450 ;a             Allocated with name '_strtoul_a_50000_243'
                                    451 ;b             Allocated with name '_strtoul_b_50000_243'
                                    452 ;result        Allocated with name '_strtoul_result_60000_244'
                                    453 ;__400000128   Allocated to registers 
                                    454 ;__400000129   Allocated with name '_strtoul___400000129_40000_245'
                                    455 ;__400000130   Allocated with name '_strtoul___400000130_40000_245'
                                    456 ;r             Allocated to registers 
                                    457 ;a             Allocated with name '_strtoul_a_50000_246'
                                    458 ;b             Allocated with name '_strtoul_b_50000_246'
                                    459 ;result        Allocated with name '_strtoul_result_60000_247'
                                    460 ;------------------------------------------------------------
                                    461 ;	../strtoul.c: 61: unsigned long int strtoul(const char *nptr, char **endptr, int base)
                                    462 ;	genLabel
                                    463 ;	Raw cost for generated ic 0 : (0, 0.000000) count=1.000000
                                    464 ;	-----------------------------------------
                                    465 ;	 function strtoul
                                    466 ;	-----------------------------------------
                                    467 ;	Register assignment might be sub-optimal.
                                    468 ;	Stack space usage: 0 bytes.
      00003E                        469 _strtoul:
                                    470 ;	Raw cost for generated ic 1 : (0, 0.000000) count=1.000000
                                    471 ;	genReceive
      00003E 8Dr05r00         [ 4]  472 	sta	_strtoul_nptr_10000_147
      000041 8Er06r00         [ 4]  473 	stx	(_strtoul_nptr_10000_147 + 1)
                                    474 ;	Raw cost for generated ic 2 : (6, 8.000000) count=1.000000
                                    475 ;	../strtoul.c: 65: bool range_error = false;
                                    476 ;	genAssign
                                    477 ;	genAssignLit
      000044 64*00            [ 3]  478 	stz	*_strtoul_sloc0_1_0
                                    479 ;	Raw cost for generated ic 4 : (3, 4.000000) count=1.000000
                                    480 ;	../strtoul.c: 66: bool neg = false;
                                    481 ;	genAssign
                                    482 ;	genAssignLit
      000046 9Cr0Er00         [ 4]  483 	stz	_strtoul_neg_10000_148
                                    484 ;	Raw cost for generated ic 5 : (3, 4.000000) count=1.000000
                                    485 ;	../strtoul.c: 67: unsigned char b = base;
                                    486 ;	genCast
                                    487 ;	genCopy
      000049 ADr03r00         [ 4]  488 	lda	_strtoul_PARM_3
      00004C 8Dr0Fr00         [ 4]  489 	sta	_strtoul_b_10000_148
                                    490 ;	Raw cost for generated ic 6 : (6, 8.000000) count=1.000000
                                    491 ;	../strtoul.c: 69: while (isblank (*ptr))
                                    492 ;	genAssign
                                    493 ;	genCopy
      00004F 8A               [ 2]  494 	txa
      000050 85*02            [ 3]  495 	sta	*(_strtoul_sloc1_1_0 + 1)
      000052 ADr05r00         [ 4]  496 	lda	_strtoul_nptr_10000_147
      000055 85*01            [ 3]  497 	sta	*_strtoul_sloc1_1_0
                                    498 ;	Raw cost for generated ic 284 : (8, 12.000000) count=1.000000
                                    499 ;	genLabel
      000057                        500 00101$:
                                    501 ;	Raw cost for generated ic 8 : (0, 0.000000) count=5.333324
                                    502 ;	genPointerGet
      000057 A0 00            [ 2]  503 	ldy	#0x00
      000059 B1*01            [ 6]  504 	lda	[*_strtoul_sloc1_1_0],y
                                    505 ;	Raw cost for generated ic 10 : (4, 7.000000) count=5.333324
                                    506 ;	./../../include/ctype.h: 53: return ((unsigned char)c == ' ' || (unsigned char)c == '\t');
                                    507 ;	genCast
                                    508 ;	genCopy
                                    509 ;	Raw cost for generated ic 14 : (0, 0.000000) count=5.333324
                                    510 ;	genCmpEQorNE
      00005B C9 20            [ 2]  511 	cmp	#0x20
      00005D F0 04            [ 4]  512 	beq	00172$
                                    513 ;	Raw cost for generated ic 15 : (7, 7.600000) count=5.333324
                                    514 ;	skipping generated iCode
                                    515 ;	Raw cost for generated ic 16 : (0, 0.000000) count=5.333324
                                    516 ;	genCmpEQorNE
      00005F C9 09            [ 2]  517 	cmp	#0x09
      000061 D0 09            [ 4]  518 	bne	00197$
                                    519 ;	Raw cost for generated ic 18 : (7, 7.600000) count=3.999992
                                    520 ;	skipping generated iCode
                                    521 ;	Raw cost for generated ic 19 : (0, 0.000000) count=3.999992
                                    522 ;	genLabel
      000063                        523 00172$:
                                    524 ;	Raw cost for generated ic 23 : (0, 0.000000) count=4.333324
                                    525 ;	../strtoul.c: 70: ptr++;
                                    526 ;	genPlus
                                    527 ;	  genPlusInc
      000063 E6*01            [ 5]  528 	inc	*_strtoul_sloc1_1_0
      000065 D0 F0            [ 4]  529 	bne	00101$
      000067 E6*02            [ 5]  530 	inc	*(_strtoul_sloc1_1_0 + 1)
                                    531 ;	Raw cost for generated ic 34 : (6, 12.600000) count=4.333324
                                    532 ;	genGoto
      000069 4Cr57r00         [ 3]  533 	jmp	00101$
                                    534 ;	Raw cost for generated ic 36 : (3, 3.000000) count=4.333324
                                    535 ;	genLabel
      00006C                        536 00197$:
                                    537 ;	Raw cost for generated ic 285 : (0, 0.000000) count=0.999997
                                    538 ;	genAssign
                                    539 ;	genCopy
      00006C A5*02            [ 3]  540 	lda	*(_strtoul_sloc1_1_0 + 1)
      00006E 8Dr08r00         [ 4]  541 	sta	(_strtoul_ptr_10000_148 + 1)
      000071 A5*01            [ 3]  542 	lda	*_strtoul_sloc1_1_0
      000073 8Dr07r00         [ 4]  543 	sta	_strtoul_ptr_10000_148
                                    544 ;	Raw cost for generated ic 286 : (10, 14.000000) count=0.999997
                                    545 ;	../strtoul.c: 73: switch(*ptr)
                                    546 ;	genPointerGet
      000076 A0 00            [ 2]  547 	ldy	#0x00
      000078 B1*01            [ 6]  548 	lda	[*_strtoul_sloc1_1_0],y
                                    549 ;	Raw cost for generated ic 39 : (4, 7.000000) count=0.999997
                                    550 ;	genCmpEQorNE
      00007A C9 2B            [ 2]  551 	cmp	#0x2b
      00007C F0 09            [ 4]  552 	beq	00105$
                                    553 ;	Raw cost for generated ic 40 : (7, 7.600000) count=0.999997
                                    554 ;	skipping generated iCode
                                    555 ;	Raw cost for generated ic 41 : (0, 0.000000) count=0.999997
                                    556 ;	genCmpEQorNE
      00007E C9 2D            [ 2]  557 	cmp	#0x2d
      000080 D0 0D            [ 4]  558 	bne	00106$
                                    559 ;	Raw cost for generated ic 42 : (7, 7.600000) count=0.749996
                                    560 ;	skipping generated iCode
                                    561 ;	Raw cost for generated ic 43 : (0, 0.000000) count=0.749996
                                    562 ;	../strtoul.c: 76: neg = true;
                                    563 ;	genAssign
                                    564 ;	genAssignLit
      000082 A2 01            [ 2]  565 	ldx	#0x01
      000084 8Er0Er00         [ 4]  566 	stx	_strtoul_neg_10000_148
                                    567 ;	Raw cost for generated ic 46 : (5, 6.000000) count=0.562496
                                    568 ;	../strtoul.c: 77: case '+':
                                    569 ;	genLabel
      000087                        570 00105$:
                                    571 ;	Raw cost for generated ic 47 : (0, 0.000000) count=0.812494
                                    572 ;	../strtoul.c: 78: ptr++;
                                    573 ;	genPlus
                                    574 ;	  genPlusInc
      000087 EEr07r00         [ 6]  575 	inc	_strtoul_ptr_10000_148
      00008A D0 03            [ 4]  576 	bne	00319$
      00008C EEr08r00         [ 6]  577 	inc	(_strtoul_ptr_10000_148 + 1)
      00008F                        578 00319$:
                                    579 ;	Raw cost for generated ic 49 : (8, 14.600000) count=0.812494
                                    580 ;	../strtoul.c: 79: }
                                    581 ;	genLabel
      00008F                        582 00106$:
                                    583 ;	Raw cost for generated ic 51 : (0, 0.000000) count=0.999993
                                    584 ;	../strtoul.c: 82: if (!b)
                                    585 ;	genIfx
      00008F ADr0Fr00         [ 4]  586 	lda	_strtoul_b_10000_148
                                    587 ;	genIfxJump : z
      000092 F0 03            [ 4]  588 	beq	00321$
      000094 4Cr79r01         [ 3]  589 	jmp	00128$
      000097                        590 00321$:
                                    591 ;	Raw cost for generated ic 52 : (8, 9.600000) count=0.999993
                                    592 ;	../strtoul.c: 84: if (!strncmp (ptr, "0x", 2) || !strncmp (ptr, "0X", 2))
                                    593 ;	skipping iCode since result will be rematerialized
                                    594 ;	Raw cost for generated ic 55 : (0, 0.000000) count=0.749995
                                    595 ;	genCast
                                    596 ;	genCopy
      000097 A9s00            [ 2]  597 	lda	#>___str_0
      000099 8Dr01r00         [ 4]  598 	sta	(_strncmp_PARM_2 + 1)
      00009C A9r00            [ 2]  599 	lda	#___str_0
      00009E 8Dr00r00         [ 4]  600 	sta	_strncmp_PARM_2
                                    601 ;	Raw cost for generated ic 56 : (10, 12.000000) count=0.749995
                                    602 ;	genAssign
                                    603 ;	genAssignLit
      0000A1 A2 02            [ 2]  604 	ldx	#0x02
      0000A3 8Er00r00         [ 4]  605 	stx	_strncmp_PARM_3
      0000A6 9Cr01r00         [ 4]  606 	stz	(_strncmp_PARM_3 + 1)
                                    607 ;	Raw cost for generated ic 59 : (8, 10.000000) count=0.749995
                                    608 ;	Raw cost for generated ic 57 : (0, 0.000000) count=0.749995
                                    609 ;	genCall
                                    610 ;	genSend
      0000A9 AEr08r00         [ 4]  611 	ldx	(_strtoul_ptr_10000_148 + 1)
      0000AC ADr07r00         [ 4]  612 	lda	_strtoul_ptr_10000_148
      0000AF 20r00r00         [ 6]  613 	jsr	_strncmp
                                    614 ;	assignResultValue
                                    615 ;	Raw cost for generated ic 60 : (9, 14.000000) count=0.749995
                                    616 ;	genIfx
      0000B2 C9 00            [ 2]  617 	cmp	#0x00
                                    618 ;	genIfxJump : z
      0000B4 D0 04            [ 4]  619 	bne	00323$
      0000B6 E0 00            [ 2]  620 	cpx	#0x00
      0000B8 F0 23            [ 4]  621 	beq	00114$
      0000BA                        622 00323$:
                                    623 ;	Raw cost for generated ic 61 : (11, 12.200000) count=0.749995
                                    624 ;	skipping iCode since result will be rematerialized
                                    625 ;	Raw cost for generated ic 64 : (0, 0.000000) count=0.562496
                                    626 ;	genCast
                                    627 ;	genCopy
      0000BA A9s00            [ 2]  628 	lda	#>___str_1
      0000BC 8Dr01r00         [ 4]  629 	sta	(_strncmp_PARM_2 + 1)
      0000BF A9r03            [ 2]  630 	lda	#___str_1
      0000C1 8Dr00r00         [ 4]  631 	sta	_strncmp_PARM_2
                                    632 ;	Raw cost for generated ic 65 : (10, 12.000000) count=0.562496
                                    633 ;	genAssign
                                    634 ;	genAssignLit
      0000C4 A2 02            [ 2]  635 	ldx	#0x02
      0000C6 8Er00r00         [ 4]  636 	stx	_strncmp_PARM_3
      0000C9 9Cr01r00         [ 4]  637 	stz	(_strncmp_PARM_3 + 1)
                                    638 ;	Raw cost for generated ic 68 : (8, 10.000000) count=0.562496
                                    639 ;	Raw cost for generated ic 66 : (0, 0.000000) count=0.562496
                                    640 ;	genCall
                                    641 ;	genSend
      0000CC AEr08r00         [ 4]  642 	ldx	(_strtoul_ptr_10000_148 + 1)
      0000CF ADr07r00         [ 4]  643 	lda	_strtoul_ptr_10000_148
      0000D2 20r00r00         [ 6]  644 	jsr	_strncmp
                                    645 ;	assignResultValue
                                    646 ;	Raw cost for generated ic 69 : (9, 14.000000) count=0.562496
                                    647 ;	genIfx
      0000D5 C9 00            [ 2]  648 	cmp	#0x00
                                    649 ;	genIfxJump : z
      0000D7 D0 1A            [ 4]  650 	bne	00115$
      0000D9 E0 00            [ 2]  651 	cpx	#0x00
      0000DB D0 16            [ 4]  652 	bne	00115$
                                    653 ;	Raw cost for generated ic 70 : (11, 12.200000) count=0.562496
                                    654 ;	genLabel
      0000DD                        655 00114$:
                                    656 ;	Raw cost for generated ic 72 : (0, 0.000000) count=0.609371
                                    657 ;	../strtoul.c: 86: b = 16;
                                    658 ;	genAssign
                                    659 ;	genAssignLit
      0000DD A2 10            [ 2]  660 	ldx	#0x10
      0000DF 8Er0Fr00         [ 4]  661 	stx	_strtoul_b_10000_148
                                    662 ;	Raw cost for generated ic 73 : (5, 6.000000) count=0.609371
                                    663 ;	../strtoul.c: 87: ptr += 2;
                                    664 ;	genPlus
                                    665 ;	  genPlusInc
      0000E2 ADr07r00         [ 4]  666 	lda	_strtoul_ptr_10000_148
      0000E5 18               [ 2]  667 	clc
      0000E6 69 02            [ 3]  668 	adc	#0x02
      0000E8 8Dr07r00         [ 4]  669 	sta	_strtoul_ptr_10000_148
      0000EB 90 03            [ 4]  670 	bcc	00326$
      0000ED EEr08r00         [ 6]  671 	inc	(_strtoul_ptr_10000_148 + 1)
      0000F0                        672 00326$:
                                    673 ;	Raw cost for generated ic 74 : (14, 20.600000) count=0.609371
                                    674 ;	genGoto
      0000F0 4Cr32r02         [ 3]  675 	jmp	00129$
                                    676 ;	Raw cost for generated ic 76 : (3, 3.000000) count=0.609371
                                    677 ;	genLabel
      0000F3                        678 00115$:
                                    679 ;	Raw cost for generated ic 77 : (0, 0.000000) count=0.140623
                                    680 ;	../strtoul.c: 89: else if (!strncmp (ptr, "0b", 2) || !strncmp (ptr, "0B", 2))
                                    681 ;	skipping iCode since result will be rematerialized
                                    682 ;	Raw cost for generated ic 78 : (0, 0.000000) count=0.140623
                                    683 ;	genCast
                                    684 ;	genCopy
      0000F3 A9s00            [ 2]  685 	lda	#>___str_2
      0000F5 8Dr01r00         [ 4]  686 	sta	(_strncmp_PARM_2 + 1)
      0000F8 A9r06            [ 2]  687 	lda	#___str_2
      0000FA 8Dr00r00         [ 4]  688 	sta	_strncmp_PARM_2
                                    689 ;	Raw cost for generated ic 79 : (10, 12.000000) count=0.140623
                                    690 ;	genAssign
                                    691 ;	genAssignLit
      0000FD A2 02            [ 2]  692 	ldx	#0x02
      0000FF 8Er00r00         [ 4]  693 	stx	_strncmp_PARM_3
      000102 9Cr01r00         [ 4]  694 	stz	(_strncmp_PARM_3 + 1)
                                    695 ;	Raw cost for generated ic 82 : (8, 10.000000) count=0.140623
                                    696 ;	Raw cost for generated ic 80 : (0, 0.000000) count=0.140623
                                    697 ;	genCall
                                    698 ;	genSend
      000105 AEr08r00         [ 4]  699 	ldx	(_strtoul_ptr_10000_148 + 1)
      000108 ADr07r00         [ 4]  700 	lda	_strtoul_ptr_10000_148
      00010B 20r00r00         [ 6]  701 	jsr	_strncmp
                                    702 ;	assignResultValue
                                    703 ;	Raw cost for generated ic 83 : (9, 14.000000) count=0.140623
                                    704 ;	genIfx
      00010E C9 00            [ 2]  705 	cmp	#0x00
                                    706 ;	genIfxJump : z
      000110 D0 04            [ 4]  707 	bne	00328$
      000112 E0 00            [ 2]  708 	cpx	#0x00
      000114 F0 23            [ 4]  709 	beq	00110$
      000116                        710 00328$:
                                    711 ;	Raw cost for generated ic 84 : (11, 12.200000) count=0.140623
                                    712 ;	skipping iCode since result will be rematerialized
                                    713 ;	Raw cost for generated ic 87 : (0, 0.000000) count=0.105467
                                    714 ;	genCast
                                    715 ;	genCopy
      000116 A9s00            [ 2]  716 	lda	#>___str_3
      000118 8Dr01r00         [ 4]  717 	sta	(_strncmp_PARM_2 + 1)
      00011B A9r09            [ 2]  718 	lda	#___str_3
      00011D 8Dr00r00         [ 4]  719 	sta	_strncmp_PARM_2
                                    720 ;	Raw cost for generated ic 88 : (10, 12.000000) count=0.105467
                                    721 ;	genAssign
                                    722 ;	genAssignLit
      000120 A2 02            [ 2]  723 	ldx	#0x02
      000122 8Er00r00         [ 4]  724 	stx	_strncmp_PARM_3
      000125 9Cr01r00         [ 4]  725 	stz	(_strncmp_PARM_3 + 1)
                                    726 ;	Raw cost for generated ic 91 : (8, 10.000000) count=0.105467
                                    727 ;	Raw cost for generated ic 89 : (0, 0.000000) count=0.105467
                                    728 ;	genCall
                                    729 ;	genSend
      000128 AEr08r00         [ 4]  730 	ldx	(_strtoul_ptr_10000_148 + 1)
      00012B ADr07r00         [ 4]  731 	lda	_strtoul_ptr_10000_148
      00012E 20r00r00         [ 6]  732 	jsr	_strncmp
                                    733 ;	assignResultValue
                                    734 ;	Raw cost for generated ic 92 : (9, 14.000000) count=0.105467
                                    735 ;	genIfx
      000131 C9 00            [ 2]  736 	cmp	#0x00
                                    737 ;	genIfxJump : z
      000133 D0 1A            [ 4]  738 	bne	00111$
      000135 E0 00            [ 2]  739 	cpx	#0x00
      000137 D0 16            [ 4]  740 	bne	00111$
                                    741 ;	Raw cost for generated ic 93 : (11, 12.200000) count=0.105467
                                    742 ;	genLabel
      000139                        743 00110$:
                                    744 ;	Raw cost for generated ic 95 : (0, 0.000000) count=0.114256
                                    745 ;	../strtoul.c: 91: b = 2;
                                    746 ;	genAssign
                                    747 ;	genAssignLit
      000139 A2 02            [ 2]  748 	ldx	#0x02
      00013B 8Er0Fr00         [ 4]  749 	stx	_strtoul_b_10000_148
                                    750 ;	Raw cost for generated ic 96 : (5, 6.000000) count=0.114256
                                    751 ;	../strtoul.c: 92: ptr += 2;
                                    752 ;	genPlus
                                    753 ;	  genPlusInc
      00013E ADr07r00         [ 4]  754 	lda	_strtoul_ptr_10000_148
      000141 18               [ 2]  755 	clc
      000142 69 02            [ 3]  756 	adc	#0x02
      000144 8Dr07r00         [ 4]  757 	sta	_strtoul_ptr_10000_148
      000147 90 03            [ 4]  758 	bcc	00331$
      000149 EEr08r00         [ 6]  759 	inc	(_strtoul_ptr_10000_148 + 1)
      00014C                        760 00331$:
                                    761 ;	Raw cost for generated ic 97 : (14, 20.600000) count=0.114256
                                    762 ;	genGoto
      00014C 4Cr32r02         [ 3]  763 	jmp	00129$
                                    764 ;	Raw cost for generated ic 99 : (3, 3.000000) count=0.114256
                                    765 ;	genLabel
      00014F                        766 00111$:
                                    767 ;	Raw cost for generated ic 100 : (0, 0.000000) count=0.020970
                                    768 ;	../strtoul.c: 94: else if (*ptr == '0')
                                    769 ;	genPointerGet
                                    770 ;	  setupDPTR - off=0 remat=(null) savea=0
      00014F AEr07r00         [ 4]  771 	ldx	_strtoul_ptr_10000_148
      000152 86*00            [ 3]  772 	stx	*(DPTR+0)
      000154 AEr08r00         [ 4]  773 	ldx	(_strtoul_ptr_10000_148 + 1)
      000157 86*01            [ 3]  774 	stx	*(DPTR+1)
      000159 A0 00            [ 2]  775 	ldy	#0x00
      00015B B1*00            [ 6]  776 	lda	[DPTR],y
                                    777 ;	Raw cost for generated ic 102 : (14, 21.000000) count=0.020970
                                    778 ;	genCmpEQorNE
      00015D C9 30            [ 2]  779 	cmp	#0x30
      00015F D0 10            [ 4]  780 	bne	00108$
                                    781 ;	Raw cost for generated ic 103 : (7, 7.600000) count=0.020970
                                    782 ;	skipping generated iCode
                                    783 ;	Raw cost for generated ic 104 : (0, 0.000000) count=0.020970
                                    784 ;	../strtoul.c: 96: b = 8;
                                    785 ;	genAssign
                                    786 ;	genAssignLit
      000161 A2 08            [ 2]  787 	ldx	#0x08
      000163 8Er0Fr00         [ 4]  788 	stx	_strtoul_b_10000_148
                                    789 ;	Raw cost for generated ic 107 : (5, 6.000000) count=0.015727
                                    790 ;	../strtoul.c: 97: ptr++;
                                    791 ;	genPlus
                                    792 ;	  genPlusInc
      000166 EEr07r00         [ 6]  793 	inc	_strtoul_ptr_10000_148
      000169 D0 03            [ 4]  794 	bne	00333$
      00016B EEr08r00         [ 6]  795 	inc	(_strtoul_ptr_10000_148 + 1)
      00016E                        796 00333$:
                                    797 ;	Raw cost for generated ic 109 : (8, 14.600000) count=0.015727
                                    798 ;	genGoto
      00016E 4Cr32r02         [ 3]  799 	jmp	00129$
                                    800 ;	Raw cost for generated ic 111 : (3, 3.000000) count=0.015727
                                    801 ;	genLabel
      000171                        802 00108$:
                                    803 ;	Raw cost for generated ic 112 : (0, 0.000000) count=0.000000
                                    804 ;	../strtoul.c: 100: b = 10;
                                    805 ;	genAssign
                                    806 ;	genAssignLit
      000171 A2 0A            [ 2]  807 	ldx	#0x0a
      000173 8Er0Fr00         [ 4]  808 	stx	_strtoul_b_10000_148
                                    809 ;	Raw cost for generated ic 113 : (5, 6.000000) count=0.000000
                                    810 ;	genGoto
      000176 4Cr32r02         [ 3]  811 	jmp	00129$
                                    812 ;	Raw cost for generated ic 117 : (3, 3.000000) count=0.000000
                                    813 ;	genLabel
      000179                        814 00128$:
                                    815 ;	Raw cost for generated ic 118 : (0, 0.000000) count=0.249997
                                    816 ;	../strtoul.c: 103: else if (b == 16 && (!strncmp (ptr, "0x", 2) || !strncmp (ptr, "0X", 2)))
                                    817 ;	genCmpEQorNE
      000179 ADr0Fr00         [ 4]  818 	lda	_strtoul_b_10000_148
      00017C C9 10            [ 2]  819 	cmp	#0x10
      00017E D0 57            [ 4]  820 	bne	00123$
                                    821 ;	Raw cost for generated ic 119 : (10, 11.600000) count=0.249997
                                    822 ;	skipping generated iCode
                                    823 ;	Raw cost for generated ic 120 : (0, 0.000000) count=0.249997
                                    824 ;	skipping iCode since result will be rematerialized
                                    825 ;	Raw cost for generated ic 123 : (0, 0.000000) count=0.187496
                                    826 ;	genCast
                                    827 ;	genCopy
      000180 A9s00            [ 2]  828 	lda	#>___str_0
      000182 8Dr01r00         [ 4]  829 	sta	(_strncmp_PARM_2 + 1)
      000185 A9r00            [ 2]  830 	lda	#___str_0
      000187 8Dr00r00         [ 4]  831 	sta	_strncmp_PARM_2
                                    832 ;	Raw cost for generated ic 124 : (10, 12.000000) count=0.187496
                                    833 ;	genAssign
                                    834 ;	genAssignLit
      00018A A2 02            [ 2]  835 	ldx	#0x02
      00018C 8Er00r00         [ 4]  836 	stx	_strncmp_PARM_3
      00018F 9Cr01r00         [ 4]  837 	stz	(_strncmp_PARM_3 + 1)
                                    838 ;	Raw cost for generated ic 127 : (8, 10.000000) count=0.187496
                                    839 ;	Raw cost for generated ic 125 : (0, 0.000000) count=0.187496
                                    840 ;	genCall
                                    841 ;	genSend
      000192 AEr08r00         [ 4]  842 	ldx	(_strtoul_ptr_10000_148 + 1)
      000195 ADr07r00         [ 4]  843 	lda	_strtoul_ptr_10000_148
      000198 20r00r00         [ 6]  844 	jsr	_strncmp
                                    845 ;	assignResultValue
                                    846 ;	Raw cost for generated ic 128 : (9, 14.000000) count=0.187496
                                    847 ;	genIfx
      00019B C9 00            [ 2]  848 	cmp	#0x00
                                    849 ;	genIfxJump : z
      00019D D0 04            [ 4]  850 	bne	00336$
      00019F E0 00            [ 2]  851 	cpx	#0x00
      0001A1 F0 23            [ 4]  852 	beq	00122$
      0001A3                        853 00336$:
                                    854 ;	Raw cost for generated ic 129 : (11, 12.200000) count=0.187496
                                    855 ;	skipping iCode since result will be rematerialized
                                    856 ;	Raw cost for generated ic 132 : (0, 0.000000) count=0.140622
                                    857 ;	genCast
                                    858 ;	genCopy
      0001A3 A9s00            [ 2]  859 	lda	#>___str_1
      0001A5 8Dr01r00         [ 4]  860 	sta	(_strncmp_PARM_2 + 1)
      0001A8 A9r03            [ 2]  861 	lda	#___str_1
      0001AA 8Dr00r00         [ 4]  862 	sta	_strncmp_PARM_2
                                    863 ;	Raw cost for generated ic 133 : (10, 12.000000) count=0.140622
                                    864 ;	genAssign
                                    865 ;	genAssignLit
      0001AD A2 02            [ 2]  866 	ldx	#0x02
      0001AF 8Er00r00         [ 4]  867 	stx	_strncmp_PARM_3
      0001B2 9Cr01r00         [ 4]  868 	stz	(_strncmp_PARM_3 + 1)
                                    869 ;	Raw cost for generated ic 136 : (8, 10.000000) count=0.140622
                                    870 ;	Raw cost for generated ic 134 : (0, 0.000000) count=0.140622
                                    871 ;	genCall
                                    872 ;	genSend
      0001B5 AEr08r00         [ 4]  873 	ldx	(_strtoul_ptr_10000_148 + 1)
      0001B8 ADr07r00         [ 4]  874 	lda	_strtoul_ptr_10000_148
      0001BB 20r00r00         [ 6]  875 	jsr	_strncmp
                                    876 ;	assignResultValue
                                    877 ;	Raw cost for generated ic 137 : (9, 14.000000) count=0.140622
                                    878 ;	genIfx
      0001BE C9 00            [ 2]  879 	cmp	#0x00
                                    880 ;	genIfxJump : z
      0001C0 D0 15            [ 4]  881 	bne	00123$
      0001C2 E0 00            [ 2]  882 	cpx	#0x00
      0001C4 D0 11            [ 4]  883 	bne	00123$
                                    884 ;	Raw cost for generated ic 138 : (11, 12.200000) count=0.140622
                                    885 ;	genLabel
      0001C6                        886 00122$:
                                    887 ;	Raw cost for generated ic 140 : (0, 0.000000) count=0.152341
                                    888 ;	../strtoul.c: 104: ptr += 2;
                                    889 ;	genPlus
                                    890 ;	  genPlusInc
      0001C6 ADr07r00         [ 4]  891 	lda	_strtoul_ptr_10000_148
      0001C9 18               [ 2]  892 	clc
      0001CA 69 02            [ 3]  893 	adc	#0x02
      0001CC 8Dr07r00         [ 4]  894 	sta	_strtoul_ptr_10000_148
      0001CF 90 61            [ 4]  895 	bcc	00129$
      0001D1 EEr08r00         [ 6]  896 	inc	(_strtoul_ptr_10000_148 + 1)
                                    897 ;	Raw cost for generated ic 141 : (14, 20.600000) count=0.152341
                                    898 ;	genGoto
      0001D4 4Cr32r02         [ 3]  899 	jmp	00129$
                                    900 ;	Raw cost for generated ic 143 : (3, 3.000000) count=0.152341
                                    901 ;	genLabel
      0001D7                        902 00123$:
                                    903 ;	Raw cost for generated ic 144 : (0, 0.000000) count=0.097654
                                    904 ;	../strtoul.c: 105: else if (b == 2 && (!strncmp (ptr, "0b", 2) || !strncmp (ptr, "0B", 2)))
                                    905 ;	genCmpEQorNE
      0001D7 ADr0Fr00         [ 4]  906 	lda	_strtoul_b_10000_148
      0001DA C9 02            [ 2]  907 	cmp	#0x02
      0001DC D0 54            [ 4]  908 	bne	00129$
                                    909 ;	Raw cost for generated ic 145 : (10, 11.600000) count=0.097654
                                    910 ;	skipping generated iCode
                                    911 ;	Raw cost for generated ic 146 : (0, 0.000000) count=0.097654
                                    912 ;	skipping iCode since result will be rematerialized
                                    913 ;	Raw cost for generated ic 149 : (0, 0.000000) count=0.073241
                                    914 ;	genCast
                                    915 ;	genCopy
      0001DE A9s00            [ 2]  916 	lda	#>___str_2
      0001E0 8Dr01r00         [ 4]  917 	sta	(_strncmp_PARM_2 + 1)
      0001E3 A9r06            [ 2]  918 	lda	#___str_2
      0001E5 8Dr00r00         [ 4]  919 	sta	_strncmp_PARM_2
                                    920 ;	Raw cost for generated ic 150 : (10, 12.000000) count=0.073241
                                    921 ;	genAssign
                                    922 ;	genAssignLit
      0001E8 A2 02            [ 2]  923 	ldx	#0x02
      0001EA 8Er00r00         [ 4]  924 	stx	_strncmp_PARM_3
      0001ED 9Cr01r00         [ 4]  925 	stz	(_strncmp_PARM_3 + 1)
                                    926 ;	Raw cost for generated ic 153 : (8, 10.000000) count=0.073241
                                    927 ;	Raw cost for generated ic 151 : (0, 0.000000) count=0.073241
                                    928 ;	genCall
                                    929 ;	genSend
      0001F0 AEr08r00         [ 4]  930 	ldx	(_strtoul_ptr_10000_148 + 1)
      0001F3 ADr07r00         [ 4]  931 	lda	_strtoul_ptr_10000_148
      0001F6 20r00r00         [ 6]  932 	jsr	_strncmp
                                    933 ;	assignResultValue
                                    934 ;	Raw cost for generated ic 154 : (9, 14.000000) count=0.073241
                                    935 ;	genIfx
      0001F9 C9 00            [ 2]  936 	cmp	#0x00
                                    937 ;	genIfxJump : z
      0001FB D0 04            [ 4]  938 	bne	00342$
      0001FD E0 00            [ 2]  939 	cpx	#0x00
      0001FF F0 23            [ 4]  940 	beq	00118$
      000201                        941 00342$:
                                    942 ;	Raw cost for generated ic 155 : (11, 12.200000) count=0.073241
                                    943 ;	skipping iCode since result will be rematerialized
                                    944 ;	Raw cost for generated ic 158 : (0, 0.000000) count=0.054931
                                    945 ;	genCast
                                    946 ;	genCopy
      000201 A9s00            [ 2]  947 	lda	#>___str_3
      000203 8Dr01r00         [ 4]  948 	sta	(_strncmp_PARM_2 + 1)
      000206 A9r09            [ 2]  949 	lda	#___str_3
      000208 8Dr00r00         [ 4]  950 	sta	_strncmp_PARM_2
                                    951 ;	Raw cost for generated ic 159 : (10, 12.000000) count=0.054931
                                    952 ;	genAssign
                                    953 ;	genAssignLit
      00020B A2 02            [ 2]  954 	ldx	#0x02
      00020D 8Er00r00         [ 4]  955 	stx	_strncmp_PARM_3
      000210 9Cr01r00         [ 4]  956 	stz	(_strncmp_PARM_3 + 1)
                                    957 ;	Raw cost for generated ic 162 : (8, 10.000000) count=0.054931
                                    958 ;	Raw cost for generated ic 160 : (0, 0.000000) count=0.054931
                                    959 ;	genCall
                                    960 ;	genSend
      000213 AEr08r00         [ 4]  961 	ldx	(_strtoul_ptr_10000_148 + 1)
      000216 ADr07r00         [ 4]  962 	lda	_strtoul_ptr_10000_148
      000219 20r00r00         [ 6]  963 	jsr	_strncmp
                                    964 ;	assignResultValue
                                    965 ;	Raw cost for generated ic 163 : (9, 14.000000) count=0.054931
                                    966 ;	genIfx
      00021C C9 00            [ 2]  967 	cmp	#0x00
                                    968 ;	genIfxJump : z
      00021E D0 12            [ 4]  969 	bne	00129$
      000220 E0 00            [ 2]  970 	cpx	#0x00
      000222 D0 0E            [ 4]  971 	bne	00129$
                                    972 ;	Raw cost for generated ic 164 : (11, 12.200000) count=0.054931
                                    973 ;	genLabel
      000224                        974 00118$:
                                    975 ;	Raw cost for generated ic 166 : (0, 0.000000) count=0.059508
                                    976 ;	../strtoul.c: 106: ptr += 2;
                                    977 ;	genPlus
                                    978 ;	  genPlusInc
      000224 ADr07r00         [ 4]  979 	lda	_strtoul_ptr_10000_148
      000227 18               [ 2]  980 	clc
      000228 69 02            [ 3]  981 	adc	#0x02
      00022A 8Dr07r00         [ 4]  982 	sta	_strtoul_ptr_10000_148
      00022D 90 03            [ 4]  983 	bcc	00345$
      00022F EEr08r00         [ 6]  984 	inc	(_strtoul_ptr_10000_148 + 1)
      000232                        985 00345$:
                                    986 ;	Raw cost for generated ic 167 : (14, 20.600000) count=0.059508
                                    987 ;	genLabel
      000232                        988 00129$:
                                    989 ;	Raw cost for generated ic 171 : (0, 0.000000) count=0.989349
                                    990 ;	../strtoul.c: 109: if (_isdigit (*ptr, b) < 0)
                                    991 ;	genPointerGet
                                    992 ;	  setupDPTR - off=0 remat=(null) savea=0
      000232 AEr07r00         [ 4]  993 	ldx	_strtoul_ptr_10000_148
      000235 86*00            [ 3]  994 	stx	*(DPTR+0)
      000237 AEr08r00         [ 4]  995 	ldx	(_strtoul_ptr_10000_148 + 1)
      00023A 86*01            [ 3]  996 	stx	*(DPTR+1)
      00023C A0 00            [ 2]  997 	ldy	#0x00
      00023E B1*00            [ 6]  998 	lda	[DPTR],y
                                    999 ;	Raw cost for generated ic 173 : (14, 21.000000) count=0.989349
                                   1000 ;	Raw cost for generated ic 174 : (0, 0.000000) count=0.989349
                                   1001 ;	Raw cost for generated ic 175 : (0, 0.000000) count=0.989349
                                   1002 ;	genCall
                                   1003 ;	genSend
      000240 AEr0Fr00         [ 4] 1004 	ldx	_strtoul_b_10000_148
      000243 20r00r00         [ 6] 1005 	jsr	__isdigit
                                   1006 ;	assignResultValue
      000246 85*01            [ 3] 1007 	sta	*_strtoul_sloc1_1_0
                                   1008 ;	Raw cost for generated ic 176 : (8, 13.000000) count=0.989349
                                   1009 ;	genCmp
      000248 24*01            [ 3] 1010 	bit	*_strtoul_sloc1_1_0
      00024A 10 27            [ 4] 1011 	bpl	00133$
                                   1012 ;	Raw cost for generated ic 177 : (7, 8.600000) count=0.989349
                                   1013 ;	skipping generated iCode
                                   1014 ;	Raw cost for generated ic 178 : (0, 0.000000) count=0.989349
                                   1015 ;	../strtoul.c: 111: if (endptr)
                                   1016 ;	genIfx
      00024C ADr02r00         [ 4] 1017 	lda	(_strtoul_PARM_2 + 1)
      00024F 0Dr01r00         [ 4] 1018 	ora	_strtoul_PARM_2
                                   1019 ;	genIfxJump : z
      000252 F0 17            [ 4] 1020 	beq	00131$
                                   1021 ;	Raw cost for generated ic 181 : (11, 13.600000) count=0.742012
                                   1022 ;	../strtoul.c: 112: *endptr = (char*)nptr;
                                   1023 ;	genAssign
                                   1024 ;	genCopy
      000254 AEr02r00         [ 4] 1025 	ldx	(_strtoul_PARM_2 + 1)
      000257 ADr01r00         [ 4] 1026 	lda	_strtoul_PARM_2
                                   1027 ;	Raw cost for generated ic 184 : (6, 8.000000) count=0.556509
                                   1028 ;	genPointerSet
                                   1029 ;	  setupDPTR - off=0 remat=(null) savea=0
      00025A 85*00            [ 3] 1030 	sta	*(DPTR+0)
      00025C 86*01            [ 3] 1031 	stx	*(DPTR+1)
      00025E ADr05r00         [ 4] 1032 	lda	_strtoul_nptr_10000_147
      000261 A0 00            [ 2] 1033 	ldy	#0x00
      000263 91*00            [ 6] 1034 	sta	[DPTR],y
      000265 ADr06r00         [ 4] 1035 	lda	(_strtoul_nptr_10000_147 + 1)
      000268 C8               [ 2] 1036 	iny
      000269 91*00            [ 6] 1037 	sta	[DPTR],y
                                   1038 ;	Raw cost for generated ic 185 : (17, 30.000000) count=0.556509
                                   1039 ;	genLabel
      00026B                       1040 00131$:
                                   1041 ;	Raw cost for generated ic 186 : (0, 0.000000) count=0.742012
                                   1042 ;	../strtoul.c: 113: return (0);
                                   1043 ;	genRet
      00026B A9 00            [ 2] 1044 	lda	#0x00
      00026D AA               [ 2] 1045 	tax
      00026E 85*00            [ 3] 1046 	sta	*___SDCC_m6502_ret2
      000270 85*00            [ 3] 1047 	sta	*___SDCC_m6502_ret3
      000272 60               [ 6] 1048 	rts
                                   1049 ;	Raw cost for generated ic 187 : (10, 13.000000) count=0.742012
                                   1050 ;	genLabel
      000273                       1051 00133$:
                                   1052 ;	Raw cost for generated ic 188 : (0, 0.000000) count=0.989349
                                   1053 ;	../strtoul.c: 116: for (ret = 0;; ptr++)
                                   1054 ;	genAssign
                                   1055 ;	genAssignLit
      000273 9Cr09r00         [ 4] 1056 	stz	_strtoul_ret_10000_148
      000276 9Cr0Ar00         [ 4] 1057 	stz	(_strtoul_ret_10000_148 + 1)
      000279 9Cr0Br00         [ 4] 1058 	stz	(_strtoul_ret_10000_148 + 2)
      00027C 9Cr0Cr00         [ 4] 1059 	stz	(_strtoul_ret_10000_148 + 3)
                                   1060 ;	Raw cost for generated ic 189 : (12, 16.000000) count=0.989349
                                   1061 ;	genAssign
                                   1062 ;	genCopy
      00027F ADr08r00         [ 4] 1063 	lda	(_strtoul_ptr_10000_148 + 1)
      000282 85*02            [ 3] 1064 	sta	*(_strtoul_sloc1_1_0 + 1)
      000284 ADr07r00         [ 4] 1065 	lda	_strtoul_ptr_10000_148
      000287 85*01            [ 3] 1066 	sta	*_strtoul_sloc1_1_0
                                   1067 ;	Raw cost for generated ic 287 : (10, 14.000000) count=0.989349
                                   1068 ;	genLabel
      000289                       1069 00167$:
                                   1070 ;	Raw cost for generated ic 190 : (0, 0.000000) count=3.958003
                                   1071 ;	../strtoul.c: 118: signed char digit = _isdigit (*ptr, b);
                                   1072 ;	genPointerGet
      000289 A0 00            [ 2] 1073 	ldy	#0x00
      00028B B1*01            [ 6] 1074 	lda	[*_strtoul_sloc1_1_0],y
                                   1075 ;	Raw cost for generated ic 192 : (4, 7.000000) count=3.958003
                                   1076 ;	Raw cost for generated ic 193 : (0, 0.000000) count=3.958003
                                   1077 ;	Raw cost for generated ic 194 : (0, 0.000000) count=3.958003
                                   1078 ;	genCall
                                   1079 ;	genSend
      00028D AEr0Fr00         [ 4] 1080 	ldx	_strtoul_b_10000_148
      000290 20r00r00         [ 6] 1081 	jsr	__isdigit
                                   1082 ;	assignResultValue
      000293 8Dr10r00         [ 4] 1083 	sta	_strtoul_digit_30000_165
                                   1084 ;	Raw cost for generated ic 195 : (9, 14.000000) count=3.958003
                                   1085 ;	../strtoul.c: 120: if (digit < 0)
                                   1086 ;	genCmp
      000296 2Cr10r00         [ 4] 1087 	bit	_strtoul_digit_30000_165
      000299 10 03            [ 4] 1088 	bpl	00349$
      00029B 4Cr7Cr04         [ 3] 1089 	jmp	00136$
      00029E                       1090 00349$:
                                   1091 ;	Raw cost for generated ic 197 : (8, 9.600000) count=3.958003
                                   1092 ;	skipping generated iCode
                                   1093 ;	Raw cost for generated ic 198 : (0, 0.000000) count=3.958003
                                   1094 ;	../strtoul.c: 124: range_error |= ckd_mul (&ret, ret, b);
                                   1095 ;	genCast
                                   1096 ;	genCopy
      00029E 9Cr07r00         [ 4] 1097 	stz	(__mullonglong_PARM_2 + 7)
      0002A1 9Cr06r00         [ 4] 1098 	stz	(__mullonglong_PARM_2 + 6)
      0002A4 9Cr05r00         [ 4] 1099 	stz	(__mullonglong_PARM_2 + 5)
      0002A7 9Cr04r00         [ 4] 1100 	stz	(__mullonglong_PARM_2 + 4)
      0002AA 9Cr03r00         [ 4] 1101 	stz	(__mullonglong_PARM_2 + 3)
      0002AD 9Cr02r00         [ 4] 1102 	stz	(__mullonglong_PARM_2 + 2)
      0002B0 9Cr01r00         [ 4] 1103 	stz	(__mullonglong_PARM_2 + 1)
      0002B3 ADr0Fr00         [ 4] 1104 	lda	_strtoul_b_10000_148
      0002B6 8Dr00r00         [ 4] 1105 	sta	__mullonglong_PARM_2
                                   1106 ;	Raw cost for generated ic 203 : (27, 36.000000) count=2.968654
                                   1107 ;	genCast
                                   1108 ;	genCopy
      0002B9 9Cr07r00         [ 4] 1109 	stz	(__mullonglong_PARM_1 + 7)
      0002BC 9Cr06r00         [ 4] 1110 	stz	(__mullonglong_PARM_1 + 6)
      0002BF 9Cr05r00         [ 4] 1111 	stz	(__mullonglong_PARM_1 + 5)
      0002C2 9Cr04r00         [ 4] 1112 	stz	(__mullonglong_PARM_1 + 4)
      0002C5 ADr0Cr00         [ 4] 1113 	lda	(_strtoul_ret_10000_148 + 3)
      0002C8 8Dr03r00         [ 4] 1114 	sta	(__mullonglong_PARM_1 + 3)
      0002CB ADr0Br00         [ 4] 1115 	lda	(_strtoul_ret_10000_148 + 2)
      0002CE 8Dr02r00         [ 4] 1116 	sta	(__mullonglong_PARM_1 + 2)
      0002D1 ADr0Ar00         [ 4] 1117 	lda	(_strtoul_ret_10000_148 + 1)
      0002D4 8Dr01r00         [ 4] 1118 	sta	(__mullonglong_PARM_1 + 1)
      0002D7 ADr09r00         [ 4] 1119 	lda	_strtoul_ret_10000_148
      0002DA 8Dr00r00         [ 4] 1120 	sta	__mullonglong_PARM_1
                                   1121 ;	Raw cost for generated ic 205 : (36, 48.000000) count=2.968654
                                   1122 ;	skipping iCode since result will be rematerialized
                                   1123 ;	Raw cost for generated ic 207 : (0, 0.000000) count=2.968654
                                   1124 ;	skipping iCode since result will be rematerialized
                                   1125 ;	Raw cost for generated ic 208 : (0, 0.000000) count=2.968654
                                   1126 ;	skipping iCode since result will be rematerialized
                                   1127 ;	Raw cost for generated ic 209 : (0, 0.000000) count=2.968654
                                   1128 ;	./../../include/stdckdint.h: 77: inline _Bool __ckd_mul_ulong __CKD_DEFAULT_IMPL(unsigned long, *)
                                   1129 ;	genCall
      0002DD 20r00r00         [ 6] 1130 	jsr	__mullonglong
                                   1131 ;	assignResultValue
      0002E0 85*03            [ 3] 1132 	sta	*_strtoul_sloc2_1_0
      0002E2 86*04            [ 3] 1133 	stx	*(_strtoul_sloc2_1_0 + 1)
      0002E4 A5*00            [ 3] 1134 	lda	*___SDCC_m6502_ret2
      0002E6 85*05            [ 3] 1135 	sta	*(_strtoul_sloc2_1_0 + 2)
      0002E8 A5*00            [ 3] 1136 	lda	*___SDCC_m6502_ret3
      0002EA 85*06            [ 3] 1137 	sta	*(_strtoul_sloc2_1_0 + 3)
      0002EC A5*00            [ 3] 1138 	lda	*___SDCC_m6502_ret4
      0002EE 85*07            [ 3] 1139 	sta	*(_strtoul_sloc2_1_0 + 4)
      0002F0 A5*00            [ 3] 1140 	lda	*___SDCC_m6502_ret5
      0002F2 85*08            [ 3] 1141 	sta	*(_strtoul_sloc2_1_0 + 5)
      0002F4 A5*00            [ 3] 1142 	lda	*___SDCC_m6502_ret6
      0002F6 85*09            [ 3] 1143 	sta	*(_strtoul_sloc2_1_0 + 6)
      0002F8 A5*00            [ 3] 1144 	lda	*___SDCC_m6502_ret7
      0002FA 85*0A            [ 3] 1145 	sta	*(_strtoul_sloc2_1_0 + 7)
                                   1146 ;	Raw cost for generated ic 298 : (31, 48.000000) count=2.968654
                                   1147 ;	genAssign
                                   1148 ;	genCopy
      0002FC 8Dr18r00         [ 4] 1149 	sta	(_strtoul_result_60000_199 + 7)
      0002FF A5*09            [ 3] 1150 	lda	*(_strtoul_sloc2_1_0 + 6)
      000301 8Dr17r00         [ 4] 1151 	sta	(_strtoul_result_60000_199 + 6)
      000304 A5*08            [ 3] 1152 	lda	*(_strtoul_sloc2_1_0 + 5)
      000306 8Dr16r00         [ 4] 1153 	sta	(_strtoul_result_60000_199 + 5)
      000309 A5*07            [ 3] 1154 	lda	*(_strtoul_sloc2_1_0 + 4)
      00030B 8Dr15r00         [ 4] 1155 	sta	(_strtoul_result_60000_199 + 4)
      00030E A5*06            [ 3] 1156 	lda	*(_strtoul_sloc2_1_0 + 3)
      000310 8Dr14r00         [ 4] 1157 	sta	(_strtoul_result_60000_199 + 3)
      000313 A5*05            [ 3] 1158 	lda	*(_strtoul_sloc2_1_0 + 2)
      000315 8Dr13r00         [ 4] 1159 	sta	(_strtoul_result_60000_199 + 2)
      000318 8A               [ 2] 1160 	txa
      000319 8Dr12r00         [ 4] 1161 	sta	(_strtoul_result_60000_199 + 1)
      00031C A5*03            [ 3] 1162 	lda	*_strtoul_sloc2_1_0
      00031E 8Dr11r00         [ 4] 1163 	sta	_strtoul_result_60000_199
                                   1164 ;	Raw cost for generated ic 214 : (37, 52.000000) count=2.968654
                                   1165 ;	genCast
                                   1166 ;	genCopy
      000321 8A               [ 2] 1167 	txa
      000322 85*04            [ 3] 1168 	sta	*(_strtoul_sloc2_1_0 + 1)
                                   1169 ;	Raw cost for generated ic 216 : (15, 23.000000) count=2.968654
                                   1170 ;	genPointerSet
                                   1171 ;	genDataPointerSet
      000324 A5*06            [ 3] 1172 	lda	*(_strtoul_sloc2_1_0 + 3)
      000326 8Dr0Cr00         [ 4] 1173 	sta	(_strtoul_ret_10000_148 + 3)
      000329 A5*05            [ 3] 1174 	lda	*(_strtoul_sloc2_1_0 + 2)
      00032B 8Dr0Br00         [ 4] 1175 	sta	(_strtoul_ret_10000_148 + 2)
      00032E A5*04            [ 3] 1176 	lda	*(_strtoul_sloc2_1_0 + 1)
      000330 8Dr0Ar00         [ 4] 1177 	sta	(_strtoul_ret_10000_148 + 1)
      000333 A5*03            [ 3] 1178 	lda	*_strtoul_sloc2_1_0
      000335 8Dr09r00         [ 4] 1179 	sta	_strtoul_ret_10000_148
                                   1180 ;	Raw cost for generated ic 217 : (20, 28.000000) count=2.968654
                                   1181 ;	genCast
                                   1182 ;	genCopy
      000338 64*0A            [ 3] 1183 	stz	*(_strtoul_sloc2_1_0 + 7)
      00033A 64*09            [ 3] 1184 	stz	*(_strtoul_sloc2_1_0 + 6)
      00033C 64*08            [ 3] 1185 	stz	*(_strtoul_sloc2_1_0 + 5)
      00033E 64*07            [ 3] 1186 	stz	*(_strtoul_sloc2_1_0 + 4)
      000340 A5*03            [ 3] 1187 	lda	*_strtoul_sloc2_1_0
                                   1188 ;	Raw cost for generated ic 220 : (28, 40.000000) count=2.968654
                                   1189 ;	genCmpEQorNE
      000342 CDr11r00         [ 4] 1190 	cmp	_strtoul_result_60000_199
      000345 D0 31            [ 4] 1191 	bne	00351$
      000347 A5*04            [ 3] 1192 	lda	*(_strtoul_sloc2_1_0 + 1)
      000349 CDr12r00         [ 4] 1193 	cmp	(_strtoul_result_60000_199 + 1)
      00034C D0 2A            [ 4] 1194 	bne	00351$
      00034E A5*05            [ 3] 1195 	lda	*(_strtoul_sloc2_1_0 + 2)
      000350 CDr13r00         [ 4] 1196 	cmp	(_strtoul_result_60000_199 + 2)
      000353 D0 23            [ 4] 1197 	bne	00351$
      000355 A5*06            [ 3] 1198 	lda	*(_strtoul_sloc2_1_0 + 3)
      000357 CDr14r00         [ 4] 1199 	cmp	(_strtoul_result_60000_199 + 3)
      00035A D0 1C            [ 4] 1200 	bne	00351$
      00035C A5*07            [ 3] 1201 	lda	*(_strtoul_sloc2_1_0 + 4)
      00035E CDr15r00         [ 4] 1202 	cmp	(_strtoul_result_60000_199 + 4)
      000361 D0 15            [ 4] 1203 	bne	00351$
      000363 A5*08            [ 3] 1204 	lda	*(_strtoul_sloc2_1_0 + 5)
      000365 CDr16r00         [ 4] 1205 	cmp	(_strtoul_result_60000_199 + 5)
      000368 D0 0E            [ 4] 1206 	bne	00351$
      00036A A5*09            [ 3] 1207 	lda	*(_strtoul_sloc2_1_0 + 6)
      00036C CDr17r00         [ 4] 1208 	cmp	(_strtoul_result_60000_199 + 6)
      00036F D0 07            [ 4] 1209 	bne	00351$
      000371 A5*0A            [ 3] 1210 	lda	*(_strtoul_sloc2_1_0 + 7)
      000373 CDr18r00         [ 4] 1211 	cmp	(_strtoul_result_60000_199 + 7)
      000376 F0 04            [ 4] 1212 	beq	00359$
      000378                       1213 00351$:
      000378 A9 00            [ 2] 1214 	lda	#0x00
      00037A 80 02            [ 4] 1215 	bra	00358$
      00037C                       1216 00359$:
      00037C A9 01            [ 2] 1217 	lda	#0x01
      00037E                       1218 00358$:
                                   1219 ;	Raw cost for generated ic 221 : (81, 101.399994) count=2.968654
                                   1220 ;	genNot
      00037E 49 01            [ 2] 1221 	eor	#0x01
                                   1222 ;	Raw cost for generated ic 222 : (2, 2.000000) count=2.968654
                                   1223 ;	../strtoul.c: 124: range_error |= ckd_mul (&ret, ret, b);
                                   1224 ;	genOr
      000380 05*00            [ 3] 1225 	ora	*_strtoul_sloc0_1_0
      000382 8Dr0Dr00         [ 4] 1226 	sta	_strtoul_range_error_10000_148
                                   1227 ;	Raw cost for generated ic 226 : (5, 7.000000) count=2.968654
                                   1228 ;	../strtoul.c: 125: range_error |= ckd_add (&ret, ret, digit);
                                   1229 ;	genCast
      000385 ADr10r00         [ 4] 1230 	lda	_strtoul_digit_30000_165
      000388 85*03            [ 3] 1231 	sta	*_strtoul_sloc2_1_0
      00038A 0A               [ 2] 1232 	asl	a
      00038B A9 00            [ 2] 1233 	lda	#0x00
      00038D 69 FF            [ 3] 1234 	adc	#0xff
      00038F 49 FF            [ 2] 1235 	eor	#0xff
      000391 85*04            [ 3] 1236 	sta	*(_strtoul_sloc2_1_0 + 1)
      000393 85*05            [ 3] 1237 	sta	*(_strtoul_sloc2_1_0 + 2)
      000395 85*06            [ 3] 1238 	sta	*(_strtoul_sloc2_1_0 + 3)
      000397 85*07            [ 3] 1239 	sta	*(_strtoul_sloc2_1_0 + 4)
      000399 85*08            [ 3] 1240 	sta	*(_strtoul_sloc2_1_0 + 5)
      00039B 85*09            [ 3] 1241 	sta	*(_strtoul_sloc2_1_0 + 6)
      00039D 85*0A            [ 3] 1242 	sta	*(_strtoul_sloc2_1_0 + 7)
                                   1243 ;	Raw cost for generated ic 228 : (26, 36.000000) count=2.968654
                                   1244 ;	genCast
                                   1245 ;	genCopy
      00039F 64*12            [ 3] 1246 	stz	*(_strtoul_sloc3_1_0 + 7)
      0003A1 64*11            [ 3] 1247 	stz	*(_strtoul_sloc3_1_0 + 6)
      0003A3 64*10            [ 3] 1248 	stz	*(_strtoul_sloc3_1_0 + 5)
      0003A5 64*0F            [ 3] 1249 	stz	*(_strtoul_sloc3_1_0 + 4)
      0003A7 ADr0Cr00         [ 4] 1250 	lda	(_strtoul_ret_10000_148 + 3)
      0003AA 85*0E            [ 3] 1251 	sta	*(_strtoul_sloc3_1_0 + 3)
      0003AC ADr0Br00         [ 4] 1252 	lda	(_strtoul_ret_10000_148 + 2)
      0003AF 85*0D            [ 3] 1253 	sta	*(_strtoul_sloc3_1_0 + 2)
      0003B1 ADr0Ar00         [ 4] 1254 	lda	(_strtoul_ret_10000_148 + 1)
      0003B4 85*0C            [ 3] 1255 	sta	*(_strtoul_sloc3_1_0 + 1)
      0003B6 ADr09r00         [ 4] 1256 	lda	_strtoul_ret_10000_148
                                   1257 ;	Raw cost for generated ic 230 : (32, 44.000000) count=2.968654
                                   1258 ;	skipping iCode since result will be rematerialized
                                   1259 ;	Raw cost for generated ic 234 : (0, 0.000000) count=2.968654
                                   1260 ;	./../../include/stdckdint.h: 59: inline _Bool __ckd_add_ulong __CKD_DEFAULT_IMPL(unsigned long, +)
                                   1261 ;	genPlus
      0003B9 85*0B            [ 3] 1262 	sta	*_strtoul_sloc3_1_0
      0003BB 09 00            [ 2] 1263 	ora	#0x00
      0003BD 18               [ 2] 1264 	clc
      0003BE 65*03            [ 4] 1265 	adc	*_strtoul_sloc2_1_0
      0003C0 85*0B            [ 3] 1266 	sta	*_strtoul_sloc3_1_0
      0003C2 A5*0C            [ 3] 1267 	lda	*(_strtoul_sloc3_1_0 + 1)
      0003C4 65*04            [ 4] 1268 	adc	*(_strtoul_sloc2_1_0 + 1)
      0003C6 85*0C            [ 3] 1269 	sta	*(_strtoul_sloc3_1_0 + 1)
      0003C8 A5*0D            [ 3] 1270 	lda	*(_strtoul_sloc3_1_0 + 2)
      0003CA 65*05            [ 4] 1271 	adc	*(_strtoul_sloc2_1_0 + 2)
      0003CC 85*0D            [ 3] 1272 	sta	*(_strtoul_sloc3_1_0 + 2)
      0003CE A5*0E            [ 3] 1273 	lda	*(_strtoul_sloc3_1_0 + 3)
      0003D0 65*06            [ 4] 1274 	adc	*(_strtoul_sloc2_1_0 + 3)
      0003D2 85*0E            [ 3] 1275 	sta	*(_strtoul_sloc3_1_0 + 3)
      0003D4 A5*0F            [ 3] 1276 	lda	*(_strtoul_sloc3_1_0 + 4)
      0003D6 65*07            [ 4] 1277 	adc	*(_strtoul_sloc2_1_0 + 4)
      0003D8 85*0F            [ 3] 1278 	sta	*(_strtoul_sloc3_1_0 + 4)
      0003DA A5*10            [ 3] 1279 	lda	*(_strtoul_sloc3_1_0 + 5)
      0003DC 65*08            [ 4] 1280 	adc	*(_strtoul_sloc2_1_0 + 5)
      0003DE 85*10            [ 3] 1281 	sta	*(_strtoul_sloc3_1_0 + 5)
      0003E0 A5*11            [ 3] 1282 	lda	*(_strtoul_sloc3_1_0 + 6)
      0003E2 65*09            [ 4] 1283 	adc	*(_strtoul_sloc2_1_0 + 6)
      0003E4 85*11            [ 3] 1284 	sta	*(_strtoul_sloc3_1_0 + 6)
      0003E6 A5*12            [ 3] 1285 	lda	*(_strtoul_sloc3_1_0 + 7)
      0003E8 65*0A            [ 4] 1286 	adc	*(_strtoul_sloc2_1_0 + 7)
      0003EA 85*12            [ 3] 1287 	sta	*(_strtoul_sloc3_1_0 + 7)
                                   1288 ;	Raw cost for generated ic 238 : (49, 74.000000) count=2.968654
                                   1289 ;	genAssign
                                   1290 ;	genCopy
      0003EC 8Dr20r00         [ 4] 1291 	sta	(_strtoul_result_60000_247 + 7)
      0003EF A5*11            [ 3] 1292 	lda	*(_strtoul_sloc3_1_0 + 6)
      0003F1 8Dr1Fr00         [ 4] 1293 	sta	(_strtoul_result_60000_247 + 6)
      0003F4 A5*10            [ 3] 1294 	lda	*(_strtoul_sloc3_1_0 + 5)
      0003F6 8Dr1Er00         [ 4] 1295 	sta	(_strtoul_result_60000_247 + 5)
      0003F9 A5*0F            [ 3] 1296 	lda	*(_strtoul_sloc3_1_0 + 4)
      0003FB 8Dr1Dr00         [ 4] 1297 	sta	(_strtoul_result_60000_247 + 4)
      0003FE A5*0E            [ 3] 1298 	lda	*(_strtoul_sloc3_1_0 + 3)
      000400 8Dr1Cr00         [ 4] 1299 	sta	(_strtoul_result_60000_247 + 3)
      000403 A5*0D            [ 3] 1300 	lda	*(_strtoul_sloc3_1_0 + 2)
      000405 8Dr1Br00         [ 4] 1301 	sta	(_strtoul_result_60000_247 + 2)
      000408 A5*0C            [ 3] 1302 	lda	*(_strtoul_sloc3_1_0 + 1)
      00040A 8Dr1Ar00         [ 4] 1303 	sta	(_strtoul_result_60000_247 + 1)
      00040D A5*0B            [ 3] 1304 	lda	*_strtoul_sloc3_1_0
      00040F 8Dr19r00         [ 4] 1305 	sta	_strtoul_result_60000_247
                                   1306 ;	Raw cost for generated ic 239 : (38, 53.000000) count=2.968654
                                   1307 ;	genCast
                                   1308 ;	genCopy
                                   1309 ;	Raw cost for generated ic 241 : (16, 24.000000) count=2.968654
                                   1310 ;	genPointerSet
                                   1311 ;	genDataPointerSet
      000412 A5*0E            [ 3] 1312 	lda	*(_strtoul_sloc3_1_0 + 3)
      000414 8Dr0Cr00         [ 4] 1313 	sta	(_strtoul_ret_10000_148 + 3)
      000417 A5*0D            [ 3] 1314 	lda	*(_strtoul_sloc3_1_0 + 2)
      000419 8Dr0Br00         [ 4] 1315 	sta	(_strtoul_ret_10000_148 + 2)
      00041C A5*0C            [ 3] 1316 	lda	*(_strtoul_sloc3_1_0 + 1)
      00041E 8Dr0Ar00         [ 4] 1317 	sta	(_strtoul_ret_10000_148 + 1)
      000421 A5*0B            [ 3] 1318 	lda	*_strtoul_sloc3_1_0
      000423 8Dr09r00         [ 4] 1319 	sta	_strtoul_ret_10000_148
                                   1320 ;	Raw cost for generated ic 242 : (20, 28.000000) count=2.968654
                                   1321 ;	genCast
                                   1322 ;	genCopy
      000426 64*12            [ 3] 1323 	stz	*(_strtoul_sloc3_1_0 + 7)
      000428 64*11            [ 3] 1324 	stz	*(_strtoul_sloc3_1_0 + 6)
      00042A 64*10            [ 3] 1325 	stz	*(_strtoul_sloc3_1_0 + 5)
      00042C 64*0F            [ 3] 1326 	stz	*(_strtoul_sloc3_1_0 + 4)
      00042E A5*0B            [ 3] 1327 	lda	*_strtoul_sloc3_1_0
                                   1328 ;	Raw cost for generated ic 245 : (28, 40.000000) count=2.968654
                                   1329 ;	genCmpEQorNE
      000430 CDr19r00         [ 4] 1330 	cmp	_strtoul_result_60000_247
      000433 D0 31            [ 4] 1331 	bne	00362$
      000435 A5*0C            [ 3] 1332 	lda	*(_strtoul_sloc3_1_0 + 1)
      000437 CDr1Ar00         [ 4] 1333 	cmp	(_strtoul_result_60000_247 + 1)
      00043A D0 2A            [ 4] 1334 	bne	00362$
      00043C A5*0D            [ 3] 1335 	lda	*(_strtoul_sloc3_1_0 + 2)
      00043E CDr1Br00         [ 4] 1336 	cmp	(_strtoul_result_60000_247 + 2)
      000441 D0 23            [ 4] 1337 	bne	00362$
      000443 A5*0E            [ 3] 1338 	lda	*(_strtoul_sloc3_1_0 + 3)
      000445 CDr1Cr00         [ 4] 1339 	cmp	(_strtoul_result_60000_247 + 3)
      000448 D0 1C            [ 4] 1340 	bne	00362$
      00044A A5*0F            [ 3] 1341 	lda	*(_strtoul_sloc3_1_0 + 4)
      00044C CDr1Dr00         [ 4] 1342 	cmp	(_strtoul_result_60000_247 + 4)
      00044F D0 15            [ 4] 1343 	bne	00362$
      000451 A5*10            [ 3] 1344 	lda	*(_strtoul_sloc3_1_0 + 5)
      000453 CDr1Er00         [ 4] 1345 	cmp	(_strtoul_result_60000_247 + 5)
      000456 D0 0E            [ 4] 1346 	bne	00362$
      000458 A5*11            [ 3] 1347 	lda	*(_strtoul_sloc3_1_0 + 6)
      00045A CDr1Fr00         [ 4] 1348 	cmp	(_strtoul_result_60000_247 + 6)
      00045D D0 07            [ 4] 1349 	bne	00362$
      00045F A5*12            [ 3] 1350 	lda	*(_strtoul_sloc3_1_0 + 7)
      000461 CDr20r00         [ 4] 1351 	cmp	(_strtoul_result_60000_247 + 7)
      000464 F0 04            [ 4] 1352 	beq	00370$
      000466                       1353 00362$:
      000466 A9 00            [ 2] 1354 	lda	#0x00
      000468 80 02            [ 4] 1355 	bra	00369$
      00046A                       1356 00370$:
      00046A A9 01            [ 2] 1357 	lda	#0x01
      00046C                       1358 00369$:
                                   1359 ;	Raw cost for generated ic 246 : (81, 101.399994) count=2.968654
                                   1360 ;	genNot
      00046C 49 01            [ 2] 1361 	eor	#0x01
                                   1362 ;	Raw cost for generated ic 247 : (2, 2.000000) count=2.968654
                                   1363 ;	../strtoul.c: 125: range_error |= ckd_add (&ret, ret, digit);
                                   1364 ;	genOr
      00046E 0Dr0Dr00         [ 4] 1365 	ora	_strtoul_range_error_10000_148
      000471 85*00            [ 3] 1366 	sta	*_strtoul_sloc0_1_0
                                   1367 ;	Raw cost for generated ic 251 : (5, 7.000000) count=2.968654
                                   1368 ;	../strtoul.c: 116: for (ret = 0;; ptr++)
                                   1369 ;	genPlus
                                   1370 ;	  genPlusInc
      000473 E6*01            [ 5] 1371 	inc	*_strtoul_sloc1_1_0
      000475 D0 02            [ 4] 1372 	bne	00372$
      000477 E6*02            [ 5] 1373 	inc	*(_strtoul_sloc1_1_0 + 1)
      000479                       1374 00372$:
                                   1375 ;	Raw cost for generated ic 255 : (6, 12.600000) count=2.968654
                                   1376 ;	genGoto
      000479 4Cr89r02         [ 3] 1377 	jmp	00167$
                                   1378 ;	Raw cost for generated ic 257 : (3, 3.000000) count=2.968654
                                   1379 ;	genLabel
      00047C                       1380 00136$:
                                   1381 ;	Raw cost for generated ic 258 : (0, 0.000000) count=0.989619
                                   1382 ;	../strtoul.c: 136: if (endptr)
                                   1383 ;	genIfx
      00047C ADr02r00         [ 4] 1384 	lda	(_strtoul_PARM_2 + 1)
      00047F 0Dr01r00         [ 4] 1385 	ora	_strtoul_PARM_2
                                   1386 ;	genIfxJump : z
      000482 F0 15            [ 4] 1387 	beq	00138$
                                   1388 ;	Raw cost for generated ic 259 : (11, 13.600000) count=0.989619
                                   1389 ;	../strtoul.c: 137: *endptr = (char*)ptr;
                                   1390 ;	genAssign
                                   1391 ;	genCopy
      000484 AEr02r00         [ 4] 1392 	ldx	(_strtoul_PARM_2 + 1)
      000487 ADr01r00         [ 4] 1393 	lda	_strtoul_PARM_2
                                   1394 ;	Raw cost for generated ic 262 : (6, 8.000000) count=0.742214
                                   1395 ;	genPointerSet
                                   1396 ;	  setupDPTR - off=0 remat=(null) savea=0
      00048A 85*00            [ 3] 1397 	sta	*(DPTR+0)
      00048C 86*01            [ 3] 1398 	stx	*(DPTR+1)
      00048E A5*01            [ 3] 1399 	lda	*_strtoul_sloc1_1_0
      000490 A0 00            [ 2] 1400 	ldy	#0x00
      000492 91*00            [ 6] 1401 	sta	[DPTR],y
      000494 A5*02            [ 3] 1402 	lda	*(_strtoul_sloc1_1_0 + 1)
      000496 C8               [ 2] 1403 	iny
      000497 91*00            [ 6] 1404 	sta	[DPTR],y
                                   1405 ;	Raw cost for generated ic 263 : (15, 28.000000) count=0.742214
                                   1406 ;	genLabel
      000499                       1407 00138$:
                                   1408 ;	Raw cost for generated ic 264 : (0, 0.000000) count=0.989619
                                   1409 ;	../strtoul.c: 139: if (range_error)
                                   1410 ;	genIfx
      000499 A5*00            [ 3] 1411 	lda	*_strtoul_sloc0_1_0
                                   1412 ;	genIfxJump : z
      00049B F0 10            [ 4] 1413 	beq	00140$
                                   1414 ;	Raw cost for generated ic 265 : (7, 8.600000) count=0.989619
                                   1415 ;	../strtoul.c: 141: errno = ERANGE;
                                   1416 ;	genAssign
                                   1417 ;	genAssignLit
      00049D A2 22            [ 2] 1418 	ldx	#0x22
      00049F 8Er00r00         [ 4] 1419 	stx	_errno
      0004A2 9Cr01r00         [ 4] 1420 	stz	(_errno + 1)
                                   1421 ;	Raw cost for generated ic 269 : (8, 10.000000) count=0.742214
                                   1422 ;	../strtoul.c: 142: return (ULONG_MAX);
                                   1423 ;	genRet
      0004A5 A9 FF            [ 2] 1424 	lda	#0xff
      0004A7 AA               [ 2] 1425 	tax
      0004A8 85*00            [ 3] 1426 	sta	*___SDCC_m6502_ret2
      0004AA 85*00            [ 3] 1427 	sta	*___SDCC_m6502_ret3
      0004AC 60               [ 6] 1428 	rts
                                   1429 ;	Raw cost for generated ic 270 : (10, 13.000000) count=0.742214
                                   1430 ;	genLabel
      0004AD                       1431 00140$:
                                   1432 ;	Raw cost for generated ic 271 : (0, 0.000000) count=0.989619
                                   1433 ;	../strtoul.c: 145: return (neg ? -ret : ret);
                                   1434 ;	genIfx
      0004AD ADr0Er00         [ 4] 1435 	lda	_strtoul_neg_10000_148
                                   1436 ;	genIfxJump : z
      0004B0 F0 20            [ 4] 1437 	beq	00174$
                                   1438 ;	Raw cost for generated ic 272 : (8, 9.600000) count=0.989619
                                   1439 ;	genUminus
      0004B2 A9 00            [ 2] 1440 	lda	#0x00
      0004B4 38               [ 2] 1441 	sec
      0004B5 EDr09r00         [ 5] 1442 	sbc	_strtoul_ret_10000_148
      0004B8 85*0B            [ 3] 1443 	sta	*_strtoul_sloc3_1_0
      0004BA A9 00            [ 2] 1444 	lda	#0x00
      0004BC EDr0Ar00         [ 5] 1445 	sbc	(_strtoul_ret_10000_148 + 1)
      0004BF 85*0C            [ 3] 1446 	sta	*(_strtoul_sloc3_1_0 + 1)
      0004C1 A9 00            [ 2] 1447 	lda	#0x00
      0004C3 EDr0Br00         [ 5] 1448 	sbc	(_strtoul_ret_10000_148 + 2)
      0004C6 85*0D            [ 3] 1449 	sta	*(_strtoul_sloc3_1_0 + 2)
      0004C8 A9 00            [ 2] 1450 	lda	#0x00
      0004CA EDr0Cr00         [ 5] 1451 	sbc	(_strtoul_ret_10000_148 + 3)
      0004CD 85*0E            [ 3] 1452 	sta	*(_strtoul_sloc3_1_0 + 3)
                                   1453 ;	Raw cost for generated ic 273 : (29, 38.000000) count=0.742214
                                   1454 ;	genGoto
      0004CF 4CrE6r04         [ 3] 1455 	jmp	00175$
                                   1456 ;	Raw cost for generated ic 275 : (3, 3.000000) count=0.742214
                                   1457 ;	genLabel
      0004D2                       1458 00174$:
                                   1459 ;	Raw cost for generated ic 276 : (0, 0.000000) count=0.247550
                                   1460 ;	genAssign
                                   1461 ;	genCopy
      0004D2 ADr0Cr00         [ 4] 1462 	lda	(_strtoul_ret_10000_148 + 3)
      0004D5 85*0E            [ 3] 1463 	sta	*(_strtoul_sloc3_1_0 + 3)
      0004D7 ADr0Br00         [ 4] 1464 	lda	(_strtoul_ret_10000_148 + 2)
      0004DA 85*0D            [ 3] 1465 	sta	*(_strtoul_sloc3_1_0 + 2)
      0004DC ADr0Ar00         [ 4] 1466 	lda	(_strtoul_ret_10000_148 + 1)
      0004DF 85*0C            [ 3] 1467 	sta	*(_strtoul_sloc3_1_0 + 1)
      0004E1 ADr09r00         [ 4] 1468 	lda	_strtoul_ret_10000_148
      0004E4 85*0B            [ 3] 1469 	sta	*_strtoul_sloc3_1_0
                                   1470 ;	Raw cost for generated ic 277 : (20, 28.000000) count=0.247550
                                   1471 ;	genLabel
      0004E6                       1472 00175$:
                                   1473 ;	Raw cost for generated ic 278 : (0, 0.000000) count=0.989765
                                   1474 ;	genRet
      0004E6 A5*0E            [ 3] 1475 	lda	*(_strtoul_sloc3_1_0 + 3)
      0004E8 85*00            [ 3] 1476 	sta	*___SDCC_m6502_ret3
      0004EA A5*0D            [ 3] 1477 	lda	*(_strtoul_sloc3_1_0 + 2)
      0004EC 85*00            [ 3] 1478 	sta	*___SDCC_m6502_ret2
      0004EE A6*0C            [ 3] 1479 	ldx	*(_strtoul_sloc3_1_0 + 1)
      0004F0 A5*0B            [ 3] 1480 	lda	*_strtoul_sloc3_1_0
                                   1481 ;	Raw cost for generated ic 279 : (12, 18.000000) count=0.989765
                                   1482 ;	genLabel
                                   1483 ;	Raw cost for generated ic 280 : (0, 0.000000) count=0.989765
                                   1484 ;	../strtoul.c: 146: }
                                   1485 ;	genEndFunction
      0004F2 60               [ 6] 1486 	rts
                                   1487 ;	Raw cost for generated ic 281 : (1, 6.000000) count=0.989765
                                   1488 	.area CODE
                                   1489 	.area RODATA
                                   1490 	.area RODATA
      000000                       1491 ___str_0:
      000000 30 78                 1492 	.ascii "0x"
      000002 00                    1493 	.db 0x00
                                   1494 	.area CODE
                                   1495 	.area RODATA
      000003                       1496 ___str_1:
      000003 30 58                 1497 	.ascii "0X"
      000005 00                    1498 	.db 0x00
                                   1499 	.area CODE
                                   1500 	.area RODATA
      000006                       1501 ___str_2:
      000006 30 62                 1502 	.ascii "0b"
      000008 00                    1503 	.db 0x00
                                   1504 	.area CODE
                                   1505 	.area RODATA
      000009                       1506 ___str_3:
      000009 30 42                 1507 	.ascii "0B"
      00000B 00                    1508 	.db 0x00
                                   1509 	.area CODE
                                   1510 	.area XINIT
                                   1511 	.area CABS    (ABS)
