                                      1 ;--------------------------------------------------------
                                      2 ; File Created by SDCC : free open source ISO C Compiler
                                      3 ; Version 4.5.10 #15691 (Linux)
                                      4 ;--------------------------------------------------------
                                      5 	.module tancotf
                                      6 	
      000000                          7 	.r65c02
                                      8 	.optsdcc -mmos65c02
                                      9 
                                     10 ;--------------------------------------------------------
                                     11 ;  Ordering of segments for the linker.
                                     12 ;--------------------------------------------------------
                                     13 	.area ZP      (PAG)
                                     14 	.area OSEG    (PAG, OVR)
                                     15 	.area _CODE
                                     16 	.area GSINIT
                                     17 	.area GSFINAL
                                     18 	.area CODE
                                     19 	.area RODATA
                                     20 	.area XINIT
                                     21 	.area _DATA
                                     22 	.area DATA
                                     23 	.area BSS
                                     24 ;--------------------------------------------------------
                                     25 ; Public variables in this module
                                     26 ;--------------------------------------------------------
                                     27 	.globl _tancotf
                                     28 	.globl _fabsf
                                     29 	.globl _tancotf_PARM_2
                                     30 	.globl _tancotf_PARM_1
                                     31 ;--------------------------------------------------------
                                     32 ; ZP ram data
                                     33 ;--------------------------------------------------------
                                     34 	.area ZP      (PAG)
      000000                         35 _tancotf_sloc0_1_0:
      000000                         36 	.ds 4
      000004                         37 _tancotf_sloc1_1_0:
      000004                         38 	.ds 4
      000008                         39 _tancotf_sloc2_1_0:
      000008                         40 	.ds 4
                                     41 ;--------------------------------------------------------
                                     42 ; overlayable items in ram
                                     43 ;--------------------------------------------------------
                                     44 ;--------------------------------------------------------
                                     45 ; uninitialized external ram data
                                     46 ;--------------------------------------------------------
                                     47 	.area BSS
      000000                         48 _tancotf_PARM_1:
      000000                         49 	.ds 4
      000004                         50 _tancotf_PARM_2:
      000004                         51 	.ds 1
      000005                         52 _tancotf_xnum_10000_26:
      000005                         53 	.ds 4
      000009                         54 _tancotf_xden_10000_26:
      000009                         55 	.ds 4
      00000D                         56 _tancotf_n_10000_26:
      00000D                         57 	.ds 2
                                     58 ;--------------------------------------------------------
                                     59 ; absolute external ram data
                                     60 ;--------------------------------------------------------
                                     61 	.area DABS    (ABS)
                                     62 ;--------------------------------------------------------
                                     63 ; initialized external ram data
                                     64 ;--------------------------------------------------------
                                     65 	.area DATA
                                     66 ;--------------------------------------------------------
                                     67 ; global & static initialisations
                                     68 ;--------------------------------------------------------
                                     69 	.area _CODE
                                     70 	.area GSINIT
                                     71 	.area GSFINAL
                                     72 	.area GSINIT
                                     73 ;--------------------------------------------------------
                                     74 ; Home
                                     75 ;--------------------------------------------------------
                                     76 	.area _CODE
                                     77 	.area _CODE
                                     78 ;--------------------------------------------------------
                                     79 ; code
                                     80 ;--------------------------------------------------------
                                     81 	.area CODE
                                     82 ;------------------------------------------------------------
                                     83 ;Allocation info for local variables in function 'tancotf'
                                     84 ;------------------------------------------------------------
                                     85 ;sloc0         Allocated with name '_tancotf_sloc0_1_0'
                                     86 ;sloc1         Allocated with name '_tancotf_sloc1_1_0'
                                     87 ;sloc2         Allocated with name '_tancotf_sloc2_1_0'
                                     88 ;x             Allocated with name '_tancotf_PARM_1'
                                     89 ;iscotan       Allocated with name '_tancotf_PARM_2'
                                     90 ;f             Allocated with name '_tancotf_f_10000_26'
                                     91 ;g             Allocated with name '_tancotf_g_10000_26'
                                     92 ;xn            Allocated with name '_tancotf_xn_10000_26'
                                     93 ;xnum          Allocated with name '_tancotf_xnum_10000_26'
                                     94 ;xden          Allocated with name '_tancotf_xden_10000_26'
                                     95 ;n             Allocated with name '_tancotf_n_10000_26'
                                     96 ;------------------------------------------------------------
                                     97 ;	../tancotf.c: 53: float tancotf(float x, bool iscotan)
                                     98 ;	genLabel
                                     99 ;	Raw cost for generated ic 0 : (0, 0.000000) count=1.000000
                                    100 ;	-----------------------------------------
                                    101 ;	 function tancotf
                                    102 ;	-----------------------------------------
                                    103 ;	Register assignment is optimal.
                                    104 ;	Stack space usage: 0 bytes.
      000000                        105 _tancotf:
                                    106 ;	Raw cost for generated ic 1 : (0, 0.000000) count=1.000000
                                    107 ;	../tancotf.c: 58: if (fabsf(x) > YMAX)
                                    108 ;	genAssign
                                    109 ;	genCopy
      000000 ADr03r00         [ 4]  110 	lda	(_tancotf_PARM_1 + 3)
      000003 8Dr03r00         [ 4]  111 	sta	(_fabsf_PARM_1 + 3)
      000006 ADr02r00         [ 4]  112 	lda	(_tancotf_PARM_1 + 2)
      000009 8Dr02r00         [ 4]  113 	sta	(_fabsf_PARM_1 + 2)
      00000C ADr01r00         [ 4]  114 	lda	(_tancotf_PARM_1 + 1)
      00000F 8Dr01r00         [ 4]  115 	sta	(_fabsf_PARM_1 + 1)
      000012 ADr00r00         [ 4]  116 	lda	_tancotf_PARM_1
      000015 8Dr00r00         [ 4]  117 	sta	_fabsf_PARM_1
                                    118 ;	Raw cost for generated ic 2 : (24, 32.000000) count=1.000000
                                    119 ;	genCall
      000018 20r00r00         [ 6]  120 	jsr	_fabsf
                                    121 ;	assignResultValue
      00001B 8Dr00r00         [ 4]  122 	sta	___fslt_PARM_2
      00001E 8Er01r00         [ 4]  123 	stx	(___fslt_PARM_2 + 1)
      000021 A5*00            [ 3]  124 	lda	*___SDCC_m6502_ret2
      000023 8Dr02r00         [ 4]  125 	sta	(___fslt_PARM_2 + 2)
      000026 A5*00            [ 3]  126 	lda	*___SDCC_m6502_ret3
      000028 8Dr03r00         [ 4]  127 	sta	(___fslt_PARM_2 + 3)
                                    128 ;	Raw cost for generated ic 3 : (19, 28.000000) count=1.000000
                                    129 ;	genAssign
                                    130 ;	genAssignLit
      00002B 9Cr00r00         [ 4]  131 	stz	___fslt_PARM_1
      00002E A2 08            [ 2]  132 	ldx	#0x08
      000030 8Er01r00         [ 4]  133 	stx	(___fslt_PARM_1 + 1)
      000033 A2 C9            [ 2]  134 	ldx	#0xc9
      000035 8Er02r00         [ 4]  135 	stx	(___fslt_PARM_1 + 2)
      000038 A2 45            [ 2]  136 	ldx	#0x45
      00003A 8Er03r00         [ 4]  137 	stx	(___fslt_PARM_1 + 3)
                                    138 ;	Raw cost for generated ic 89 : (18, 22.000000) count=1.000000
                                    139 ;	genCall
      00003D 20r00r00         [ 6]  140 	jsr	___fslt
                                    141 ;	assignResultValue
                                    142 ;	Raw cost for generated ic 91 : (3, 6.000000) count=1.000000
                                    143 ;	genIfx
      000040 C9 00            [ 2]  144 	cmp	#0x00
                                    145 ;	genIfxJump : z
      000042 F0 10            [ 4]  146 	beq	00102$
                                    147 ;	Raw cost for generated ic 5 : (7, 7.600000) count=1.000000
                                    148 ;	../tancotf.c: 60: errno = ERANGE;
                                    149 ;	genAssign
                                    150 ;	genAssignLit
      000044 A2 22            [ 2]  151 	ldx	#0x22
      000046 8Er00r00         [ 4]  152 	stx	_errno
      000049 9Cr01r00         [ 4]  153 	stz	(_errno + 1)
                                    154 ;	Raw cost for generated ic 9 : (8, 10.000000) count=0.750000
                                    155 ;	../tancotf.c: 61: return 0.0;
                                    156 ;	genRet
      00004C A9 00            [ 2]  157 	lda	#0x00
      00004E AA               [ 2]  158 	tax
      00004F 85*00            [ 3]  159 	sta	*___SDCC_m6502_ret2
      000051 85*00            [ 3]  160 	sta	*___SDCC_m6502_ret3
      000053 60               [ 6]  161 	rts
                                    162 ;	Raw cost for generated ic 10 : (10, 13.000000) count=0.750000
                                    163 ;	genLabel
      000054                        164 00102$:
                                    165 ;	Raw cost for generated ic 11 : (0, 0.000000) count=1.000000
                                    166 ;	../tancotf.c: 65: n=(x*TWO_O_PI+(x>0.0?0.5:-0.5)); /*works for +-x*/
                                    167 ;	genAssign
                                    168 ;	genAssignLit
      000054 A2 83            [ 2]  169 	ldx	#0x83
      000056 8Er00r00         [ 4]  170 	stx	___fsmul_PARM_1
      000059 A2 F9            [ 2]  171 	ldx	#0xf9
      00005B 8Er01r00         [ 4]  172 	stx	(___fsmul_PARM_1 + 1)
      00005E A2 22            [ 2]  173 	ldx	#0x22
      000060 8Er02r00         [ 4]  174 	stx	(___fsmul_PARM_1 + 2)
      000063 A2 3F            [ 2]  175 	ldx	#0x3f
      000065 8Er03r00         [ 4]  176 	stx	(___fsmul_PARM_1 + 3)
                                    177 ;	Raw cost for generated ic 92 : (20, 24.000000) count=1.000000
                                    178 ;	genAssign
                                    179 ;	genCopy
      000068 ADr03r00         [ 4]  180 	lda	(_tancotf_PARM_1 + 3)
      00006B 8Dr03r00         [ 4]  181 	sta	(___fsmul_PARM_2 + 3)
      00006E ADr02r00         [ 4]  182 	lda	(_tancotf_PARM_1 + 2)
      000071 8Dr02r00         [ 4]  183 	sta	(___fsmul_PARM_2 + 2)
      000074 ADr01r00         [ 4]  184 	lda	(_tancotf_PARM_1 + 1)
      000077 8Dr01r00         [ 4]  185 	sta	(___fsmul_PARM_2 + 1)
      00007A ADr00r00         [ 4]  186 	lda	_tancotf_PARM_1
      00007D 8Dr00r00         [ 4]  187 	sta	___fsmul_PARM_2
                                    188 ;	Raw cost for generated ic 93 : (24, 32.000000) count=1.000000
                                    189 ;	genCall
      000080 20r00r00         [ 6]  190 	jsr	___fsmul
                                    191 ;	assignResultValue
      000083 85*00            [ 3]  192 	sta	*_tancotf_sloc0_1_0
      000085 86*01            [ 3]  193 	stx	*(_tancotf_sloc0_1_0 + 1)
      000087 A5*00            [ 3]  194 	lda	*___SDCC_m6502_ret2
      000089 85*02            [ 3]  195 	sta	*(_tancotf_sloc0_1_0 + 2)
      00008B A5*00            [ 3]  196 	lda	*___SDCC_m6502_ret3
      00008D 85*03            [ 3]  197 	sta	*(_tancotf_sloc0_1_0 + 3)
                                    198 ;	Raw cost for generated ic 94 : (15, 24.000000) count=1.000000
                                    199 ;	genAssign
                                    200 ;	genAssignLit
      00008F 9Cr00r00         [ 4]  201 	stz	___fslt_PARM_1
      000092 9Cr01r00         [ 4]  202 	stz	(___fslt_PARM_1 + 1)
      000095 9Cr02r00         [ 4]  203 	stz	(___fslt_PARM_1 + 2)
      000098 9Cr03r00         [ 4]  204 	stz	(___fslt_PARM_1 + 3)
                                    205 ;	Raw cost for generated ic 95 : (12, 16.000000) count=1.000000
                                    206 ;	genAssign
                                    207 ;	genCopy
      00009B ADr03r00         [ 4]  208 	lda	(_tancotf_PARM_1 + 3)
      00009E 8Dr03r00         [ 4]  209 	sta	(___fslt_PARM_2 + 3)
      0000A1 ADr02r00         [ 4]  210 	lda	(_tancotf_PARM_1 + 2)
      0000A4 8Dr02r00         [ 4]  211 	sta	(___fslt_PARM_2 + 2)
      0000A7 ADr01r00         [ 4]  212 	lda	(_tancotf_PARM_1 + 1)
      0000AA 8Dr01r00         [ 4]  213 	sta	(___fslt_PARM_2 + 1)
      0000AD ADr00r00         [ 4]  214 	lda	_tancotf_PARM_1
      0000B0 8Dr00r00         [ 4]  215 	sta	___fslt_PARM_2
                                    216 ;	Raw cost for generated ic 96 : (24, 32.000000) count=1.000000
                                    217 ;	genCall
      0000B3 20r00r00         [ 6]  218 	jsr	___fslt
                                    219 ;	assignResultValue
                                    220 ;	Raw cost for generated ic 97 : (3, 6.000000) count=1.000000
                                    221 ;	genIfx
      0000B6 C9 00            [ 2]  222 	cmp	#0x00
                                    223 ;	genIfxJump : z
      0000B8 F0 0D            [ 4]  224 	beq	00117$
                                    225 ;	Raw cost for generated ic 14 : (7, 7.600000) count=1.000000
                                    226 ;	genAssign
                                    227 ;	genAssignLit
      0000BA 64*04            [ 3]  228 	stz	*_tancotf_sloc1_1_0
      0000BC 64*05            [ 3]  229 	stz	*(_tancotf_sloc1_1_0 + 1)
      0000BE 64*06            [ 3]  230 	stz	*(_tancotf_sloc1_1_0 + 2)
      0000C0 A2 3F            [ 2]  231 	ldx	#0x3f
      0000C2 86*07            [ 3]  232 	stx	*(_tancotf_sloc1_1_0 + 3)
                                    233 ;	Raw cost for generated ic 15 : (13, 17.000000) count=0.750000
                                    234 ;	genGoto
      0000C4 4CrD1r00         [ 3]  235 	jmp	00118$
                                    236 ;	Raw cost for generated ic 16 : (3, 3.000000) count=0.750000
                                    237 ;	genLabel
      0000C7                        238 00117$:
                                    239 ;	Raw cost for generated ic 17 : (0, 0.000000) count=0.250000
                                    240 ;	genAssign
                                    241 ;	genAssignLit
      0000C7 64*04            [ 3]  242 	stz	*_tancotf_sloc1_1_0
      0000C9 64*05            [ 3]  243 	stz	*(_tancotf_sloc1_1_0 + 1)
      0000CB 64*06            [ 3]  244 	stz	*(_tancotf_sloc1_1_0 + 2)
      0000CD A2 BF            [ 2]  245 	ldx	#0xbf
      0000CF 86*07            [ 3]  246 	stx	*(_tancotf_sloc1_1_0 + 3)
                                    247 ;	Raw cost for generated ic 18 : (13, 17.000000) count=0.250000
                                    248 ;	genLabel
      0000D1                        249 00118$:
                                    250 ;	Raw cost for generated ic 19 : (0, 0.000000) count=1.000000
                                    251 ;	genAssign
                                    252 ;	genCopy
      0000D1 A5*03            [ 3]  253 	lda	*(_tancotf_sloc0_1_0 + 3)
      0000D3 8Dr03r00         [ 4]  254 	sta	(___fsadd_PARM_1 + 3)
      0000D6 A5*02            [ 3]  255 	lda	*(_tancotf_sloc0_1_0 + 2)
      0000D8 8Dr02r00         [ 4]  256 	sta	(___fsadd_PARM_1 + 2)
      0000DB A5*01            [ 3]  257 	lda	*(_tancotf_sloc0_1_0 + 1)
      0000DD 8Dr01r00         [ 4]  258 	sta	(___fsadd_PARM_1 + 1)
      0000E0 A5*00            [ 3]  259 	lda	*_tancotf_sloc0_1_0
      0000E2 8Dr00r00         [ 4]  260 	sta	___fsadd_PARM_1
                                    261 ;	Raw cost for generated ic 98 : (20, 28.000000) count=1.000000
                                    262 ;	genAssign
                                    263 ;	genCopy
      0000E5 A5*07            [ 3]  264 	lda	*(_tancotf_sloc1_1_0 + 3)
      0000E7 8Dr03r00         [ 4]  265 	sta	(___fsadd_PARM_2 + 3)
      0000EA A5*06            [ 3]  266 	lda	*(_tancotf_sloc1_1_0 + 2)
      0000EC 8Dr02r00         [ 4]  267 	sta	(___fsadd_PARM_2 + 2)
      0000EF A5*05            [ 3]  268 	lda	*(_tancotf_sloc1_1_0 + 1)
      0000F1 8Dr01r00         [ 4]  269 	sta	(___fsadd_PARM_2 + 1)
      0000F4 A5*04            [ 3]  270 	lda	*_tancotf_sloc1_1_0
      0000F6 8Dr00r00         [ 4]  271 	sta	___fsadd_PARM_2
                                    272 ;	Raw cost for generated ic 99 : (20, 28.000000) count=1.000000
                                    273 ;	genCall
      0000F9 20r00r00         [ 6]  274 	jsr	___fsadd
                                    275 ;	assignResultValue
      0000FC 8Dr00r00         [ 4]  276 	sta	___fs2sint_PARM_1
      0000FF 8Er01r00         [ 4]  277 	stx	(___fs2sint_PARM_1 + 1)
      000102 A5*00            [ 3]  278 	lda	*___SDCC_m6502_ret2
      000104 8Dr02r00         [ 4]  279 	sta	(___fs2sint_PARM_1 + 2)
      000107 A5*00            [ 3]  280 	lda	*___SDCC_m6502_ret3
      000109 8Dr03r00         [ 4]  281 	sta	(___fs2sint_PARM_1 + 3)
                                    282 ;	Raw cost for generated ic 100 : (19, 28.000000) count=1.000000
                                    283 ;	genCall
      00010C 20r00r00         [ 6]  284 	jsr	___fs2sint
                                    285 ;	assignResultValue
      00010F 8Dr0Dr00         [ 4]  286 	sta	_tancotf_n_10000_26
      000112 8Er0Er00         [ 4]  287 	stx	(_tancotf_n_10000_26 + 1)
                                    288 ;	Raw cost for generated ic 102 : (9, 14.000000) count=1.000000
                                    289 ;	../tancotf.c: 66: xn=n;
                                    290 ;	Raw cost for generated ic 103 : (0, 0.000000) count=1.000000
                                    291 ;	genCall
                                    292 ;	genSend
      000115 20r00r00         [ 6]  293 	jsr	___sint2fs
                                    294 ;	assignResultValue
      000118 85*04            [ 3]  295 	sta	*_tancotf_sloc1_1_0
      00011A 86*05            [ 3]  296 	stx	*(_tancotf_sloc1_1_0 + 1)
      00011C A5*00            [ 3]  297 	lda	*___SDCC_m6502_ret2
      00011E 85*06            [ 3]  298 	sta	*(_tancotf_sloc1_1_0 + 2)
      000120 A5*00            [ 3]  299 	lda	*___SDCC_m6502_ret3
      000122 85*07            [ 3]  300 	sta	*(_tancotf_sloc1_1_0 + 3)
                                    301 ;	Raw cost for generated ic 104 : (15, 24.000000) count=1.000000
                                    302 ;	../tancotf.c: 68: xnum=(int)x;
                                    303 ;	genAssign
                                    304 ;	genCopy
      000124 ADr03r00         [ 4]  305 	lda	(_tancotf_PARM_1 + 3)
      000127 8Dr03r00         [ 4]  306 	sta	(___fs2sint_PARM_1 + 3)
      00012A ADr02r00         [ 4]  307 	lda	(_tancotf_PARM_1 + 2)
      00012D 8Dr02r00         [ 4]  308 	sta	(___fs2sint_PARM_1 + 2)
      000130 ADr01r00         [ 4]  309 	lda	(_tancotf_PARM_1 + 1)
      000133 8Dr01r00         [ 4]  310 	sta	(___fs2sint_PARM_1 + 1)
      000136 ADr00r00         [ 4]  311 	lda	_tancotf_PARM_1
      000139 8Dr00r00         [ 4]  312 	sta	___fs2sint_PARM_1
                                    313 ;	Raw cost for generated ic 105 : (24, 32.000000) count=1.000000
                                    314 ;	genCall
      00013C 20r00r00         [ 6]  315 	jsr	___fs2sint
                                    316 ;	assignResultValue
                                    317 ;	Raw cost for generated ic 106 : (3, 6.000000) count=1.000000
                                    318 ;	Raw cost for generated ic 107 : (0, 0.000000) count=1.000000
                                    319 ;	genCall
                                    320 ;	genSend
      00013F 20r00r00         [ 6]  321 	jsr	___sint2fs
                                    322 ;	assignResultValue
      000142 85*00            [ 3]  323 	sta	*_tancotf_sloc0_1_0
      000144 86*01            [ 3]  324 	stx	*(_tancotf_sloc0_1_0 + 1)
      000146 A5*00            [ 3]  325 	lda	*___SDCC_m6502_ret2
      000148 85*02            [ 3]  326 	sta	*(_tancotf_sloc0_1_0 + 2)
      00014A A5*00            [ 3]  327 	lda	*___SDCC_m6502_ret3
      00014C 85*03            [ 3]  328 	sta	*(_tancotf_sloc0_1_0 + 3)
                                    329 ;	Raw cost for generated ic 108 : (15, 24.000000) count=1.000000
                                    330 ;	../tancotf.c: 69: xden=x-xnum;
                                    331 ;	genAssign
                                    332 ;	genCopy
      00014E ADr03r00         [ 4]  333 	lda	(_tancotf_PARM_1 + 3)
      000151 8Dr03r00         [ 4]  334 	sta	(___fssub_PARM_1 + 3)
      000154 ADr02r00         [ 4]  335 	lda	(_tancotf_PARM_1 + 2)
      000157 8Dr02r00         [ 4]  336 	sta	(___fssub_PARM_1 + 2)
      00015A ADr01r00         [ 4]  337 	lda	(_tancotf_PARM_1 + 1)
      00015D 8Dr01r00         [ 4]  338 	sta	(___fssub_PARM_1 + 1)
      000160 ADr00r00         [ 4]  339 	lda	_tancotf_PARM_1
      000163 8Dr00r00         [ 4]  340 	sta	___fssub_PARM_1
                                    341 ;	Raw cost for generated ic 109 : (24, 32.000000) count=1.000000
                                    342 ;	genAssign
                                    343 ;	genCopy
      000166 A5*03            [ 3]  344 	lda	*(_tancotf_sloc0_1_0 + 3)
      000168 8Dr03r00         [ 4]  345 	sta	(___fssub_PARM_2 + 3)
      00016B A5*02            [ 3]  346 	lda	*(_tancotf_sloc0_1_0 + 2)
      00016D 8Dr02r00         [ 4]  347 	sta	(___fssub_PARM_2 + 2)
      000170 8A               [ 2]  348 	txa
      000171 8Dr01r00         [ 4]  349 	sta	(___fssub_PARM_2 + 1)
      000174 A5*00            [ 3]  350 	lda	*_tancotf_sloc0_1_0
      000176 8Dr00r00         [ 4]  351 	sta	___fssub_PARM_2
                                    352 ;	Raw cost for generated ic 110 : (19, 27.000000) count=1.000000
                                    353 ;	../tancotf.c: 70: f=((xnum-xn*C1)+xden)-xn*C2;
                                    354 ;	genCall
      000179 20r00r00         [ 6]  355 	jsr	___fssub
                                    356 ;	assignResultValue
      00017C 85*08            [ 3]  357 	sta	*_tancotf_sloc2_1_0
      00017E 86*09            [ 3]  358 	stx	*(_tancotf_sloc2_1_0 + 1)
      000180 A5*00            [ 3]  359 	lda	*___SDCC_m6502_ret2
      000182 85*0A            [ 3]  360 	sta	*(_tancotf_sloc2_1_0 + 2)
      000184 A5*00            [ 3]  361 	lda	*___SDCC_m6502_ret3
      000186 85*0B            [ 3]  362 	sta	*(_tancotf_sloc2_1_0 + 3)
                                    363 ;	Raw cost for generated ic 111 : (15, 24.000000) count=1.000000
                                    364 ;	genAssign
                                    365 ;	genAssignLit
      000188 9Cr00r00         [ 4]  366 	stz	___fsmul_PARM_1
      00018B 9Cr01r00         [ 4]  367 	stz	(___fsmul_PARM_1 + 1)
      00018E A2 C9            [ 2]  368 	ldx	#0xc9
      000190 8Er02r00         [ 4]  369 	stx	(___fsmul_PARM_1 + 2)
      000193 A2 3F            [ 2]  370 	ldx	#0x3f
      000195 8Er03r00         [ 4]  371 	stx	(___fsmul_PARM_1 + 3)
                                    372 ;	Raw cost for generated ic 112 : (16, 20.000000) count=1.000000
                                    373 ;	genAssign
                                    374 ;	genCopy
      000198 A5*07            [ 3]  375 	lda	*(_tancotf_sloc1_1_0 + 3)
      00019A 8Dr03r00         [ 4]  376 	sta	(___fsmul_PARM_2 + 3)
      00019D A5*06            [ 3]  377 	lda	*(_tancotf_sloc1_1_0 + 2)
      00019F 8Dr02r00         [ 4]  378 	sta	(___fsmul_PARM_2 + 2)
      0001A2 A5*05            [ 3]  379 	lda	*(_tancotf_sloc1_1_0 + 1)
      0001A4 8Dr01r00         [ 4]  380 	sta	(___fsmul_PARM_2 + 1)
      0001A7 A5*04            [ 3]  381 	lda	*_tancotf_sloc1_1_0
      0001A9 8Dr00r00         [ 4]  382 	sta	___fsmul_PARM_2
                                    383 ;	Raw cost for generated ic 113 : (20, 28.000000) count=1.000000
                                    384 ;	genCall
      0001AC 20r00r00         [ 6]  385 	jsr	___fsmul
                                    386 ;	assignResultValue
      0001AF 8Dr00r00         [ 4]  387 	sta	___fssub_PARM_2
      0001B2 8Er01r00         [ 4]  388 	stx	(___fssub_PARM_2 + 1)
      0001B5 A5*00            [ 3]  389 	lda	*___SDCC_m6502_ret2
      0001B7 8Dr02r00         [ 4]  390 	sta	(___fssub_PARM_2 + 2)
      0001BA A5*00            [ 3]  391 	lda	*___SDCC_m6502_ret3
      0001BC 8Dr03r00         [ 4]  392 	sta	(___fssub_PARM_2 + 3)
                                    393 ;	Raw cost for generated ic 114 : (19, 28.000000) count=1.000000
                                    394 ;	genAssign
                                    395 ;	genCopy
      0001BF A5*03            [ 3]  396 	lda	*(_tancotf_sloc0_1_0 + 3)
      0001C1 8Dr03r00         [ 4]  397 	sta	(___fssub_PARM_1 + 3)
      0001C4 A5*02            [ 3]  398 	lda	*(_tancotf_sloc0_1_0 + 2)
      0001C6 8Dr02r00         [ 4]  399 	sta	(___fssub_PARM_1 + 2)
      0001C9 A5*01            [ 3]  400 	lda	*(_tancotf_sloc0_1_0 + 1)
      0001CB 8Dr01r00         [ 4]  401 	sta	(___fssub_PARM_1 + 1)
      0001CE A5*00            [ 3]  402 	lda	*_tancotf_sloc0_1_0
      0001D0 8Dr00r00         [ 4]  403 	sta	___fssub_PARM_1
                                    404 ;	Raw cost for generated ic 115 : (20, 28.000000) count=1.000000
                                    405 ;	genCall
      0001D3 20r00r00         [ 6]  406 	jsr	___fssub
                                    407 ;	assignResultValue
      0001D6 8Dr00r00         [ 4]  408 	sta	___fsadd_PARM_1
      0001D9 8Er01r00         [ 4]  409 	stx	(___fsadd_PARM_1 + 1)
      0001DC A5*00            [ 3]  410 	lda	*___SDCC_m6502_ret2
      0001DE 8Dr02r00         [ 4]  411 	sta	(___fsadd_PARM_1 + 2)
      0001E1 A5*00            [ 3]  412 	lda	*___SDCC_m6502_ret3
      0001E3 8Dr03r00         [ 4]  413 	sta	(___fsadd_PARM_1 + 3)
                                    414 ;	Raw cost for generated ic 117 : (19, 28.000000) count=1.000000
                                    415 ;	genAssign
                                    416 ;	genCopy
      0001E6 A5*0B            [ 3]  417 	lda	*(_tancotf_sloc2_1_0 + 3)
      0001E8 8Dr03r00         [ 4]  418 	sta	(___fsadd_PARM_2 + 3)
      0001EB A5*0A            [ 3]  419 	lda	*(_tancotf_sloc2_1_0 + 2)
      0001ED 8Dr02r00         [ 4]  420 	sta	(___fsadd_PARM_2 + 2)
      0001F0 A5*09            [ 3]  421 	lda	*(_tancotf_sloc2_1_0 + 1)
      0001F2 8Dr01r00         [ 4]  422 	sta	(___fsadd_PARM_2 + 1)
      0001F5 A5*08            [ 3]  423 	lda	*_tancotf_sloc2_1_0
      0001F7 8Dr00r00         [ 4]  424 	sta	___fsadd_PARM_2
                                    425 ;	Raw cost for generated ic 119 : (20, 28.000000) count=1.000000
                                    426 ;	genCall
      0001FA 20r00r00         [ 6]  427 	jsr	___fsadd
                                    428 ;	assignResultValue
      0001FD 85*08            [ 3]  429 	sta	*_tancotf_sloc2_1_0
      0001FF 86*09            [ 3]  430 	stx	*(_tancotf_sloc2_1_0 + 1)
      000201 A5*00            [ 3]  431 	lda	*___SDCC_m6502_ret2
      000203 85*0A            [ 3]  432 	sta	*(_tancotf_sloc2_1_0 + 2)
      000205 A5*00            [ 3]  433 	lda	*___SDCC_m6502_ret3
      000207 85*0B            [ 3]  434 	sta	*(_tancotf_sloc2_1_0 + 3)
                                    435 ;	Raw cost for generated ic 120 : (15, 24.000000) count=1.000000
                                    436 ;	genAssign
                                    437 ;	genAssignLit
      000209 A2 22            [ 2]  438 	ldx	#0x22
      00020B 8Er00r00         [ 4]  439 	stx	___fsmul_PARM_1
      00020E A2 AA            [ 2]  440 	ldx	#0xaa
      000210 8Er01r00         [ 4]  441 	stx	(___fsmul_PARM_1 + 1)
      000213 A2 FD            [ 2]  442 	ldx	#0xfd
      000215 8Er02r00         [ 4]  443 	stx	(___fsmul_PARM_1 + 2)
      000218 A2 39            [ 2]  444 	ldx	#0x39
      00021A 8Er03r00         [ 4]  445 	stx	(___fsmul_PARM_1 + 3)
                                    446 ;	Raw cost for generated ic 121 : (20, 24.000000) count=1.000000
                                    447 ;	genAssign
                                    448 ;	genCopy
      00021D A5*07            [ 3]  449 	lda	*(_tancotf_sloc1_1_0 + 3)
      00021F 8Dr03r00         [ 4]  450 	sta	(___fsmul_PARM_2 + 3)
      000222 A5*06            [ 3]  451 	lda	*(_tancotf_sloc1_1_0 + 2)
      000224 8Dr02r00         [ 4]  452 	sta	(___fsmul_PARM_2 + 2)
      000227 A5*05            [ 3]  453 	lda	*(_tancotf_sloc1_1_0 + 1)
      000229 8Dr01r00         [ 4]  454 	sta	(___fsmul_PARM_2 + 1)
      00022C A5*04            [ 3]  455 	lda	*_tancotf_sloc1_1_0
      00022E 8Dr00r00         [ 4]  456 	sta	___fsmul_PARM_2
                                    457 ;	Raw cost for generated ic 122 : (20, 28.000000) count=1.000000
                                    458 ;	genCall
      000231 20r00r00         [ 6]  459 	jsr	___fsmul
                                    460 ;	assignResultValue
      000234 8Dr00r00         [ 4]  461 	sta	___fssub_PARM_2
      000237 8Er01r00         [ 4]  462 	stx	(___fssub_PARM_2 + 1)
      00023A A5*00            [ 3]  463 	lda	*___SDCC_m6502_ret2
      00023C 8Dr02r00         [ 4]  464 	sta	(___fssub_PARM_2 + 2)
      00023F A5*00            [ 3]  465 	lda	*___SDCC_m6502_ret3
      000241 8Dr03r00         [ 4]  466 	sta	(___fssub_PARM_2 + 3)
                                    467 ;	Raw cost for generated ic 123 : (19, 28.000000) count=1.000000
                                    468 ;	genAssign
                                    469 ;	genCopy
      000244 A5*0B            [ 3]  470 	lda	*(_tancotf_sloc2_1_0 + 3)
      000246 8Dr03r00         [ 4]  471 	sta	(___fssub_PARM_1 + 3)
      000249 A5*0A            [ 3]  472 	lda	*(_tancotf_sloc2_1_0 + 2)
      00024B 8Dr02r00         [ 4]  473 	sta	(___fssub_PARM_1 + 2)
      00024E A5*09            [ 3]  474 	lda	*(_tancotf_sloc2_1_0 + 1)
      000250 8Dr01r00         [ 4]  475 	sta	(___fssub_PARM_1 + 1)
      000253 A5*08            [ 3]  476 	lda	*_tancotf_sloc2_1_0
      000255 8Dr00r00         [ 4]  477 	sta	___fssub_PARM_1
                                    478 ;	Raw cost for generated ic 124 : (20, 28.000000) count=1.000000
                                    479 ;	../tancotf.c: 72: if (fabsf(f) < EPS)
                                    480 ;	genCall
      000258 20r00r00         [ 6]  481 	jsr	___fssub
                                    482 ;	assignResultValue
      00025B 85*08            [ 3]  483 	sta	*_tancotf_sloc2_1_0
      00025D 86*09            [ 3]  484 	stx	*(_tancotf_sloc2_1_0 + 1)
      00025F A5*00            [ 3]  485 	lda	*___SDCC_m6502_ret2
      000261 85*0A            [ 3]  486 	sta	*(_tancotf_sloc2_1_0 + 2)
      000263 A5*00            [ 3]  487 	lda	*___SDCC_m6502_ret3
      000265 85*0B            [ 3]  488 	sta	*(_tancotf_sloc2_1_0 + 3)
                                    489 ;	Raw cost for generated ic 126 : (15, 24.000000) count=1.000000
                                    490 ;	genAssign
                                    491 ;	genCopy
      000267 8Dr03r00         [ 4]  492 	sta	(_fabsf_PARM_1 + 3)
      00026A A5*0A            [ 3]  493 	lda	*(_tancotf_sloc2_1_0 + 2)
      00026C 8Dr02r00         [ 4]  494 	sta	(_fabsf_PARM_1 + 2)
      00026F 8A               [ 2]  495 	txa
      000270 8Dr01r00         [ 4]  496 	sta	(_fabsf_PARM_1 + 1)
      000273 A5*08            [ 3]  497 	lda	*_tancotf_sloc2_1_0
      000275 8Dr00r00         [ 4]  498 	sta	_fabsf_PARM_1
                                    499 ;	Raw cost for generated ic 36 : (17, 24.000000) count=1.000000
                                    500 ;	genCall
      000278 20r00r00         [ 6]  501 	jsr	_fabsf
                                    502 ;	assignResultValue
      00027B 8Dr00r00         [ 4]  503 	sta	___fslt_PARM_1
      00027E 8Er01r00         [ 4]  504 	stx	(___fslt_PARM_1 + 1)
      000281 A5*00            [ 3]  505 	lda	*___SDCC_m6502_ret2
      000283 8Dr02r00         [ 4]  506 	sta	(___fslt_PARM_1 + 2)
      000286 A5*00            [ 3]  507 	lda	*___SDCC_m6502_ret3
      000288 8Dr03r00         [ 4]  508 	sta	(___fslt_PARM_1 + 3)
                                    509 ;	Raw cost for generated ic 37 : (19, 28.000000) count=1.000000
                                    510 ;	genAssign
                                    511 ;	genAssignLit
      00028B 9Cr00r00         [ 4]  512 	stz	___fslt_PARM_2
      00028E 9Cr01r00         [ 4]  513 	stz	(___fslt_PARM_2 + 1)
      000291 A2 80            [ 2]  514 	ldx	#0x80
      000293 8Er02r00         [ 4]  515 	stx	(___fslt_PARM_2 + 2)
      000296 A2 39            [ 2]  516 	ldx	#0x39
      000298 8Er03r00         [ 4]  517 	stx	(___fslt_PARM_2 + 3)
                                    518 ;	Raw cost for generated ic 128 : (16, 20.000000) count=1.000000
                                    519 ;	genCall
      00029B 20r00r00         [ 6]  520 	jsr	___fslt
                                    521 ;	assignResultValue
                                    522 ;	Raw cost for generated ic 129 : (3, 6.000000) count=1.000000
                                    523 ;	genIfx
      00029E C9 00            [ 2]  524 	cmp	#0x00
                                    525 ;	genIfxJump : z
      0002A0 F0 27            [ 4]  526 	beq	00104$
                                    527 ;	Raw cost for generated ic 39 : (7, 7.600000) count=1.000000
                                    528 ;	../tancotf.c: 74: xnum = f;
                                    529 ;	genAssign
                                    530 ;	genCopy
      0002A2 A5*0B            [ 3]  531 	lda	*(_tancotf_sloc2_1_0 + 3)
      0002A4 8Dr08r00         [ 4]  532 	sta	(_tancotf_xnum_10000_26 + 3)
      0002A7 A5*0A            [ 3]  533 	lda	*(_tancotf_sloc2_1_0 + 2)
      0002A9 8Dr07r00         [ 4]  534 	sta	(_tancotf_xnum_10000_26 + 2)
      0002AC A5*09            [ 3]  535 	lda	*(_tancotf_sloc2_1_0 + 1)
      0002AE 8Dr06r00         [ 4]  536 	sta	(_tancotf_xnum_10000_26 + 1)
      0002B1 A5*08            [ 3]  537 	lda	*_tancotf_sloc2_1_0
      0002B3 8Dr05r00         [ 4]  538 	sta	_tancotf_xnum_10000_26
                                    539 ;	Raw cost for generated ic 42 : (20, 28.000000) count=0.750000
                                    540 ;	../tancotf.c: 75: xden = 1.0;
                                    541 ;	genAssign
                                    542 ;	genAssignLit
      0002B6 9Cr09r00         [ 4]  543 	stz	_tancotf_xden_10000_26
      0002B9 9Cr0Ar00         [ 4]  544 	stz	(_tancotf_xden_10000_26 + 1)
      0002BC A2 80            [ 2]  545 	ldx	#0x80
      0002BE 8Er0Br00         [ 4]  546 	stx	(_tancotf_xden_10000_26 + 2)
      0002C1 A2 3F            [ 2]  547 	ldx	#0x3f
      0002C3 8Er0Cr00         [ 4]  548 	stx	(_tancotf_xden_10000_26 + 3)
                                    549 ;	Raw cost for generated ic 43 : (16, 20.000000) count=0.750000
                                    550 ;	genGoto
      0002C6 4Cr33r04         [ 3]  551 	jmp	00105$
                                    552 ;	Raw cost for generated ic 44 : (3, 3.000000) count=0.750000
                                    553 ;	genLabel
      0002C9                        554 00104$:
                                    555 ;	Raw cost for generated ic 45 : (0, 0.000000) count=0.250000
                                    556 ;	../tancotf.c: 79: g = f*f;
                                    557 ;	genAssign
                                    558 ;	genCopy
      0002C9 A5*0B            [ 3]  559 	lda	*(_tancotf_sloc2_1_0 + 3)
      0002CB 8Dr03r00         [ 4]  560 	sta	(___fsmul_PARM_1 + 3)
      0002CE A5*0A            [ 3]  561 	lda	*(_tancotf_sloc2_1_0 + 2)
      0002D0 8Dr02r00         [ 4]  562 	sta	(___fsmul_PARM_1 + 2)
      0002D3 A5*09            [ 3]  563 	lda	*(_tancotf_sloc2_1_0 + 1)
      0002D5 8Dr01r00         [ 4]  564 	sta	(___fsmul_PARM_1 + 1)
      0002D8 A5*08            [ 3]  565 	lda	*_tancotf_sloc2_1_0
      0002DA 8Dr00r00         [ 4]  566 	sta	___fsmul_PARM_1
                                    567 ;	Raw cost for generated ic 130 : (20, 28.000000) count=0.250000
                                    568 ;	genAssign
                                    569 ;	genCopy
      0002DD A5*0B            [ 3]  570 	lda	*(_tancotf_sloc2_1_0 + 3)
      0002DF 8Dr03r00         [ 4]  571 	sta	(___fsmul_PARM_2 + 3)
      0002E2 A5*0A            [ 3]  572 	lda	*(_tancotf_sloc2_1_0 + 2)
      0002E4 8Dr02r00         [ 4]  573 	sta	(___fsmul_PARM_2 + 2)
      0002E7 A5*09            [ 3]  574 	lda	*(_tancotf_sloc2_1_0 + 1)
      0002E9 8Dr01r00         [ 4]  575 	sta	(___fsmul_PARM_2 + 1)
      0002EC A5*08            [ 3]  576 	lda	*_tancotf_sloc2_1_0
      0002EE 8Dr00r00         [ 4]  577 	sta	___fsmul_PARM_2
                                    578 ;	Raw cost for generated ic 131 : (20, 28.000000) count=0.250000
                                    579 ;	../tancotf.c: 80: xnum = P(f,g);
                                    580 ;	genCall
      0002F1 20r00r00         [ 6]  581 	jsr	___fsmul
                                    582 ;	assignResultValue
      0002F4 85*04            [ 3]  583 	sta	*_tancotf_sloc1_1_0
      0002F6 86*05            [ 3]  584 	stx	*(_tancotf_sloc1_1_0 + 1)
      0002F8 A5*00            [ 3]  585 	lda	*___SDCC_m6502_ret2
      0002FA 85*06            [ 3]  586 	sta	*(_tancotf_sloc1_1_0 + 2)
      0002FC A5*00            [ 3]  587 	lda	*___SDCC_m6502_ret3
      0002FE 85*07            [ 3]  588 	sta	*(_tancotf_sloc1_1_0 + 3)
                                    589 ;	Raw cost for generated ic 132 : (15, 24.000000) count=0.250000
                                    590 ;	genAssign
                                    591 ;	genAssignLit
      000300 A2 B8            [ 2]  592 	ldx	#0xb8
      000302 8Er00r00         [ 4]  593 	stx	___fsmul_PARM_1
      000305 A2 33            [ 2]  594 	ldx	#0x33
      000307 8Er01r00         [ 4]  595 	stx	(___fsmul_PARM_1 + 1)
      00030A A2 C4            [ 2]  596 	ldx	#0xc4
      00030C 8Er02r00         [ 4]  597 	stx	(___fsmul_PARM_1 + 2)
      00030F A2 BD            [ 2]  598 	ldx	#0xbd
      000311 8Er03r00         [ 4]  599 	stx	(___fsmul_PARM_1 + 3)
                                    600 ;	Raw cost for generated ic 133 : (20, 24.000000) count=0.250000
                                    601 ;	genAssign
                                    602 ;	genCopy
      000314 8Dr03r00         [ 4]  603 	sta	(___fsmul_PARM_2 + 3)
      000317 A5*06            [ 3]  604 	lda	*(_tancotf_sloc1_1_0 + 2)
      000319 8Dr02r00         [ 4]  605 	sta	(___fsmul_PARM_2 + 2)
      00031C A5*05            [ 3]  606 	lda	*(_tancotf_sloc1_1_0 + 1)
      00031E 8Dr01r00         [ 4]  607 	sta	(___fsmul_PARM_2 + 1)
      000321 A5*04            [ 3]  608 	lda	*_tancotf_sloc1_1_0
      000323 8Dr00r00         [ 4]  609 	sta	___fsmul_PARM_2
                                    610 ;	Raw cost for generated ic 134 : (18, 25.000000) count=0.250000
                                    611 ;	genCall
      000326 20r00r00         [ 6]  612 	jsr	___fsmul
                                    613 ;	assignResultValue
      000329 8Dr00r00         [ 4]  614 	sta	___fsmul_PARM_1
      00032C 8Er01r00         [ 4]  615 	stx	(___fsmul_PARM_1 + 1)
      00032F A5*00            [ 3]  616 	lda	*___SDCC_m6502_ret2
      000331 8Dr02r00         [ 4]  617 	sta	(___fsmul_PARM_1 + 2)
      000334 A5*00            [ 3]  618 	lda	*___SDCC_m6502_ret3
      000336 8Dr03r00         [ 4]  619 	sta	(___fsmul_PARM_1 + 3)
                                    620 ;	Raw cost for generated ic 135 : (19, 28.000000) count=0.250000
                                    621 ;	genAssign
                                    622 ;	genCopy
      000339 A5*0B            [ 3]  623 	lda	*(_tancotf_sloc2_1_0 + 3)
      00033B 8Dr03r00         [ 4]  624 	sta	(___fsmul_PARM_2 + 3)
      00033E A5*0A            [ 3]  625 	lda	*(_tancotf_sloc2_1_0 + 2)
      000340 8Dr02r00         [ 4]  626 	sta	(___fsmul_PARM_2 + 2)
      000343 A5*09            [ 3]  627 	lda	*(_tancotf_sloc2_1_0 + 1)
      000345 8Dr01r00         [ 4]  628 	sta	(___fsmul_PARM_2 + 1)
      000348 A5*08            [ 3]  629 	lda	*_tancotf_sloc2_1_0
      00034A 8Dr00r00         [ 4]  630 	sta	___fsmul_PARM_2
                                    631 ;	Raw cost for generated ic 137 : (20, 28.000000) count=0.250000
                                    632 ;	genCall
      00034D 20r00r00         [ 6]  633 	jsr	___fsmul
                                    634 ;	assignResultValue
      000350 8Dr00r00         [ 4]  635 	sta	___fsadd_PARM_1
      000353 8Er01r00         [ 4]  636 	stx	(___fsadd_PARM_1 + 1)
      000356 A5*00            [ 3]  637 	lda	*___SDCC_m6502_ret2
      000358 8Dr02r00         [ 4]  638 	sta	(___fsadd_PARM_1 + 2)
      00035B A5*00            [ 3]  639 	lda	*___SDCC_m6502_ret3
      00035D 8Dr03r00         [ 4]  640 	sta	(___fsadd_PARM_1 + 3)
                                    641 ;	Raw cost for generated ic 138 : (19, 28.000000) count=0.250000
                                    642 ;	genAssign
                                    643 ;	genCopy
      000360 A5*0B            [ 3]  644 	lda	*(_tancotf_sloc2_1_0 + 3)
      000362 8Dr03r00         [ 4]  645 	sta	(___fsadd_PARM_2 + 3)
      000365 A5*0A            [ 3]  646 	lda	*(_tancotf_sloc2_1_0 + 2)
      000367 8Dr02r00         [ 4]  647 	sta	(___fsadd_PARM_2 + 2)
      00036A A5*09            [ 3]  648 	lda	*(_tancotf_sloc2_1_0 + 1)
      00036C 8Dr01r00         [ 4]  649 	sta	(___fsadd_PARM_2 + 1)
      00036F A5*08            [ 3]  650 	lda	*_tancotf_sloc2_1_0
      000371 8Dr00r00         [ 4]  651 	sta	___fsadd_PARM_2
                                    652 ;	Raw cost for generated ic 140 : (20, 28.000000) count=0.250000
                                    653 ;	genCall
      000374 20r00r00         [ 6]  654 	jsr	___fsadd
                                    655 ;	assignResultValue
      000377 8Dr05r00         [ 4]  656 	sta	_tancotf_xnum_10000_26
      00037A 8Er06r00         [ 4]  657 	stx	(_tancotf_xnum_10000_26 + 1)
      00037D A5*00            [ 3]  658 	lda	*___SDCC_m6502_ret2
      00037F 8Dr07r00         [ 4]  659 	sta	(_tancotf_xnum_10000_26 + 2)
      000382 A5*00            [ 3]  660 	lda	*___SDCC_m6502_ret3
      000384 8Dr08r00         [ 4]  661 	sta	(_tancotf_xnum_10000_26 + 3)
                                    662 ;	Raw cost for generated ic 141 : (19, 28.000000) count=0.250000
                                    663 ;	../tancotf.c: 81: xden = Q(g);
                                    664 ;	genAssign
                                    665 ;	genAssignLit
      000387 A2 75            [ 2]  666 	ldx	#0x75
      000389 8Er00r00         [ 4]  667 	stx	___fsmul_PARM_1
      00038C A2 33            [ 2]  668 	ldx	#0x33
      00038E 8Er01r00         [ 4]  669 	stx	(___fsmul_PARM_1 + 1)
      000391 A2 1F            [ 2]  670 	ldx	#0x1f
      000393 8Er02r00         [ 4]  671 	stx	(___fsmul_PARM_1 + 2)
      000396 A2 3C            [ 2]  672 	ldx	#0x3c
      000398 8Er03r00         [ 4]  673 	stx	(___fsmul_PARM_1 + 3)
                                    674 ;	Raw cost for generated ic 142 : (20, 24.000000) count=0.250000
                                    675 ;	genAssign
                                    676 ;	genCopy
      00039B A5*07            [ 3]  677 	lda	*(_tancotf_sloc1_1_0 + 3)
      00039D 8Dr03r00         [ 4]  678 	sta	(___fsmul_PARM_2 + 3)
      0003A0 A5*06            [ 3]  679 	lda	*(_tancotf_sloc1_1_0 + 2)
      0003A2 8Dr02r00         [ 4]  680 	sta	(___fsmul_PARM_2 + 2)
      0003A5 A5*05            [ 3]  681 	lda	*(_tancotf_sloc1_1_0 + 1)
      0003A7 8Dr01r00         [ 4]  682 	sta	(___fsmul_PARM_2 + 1)
      0003AA A5*04            [ 3]  683 	lda	*_tancotf_sloc1_1_0
      0003AC 8Dr00r00         [ 4]  684 	sta	___fsmul_PARM_2
                                    685 ;	Raw cost for generated ic 143 : (20, 28.000000) count=0.250000
                                    686 ;	genCall
      0003AF 20r00r00         [ 6]  687 	jsr	___fsmul
                                    688 ;	assignResultValue
      0003B2 8Dr00r00         [ 4]  689 	sta	___fsadd_PARM_1
      0003B5 8Er01r00         [ 4]  690 	stx	(___fsadd_PARM_1 + 1)
      0003B8 A5*00            [ 3]  691 	lda	*___SDCC_m6502_ret2
      0003BA 8Dr02r00         [ 4]  692 	sta	(___fsadd_PARM_1 + 2)
      0003BD A5*00            [ 3]  693 	lda	*___SDCC_m6502_ret3
      0003BF 8Dr03r00         [ 4]  694 	sta	(___fsadd_PARM_1 + 3)
                                    695 ;	Raw cost for generated ic 144 : (19, 28.000000) count=0.250000
                                    696 ;	genAssign
                                    697 ;	genAssignLit
      0003C2 A2 AF            [ 2]  698 	ldx	#0xaf
      0003C4 8Er00r00         [ 4]  699 	stx	___fsadd_PARM_2
      0003C7 A2 B7            [ 2]  700 	ldx	#0xb7
      0003C9 8Er01r00         [ 4]  701 	stx	(___fsadd_PARM_2 + 1)
      0003CC A2 DB            [ 2]  702 	ldx	#0xdb
      0003CE 8Er02r00         [ 4]  703 	stx	(___fsadd_PARM_2 + 2)
      0003D1 A2 BE            [ 2]  704 	ldx	#0xbe
      0003D3 8Er03r00         [ 4]  705 	stx	(___fsadd_PARM_2 + 3)
                                    706 ;	Raw cost for generated ic 146 : (20, 24.000000) count=0.250000
                                    707 ;	genCall
      0003D6 20r00r00         [ 6]  708 	jsr	___fsadd
                                    709 ;	assignResultValue
      0003D9 8Dr00r00         [ 4]  710 	sta	___fsmul_PARM_1
      0003DC 8Er01r00         [ 4]  711 	stx	(___fsmul_PARM_1 + 1)
      0003DF A5*00            [ 3]  712 	lda	*___SDCC_m6502_ret2
      0003E1 8Dr02r00         [ 4]  713 	sta	(___fsmul_PARM_1 + 2)
      0003E4 A5*00            [ 3]  714 	lda	*___SDCC_m6502_ret3
      0003E6 8Dr03r00         [ 4]  715 	sta	(___fsmul_PARM_1 + 3)
                                    716 ;	Raw cost for generated ic 147 : (19, 28.000000) count=0.250000
                                    717 ;	genAssign
                                    718 ;	genCopy
      0003E9 A5*07            [ 3]  719 	lda	*(_tancotf_sloc1_1_0 + 3)
      0003EB 8Dr03r00         [ 4]  720 	sta	(___fsmul_PARM_2 + 3)
      0003EE A5*06            [ 3]  721 	lda	*(_tancotf_sloc1_1_0 + 2)
      0003F0 8Dr02r00         [ 4]  722 	sta	(___fsmul_PARM_2 + 2)
      0003F3 A5*05            [ 3]  723 	lda	*(_tancotf_sloc1_1_0 + 1)
      0003F5 8Dr01r00         [ 4]  724 	sta	(___fsmul_PARM_2 + 1)
      0003F8 A5*04            [ 3]  725 	lda	*_tancotf_sloc1_1_0
      0003FA 8Dr00r00         [ 4]  726 	sta	___fsmul_PARM_2
                                    727 ;	Raw cost for generated ic 149 : (20, 28.000000) count=0.250000
                                    728 ;	genCall
      0003FD 20r00r00         [ 6]  729 	jsr	___fsmul
                                    730 ;	assignResultValue
      000400 8Dr00r00         [ 4]  731 	sta	___fsadd_PARM_1
      000403 8Er01r00         [ 4]  732 	stx	(___fsadd_PARM_1 + 1)
      000406 A5*00            [ 3]  733 	lda	*___SDCC_m6502_ret2
      000408 8Dr02r00         [ 4]  734 	sta	(___fsadd_PARM_1 + 2)
      00040B A5*00            [ 3]  735 	lda	*___SDCC_m6502_ret3
      00040D 8Dr03r00         [ 4]  736 	sta	(___fsadd_PARM_1 + 3)
                                    737 ;	Raw cost for generated ic 150 : (19, 28.000000) count=0.250000
                                    738 ;	genAssign
                                    739 ;	genAssignLit
      000410 9Cr00r00         [ 4]  740 	stz	___fsadd_PARM_2
      000413 9Cr01r00         [ 4]  741 	stz	(___fsadd_PARM_2 + 1)
      000416 A2 80            [ 2]  742 	ldx	#0x80
      000418 8Er02r00         [ 4]  743 	stx	(___fsadd_PARM_2 + 2)
      00041B A2 3F            [ 2]  744 	ldx	#0x3f
      00041D 8Er03r00         [ 4]  745 	stx	(___fsadd_PARM_2 + 3)
                                    746 ;	Raw cost for generated ic 152 : (16, 20.000000) count=0.250000
                                    747 ;	genCall
      000420 20r00r00         [ 6]  748 	jsr	___fsadd
                                    749 ;	assignResultValue
      000423 8Dr09r00         [ 4]  750 	sta	_tancotf_xden_10000_26
      000426 8Er0Ar00         [ 4]  751 	stx	(_tancotf_xden_10000_26 + 1)
      000429 A5*00            [ 3]  752 	lda	*___SDCC_m6502_ret2
      00042B 8Dr0Br00         [ 4]  753 	sta	(_tancotf_xden_10000_26 + 2)
      00042E A5*00            [ 3]  754 	lda	*___SDCC_m6502_ret3
      000430 8Dr0Cr00         [ 4]  755 	sta	(_tancotf_xden_10000_26 + 3)
                                    756 ;	Raw cost for generated ic 153 : (19, 28.000000) count=0.250000
                                    757 ;	genLabel
      000433                        758 00105$:
                                    759 ;	Raw cost for generated ic 57 : (0, 0.000000) count=1.000000
                                    760 ;	../tancotf.c: 84: if(n&1)
                                    761 ;	genAnd
      000433 ADr0Dr00         [ 4]  762 	lda	_tancotf_n_10000_26
      000436 29 01            [ 2]  763 	and	#0x01
                                    764 ;	genIfxJump : z
      000438 D0 03            [ 4]  765 	bne	00162$
      00043A 4CrD6r04         [ 3]  766 	jmp	00113$
      00043D                        767 00162$:
                                    768 ;	Raw cost for generated ic 58 : (12, 14.200001) count=1.000000
                                    769 ;	skipping generated iCode
                                    770 ;	Raw cost for generated ic 59 : (0, 0.000000) count=1.000000
                                    771 ;	../tancotf.c: 87: if(iscotan) return (-xnum/xden);
                                    772 ;	genIfx
      00043D ADr04r00         [ 4]  773 	lda	_tancotf_PARM_2
                                    774 ;	genIfxJump : z
      000440 F0 4A            [ 4]  775 	beq	00107$
                                    776 ;	Raw cost for generated ic 62 : (8, 9.600000) count=0.750000
                                    777 ;	genUminus
                                    778 ;	genUminusFloat
      000442 ADr05r00         [ 4]  779 	lda	_tancotf_xnum_10000_26
      000445 8Dr00r00         [ 4]  780 	sta	___fsdiv_PARM_1
      000448 ADr06r00         [ 4]  781 	lda	(_tancotf_xnum_10000_26 + 1)
      00044B 8Dr01r00         [ 4]  782 	sta	(___fsdiv_PARM_1 + 1)
      00044E ADr07r00         [ 4]  783 	lda	(_tancotf_xnum_10000_26 + 2)
      000451 8Dr02r00         [ 4]  784 	sta	(___fsdiv_PARM_1 + 2)
      000454 ADr08r00         [ 4]  785 	lda	(_tancotf_xnum_10000_26 + 3)
      000457 49 80            [ 2]  786 	eor	#0x80
      000459 8Dr03r00         [ 4]  787 	sta	(___fsdiv_PARM_1 + 3)
                                    788 ;	Raw cost for generated ic 65 : (26, 34.000000) count=0.562500
                                    789 ;	genAssign
                                    790 ;	genCopy
      00045C ADr0Cr00         [ 4]  791 	lda	(_tancotf_xden_10000_26 + 3)
      00045F 8Dr03r00         [ 4]  792 	sta	(___fsdiv_PARM_2 + 3)
      000462 ADr0Br00         [ 4]  793 	lda	(_tancotf_xden_10000_26 + 2)
      000465 8Dr02r00         [ 4]  794 	sta	(___fsdiv_PARM_2 + 2)
      000468 ADr0Ar00         [ 4]  795 	lda	(_tancotf_xden_10000_26 + 1)
      00046B 8Dr01r00         [ 4]  796 	sta	(___fsdiv_PARM_2 + 1)
      00046E ADr09r00         [ 4]  797 	lda	_tancotf_xden_10000_26
      000471 8Dr00r00         [ 4]  798 	sta	___fsdiv_PARM_2
                                    799 ;	Raw cost for generated ic 155 : (24, 32.000000) count=0.562500
                                    800 ;	genCall
      000474 20r00r00         [ 6]  801 	jsr	___fsdiv
                                    802 ;	assignResultValue
      000477 85*08            [ 3]  803 	sta	*_tancotf_sloc2_1_0
      000479 86*09            [ 3]  804 	stx	*(_tancotf_sloc2_1_0 + 1)
      00047B A5*00            [ 3]  805 	lda	*___SDCC_m6502_ret2
      00047D 85*0A            [ 3]  806 	sta	*(_tancotf_sloc2_1_0 + 2)
      00047F A5*00            [ 3]  807 	lda	*___SDCC_m6502_ret3
      000481 85*0B            [ 3]  808 	sta	*(_tancotf_sloc2_1_0 + 3)
                                    809 ;	Raw cost for generated ic 156 : (15, 24.000000) count=0.562500
                                    810 ;	genRet
      000483 85*00            [ 3]  811 	sta	*___SDCC_m6502_ret3
      000485 A5*0A            [ 3]  812 	lda	*(_tancotf_sloc2_1_0 + 2)
      000487 85*00            [ 3]  813 	sta	*___SDCC_m6502_ret2
      000489 A5*08            [ 3]  814 	lda	*_tancotf_sloc2_1_0
      00048B 60               [ 6]  815 	rts
                                    816 ;	Raw cost for generated ic 67 : (11, 15.000000) count=0.562500
                                    817 ;	genLabel
      00048C                        818 00107$:
                                    819 ;	Raw cost for generated ic 69 : (0, 0.000000) count=0.750000
                                    820 ;	../tancotf.c: 88: else return (-xden/xnum);
                                    821 ;	genUminus
                                    822 ;	genUminusFloat
      00048C ADr09r00         [ 4]  823 	lda	_tancotf_xden_10000_26
      00048F 8Dr00r00         [ 4]  824 	sta	___fsdiv_PARM_1
      000492 ADr0Ar00         [ 4]  825 	lda	(_tancotf_xden_10000_26 + 1)
      000495 8Dr01r00         [ 4]  826 	sta	(___fsdiv_PARM_1 + 1)
      000498 ADr0Br00         [ 4]  827 	lda	(_tancotf_xden_10000_26 + 2)
      00049B 8Dr02r00         [ 4]  828 	sta	(___fsdiv_PARM_1 + 2)
      00049E ADr0Cr00         [ 4]  829 	lda	(_tancotf_xden_10000_26 + 3)
      0004A1 49 80            [ 2]  830 	eor	#0x80
      0004A3 8Dr03r00         [ 4]  831 	sta	(___fsdiv_PARM_1 + 3)
                                    832 ;	Raw cost for generated ic 70 : (26, 34.000000) count=0.750000
                                    833 ;	genAssign
                                    834 ;	genCopy
      0004A6 ADr08r00         [ 4]  835 	lda	(_tancotf_xnum_10000_26 + 3)
      0004A9 8Dr03r00         [ 4]  836 	sta	(___fsdiv_PARM_2 + 3)
      0004AC ADr07r00         [ 4]  837 	lda	(_tancotf_xnum_10000_26 + 2)
      0004AF 8Dr02r00         [ 4]  838 	sta	(___fsdiv_PARM_2 + 2)
      0004B2 ADr06r00         [ 4]  839 	lda	(_tancotf_xnum_10000_26 + 1)
      0004B5 8Dr01r00         [ 4]  840 	sta	(___fsdiv_PARM_2 + 1)
      0004B8 ADr05r00         [ 4]  841 	lda	_tancotf_xnum_10000_26
      0004BB 8Dr00r00         [ 4]  842 	sta	___fsdiv_PARM_2
                                    843 ;	Raw cost for generated ic 158 : (24, 32.000000) count=0.750000
                                    844 ;	genCall
      0004BE 20r00r00         [ 6]  845 	jsr	___fsdiv
                                    846 ;	assignResultValue
      0004C1 85*08            [ 3]  847 	sta	*_tancotf_sloc2_1_0
      0004C3 86*09            [ 3]  848 	stx	*(_tancotf_sloc2_1_0 + 1)
      0004C5 A5*00            [ 3]  849 	lda	*___SDCC_m6502_ret2
      0004C7 85*0A            [ 3]  850 	sta	*(_tancotf_sloc2_1_0 + 2)
      0004C9 A5*00            [ 3]  851 	lda	*___SDCC_m6502_ret3
      0004CB 85*0B            [ 3]  852 	sta	*(_tancotf_sloc2_1_0 + 3)
                                    853 ;	Raw cost for generated ic 159 : (15, 24.000000) count=0.750000
                                    854 ;	genRet
      0004CD 85*00            [ 3]  855 	sta	*___SDCC_m6502_ret3
      0004CF A5*0A            [ 3]  856 	lda	*(_tancotf_sloc2_1_0 + 2)
      0004D1 85*00            [ 3]  857 	sta	*___SDCC_m6502_ret2
      0004D3 A5*08            [ 3]  858 	lda	*_tancotf_sloc2_1_0
      0004D5 60               [ 6]  859 	rts
                                    860 ;	Raw cost for generated ic 72 : (11, 15.000000) count=0.750000
                                    861 ;	genLabel
      0004D6                        862 00113$:
                                    863 ;	Raw cost for generated ic 75 : (0, 0.000000) count=1.000000
                                    864 ;	../tancotf.c: 92: if(iscotan) return (xden/xnum);
                                    865 ;	genIfx
      0004D6 ADr04r00         [ 4]  866 	lda	_tancotf_PARM_2
                                    867 ;	genIfxJump : z
      0004D9 F0 48            [ 4]  868 	beq	00110$
                                    869 ;	Raw cost for generated ic 76 : (8, 9.600000) count=1.000000
                                    870 ;	genAssign
                                    871 ;	genCopy
      0004DB ADr0Cr00         [ 4]  872 	lda	(_tancotf_xden_10000_26 + 3)
      0004DE 8Dr03r00         [ 4]  873 	sta	(___fsdiv_PARM_1 + 3)
      0004E1 ADr0Br00         [ 4]  874 	lda	(_tancotf_xden_10000_26 + 2)
      0004E4 8Dr02r00         [ 4]  875 	sta	(___fsdiv_PARM_1 + 2)
      0004E7 ADr0Ar00         [ 4]  876 	lda	(_tancotf_xden_10000_26 + 1)
      0004EA 8Dr01r00         [ 4]  877 	sta	(___fsdiv_PARM_1 + 1)
      0004ED ADr09r00         [ 4]  878 	lda	_tancotf_xden_10000_26
      0004F0 8Dr00r00         [ 4]  879 	sta	___fsdiv_PARM_1
                                    880 ;	Raw cost for generated ic 160 : (24, 32.000000) count=0.750000
                                    881 ;	genAssign
                                    882 ;	genCopy
      0004F3 ADr08r00         [ 4]  883 	lda	(_tancotf_xnum_10000_26 + 3)
      0004F6 8Dr03r00         [ 4]  884 	sta	(___fsdiv_PARM_2 + 3)
      0004F9 ADr07r00         [ 4]  885 	lda	(_tancotf_xnum_10000_26 + 2)
      0004FC 8Dr02r00         [ 4]  886 	sta	(___fsdiv_PARM_2 + 2)
      0004FF ADr06r00         [ 4]  887 	lda	(_tancotf_xnum_10000_26 + 1)
      000502 8Dr01r00         [ 4]  888 	sta	(___fsdiv_PARM_2 + 1)
      000505 ADr05r00         [ 4]  889 	lda	_tancotf_xnum_10000_26
      000508 8Dr00r00         [ 4]  890 	sta	___fsdiv_PARM_2
                                    891 ;	Raw cost for generated ic 161 : (24, 32.000000) count=0.750000
                                    892 ;	genCall
      00050B 20r00r00         [ 6]  893 	jsr	___fsdiv
                                    894 ;	assignResultValue
      00050E 85*08            [ 3]  895 	sta	*_tancotf_sloc2_1_0
      000510 86*09            [ 3]  896 	stx	*(_tancotf_sloc2_1_0 + 1)
      000512 A5*00            [ 3]  897 	lda	*___SDCC_m6502_ret2
      000514 85*0A            [ 3]  898 	sta	*(_tancotf_sloc2_1_0 + 2)
      000516 A5*00            [ 3]  899 	lda	*___SDCC_m6502_ret3
      000518 85*0B            [ 3]  900 	sta	*(_tancotf_sloc2_1_0 + 3)
                                    901 ;	Raw cost for generated ic 162 : (15, 24.000000) count=0.750000
                                    902 ;	genRet
      00051A 85*00            [ 3]  903 	sta	*___SDCC_m6502_ret3
      00051C A5*0A            [ 3]  904 	lda	*(_tancotf_sloc2_1_0 + 2)
      00051E 85*00            [ 3]  905 	sta	*___SDCC_m6502_ret2
      000520 A5*08            [ 3]  906 	lda	*_tancotf_sloc2_1_0
      000522 60               [ 6]  907 	rts
                                    908 ;	Raw cost for generated ic 80 : (11, 15.000000) count=0.750000
                                    909 ;	genLabel
      000523                        910 00110$:
                                    911 ;	Raw cost for generated ic 82 : (0, 0.000000) count=1.000000
                                    912 ;	../tancotf.c: 93: else return (xnum/xden);
                                    913 ;	genAssign
                                    914 ;	genCopy
      000523 ADr08r00         [ 4]  915 	lda	(_tancotf_xnum_10000_26 + 3)
      000526 8Dr03r00         [ 4]  916 	sta	(___fsdiv_PARM_1 + 3)
      000529 ADr07r00         [ 4]  917 	lda	(_tancotf_xnum_10000_26 + 2)
      00052C 8Dr02r00         [ 4]  918 	sta	(___fsdiv_PARM_1 + 2)
      00052F ADr06r00         [ 4]  919 	lda	(_tancotf_xnum_10000_26 + 1)
      000532 8Dr01r00         [ 4]  920 	sta	(___fsdiv_PARM_1 + 1)
      000535 ADr05r00         [ 4]  921 	lda	_tancotf_xnum_10000_26
      000538 8Dr00r00         [ 4]  922 	sta	___fsdiv_PARM_1
                                    923 ;	Raw cost for generated ic 163 : (24, 32.000000) count=1.000000
                                    924 ;	genAssign
                                    925 ;	genCopy
      00053B ADr0Cr00         [ 4]  926 	lda	(_tancotf_xden_10000_26 + 3)
      00053E 8Dr03r00         [ 4]  927 	sta	(___fsdiv_PARM_2 + 3)
      000541 ADr0Br00         [ 4]  928 	lda	(_tancotf_xden_10000_26 + 2)
      000544 8Dr02r00         [ 4]  929 	sta	(___fsdiv_PARM_2 + 2)
      000547 ADr0Ar00         [ 4]  930 	lda	(_tancotf_xden_10000_26 + 1)
      00054A 8Dr01r00         [ 4]  931 	sta	(___fsdiv_PARM_2 + 1)
      00054D ADr09r00         [ 4]  932 	lda	_tancotf_xden_10000_26
      000550 8Dr00r00         [ 4]  933 	sta	___fsdiv_PARM_2
                                    934 ;	Raw cost for generated ic 164 : (24, 32.000000) count=1.000000
                                    935 ;	genCall
      000553 20r00r00         [ 6]  936 	jsr	___fsdiv
                                    937 ;	assignResultValue
      000556 85*08            [ 3]  938 	sta	*_tancotf_sloc2_1_0
      000558 86*09            [ 3]  939 	stx	*(_tancotf_sloc2_1_0 + 1)
      00055A A5*00            [ 3]  940 	lda	*___SDCC_m6502_ret2
      00055C 85*0A            [ 3]  941 	sta	*(_tancotf_sloc2_1_0 + 2)
      00055E A5*00            [ 3]  942 	lda	*___SDCC_m6502_ret3
      000560 85*0B            [ 3]  943 	sta	*(_tancotf_sloc2_1_0 + 3)
                                    944 ;	Raw cost for generated ic 165 : (15, 24.000000) count=1.000000
                                    945 ;	genRet
      000562 85*00            [ 3]  946 	sta	*___SDCC_m6502_ret3
      000564 A5*0A            [ 3]  947 	lda	*(_tancotf_sloc2_1_0 + 2)
      000566 85*00            [ 3]  948 	sta	*___SDCC_m6502_ret2
      000568 A5*08            [ 3]  949 	lda	*_tancotf_sloc2_1_0
                                    950 ;	Raw cost for generated ic 84 : (8, 12.000000) count=1.000000
                                    951 ;	genLabel
                                    952 ;	Raw cost for generated ic 87 : (0, 0.000000) count=1.000000
                                    953 ;	../tancotf.c: 95: }
                                    954 ;	genEndFunction
      00056A 60               [ 6]  955 	rts
                                    956 ;	Raw cost for generated ic 88 : (1, 6.000000) count=1.000000
                                    957 	.area CODE
                                    958 	.area RODATA
                                    959 	.area XINIT
                                    960 	.area CABS    (ABS)
