                                      1 ;--------------------------------------------------------
                                      2 ; File Created by SDCC : free open source ISO C Compiler
                                      3 ; Version 4.5.10 #15691 (Linux)
                                      4 ;--------------------------------------------------------
                                      5 	.module wcscmp
                                      6 	
      000000                          7 	.r65c02
                                      8 	.optsdcc -mmos65c02
                                      9 
                                     10 ;--------------------------------------------------------
                                     11 ;  Ordering of segments for the linker.
                                     12 ;--------------------------------------------------------
                                     13 	.area ZP      (PAG)
                                     14 	.area OSEG    (PAG, OVR)
                                     15 	.area _CODE
                                     16 	.area GSINIT
                                     17 	.area GSFINAL
                                     18 	.area CODE
                                     19 	.area RODATA
                                     20 	.area XINIT
                                     21 	.area _DATA
                                     22 	.area DATA
                                     23 	.area BSS
                                     24 ;--------------------------------------------------------
                                     25 ; Public variables in this module
                                     26 ;--------------------------------------------------------
                                     27 	.globl _wcscmp_PARM_2
                                     28 	.globl _wcscmp
                                     29 ;--------------------------------------------------------
                                     30 ; ZP ram data
                                     31 ;--------------------------------------------------------
                                     32 	.area ZP      (PAG)
                                     33 ;--------------------------------------------------------
                                     34 ; overlayable items in ram
                                     35 ;--------------------------------------------------------
                                     36 	.area	OSEG    (PAG, OVR)
      000000                         37 _wcscmp_sloc0_1_0:
      000000                         38 	.ds 2
      000002                         39 _wcscmp_sloc1_1_0:
      000002                         40 	.ds 2
      000004                         41 _wcscmp_sloc2_1_0:
      000004                         42 	.ds 4
      000008                         43 _wcscmp_sloc3_1_0:
      000008                         44 	.ds 4
                                     45 ;--------------------------------------------------------
                                     46 ; uninitialized external ram data
                                     47 ;--------------------------------------------------------
                                     48 	.area BSS
      000000                         49 _wcscmp_PARM_2:
      000000                         50 	.ds 2
                                     51 ;--------------------------------------------------------
                                     52 ; absolute external ram data
                                     53 ;--------------------------------------------------------
                                     54 	.area DABS    (ABS)
                                     55 ;--------------------------------------------------------
                                     56 ; initialized external ram data
                                     57 ;--------------------------------------------------------
                                     58 	.area DATA
                                     59 ;--------------------------------------------------------
                                     60 ; global & static initialisations
                                     61 ;--------------------------------------------------------
                                     62 	.area _CODE
                                     63 	.area GSINIT
                                     64 	.area GSFINAL
                                     65 	.area GSINIT
                                     66 ;--------------------------------------------------------
                                     67 ; Home
                                     68 ;--------------------------------------------------------
                                     69 	.area _CODE
                                     70 	.area _CODE
                                     71 ;--------------------------------------------------------
                                     72 ; code
                                     73 ;--------------------------------------------------------
                                     74 	.area CODE
                                     75 ;------------------------------------------------------------
                                     76 ;Allocation info for local variables in function 'wcscmp'
                                     77 ;------------------------------------------------------------
                                     78 ;s2            Allocated with name '_wcscmp_PARM_2'
                                     79 ;s1            Allocated to registers 
                                     80 ;sloc0         Allocated with name '_wcscmp_sloc0_1_0'
                                     81 ;sloc1         Allocated with name '_wcscmp_sloc1_1_0'
                                     82 ;sloc2         Allocated with name '_wcscmp_sloc2_1_0'
                                     83 ;sloc3         Allocated with name '_wcscmp_sloc3_1_0'
                                     84 ;------------------------------------------------------------
                                     85 ;	../wcscmp.c: 31: int wcscmp(const wchar_t *s1, const wchar_t *s2)
                                     86 ;	genLabel
                                     87 ;	Raw cost for generated ic 0 : (0, 0.000000) count=1.000000
                                     88 ;	-----------------------------------------
                                     89 ;	 function wcscmp
                                     90 ;	-----------------------------------------
                                     91 ;	Register assignment is optimal.
                                     92 ;	Stack space usage: 0 bytes.
      000000                         93 _wcscmp:
                                     94 ;	Raw cost for generated ic 1 : (0, 0.000000) count=1.000000
                                     95 ;	genReceive
      000000 85*00            [ 3]   96 	sta	*_wcscmp_sloc0_1_0
      000002 86*01            [ 3]   97 	stx	*(_wcscmp_sloc0_1_0 + 1)
                                     98 ;	Raw cost for generated ic 2 : (4, 6.000000) count=1.000000
                                     99 ;	../wcscmp.c: 33: while(*s1 == *s2 && *s1)
                                    100 ;	genAssign
                                    101 ;	genCopy
      000004 ADr01r00         [ 4]  102 	lda	(_wcscmp_PARM_2 + 1)
      000007 85*03            [ 3]  103 	sta	*(_wcscmp_sloc1_1_0 + 1)
      000009 ADr00r00         [ 4]  104 	lda	_wcscmp_PARM_2
      00000C 85*02            [ 3]  105 	sta	*_wcscmp_sloc1_1_0
                                    106 ;	Raw cost for generated ic 52 : (10, 14.000000) count=1.000000
                                    107 ;	genLabel
      00000E                        108 00102$:
                                    109 ;	Raw cost for generated ic 3 : (0, 0.000000) count=2.285713
                                    110 ;	genPointerGet
      00000E A0 00            [ 2]  111 	ldy	#0x00
      000010 B1*00            [ 6]  112 	lda	[*_wcscmp_sloc0_1_0],y
      000012 85*04            [ 3]  113 	sta	*_wcscmp_sloc2_1_0
      000014 C8               [ 2]  114 	iny
      000015 B1*00            [ 6]  115 	lda	[*_wcscmp_sloc0_1_0],y
      000017 85*05            [ 3]  116 	sta	*(_wcscmp_sloc2_1_0 + 1)
      000019 C8               [ 2]  117 	iny
      00001A B1*00            [ 6]  118 	lda	[*_wcscmp_sloc0_1_0],y
      00001C 85*06            [ 3]  119 	sta	*(_wcscmp_sloc2_1_0 + 2)
      00001E C8               [ 2]  120 	iny
      00001F B1*00            [ 6]  121 	lda	[*_wcscmp_sloc0_1_0],y
      000021 85*07            [ 3]  122 	sta	*(_wcscmp_sloc2_1_0 + 3)
                                    123 ;	Raw cost for generated ic 5 : (21, 40.000000) count=2.285713
                                    124 ;	genPointerGet
      000023 A0 00            [ 2]  125 	ldy	#0x00
      000025 B1*02            [ 6]  126 	lda	[*_wcscmp_sloc1_1_0],y
      000027 85*08            [ 3]  127 	sta	*_wcscmp_sloc3_1_0
      000029 C8               [ 2]  128 	iny
      00002A B1*02            [ 6]  129 	lda	[*_wcscmp_sloc1_1_0],y
      00002C 85*09            [ 3]  130 	sta	*(_wcscmp_sloc3_1_0 + 1)
      00002E C8               [ 2]  131 	iny
      00002F B1*02            [ 6]  132 	lda	[*_wcscmp_sloc1_1_0],y
      000031 85*0A            [ 3]  133 	sta	*(_wcscmp_sloc3_1_0 + 2)
      000033 C8               [ 2]  134 	iny
      000034 B1*02            [ 6]  135 	lda	[*_wcscmp_sloc1_1_0],y
      000036 85*0B            [ 3]  136 	sta	*(_wcscmp_sloc3_1_0 + 3)
                                    137 ;	Raw cost for generated ic 7 : (21, 40.000000) count=2.285713
                                    138 ;	genCmpEQorNE
      000038 A5*04            [ 3]  139 	lda	*_wcscmp_sloc2_1_0
      00003A C5*08            [ 3]  140 	cmp	*_wcscmp_sloc3_1_0
      00003C D0 35            [ 4]  141 	bne	00104$
      00003E A5*05            [ 3]  142 	lda	*(_wcscmp_sloc2_1_0 + 1)
      000040 C5*09            [ 3]  143 	cmp	*(_wcscmp_sloc3_1_0 + 1)
      000042 D0 2F            [ 4]  144 	bne	00104$
      000044 A5*06            [ 3]  145 	lda	*(_wcscmp_sloc2_1_0 + 2)
      000046 C5*0A            [ 3]  146 	cmp	*(_wcscmp_sloc3_1_0 + 2)
      000048 D0 29            [ 4]  147 	bne	00104$
      00004A A5*07            [ 3]  148 	lda	*(_wcscmp_sloc2_1_0 + 3)
      00004C C5*0B            [ 3]  149 	cmp	*(_wcscmp_sloc3_1_0 + 3)
      00004E D0 23            [ 4]  150 	bne	00104$
                                    151 ;	Raw cost for generated ic 8 : (36, 46.400002) count=2.285713
                                    152 ;	skipping generated iCode
                                    153 ;	Raw cost for generated ic 9 : (0, 0.000000) count=2.285713
                                    154 ;	genIfx
      000050 A5*07            [ 3]  155 	lda	*(_wcscmp_sloc2_1_0 + 3)
      000052 05*06            [ 3]  156 	ora	*(_wcscmp_sloc2_1_0 + 2)
      000054 05*05            [ 3]  157 	ora	*(_wcscmp_sloc2_1_0 + 1)
      000056 05*04            [ 3]  158 	ora	*_wcscmp_sloc2_1_0
                                    159 ;	genIfxJump : z
      000058 F0 19            [ 4]  160 	beq	00104$
                                    161 ;	Raw cost for generated ic 14 : (13, 17.600000) count=1.714284
                                    162 ;	../wcscmp.c: 34: s1++, s2++;
                                    163 ;	genPlus
                                    164 ;	  genPlusInc
      00005A A5*00            [ 3]  165 	lda	*_wcscmp_sloc0_1_0
      00005C 18               [ 2]  166 	clc
      00005D 69 04            [ 3]  167 	adc	#0x04
      00005F 85*00            [ 3]  168 	sta	*_wcscmp_sloc0_1_0
      000061 90 02            [ 4]  169 	bcc	00149$
      000063 E6*01            [ 5]  170 	inc	*(_wcscmp_sloc0_1_0 + 1)
      000065                        171 00149$:
                                    172 ;	Raw cost for generated ic 18 : (11, 17.600000) count=1.285713
                                    173 ;	genPlus
                                    174 ;	  genPlusInc
      000065 A5*02            [ 3]  175 	lda	*_wcscmp_sloc1_1_0
      000067 18               [ 2]  176 	clc
      000068 69 04            [ 3]  177 	adc	#0x04
      00006A 85*02            [ 3]  178 	sta	*_wcscmp_sloc1_1_0
      00006C 90 A0            [ 4]  179 	bcc	00102$
      00006E E6*03            [ 5]  180 	inc	*(_wcscmp_sloc1_1_0 + 1)
                                    181 ;	Raw cost for generated ic 21 : (11, 17.600000) count=1.285713
                                    182 ;	genGoto
      000070 4Cr0Er00         [ 3]  183 	jmp	00102$
                                    184 ;	Raw cost for generated ic 23 : (3, 3.000000) count=1.285713
                                    185 ;	genLabel
      000073                        186 00104$:
                                    187 ;	Raw cost for generated ic 24 : (0, 0.000000) count=0.999999
                                    188 ;	../wcscmp.c: 36: if(*s1 < *s2)
                                    189 ;	genPointerGet
      000073 A0 00            [ 2]  190 	ldy	#0x00
      000075 B1*00            [ 6]  191 	lda	[*_wcscmp_sloc0_1_0],y
      000077 85*08            [ 3]  192 	sta	*_wcscmp_sloc3_1_0
      000079 C8               [ 2]  193 	iny
      00007A B1*00            [ 6]  194 	lda	[*_wcscmp_sloc0_1_0],y
      00007C 85*09            [ 3]  195 	sta	*(_wcscmp_sloc3_1_0 + 1)
      00007E C8               [ 2]  196 	iny
      00007F B1*00            [ 6]  197 	lda	[*_wcscmp_sloc0_1_0],y
      000081 85*0A            [ 3]  198 	sta	*(_wcscmp_sloc3_1_0 + 2)
      000083 C8               [ 2]  199 	iny
      000084 B1*00            [ 6]  200 	lda	[*_wcscmp_sloc0_1_0],y
      000086 85*0B            [ 3]  201 	sta	*(_wcscmp_sloc3_1_0 + 3)
                                    202 ;	Raw cost for generated ic 26 : (21, 40.000000) count=0.999999
                                    203 ;	genPointerGet
      000088 A0 00            [ 2]  204 	ldy	#0x00
      00008A B1*02            [ 6]  205 	lda	[*_wcscmp_sloc1_1_0],y
      00008C 85*04            [ 3]  206 	sta	*_wcscmp_sloc2_1_0
      00008E C8               [ 2]  207 	iny
      00008F B1*02            [ 6]  208 	lda	[*_wcscmp_sloc1_1_0],y
      000091 85*05            [ 3]  209 	sta	*(_wcscmp_sloc2_1_0 + 1)
      000093 C8               [ 2]  210 	iny
      000094 B1*02            [ 6]  211 	lda	[*_wcscmp_sloc1_1_0],y
      000096 85*06            [ 3]  212 	sta	*(_wcscmp_sloc2_1_0 + 2)
      000098 C8               [ 2]  213 	iny
      000099 B1*02            [ 6]  214 	lda	[*_wcscmp_sloc1_1_0],y
      00009B 85*07            [ 3]  215 	sta	*(_wcscmp_sloc2_1_0 + 3)
                                    216 ;	Raw cost for generated ic 28 : (21, 40.000000) count=0.999999
                                    217 ;	genCmp
      00009D A5*08            [ 3]  218 	lda	*_wcscmp_sloc3_1_0
      00009F 38               [ 2]  219 	sec
      0000A0 E5*04            [ 4]  220 	sbc	*_wcscmp_sloc2_1_0
      0000A2 A5*09            [ 3]  221 	lda	*(_wcscmp_sloc3_1_0 + 1)
      0000A4 E5*05            [ 4]  222 	sbc	*(_wcscmp_sloc2_1_0 + 1)
      0000A6 A5*0A            [ 3]  223 	lda	*(_wcscmp_sloc3_1_0 + 2)
      0000A8 E5*06            [ 4]  224 	sbc	*(_wcscmp_sloc2_1_0 + 2)
      0000AA A5*0B            [ 3]  225 	lda	*(_wcscmp_sloc3_1_0 + 3)
      0000AC E5*07            [ 4]  226 	sbc	*(_wcscmp_sloc2_1_0 + 3)
      0000AE B0 04            [ 4]  227 	bcs	00106$
                                    228 ;	Raw cost for generated ic 29 : (22, 31.600000) count=0.999999
                                    229 ;	skipping generated iCode
                                    230 ;	Raw cost for generated ic 30 : (0, 0.000000) count=0.999999
                                    231 ;	../wcscmp.c: 37: return(-1);
                                    232 ;	genRet
      0000B0 A9 FF            [ 2]  233 	lda	#0xff
      0000B2 AA               [ 2]  234 	tax
      0000B3 60               [ 6]  235 	rts
                                    236 ;	Raw cost for generated ic 33 : (6, 7.000000) count=0.749999
                                    237 ;	genLabel
      0000B4                        238 00106$:
                                    239 ;	Raw cost for generated ic 34 : (0, 0.000000) count=0.999998
                                    240 ;	../wcscmp.c: 38: if(*s1 > *s2)
                                    241 ;	genCmp
      0000B4 A5*04            [ 3]  242 	lda	*_wcscmp_sloc2_1_0
      0000B6 38               [ 2]  243 	sec
      0000B7 E5*08            [ 4]  244 	sbc	*_wcscmp_sloc3_1_0
      0000B9 A5*05            [ 3]  245 	lda	*(_wcscmp_sloc2_1_0 + 1)
      0000BB E5*09            [ 4]  246 	sbc	*(_wcscmp_sloc3_1_0 + 1)
      0000BD A5*06            [ 3]  247 	lda	*(_wcscmp_sloc2_1_0 + 2)
      0000BF E5*0A            [ 4]  248 	sbc	*(_wcscmp_sloc3_1_0 + 2)
      0000C1 A5*07            [ 3]  249 	lda	*(_wcscmp_sloc2_1_0 + 3)
      0000C3 E5*0B            [ 4]  250 	sbc	*(_wcscmp_sloc3_1_0 + 3)
      0000C5 B0 05            [ 4]  251 	bcs	00108$
                                    252 ;	Raw cost for generated ic 39 : (22, 31.600000) count=0.999998
                                    253 ;	skipping generated iCode
                                    254 ;	Raw cost for generated ic 40 : (0, 0.000000) count=0.999998
                                    255 ;	../wcscmp.c: 39: return(1);
                                    256 ;	genRet
      0000C7 A9 01            [ 2]  257 	lda	#0x01
      0000C9 A2 00            [ 2]  258 	ldx	#0x00
      0000CB 60               [ 6]  259 	rts
                                    260 ;	Raw cost for generated ic 43 : (7, 7.000000) count=0.749999
                                    261 ;	genLabel
      0000CC                        262 00108$:
                                    263 ;	Raw cost for generated ic 44 : (0, 0.000000) count=0.999998
                                    264 ;	../wcscmp.c: 40: return(0);
                                    265 ;	genRet
      0000CC A9 00            [ 2]  266 	lda	#0x00
      0000CE AA               [ 2]  267 	tax
                                    268 ;	Raw cost for generated ic 45 : (3, 4.000000) count=0.999998
                                    269 ;	genLabel
                                    270 ;	Raw cost for generated ic 46 : (0, 0.000000) count=0.999998
                                    271 ;	../wcscmp.c: 41: }
                                    272 ;	genEndFunction
      0000CF 60               [ 6]  273 	rts
                                    274 ;	Raw cost for generated ic 47 : (1, 6.000000) count=0.999998
                                    275 	.area CODE
                                    276 	.area RODATA
                                    277 	.area XINIT
                                    278 	.area CABS    (ABS)
