                                      1 ;--------------------------------------------------------
                                      2 ; File Created by SDCC : free open source ISO C Compiler
                                      3 ; Version 4.5.10 #15691 (Linux)
                                      4 ;--------------------------------------------------------
                                      5 	.module wcstoul
                                      6 	
      000000                          7 	.r65c02
                                      8 	.optsdcc -mmos65c02
                                      9 
                                     10 ;--------------------------------------------------------
                                     11 ;  Ordering of segments for the linker.
                                     12 ;--------------------------------------------------------
                                     13 	.area ZP      (PAG)
                                     14 	.area OSEG    (PAG, OVR)
                                     15 	.area _CODE
                                     16 	.area GSINIT
                                     17 	.area GSFINAL
                                     18 	.area CODE
                                     19 	.area RODATA
                                     20 	.area XINIT
                                     21 	.area _DATA
                                     22 	.area DATA
                                     23 	.area BSS
                                     24 ;--------------------------------------------------------
                                     25 ; Public variables in this module
                                     26 ;--------------------------------------------------------
                                     27 	.globl _wcsncmp
                                     28 	.globl _wcstoul_PARM_3
                                     29 	.globl _wcstoul_PARM_2
                                     30 	.globl _wcstoul
                                     31 ;--------------------------------------------------------
                                     32 ; ZP ram data
                                     33 ;--------------------------------------------------------
                                     34 	.area ZP      (PAG)
      000000                         35 _wcstoul_sloc0_1_0:
      000000                         36 	.ds 1
      000001                         37 _wcstoul_sloc1_1_0:
      000001                         38 	.ds 2
      000003                         39 _wcstoul_sloc2_1_0:
      000003                         40 	.ds 4
      000007                         41 _wcstoul_sloc3_1_0:
      000007                         42 	.ds 8
      00000F                         43 _wcstoul_sloc4_1_0:
      00000F                         44 	.ds 8
                                     45 ;--------------------------------------------------------
                                     46 ; overlayable items in ram
                                     47 ;--------------------------------------------------------
                                     48 ;--------------------------------------------------------
                                     49 ; uninitialized external ram data
                                     50 ;--------------------------------------------------------
                                     51 	.area BSS
      000000                         52 __isdigit_PARM_1:
      000000                         53 	.ds 4
      000004                         54 __isdigit_PARM_2:
      000004                         55 	.ds 1
      000005                         56 _wcstoul_PARM_2:
      000005                         57 	.ds 2
      000007                         58 _wcstoul_PARM_3:
      000007                         59 	.ds 2
      000009                         60 _wcstoul_nptr_10000_163:
      000009                         61 	.ds 2
      00000B                         62 _wcstoul_ptr_10000_164:
      00000B                         63 	.ds 2
      00000D                         64 _wcstoul_ret_10000_164:
      00000D                         65 	.ds 4
      000011                         66 _wcstoul_range_error_10000_164:
      000011                         67 	.ds 1
      000012                         68 _wcstoul_neg_10000_164:
      000012                         69 	.ds 1
      000013                         70 _wcstoul_digit_30000_181:
      000013                         71 	.ds 1
      000014                         72 _wcstoul_result_60000_215:
      000014                         73 	.ds 8
      00001C                         74 _wcstoul_result_60000_263:
      00001C                         75 	.ds 8
                                     76 ;--------------------------------------------------------
                                     77 ; absolute external ram data
                                     78 ;--------------------------------------------------------
                                     79 	.area DABS    (ABS)
                                     80 ;--------------------------------------------------------
                                     81 ; initialized external ram data
                                     82 ;--------------------------------------------------------
                                     83 	.area DATA
                                     84 ;--------------------------------------------------------
                                     85 ; global & static initialisations
                                     86 ;--------------------------------------------------------
                                     87 	.area _CODE
                                     88 	.area GSINIT
                                     89 	.area GSFINAL
                                     90 	.area GSINIT
                                     91 ;--------------------------------------------------------
                                     92 ; Home
                                     93 ;--------------------------------------------------------
                                     94 	.area _CODE
                                     95 	.area _CODE
                                     96 ;--------------------------------------------------------
                                     97 ; code
                                     98 ;--------------------------------------------------------
                                     99 	.area CODE
                                    100 ;------------------------------------------------------------
                                    101 ;Allocation info for local variables in function '_isdigit'
                                    102 ;------------------------------------------------------------
                                    103 ;c             Allocated with name '__isdigit_PARM_1'
                                    104 ;base          Allocated with name '__isdigit_PARM_2'
                                    105 ;v             Allocated to registers a 
                                    106 ;------------------------------------------------------------
                                    107 ;	../wcstoul.c: 42: static signed char _isdigit(const wchar_t c, unsigned char base)
                                    108 ;	genLabel
                                    109 ;	Raw cost for generated ic 0 : (0, 0.000000) count=1.000000
                                    110 ;	-----------------------------------------
                                    111 ;	 function _isdigit
                                    112 ;	-----------------------------------------
                                    113 ;	Register assignment is optimal.
                                    114 ;	Stack space usage: 0 bytes.
      000000                        115 __isdigit:
                                    116 ;	Raw cost for generated ic 1 : (0, 0.000000) count=1.000000
                                    117 ;	../wcstoul.c: 46: if (c >= L'0' && c <= L'9')
                                    118 ;	genCmp
      000000 ADr00r00         [ 4]  119 	lda	__isdigit_PARM_1
      000003 38               [ 2]  120 	sec
      000004 E9 30            [ 3]  121 	sbc	#0x30
      000006 ADr01r00         [ 4]  122 	lda	(__isdigit_PARM_1 + 1)
      000009 E9 00            [ 3]  123 	sbc	#0x00
      00000B ADr02r00         [ 4]  124 	lda	(__isdigit_PARM_1 + 2)
      00000E E9 00            [ 3]  125 	sbc	#0x00
      000010 ADr03r00         [ 4]  126 	lda	(__isdigit_PARM_1 + 3)
      000013 E9 00            [ 3]  127 	sbc	#0x00
      000015 90 20            [ 4]  128 	bcc	00110$
                                    129 ;	Raw cost for generated ic 2 : (26, 31.600000) count=1.000000
                                    130 ;	skipping generated iCode
                                    131 ;	Raw cost for generated ic 3 : (0, 0.000000) count=1.000000
                                    132 ;	genCmp
      000017 A9 39            [ 2]  133 	lda	#0x39
      000019 38               [ 2]  134 	sec
      00001A EDr00r00         [ 5]  135 	sbc	__isdigit_PARM_1
      00001D A9 00            [ 2]  136 	lda	#0x00
      00001F EDr01r00         [ 5]  137 	sbc	(__isdigit_PARM_1 + 1)
      000022 A9 00            [ 2]  138 	lda	#0x00
      000024 EDr02r00         [ 5]  139 	sbc	(__isdigit_PARM_1 + 2)
      000027 A9 00            [ 2]  140 	lda	#0x00
      000029 EDr03r00         [ 5]  141 	sbc	(__isdigit_PARM_1 + 3)
      00002C 90 09            [ 4]  142 	bcc	00110$
                                    143 ;	Raw cost for generated ic 6 : (26, 31.600000) count=0.750000
                                    144 ;	skipping generated iCode
                                    145 ;	Raw cost for generated ic 7 : (0, 0.000000) count=0.750000
                                    146 ;	../wcstoul.c: 47: v = c - L'0';
                                    147 ;	genCast
                                    148 ;	genCopy
      00002E ADr00r00         [ 4]  149 	lda	__isdigit_PARM_1
                                    150 ;	Raw cost for generated ic 10 : (3, 4.000000) count=0.562500
                                    151 ;	genMinus
                                    152 ;	  genMinusDec - size=1  icount=48
      000031 38               [ 2]  153 	sec
      000032 E9 30            [ 3]  154 	sbc	#0x30
                                    155 ;	Raw cost for generated ic 11 : (3, 4.000000) count=0.562500
                                    156 ;	genGoto
      000034 4CrA8r00         [ 3]  157 	jmp	00111$
                                    158 ;	Raw cost for generated ic 13 : (3, 3.000000) count=0.562500
                                    159 ;	genLabel
      000037                        160 00110$:
                                    161 ;	Raw cost for generated ic 14 : (0, 0.000000) count=0.437500
                                    162 ;	../wcstoul.c: 48: else if (c >= L'a' && c <= L'z')
                                    163 ;	genCmp
      000037 ADr00r00         [ 4]  164 	lda	__isdigit_PARM_1
      00003A 38               [ 2]  165 	sec
      00003B E9 61            [ 3]  166 	sbc	#0x61
      00003D ADr01r00         [ 4]  167 	lda	(__isdigit_PARM_1 + 1)
      000040 E9 00            [ 3]  168 	sbc	#0x00
      000042 ADr02r00         [ 4]  169 	lda	(__isdigit_PARM_1 + 2)
      000045 E9 00            [ 3]  170 	sbc	#0x00
      000047 ADr03r00         [ 4]  171 	lda	(__isdigit_PARM_1 + 3)
      00004A E9 00            [ 3]  172 	sbc	#0x00
      00004C 90 20            [ 4]  173 	bcc	00106$
                                    174 ;	Raw cost for generated ic 15 : (26, 31.600000) count=0.437500
                                    175 ;	skipping generated iCode
                                    176 ;	Raw cost for generated ic 16 : (0, 0.000000) count=0.437500
                                    177 ;	genCmp
      00004E A9 7A            [ 2]  178 	lda	#0x7a
      000050 38               [ 2]  179 	sec
      000051 EDr00r00         [ 5]  180 	sbc	__isdigit_PARM_1
      000054 A9 00            [ 2]  181 	lda	#0x00
      000056 EDr01r00         [ 5]  182 	sbc	(__isdigit_PARM_1 + 1)
      000059 A9 00            [ 2]  183 	lda	#0x00
      00005B EDr02r00         [ 5]  184 	sbc	(__isdigit_PARM_1 + 2)
      00005E A9 00            [ 2]  185 	lda	#0x00
      000060 EDr03r00         [ 5]  186 	sbc	(__isdigit_PARM_1 + 3)
      000063 90 09            [ 4]  187 	bcc	00106$
                                    188 ;	Raw cost for generated ic 19 : (26, 31.600000) count=0.328125
                                    189 ;	skipping generated iCode
                                    190 ;	Raw cost for generated ic 20 : (0, 0.000000) count=0.328125
                                    191 ;	../wcstoul.c: 49: v = c - L'a' + 10;
                                    192 ;	genCast
                                    193 ;	genCopy
      000065 ADr00r00         [ 4]  194 	lda	__isdigit_PARM_1
                                    195 ;	Raw cost for generated ic 23 : (3, 4.000000) count=0.246094
                                    196 ;	genCast
                                    197 ;	genCopy
                                    198 ;	Raw cost for generated ic 24 : (0, 0.000000) count=0.246094
                                    199 ;	genPlus
                                    200 ;	  genPlusInc
      000068 18               [ 2]  201 	clc
      000069 69 A9            [ 3]  202 	adc	#0xa9
                                    203 ;	Raw cost for generated ic 25 : (3, 4.000000) count=0.246094
                                    204 ;	genGoto
      00006B 4CrA8r00         [ 3]  205 	jmp	00111$
                                    206 ;	Raw cost for generated ic 27 : (3, 3.000000) count=0.246094
                                    207 ;	genLabel
      00006E                        208 00106$:
                                    209 ;	Raw cost for generated ic 28 : (0, 0.000000) count=0.191406
                                    210 ;	../wcstoul.c: 50: else if (c >= L'A' && c <= L'Z')
                                    211 ;	genCmp
      00006E ADr00r00         [ 4]  212 	lda	__isdigit_PARM_1
      000071 38               [ 2]  213 	sec
      000072 E9 41            [ 3]  214 	sbc	#0x41
      000074 ADr01r00         [ 4]  215 	lda	(__isdigit_PARM_1 + 1)
      000077 E9 00            [ 3]  216 	sbc	#0x00
      000079 ADr02r00         [ 4]  217 	lda	(__isdigit_PARM_1 + 2)
      00007C E9 00            [ 3]  218 	sbc	#0x00
      00007E ADr03r00         [ 4]  219 	lda	(__isdigit_PARM_1 + 3)
      000081 E9 00            [ 3]  220 	sbc	#0x00
      000083 90 20            [ 4]  221 	bcc	00102$
                                    222 ;	Raw cost for generated ic 29 : (26, 31.600000) count=0.191406
                                    223 ;	skipping generated iCode
                                    224 ;	Raw cost for generated ic 30 : (0, 0.000000) count=0.191406
                                    225 ;	genCmp
      000085 A9 5A            [ 2]  226 	lda	#0x5a
      000087 38               [ 2]  227 	sec
      000088 EDr00r00         [ 5]  228 	sbc	__isdigit_PARM_1
      00008B A9 00            [ 2]  229 	lda	#0x00
      00008D EDr01r00         [ 5]  230 	sbc	(__isdigit_PARM_1 + 1)
      000090 A9 00            [ 2]  231 	lda	#0x00
      000092 EDr02r00         [ 5]  232 	sbc	(__isdigit_PARM_1 + 2)
      000095 A9 00            [ 2]  233 	lda	#0x00
      000097 EDr03r00         [ 5]  234 	sbc	(__isdigit_PARM_1 + 3)
      00009A 90 09            [ 4]  235 	bcc	00102$
                                    236 ;	Raw cost for generated ic 33 : (26, 31.600000) count=0.143555
                                    237 ;	skipping generated iCode
                                    238 ;	Raw cost for generated ic 34 : (0, 0.000000) count=0.143555
                                    239 ;	../wcstoul.c: 51: v = c - L'A' + 10;
                                    240 ;	genCast
                                    241 ;	genCopy
      00009C ADr00r00         [ 4]  242 	lda	__isdigit_PARM_1
                                    243 ;	Raw cost for generated ic 37 : (3, 4.000000) count=0.107666
                                    244 ;	genCast
                                    245 ;	genCopy
                                    246 ;	Raw cost for generated ic 38 : (0, 0.000000) count=0.107666
                                    247 ;	genPlus
                                    248 ;	  genPlusInc
      00009F 18               [ 2]  249 	clc
      0000A0 69 C9            [ 3]  250 	adc	#0xc9
                                    251 ;	Raw cost for generated ic 39 : (3, 4.000000) count=0.107666
                                    252 ;	genGoto
      0000A2 4CrA8r00         [ 3]  253 	jmp	00111$
                                    254 ;	Raw cost for generated ic 41 : (3, 3.000000) count=0.107666
                                    255 ;	genLabel
      0000A5                        256 00102$:
                                    257 ;	Raw cost for generated ic 42 : (0, 0.000000) count=0.083740
                                    258 ;	../wcstoul.c: 53: return (-1);
                                    259 ;	genRet
      0000A5 A9 FF            [ 2]  260 	lda	#0xff
      0000A7 60               [ 6]  261 	rts
                                    262 ;	Raw cost for generated ic 43 : (5, 5.000000) count=0.083740
                                    263 ;	genLabel
      0000A8                        264 00111$:
                                    265 ;	Raw cost for generated ic 46 : (0, 0.000000) count=1.000000
                                    266 ;	../wcstoul.c: 55: if (v >= base)
                                    267 ;	genCmp
      0000A8 CDr04r00         [ 4]  268 	cmp	__isdigit_PARM_2
      0000AB 90 02            [ 4]  269 	bcc	00114$
                                    270 ;	Raw cost for generated ic 47 : (8, 9.600000) count=1.000000
                                    271 ;	skipping generated iCode
                                    272 ;	Raw cost for generated ic 48 : (0, 0.000000) count=1.000000
                                    273 ;	../wcstoul.c: 56: return (-1);
                                    274 ;	genRet
      0000AD A9 FF            [ 2]  275 	lda	#0xff
                                    276 ;	Raw cost for generated ic 51 : (5, 5.000000) count=0.750000
                                    277 ;	genLabel
                                    278 ;	Raw cost for generated ic 52 : (0, 0.000000) count=1.000000
                                    279 ;	../wcstoul.c: 58: return (v);
                                    280 ;	genRet
                                    281 ;	Raw cost for generated ic 53 : (0, 0.000000) count=1.000000
                                    282 ;	genLabel
                                    283 ;	Raw cost for generated ic 54 : (0, 0.000000) count=1.000000
                                    284 ;	../wcstoul.c: 59: }
                                    285 ;	genEndFunction
      0000AF                        286 00114$:
      0000AF 60               [ 6]  287 	rts
                                    288 ;	Raw cost for generated ic 55 : (1, 6.000000) count=1.000000
                                    289 ;------------------------------------------------------------
                                    290 ;Allocation info for local variables in function 'wcstoul'
                                    291 ;------------------------------------------------------------
                                    292 ;sloc0         Allocated with name '_wcstoul_sloc0_1_0'
                                    293 ;sloc1         Allocated with name '_wcstoul_sloc1_1_0'
                                    294 ;sloc2         Allocated with name '_wcstoul_sloc2_1_0'
                                    295 ;sloc3         Allocated with name '_wcstoul_sloc3_1_0'
                                    296 ;sloc4         Allocated with name '_wcstoul_sloc4_1_0'
                                    297 ;endptr        Allocated with name '_wcstoul_PARM_2'
                                    298 ;base          Allocated with name '_wcstoul_PARM_3'
                                    299 ;nptr          Allocated with name '_wcstoul_nptr_10000_163'
                                    300 ;__200000005   Allocated to registers 
                                    301 ;ptr           Allocated with name '_wcstoul_ptr_10000_164'
                                    302 ;ret           Allocated with name '_wcstoul_ret_10000_164'
                                    303 ;range_error   Allocated with name '_wcstoul_range_error_10000_164'
                                    304 ;neg           Allocated with name '_wcstoul_neg_10000_164'
                                    305 ;b             Allocated to registers x 
                                    306 ;__200000006   Allocated with name '_wcstoul___200000006_20000_186'
                                    307 ;c             Allocated with name '_wcstoul_c_30000_187'
                                    308 ;__400000128   Allocated to registers a 
                                    309 ;__400000123   Allocated with name '_wcstoul___400000123_40000_181'
                                    310 ;__400000118   Allocated with name '_wcstoul___400000118_40000_181'
                                    311 ;__400000113   Allocated with name '_wcstoul___400000113_40000_181'
                                    312 ;__400000108   Allocated with name '_wcstoul___400000108_40000_181'
                                    313 ;__400000103   Allocated with name '_wcstoul___400000103_40000_181'
                                    314 ;__400000098   Allocated with name '_wcstoul___400000098_40000_181'
                                    315 ;__400000093   Allocated with name '_wcstoul___400000093_40000_181'
                                    316 ;__400000088   Allocated with name '_wcstoul___400000088_40000_181'
                                    317 ;__400000083   Allocated with name '_wcstoul___400000083_40000_181'
                                    318 ;__400000078   Allocated with name '_wcstoul___400000078_40000_181'
                                    319 ;__400000073   Allocated with name '_wcstoul___400000073_40000_181'
                                    320 ;__400000068   Allocated with name '_wcstoul___400000068_40000_181'
                                    321 ;__400000063   Allocated with name '_wcstoul___400000063_40000_181'
                                    322 ;__400000058   Allocated with name '_wcstoul___400000058_40000_181'
                                    323 ;__400000053   Allocated with name '_wcstoul___400000053_40000_181'
                                    324 ;__400000048   Allocated to registers a 
                                    325 ;__400000043   Allocated with name '_wcstoul___400000043_40000_181'
                                    326 ;__400000038   Allocated with name '_wcstoul___400000038_40000_181'
                                    327 ;__400000033   Allocated with name '_wcstoul___400000033_40000_181'
                                    328 ;__400000028   Allocated with name '_wcstoul___400000028_40000_181'
                                    329 ;__400000023   Allocated with name '_wcstoul___400000023_40000_181'
                                    330 ;__400000018   Allocated with name '_wcstoul___400000018_40000_181'
                                    331 ;__400000013   Allocated with name '_wcstoul___400000013_40000_181'
                                    332 ;__400000008   Allocated with name '_wcstoul___400000008_40000_181'
                                    333 ;digit         Allocated with name '_wcstoul_digit_30000_181'
                                    334 ;__400000009   Allocated with name '_wcstoul___400000009_40000_189'
                                    335 ;__400000010   Allocated with name '_wcstoul___400000010_40000_189'
                                    336 ;__400000011   Allocated with name '_wcstoul___400000011_40000_189'
                                    337 ;r             Allocated with name '_wcstoul_r_50000_190'
                                    338 ;a             Allocated with name '_wcstoul_a_50000_190'
                                    339 ;b             Allocated with name '_wcstoul_b_50000_190'
                                    340 ;result        Allocated with name '_wcstoul_result_60000_191'
                                    341 ;__400000014   Allocated with name '_wcstoul___400000014_40000_192'
                                    342 ;__400000015   Allocated with name '_wcstoul___400000015_40000_192'
                                    343 ;__400000016   Allocated with name '_wcstoul___400000016_40000_192'
                                    344 ;r             Allocated with name '_wcstoul_r_50000_193'
                                    345 ;a             Allocated with name '_wcstoul_a_50000_193'
                                    346 ;b             Allocated with name '_wcstoul_b_50000_193'
                                    347 ;result        Allocated with name '_wcstoul_result_60000_194'
                                    348 ;__400000019   Allocated with name '_wcstoul___400000019_40000_195'
                                    349 ;__400000020   Allocated with name '_wcstoul___400000020_40000_195'
                                    350 ;__400000021   Allocated with name '_wcstoul___400000021_40000_195'
                                    351 ;r             Allocated with name '_wcstoul_r_50000_196'
                                    352 ;a             Allocated with name '_wcstoul_a_50000_196'
                                    353 ;b             Allocated with name '_wcstoul_b_50000_196'
                                    354 ;result        Allocated with name '_wcstoul_result_60000_197'
                                    355 ;__400000024   Allocated with name '_wcstoul___400000024_40000_198'
                                    356 ;__400000025   Allocated with name '_wcstoul___400000025_40000_198'
                                    357 ;__400000026   Allocated with name '_wcstoul___400000026_40000_198'
                                    358 ;r             Allocated with name '_wcstoul_r_50000_199'
                                    359 ;a             Allocated with name '_wcstoul_a_50000_199'
                                    360 ;b             Allocated with name '_wcstoul_b_50000_199'
                                    361 ;result        Allocated with name '_wcstoul_result_60000_200'
                                    362 ;__400000029   Allocated with name '_wcstoul___400000029_40000_201'
                                    363 ;__400000030   Allocated with name '_wcstoul___400000030_40000_201'
                                    364 ;__400000031   Allocated with name '_wcstoul___400000031_40000_201'
                                    365 ;r             Allocated with name '_wcstoul_r_50000_202'
                                    366 ;a             Allocated with name '_wcstoul_a_50000_202'
                                    367 ;b             Allocated with name '_wcstoul_b_50000_202'
                                    368 ;result        Allocated with name '_wcstoul_result_60000_203'
                                    369 ;__400000034   Allocated with name '_wcstoul___400000034_40000_204'
                                    370 ;__400000035   Allocated with name '_wcstoul___400000035_40000_204'
                                    371 ;__400000036   Allocated with name '_wcstoul___400000036_40000_204'
                                    372 ;r             Allocated with name '_wcstoul_r_50000_205'
                                    373 ;a             Allocated with name '_wcstoul_a_50000_205'
                                    374 ;b             Allocated with name '_wcstoul_b_50000_205'
                                    375 ;result        Allocated with name '_wcstoul_result_60000_206'
                                    376 ;__400000039   Allocated with name '_wcstoul___400000039_40000_207'
                                    377 ;__400000040   Allocated with name '_wcstoul___400000040_40000_207'
                                    378 ;__400000041   Allocated with name '_wcstoul___400000041_40000_207'
                                    379 ;r             Allocated with name '_wcstoul_r_50000_208'
                                    380 ;a             Allocated with name '_wcstoul_a_50000_208'
                                    381 ;b             Allocated with name '_wcstoul_b_50000_208'
                                    382 ;result        Allocated with name '_wcstoul_result_60000_209'
                                    383 ;__400000044   Allocated with name '_wcstoul___400000044_40000_210'
                                    384 ;__400000045   Allocated with name '_wcstoul___400000045_40000_210'
                                    385 ;__400000046   Allocated with name '_wcstoul___400000046_40000_210'
                                    386 ;r             Allocated with name '_wcstoul_r_50000_211'
                                    387 ;a             Allocated with name '_wcstoul_a_50000_211'
                                    388 ;b             Allocated with name '_wcstoul_b_50000_211'
                                    389 ;result        Allocated with name '_wcstoul_result_60000_212'
                                    390 ;__400000049   Allocated to registers 
                                    391 ;__400000050   Allocated with name '_wcstoul___400000050_40000_213'
                                    392 ;__400000051   Allocated with name '_wcstoul___400000051_40000_213'
                                    393 ;r             Allocated to registers 
                                    394 ;a             Allocated with name '_wcstoul_a_50000_214'
                                    395 ;b             Allocated with name '_wcstoul_b_50000_214'
                                    396 ;result        Allocated with name '_wcstoul_result_60000_215'
                                    397 ;__400000054   Allocated with name '_wcstoul___400000054_40000_216'
                                    398 ;__400000055   Allocated with name '_wcstoul___400000055_40000_216'
                                    399 ;__400000056   Allocated with name '_wcstoul___400000056_40000_216'
                                    400 ;r             Allocated with name '_wcstoul_r_50000_217'
                                    401 ;a             Allocated with name '_wcstoul_a_50000_217'
                                    402 ;b             Allocated with name '_wcstoul_b_50000_217'
                                    403 ;result        Allocated with name '_wcstoul_result_60000_218'
                                    404 ;__400000059   Allocated with name '_wcstoul___400000059_40000_219'
                                    405 ;__400000060   Allocated with name '_wcstoul___400000060_40000_219'
                                    406 ;__400000061   Allocated with name '_wcstoul___400000061_40000_219'
                                    407 ;r             Allocated with name '_wcstoul_r_50000_220'
                                    408 ;a             Allocated with name '_wcstoul_a_50000_220'
                                    409 ;b             Allocated with name '_wcstoul_b_50000_220'
                                    410 ;result        Allocated with name '_wcstoul_result_60000_221'
                                    411 ;__400000064   Allocated with name '_wcstoul___400000064_40000_222'
                                    412 ;__400000065   Allocated with name '_wcstoul___400000065_40000_222'
                                    413 ;__400000066   Allocated with name '_wcstoul___400000066_40000_222'
                                    414 ;r             Allocated with name '_wcstoul_r_50000_223'
                                    415 ;a             Allocated with name '_wcstoul_a_50000_223'
                                    416 ;b             Allocated with name '_wcstoul_b_50000_223'
                                    417 ;result        Allocated with name '_wcstoul_result_60000_224'
                                    418 ;__400000069   Allocated with name '_wcstoul___400000069_40000_225'
                                    419 ;__400000070   Allocated with name '_wcstoul___400000070_40000_225'
                                    420 ;__400000071   Allocated with name '_wcstoul___400000071_40000_225'
                                    421 ;r             Allocated with name '_wcstoul_r_50000_226'
                                    422 ;a             Allocated with name '_wcstoul_a_50000_226'
                                    423 ;b             Allocated with name '_wcstoul_b_50000_226'
                                    424 ;result        Allocated with name '_wcstoul_result_60000_227'
                                    425 ;__400000074   Allocated with name '_wcstoul___400000074_40000_228'
                                    426 ;__400000075   Allocated with name '_wcstoul___400000075_40000_228'
                                    427 ;__400000076   Allocated with name '_wcstoul___400000076_40000_228'
                                    428 ;r             Allocated with name '_wcstoul_r_50000_229'
                                    429 ;a             Allocated with name '_wcstoul_a_50000_229'
                                    430 ;b             Allocated with name '_wcstoul_b_50000_229'
                                    431 ;result        Allocated with name '_wcstoul_result_60000_230'
                                    432 ;__400000079   Allocated with name '_wcstoul___400000079_40000_231'
                                    433 ;__400000080   Allocated with name '_wcstoul___400000080_40000_231'
                                    434 ;__400000081   Allocated with name '_wcstoul___400000081_40000_231'
                                    435 ;r             Allocated with name '_wcstoul_r_50000_232'
                                    436 ;a             Allocated with name '_wcstoul_a_50000_232'
                                    437 ;b             Allocated with name '_wcstoul_b_50000_232'
                                    438 ;result        Allocated with name '_wcstoul_result_60000_233'
                                    439 ;__400000084   Allocated with name '_wcstoul___400000084_40000_234'
                                    440 ;__400000085   Allocated with name '_wcstoul___400000085_40000_234'
                                    441 ;__400000086   Allocated with name '_wcstoul___400000086_40000_234'
                                    442 ;r             Allocated with name '_wcstoul_r_50000_235'
                                    443 ;a             Allocated with name '_wcstoul_a_50000_235'
                                    444 ;b             Allocated with name '_wcstoul_b_50000_235'
                                    445 ;result        Allocated with name '_wcstoul_result_60000_236'
                                    446 ;__400000089   Allocated with name '_wcstoul___400000089_40000_237'
                                    447 ;__400000090   Allocated with name '_wcstoul___400000090_40000_237'
                                    448 ;__400000091   Allocated with name '_wcstoul___400000091_40000_237'
                                    449 ;r             Allocated with name '_wcstoul_r_50000_238'
                                    450 ;a             Allocated with name '_wcstoul_a_50000_238'
                                    451 ;b             Allocated with name '_wcstoul_b_50000_238'
                                    452 ;result        Allocated with name '_wcstoul_result_60000_239'
                                    453 ;__400000094   Allocated with name '_wcstoul___400000094_40000_240'
                                    454 ;__400000095   Allocated with name '_wcstoul___400000095_40000_240'
                                    455 ;__400000096   Allocated with name '_wcstoul___400000096_40000_240'
                                    456 ;r             Allocated with name '_wcstoul_r_50000_241'
                                    457 ;a             Allocated with name '_wcstoul_a_50000_241'
                                    458 ;b             Allocated with name '_wcstoul_b_50000_241'
                                    459 ;result        Allocated with name '_wcstoul_result_60000_242'
                                    460 ;__400000099   Allocated with name '_wcstoul___400000099_40000_243'
                                    461 ;__400000100   Allocated with name '_wcstoul___400000100_40000_243'
                                    462 ;__400000101   Allocated with name '_wcstoul___400000101_40000_243'
                                    463 ;r             Allocated with name '_wcstoul_r_50000_244'
                                    464 ;a             Allocated with name '_wcstoul_a_50000_244'
                                    465 ;b             Allocated with name '_wcstoul_b_50000_244'
                                    466 ;result        Allocated with name '_wcstoul_result_60000_245'
                                    467 ;__400000104   Allocated with name '_wcstoul___400000104_40000_246'
                                    468 ;__400000105   Allocated with name '_wcstoul___400000105_40000_246'
                                    469 ;__400000106   Allocated with name '_wcstoul___400000106_40000_246'
                                    470 ;r             Allocated with name '_wcstoul_r_50000_247'
                                    471 ;a             Allocated with name '_wcstoul_a_50000_247'
                                    472 ;b             Allocated with name '_wcstoul_b_50000_247'
                                    473 ;result        Allocated with name '_wcstoul_result_60000_248'
                                    474 ;__400000109   Allocated with name '_wcstoul___400000109_40000_249'
                                    475 ;__400000110   Allocated with name '_wcstoul___400000110_40000_249'
                                    476 ;__400000111   Allocated with name '_wcstoul___400000111_40000_249'
                                    477 ;r             Allocated with name '_wcstoul_r_50000_250'
                                    478 ;a             Allocated with name '_wcstoul_a_50000_250'
                                    479 ;b             Allocated with name '_wcstoul_b_50000_250'
                                    480 ;result        Allocated with name '_wcstoul_result_60000_251'
                                    481 ;__400000114   Allocated with name '_wcstoul___400000114_40000_252'
                                    482 ;__400000115   Allocated with name '_wcstoul___400000115_40000_252'
                                    483 ;__400000116   Allocated with name '_wcstoul___400000116_40000_252'
                                    484 ;r             Allocated with name '_wcstoul_r_50000_253'
                                    485 ;a             Allocated with name '_wcstoul_a_50000_253'
                                    486 ;b             Allocated with name '_wcstoul_b_50000_253'
                                    487 ;result        Allocated with name '_wcstoul_result_60000_254'
                                    488 ;__400000119   Allocated with name '_wcstoul___400000119_40000_255'
                                    489 ;__400000120   Allocated with name '_wcstoul___400000120_40000_255'
                                    490 ;__400000121   Allocated with name '_wcstoul___400000121_40000_255'
                                    491 ;r             Allocated with name '_wcstoul_r_50000_256'
                                    492 ;a             Allocated with name '_wcstoul_a_50000_256'
                                    493 ;b             Allocated with name '_wcstoul_b_50000_256'
                                    494 ;result        Allocated with name '_wcstoul_result_60000_257'
                                    495 ;__400000124   Allocated with name '_wcstoul___400000124_40000_258'
                                    496 ;__400000125   Allocated with name '_wcstoul___400000125_40000_258'
                                    497 ;__400000126   Allocated with name '_wcstoul___400000126_40000_258'
                                    498 ;r             Allocated with name '_wcstoul_r_50000_259'
                                    499 ;a             Allocated with name '_wcstoul_a_50000_259'
                                    500 ;b             Allocated with name '_wcstoul_b_50000_259'
                                    501 ;result        Allocated with name '_wcstoul_result_60000_260'
                                    502 ;__400000129   Allocated to registers 
                                    503 ;__400000130   Allocated with name '_wcstoul___400000130_40000_261'
                                    504 ;__400000131   Allocated with name '_wcstoul___400000131_40000_261'
                                    505 ;r             Allocated to registers 
                                    506 ;a             Allocated with name '_wcstoul_a_50000_262'
                                    507 ;b             Allocated with name '_wcstoul_b_50000_262'
                                    508 ;result        Allocated with name '_wcstoul_result_60000_263'
                                    509 ;------------------------------------------------------------
                                    510 ;	../wcstoul.c: 63: unsigned long int wcstoul(const wchar_t *nptr, wchar_t **endptr, int base)
                                    511 ;	genLabel
                                    512 ;	Raw cost for generated ic 0 : (0, 0.000000) count=1.000000
                                    513 ;	-----------------------------------------
                                    514 ;	 function wcstoul
                                    515 ;	-----------------------------------------
                                    516 ;	Register assignment might be sub-optimal.
                                    517 ;	Stack space usage: 0 bytes.
      0000B0                        518 _wcstoul:
                                    519 ;	Raw cost for generated ic 1 : (0, 0.000000) count=1.000000
                                    520 ;	genReceive
      0000B0 8Dr09r00         [ 4]  521 	sta	_wcstoul_nptr_10000_163
      0000B3 8Er0Ar00         [ 4]  522 	stx	(_wcstoul_nptr_10000_163 + 1)
                                    523 ;	Raw cost for generated ic 2 : (6, 8.000000) count=1.000000
                                    524 ;	../wcstoul.c: 67: bool range_error = false;
                                    525 ;	genAssign
                                    526 ;	genAssignLit
      0000B6 64*00            [ 3]  527 	stz	*_wcstoul_sloc0_1_0
                                    528 ;	Raw cost for generated ic 4 : (3, 4.000000) count=1.000000
                                    529 ;	../wcstoul.c: 68: bool neg = false;
                                    530 ;	genAssign
                                    531 ;	genAssignLit
      0000B8 9Cr12r00         [ 4]  532 	stz	_wcstoul_neg_10000_164
                                    533 ;	Raw cost for generated ic 5 : (3, 4.000000) count=1.000000
                                    534 ;	../wcstoul.c: 69: unsigned char b = base;
                                    535 ;	genCast
                                    536 ;	genCopy
      0000BB AEr07r00         [ 4]  537 	ldx	_wcstoul_PARM_3
                                    538 ;	Raw cost for generated ic 6 : (3, 4.000000) count=1.000000
                                    539 ;	../wcstoul.c: 71: while (iswblank (*ptr))
                                    540 ;	genAssign
                                    541 ;	genCopy
      0000BE ADr0Ar00         [ 4]  542 	lda	(_wcstoul_nptr_10000_163 + 1)
      0000C1 85*02            [ 3]  543 	sta	*(_wcstoul_sloc1_1_0 + 1)
      0000C3 ADr09r00         [ 4]  544 	lda	_wcstoul_nptr_10000_163
      0000C6 85*01            [ 3]  545 	sta	*_wcstoul_sloc1_1_0
                                    546 ;	Raw cost for generated ic 281 : (10, 14.000000) count=1.000000
                                    547 ;	genLabel
      0000C8                        548 00101$:
                                    549 ;	Raw cost for generated ic 8 : (0, 0.000000) count=5.333324
                                    550 ;	genPointerGet
      0000C8 A0 00            [ 2]  551 	ldy	#0x00
      0000CA B1*01            [ 6]  552 	lda	[*_wcstoul_sloc1_1_0],y
      0000CC 85*03            [ 3]  553 	sta	*_wcstoul_sloc2_1_0
      0000CE C8               [ 2]  554 	iny
      0000CF B1*01            [ 6]  555 	lda	[*_wcstoul_sloc1_1_0],y
      0000D1 85*04            [ 3]  556 	sta	*(_wcstoul_sloc2_1_0 + 1)
      0000D3 C8               [ 2]  557 	iny
      0000D4 B1*01            [ 6]  558 	lda	[*_wcstoul_sloc1_1_0],y
      0000D6 85*05            [ 3]  559 	sta	*(_wcstoul_sloc2_1_0 + 2)
      0000D8 C8               [ 2]  560 	iny
      0000D9 B1*01            [ 6]  561 	lda	[*_wcstoul_sloc1_1_0],y
      0000DB 85*06            [ 3]  562 	sta	*(_wcstoul_sloc2_1_0 + 3)
                                    563 ;	Raw cost for generated ic 10 : (21, 40.000000) count=5.333324
                                    564 ;	./../../include/wchar.h: 63: return ((wchar_t)c == L' ' || (wchar_t)c == L'\t');
                                    565 ;	genCmpEQorNE
      0000DD A5*03            [ 3]  566 	lda	*_wcstoul_sloc2_1_0
      0000DF C9 20            [ 2]  567 	cmp	#0x20
      0000E1 D0 0C            [ 4]  568 	bne	00315$
      0000E3 A5*04            [ 3]  569 	lda	*(_wcstoul_sloc2_1_0 + 1)
      0000E5 D0 08            [ 4]  570 	bne	00315$
      0000E7 A5*05            [ 3]  571 	lda	*(_wcstoul_sloc2_1_0 + 2)
      0000E9 D0 04            [ 4]  572 	bne	00315$
      0000EB A5*06            [ 3]  573 	lda	*(_wcstoul_sloc2_1_0 + 3)
      0000ED F0 12            [ 4]  574 	beq	00172$
      0000EF                        575 00315$:
                                    576 ;	Raw cost for generated ic 13 : (30, 36.400002) count=5.333324
                                    577 ;	skipping generated iCode
                                    578 ;	Raw cost for generated ic 14 : (0, 0.000000) count=5.333324
                                    579 ;	genCmpEQorNE
      0000EF A5*03            [ 3]  580 	lda	*_wcstoul_sloc2_1_0
      0000F1 C9 09            [ 2]  581 	cmp	#0x09
      0000F3 D0 1A            [ 4]  582 	bne	00197$
      0000F5 A5*04            [ 3]  583 	lda	*(_wcstoul_sloc2_1_0 + 1)
      0000F7 D0 16            [ 4]  584 	bne	00197$
      0000F9 A5*05            [ 3]  585 	lda	*(_wcstoul_sloc2_1_0 + 2)
      0000FB D0 12            [ 4]  586 	bne	00197$
      0000FD A5*06            [ 3]  587 	lda	*(_wcstoul_sloc2_1_0 + 3)
      0000FF D0 0E            [ 4]  588 	bne	00197$
                                    589 ;	Raw cost for generated ic 15 : (30, 36.400002) count=3.999992
                                    590 ;	skipping generated iCode
                                    591 ;	Raw cost for generated ic 16 : (0, 0.000000) count=3.999992
                                    592 ;	genLabel
      000101                        593 00172$:
                                    594 ;	Raw cost for generated ic 20 : (0, 0.000000) count=4.333324
                                    595 ;	../wcstoul.c: 72: ptr++;
                                    596 ;	genPlus
                                    597 ;	  genPlusInc
      000101 A5*01            [ 3]  598 	lda	*_wcstoul_sloc1_1_0
      000103 18               [ 2]  599 	clc
      000104 69 04            [ 3]  600 	adc	#0x04
      000106 85*01            [ 3]  601 	sta	*_wcstoul_sloc1_1_0
      000108 90 BE            [ 4]  602 	bcc	00101$
      00010A E6*02            [ 5]  603 	inc	*(_wcstoul_sloc1_1_0 + 1)
                                    604 ;	Raw cost for generated ic 31 : (11, 17.600000) count=4.333324
                                    605 ;	genGoto
      00010C 4CrC8r00         [ 3]  606 	jmp	00101$
                                    607 ;	Raw cost for generated ic 33 : (3, 3.000000) count=4.333324
                                    608 ;	genLabel
      00010F                        609 00197$:
                                    610 ;	Raw cost for generated ic 282 : (0, 0.000000) count=0.999997
                                    611 ;	genAssign
                                    612 ;	genCopy
      00010F A5*02            [ 3]  613 	lda	*(_wcstoul_sloc1_1_0 + 1)
      000111 8Dr0Cr00         [ 4]  614 	sta	(_wcstoul_ptr_10000_164 + 1)
      000114 A5*01            [ 3]  615 	lda	*_wcstoul_sloc1_1_0
      000116 8Dr0Br00         [ 4]  616 	sta	_wcstoul_ptr_10000_164
                                    617 ;	Raw cost for generated ic 283 : (10, 14.000000) count=0.999997
                                    618 ;	../wcstoul.c: 75: switch(*ptr)
                                    619 ;	genPointerGet
      000119 A0 00            [ 2]  620 	ldy	#0x00
      00011B B1*01            [ 6]  621 	lda	[*_wcstoul_sloc1_1_0],y
      00011D 85*03            [ 3]  622 	sta	*_wcstoul_sloc2_1_0
      00011F C8               [ 2]  623 	iny
      000120 B1*01            [ 6]  624 	lda	[*_wcstoul_sloc1_1_0],y
      000122 85*04            [ 3]  625 	sta	*(_wcstoul_sloc2_1_0 + 1)
      000124 C8               [ 2]  626 	iny
      000125 B1*01            [ 6]  627 	lda	[*_wcstoul_sloc1_1_0],y
      000127 85*05            [ 3]  628 	sta	*(_wcstoul_sloc2_1_0 + 2)
      000129 C8               [ 2]  629 	iny
      00012A B1*01            [ 6]  630 	lda	[*_wcstoul_sloc1_1_0],y
      00012C 85*06            [ 3]  631 	sta	*(_wcstoul_sloc2_1_0 + 3)
                                    632 ;	Raw cost for generated ic 36 : (21, 40.000000) count=0.999997
                                    633 ;	genCmpEQorNE
      00012E A5*03            [ 3]  634 	lda	*_wcstoul_sloc2_1_0
      000130 C9 2B            [ 2]  635 	cmp	#0x2b
      000132 D0 0C            [ 4]  636 	bne	00325$
      000134 A5*04            [ 3]  637 	lda	*(_wcstoul_sloc2_1_0 + 1)
      000136 D0 08            [ 4]  638 	bne	00325$
      000138 A5*05            [ 3]  639 	lda	*(_wcstoul_sloc2_1_0 + 2)
      00013A D0 04            [ 4]  640 	bne	00325$
      00013C A5*06            [ 3]  641 	lda	*(_wcstoul_sloc2_1_0 + 3)
      00013E F0 17            [ 4]  642 	beq	00105$
      000140                        643 00325$:
                                    644 ;	Raw cost for generated ic 37 : (30, 36.400002) count=0.999997
                                    645 ;	skipping generated iCode
                                    646 ;	Raw cost for generated ic 38 : (0, 0.000000) count=0.999997
                                    647 ;	genCmpEQorNE
      000140 A5*03            [ 3]  648 	lda	*_wcstoul_sloc2_1_0
      000142 C9 2D            [ 2]  649 	cmp	#0x2d
      000144 D0 1F            [ 4]  650 	bne	00106$
      000146 A5*04            [ 3]  651 	lda	*(_wcstoul_sloc2_1_0 + 1)
      000148 D0 1B            [ 4]  652 	bne	00106$
      00014A A5*05            [ 3]  653 	lda	*(_wcstoul_sloc2_1_0 + 2)
      00014C D0 17            [ 4]  654 	bne	00106$
      00014E A5*06            [ 3]  655 	lda	*(_wcstoul_sloc2_1_0 + 3)
      000150 D0 13            [ 4]  656 	bne	00106$
                                    657 ;	Raw cost for generated ic 39 : (30, 36.400002) count=0.749996
                                    658 ;	skipping generated iCode
                                    659 ;	Raw cost for generated ic 40 : (0, 0.000000) count=0.749996
                                    660 ;	../wcstoul.c: 78: neg = true;
                                    661 ;	genAssign
                                    662 ;	genAssignLit
      000152 A0 01            [ 2]  663 	ldy	#0x01
      000154 8Cr12r00         [ 4]  664 	sty	_wcstoul_neg_10000_164
                                    665 ;	Raw cost for generated ic 43 : (5, 6.000000) count=0.562496
                                    666 ;	../wcstoul.c: 79: case L'+':
                                    667 ;	genLabel
      000157                        668 00105$:
                                    669 ;	Raw cost for generated ic 44 : (0, 0.000000) count=0.812494
                                    670 ;	../wcstoul.c: 80: ptr++;
                                    671 ;	genPlus
                                    672 ;	  genPlusInc
      000157 ADr0Br00         [ 4]  673 	lda	_wcstoul_ptr_10000_164
      00015A 18               [ 2]  674 	clc
      00015B 69 04            [ 3]  675 	adc	#0x04
      00015D 8Dr0Br00         [ 4]  676 	sta	_wcstoul_ptr_10000_164
      000160 90 03            [ 4]  677 	bcc	00333$
      000162 EEr0Cr00         [ 6]  678 	inc	(_wcstoul_ptr_10000_164 + 1)
      000165                        679 00333$:
                                    680 ;	Raw cost for generated ic 46 : (14, 20.600000) count=0.812494
                                    681 ;	../wcstoul.c: 81: }
                                    682 ;	genLabel
      000165                        683 00106$:
                                    684 ;	Raw cost for generated ic 48 : (0, 0.000000) count=0.999993
                                    685 ;	../wcstoul.c: 84: if (!b)
                                    686 ;	genIfx
      000165 E0 00            [ 2]  687 	cpx	#0x00
                                    688 ;	genIfxJump : z
      000167 F0 03            [ 4]  689 	beq	00335$
      000169 4Cr67r02         [ 3]  690 	jmp	00128$
      00016C                        691 00335$:
                                    692 ;	Raw cost for generated ic 49 : (7, 7.600000) count=0.999993
                                    693 ;	../wcstoul.c: 86: if (!wcsncmp (ptr, L"0x", 2) || !wcsncmp (ptr, L"0X", 2))
                                    694 ;	skipping iCode since result will be rematerialized
                                    695 ;	Raw cost for generated ic 52 : (0, 0.000000) count=0.749995
                                    696 ;	genCast
                                    697 ;	genCopy
      00016C A9s00            [ 2]  698 	lda	#>___str_0
      00016E 8Dr01r00         [ 4]  699 	sta	(_wcsncmp_PARM_2 + 1)
      000171 A9r00            [ 2]  700 	lda	#___str_0
      000173 8Dr00r00         [ 4]  701 	sta	_wcsncmp_PARM_2
                                    702 ;	Raw cost for generated ic 53 : (10, 12.000000) count=0.749995
                                    703 ;	genAssign
                                    704 ;	genAssignLit
      000176 A2 02            [ 2]  705 	ldx	#0x02
      000178 8Er00r00         [ 4]  706 	stx	_wcsncmp_PARM_3
      00017B 9Cr01r00         [ 4]  707 	stz	(_wcsncmp_PARM_3 + 1)
                                    708 ;	Raw cost for generated ic 56 : (8, 10.000000) count=0.749995
                                    709 ;	Raw cost for generated ic 54 : (0, 0.000000) count=0.749995
                                    710 ;	genCall
                                    711 ;	genSend
      00017E AEr0Cr00         [ 4]  712 	ldx	(_wcstoul_ptr_10000_164 + 1)
      000181 ADr0Br00         [ 4]  713 	lda	_wcstoul_ptr_10000_164
      000184 20r00r00         [ 6]  714 	jsr	_wcsncmp
                                    715 ;	assignResultValue
                                    716 ;	Raw cost for generated ic 57 : (9, 14.000000) count=0.749995
                                    717 ;	genIfx
      000187 C9 00            [ 2]  718 	cmp	#0x00
                                    719 ;	genIfxJump : z
      000189 D0 04            [ 4]  720 	bne	00337$
      00018B E0 00            [ 2]  721 	cpx	#0x00
      00018D F0 23            [ 4]  722 	beq	00114$
      00018F                        723 00337$:
                                    724 ;	Raw cost for generated ic 58 : (11, 12.200000) count=0.749995
                                    725 ;	skipping iCode since result will be rematerialized
                                    726 ;	Raw cost for generated ic 61 : (0, 0.000000) count=0.562496
                                    727 ;	genCast
                                    728 ;	genCopy
      00018F A9s00            [ 2]  729 	lda	#>___str_1
      000191 8Dr01r00         [ 4]  730 	sta	(_wcsncmp_PARM_2 + 1)
      000194 A9r0C            [ 2]  731 	lda	#___str_1
      000196 8Dr00r00         [ 4]  732 	sta	_wcsncmp_PARM_2
                                    733 ;	Raw cost for generated ic 62 : (10, 12.000000) count=0.562496
                                    734 ;	genAssign
                                    735 ;	genAssignLit
      000199 A2 02            [ 2]  736 	ldx	#0x02
      00019B 8Er00r00         [ 4]  737 	stx	_wcsncmp_PARM_3
      00019E 9Cr01r00         [ 4]  738 	stz	(_wcsncmp_PARM_3 + 1)
                                    739 ;	Raw cost for generated ic 65 : (8, 10.000000) count=0.562496
                                    740 ;	Raw cost for generated ic 63 : (0, 0.000000) count=0.562496
                                    741 ;	genCall
                                    742 ;	genSend
      0001A1 AEr0Cr00         [ 4]  743 	ldx	(_wcstoul_ptr_10000_164 + 1)
      0001A4 ADr0Br00         [ 4]  744 	lda	_wcstoul_ptr_10000_164
      0001A7 20r00r00         [ 6]  745 	jsr	_wcsncmp
                                    746 ;	assignResultValue
                                    747 ;	Raw cost for generated ic 66 : (9, 14.000000) count=0.562496
                                    748 ;	genIfx
      0001AA C9 00            [ 2]  749 	cmp	#0x00
                                    750 ;	genIfxJump : z
      0001AC D0 17            [ 4]  751 	bne	00115$
      0001AE E0 00            [ 2]  752 	cpx	#0x00
      0001B0 D0 13            [ 4]  753 	bne	00115$
                                    754 ;	Raw cost for generated ic 67 : (11, 12.200000) count=0.562496
                                    755 ;	genLabel
      0001B2                        756 00114$:
                                    757 ;	Raw cost for generated ic 69 : (0, 0.000000) count=0.609371
                                    758 ;	../wcstoul.c: 88: b = 16;
                                    759 ;	genAssign
                                    760 ;	genCopy
      0001B2 A2 10            [ 2]  761 	ldx	#0x10
                                    762 ;	Raw cost for generated ic 70 : (2, 2.000000) count=0.609371
                                    763 ;	../wcstoul.c: 89: ptr += 2;
                                    764 ;	genPlus
                                    765 ;	  genPlusInc
      0001B4 ADr0Br00         [ 4]  766 	lda	_wcstoul_ptr_10000_164
      0001B7 18               [ 2]  767 	clc
      0001B8 69 08            [ 3]  768 	adc	#0x08
      0001BA 8Dr0Br00         [ 4]  769 	sta	_wcstoul_ptr_10000_164
      0001BD 90 03            [ 4]  770 	bcc	00340$
      0001BF EEr0Cr00         [ 6]  771 	inc	(_wcstoul_ptr_10000_164 + 1)
      0001C2                        772 00340$:
                                    773 ;	Raw cost for generated ic 71 : (14, 20.600000) count=0.609371
                                    774 ;	genGoto
      0001C2 4Cr2Ar03         [ 3]  775 	jmp	00129$
                                    776 ;	Raw cost for generated ic 73 : (3, 3.000000) count=0.609371
                                    777 ;	genLabel
      0001C5                        778 00115$:
                                    779 ;	Raw cost for generated ic 74 : (0, 0.000000) count=0.140623
                                    780 ;	../wcstoul.c: 91: else if (!wcsncmp (ptr, L"0b", 2) || !wcsncmp (ptr, L"0B", 2))
                                    781 ;	skipping iCode since result will be rematerialized
                                    782 ;	Raw cost for generated ic 75 : (0, 0.000000) count=0.140623
                                    783 ;	genCast
                                    784 ;	genCopy
      0001C5 A9s00            [ 2]  785 	lda	#>___str_2
      0001C7 8Dr01r00         [ 4]  786 	sta	(_wcsncmp_PARM_2 + 1)
      0001CA A9r18            [ 2]  787 	lda	#___str_2
      0001CC 8Dr00r00         [ 4]  788 	sta	_wcsncmp_PARM_2
                                    789 ;	Raw cost for generated ic 76 : (10, 12.000000) count=0.140623
                                    790 ;	genAssign
                                    791 ;	genAssignLit
      0001CF A2 02            [ 2]  792 	ldx	#0x02
      0001D1 8Er00r00         [ 4]  793 	stx	_wcsncmp_PARM_3
      0001D4 9Cr01r00         [ 4]  794 	stz	(_wcsncmp_PARM_3 + 1)
                                    795 ;	Raw cost for generated ic 79 : (8, 10.000000) count=0.140623
                                    796 ;	Raw cost for generated ic 77 : (0, 0.000000) count=0.140623
                                    797 ;	genCall
                                    798 ;	genSend
      0001D7 AEr0Cr00         [ 4]  799 	ldx	(_wcstoul_ptr_10000_164 + 1)
      0001DA ADr0Br00         [ 4]  800 	lda	_wcstoul_ptr_10000_164
      0001DD 20r00r00         [ 6]  801 	jsr	_wcsncmp
                                    802 ;	assignResultValue
                                    803 ;	Raw cost for generated ic 80 : (9, 14.000000) count=0.140623
                                    804 ;	genIfx
      0001E0 C9 00            [ 2]  805 	cmp	#0x00
                                    806 ;	genIfxJump : z
      0001E2 D0 04            [ 4]  807 	bne	00342$
      0001E4 E0 00            [ 2]  808 	cpx	#0x00
      0001E6 F0 23            [ 4]  809 	beq	00110$
      0001E8                        810 00342$:
                                    811 ;	Raw cost for generated ic 81 : (11, 12.200000) count=0.140623
                                    812 ;	skipping iCode since result will be rematerialized
                                    813 ;	Raw cost for generated ic 84 : (0, 0.000000) count=0.105467
                                    814 ;	genCast
                                    815 ;	genCopy
      0001E8 A9s00            [ 2]  816 	lda	#>___str_3
      0001EA 8Dr01r00         [ 4]  817 	sta	(_wcsncmp_PARM_2 + 1)
      0001ED A9r24            [ 2]  818 	lda	#___str_3
      0001EF 8Dr00r00         [ 4]  819 	sta	_wcsncmp_PARM_2
                                    820 ;	Raw cost for generated ic 85 : (10, 12.000000) count=0.105467
                                    821 ;	genAssign
                                    822 ;	genAssignLit
      0001F2 A2 02            [ 2]  823 	ldx	#0x02
      0001F4 8Er00r00         [ 4]  824 	stx	_wcsncmp_PARM_3
      0001F7 9Cr01r00         [ 4]  825 	stz	(_wcsncmp_PARM_3 + 1)
                                    826 ;	Raw cost for generated ic 88 : (8, 10.000000) count=0.105467
                                    827 ;	Raw cost for generated ic 86 : (0, 0.000000) count=0.105467
                                    828 ;	genCall
                                    829 ;	genSend
      0001FA AEr0Cr00         [ 4]  830 	ldx	(_wcstoul_ptr_10000_164 + 1)
      0001FD ADr0Br00         [ 4]  831 	lda	_wcstoul_ptr_10000_164
      000200 20r00r00         [ 6]  832 	jsr	_wcsncmp
                                    833 ;	assignResultValue
                                    834 ;	Raw cost for generated ic 89 : (9, 14.000000) count=0.105467
                                    835 ;	genIfx
      000203 C9 00            [ 2]  836 	cmp	#0x00
                                    837 ;	genIfxJump : z
      000205 D0 17            [ 4]  838 	bne	00111$
      000207 E0 00            [ 2]  839 	cpx	#0x00
      000209 D0 13            [ 4]  840 	bne	00111$
                                    841 ;	Raw cost for generated ic 90 : (11, 12.200000) count=0.105467
                                    842 ;	genLabel
      00020B                        843 00110$:
                                    844 ;	Raw cost for generated ic 92 : (0, 0.000000) count=0.114256
                                    845 ;	../wcstoul.c: 93: b = 2;
                                    846 ;	genAssign
                                    847 ;	genCopy
      00020B A2 02            [ 2]  848 	ldx	#0x02
                                    849 ;	Raw cost for generated ic 93 : (2, 2.000000) count=0.114256
                                    850 ;	../wcstoul.c: 94: ptr += 2;
                                    851 ;	genPlus
                                    852 ;	  genPlusInc
      00020D ADr0Br00         [ 4]  853 	lda	_wcstoul_ptr_10000_164
      000210 18               [ 2]  854 	clc
      000211 69 08            [ 3]  855 	adc	#0x08
      000213 8Dr0Br00         [ 4]  856 	sta	_wcstoul_ptr_10000_164
      000216 90 03            [ 4]  857 	bcc	00345$
      000218 EEr0Cr00         [ 6]  858 	inc	(_wcstoul_ptr_10000_164 + 1)
      00021B                        859 00345$:
                                    860 ;	Raw cost for generated ic 94 : (14, 20.600000) count=0.114256
                                    861 ;	genGoto
      00021B 4Cr2Ar03         [ 3]  862 	jmp	00129$
                                    863 ;	Raw cost for generated ic 96 : (3, 3.000000) count=0.114256
                                    864 ;	genLabel
      00021E                        865 00111$:
                                    866 ;	Raw cost for generated ic 97 : (0, 0.000000) count=0.020970
                                    867 ;	../wcstoul.c: 96: else if (*ptr == L'0')
                                    868 ;	genPointerGet
                                    869 ;	  setupDPTR - off=0 remat=(null) savea=0
      00021E AEr0Br00         [ 4]  870 	ldx	_wcstoul_ptr_10000_164
      000221 86*00            [ 3]  871 	stx	*(DPTR+0)
      000223 AEr0Cr00         [ 4]  872 	ldx	(_wcstoul_ptr_10000_164 + 1)
      000226 86*01            [ 3]  873 	stx	*(DPTR+1)
      000228 A0 00            [ 2]  874 	ldy	#0x00
      00022A B1*00            [ 6]  875 	lda	[DPTR],y
      00022C 85*03            [ 3]  876 	sta	*_wcstoul_sloc2_1_0
      00022E C8               [ 2]  877 	iny
      00022F B1*00            [ 6]  878 	lda	[DPTR],y
      000231 85*04            [ 3]  879 	sta	*(_wcstoul_sloc2_1_0 + 1)
      000233 C8               [ 2]  880 	iny
      000234 B1*00            [ 6]  881 	lda	[DPTR],y
      000236 85*05            [ 3]  882 	sta	*(_wcstoul_sloc2_1_0 + 2)
      000238 C8               [ 2]  883 	iny
      000239 B1*00            [ 6]  884 	lda	[DPTR],y
      00023B 85*06            [ 3]  885 	sta	*(_wcstoul_sloc2_1_0 + 3)
                                    886 ;	Raw cost for generated ic 99 : (31, 54.000000) count=0.020970
                                    887 ;	genCmpEQorNE
      00023D A5*03            [ 3]  888 	lda	*_wcstoul_sloc2_1_0
      00023F C9 30            [ 2]  889 	cmp	#0x30
      000241 D0 1F            [ 4]  890 	bne	00108$
      000243 A5*04            [ 3]  891 	lda	*(_wcstoul_sloc2_1_0 + 1)
      000245 D0 1B            [ 4]  892 	bne	00108$
      000247 A5*05            [ 3]  893 	lda	*(_wcstoul_sloc2_1_0 + 2)
      000249 D0 17            [ 4]  894 	bne	00108$
      00024B A5*06            [ 3]  895 	lda	*(_wcstoul_sloc2_1_0 + 3)
      00024D D0 13            [ 4]  896 	bne	00108$
                                    897 ;	Raw cost for generated ic 100 : (30, 36.400002) count=0.020970
                                    898 ;	skipping generated iCode
                                    899 ;	Raw cost for generated ic 101 : (0, 0.000000) count=0.020970
                                    900 ;	../wcstoul.c: 98: b = 8;
                                    901 ;	genAssign
                                    902 ;	genCopy
      00024F A2 08            [ 2]  903 	ldx	#0x08
                                    904 ;	Raw cost for generated ic 104 : (2, 2.000000) count=0.015727
                                    905 ;	../wcstoul.c: 99: ptr++;
                                    906 ;	genPlus
                                    907 ;	  genPlusInc
      000251 ADr0Br00         [ 4]  908 	lda	_wcstoul_ptr_10000_164
      000254 18               [ 2]  909 	clc
      000255 69 04            [ 3]  910 	adc	#0x04
      000257 8Dr0Br00         [ 4]  911 	sta	_wcstoul_ptr_10000_164
      00025A 90 03            [ 4]  912 	bcc	00351$
      00025C EEr0Cr00         [ 6]  913 	inc	(_wcstoul_ptr_10000_164 + 1)
      00025F                        914 00351$:
                                    915 ;	Raw cost for generated ic 106 : (14, 20.600000) count=0.015727
                                    916 ;	genGoto
      00025F 4Cr2Ar03         [ 3]  917 	jmp	00129$
                                    918 ;	Raw cost for generated ic 108 : (3, 3.000000) count=0.015727
                                    919 ;	genLabel
      000262                        920 00108$:
                                    921 ;	Raw cost for generated ic 109 : (0, 0.000000) count=0.000000
                                    922 ;	../wcstoul.c: 102: b = 10;
                                    923 ;	genAssign
                                    924 ;	genCopy
      000262 A2 0A            [ 2]  925 	ldx	#0x0a
                                    926 ;	Raw cost for generated ic 110 : (2, 2.000000) count=0.000000
                                    927 ;	genGoto
      000264 4Cr2Ar03         [ 3]  928 	jmp	00129$
                                    929 ;	Raw cost for generated ic 114 : (3, 3.000000) count=0.000000
                                    930 ;	genLabel
      000267                        931 00128$:
                                    932 ;	Raw cost for generated ic 115 : (0, 0.000000) count=0.249997
                                    933 ;	../wcstoul.c: 105: else if (b == 16 && (!wcsncmp (ptr, L"0x", 2) || !wcsncmp (ptr, L"0X", 2)))
                                    934 ;	genCmpEQorNE
      000267 E0 10            [ 2]  935 	cpx	#0x10
      000269 D0 5F            [ 4]  936 	bne	00123$
                                    937 ;	Raw cost for generated ic 116 : (7, 7.600000) count=0.249997
                                    938 ;	skipping generated iCode
                                    939 ;	Raw cost for generated ic 117 : (0, 0.000000) count=0.249997
                                    940 ;	skipping iCode since result will be rematerialized
                                    941 ;	Raw cost for generated ic 120 : (0, 0.000000) count=0.187496
                                    942 ;	genCast
                                    943 ;	genCopy
      00026B A9s00            [ 2]  944 	lda	#>___str_0
      00026D 8Dr01r00         [ 4]  945 	sta	(_wcsncmp_PARM_2 + 1)
      000270 A9r00            [ 2]  946 	lda	#___str_0
      000272 8Dr00r00         [ 4]  947 	sta	_wcsncmp_PARM_2
                                    948 ;	Raw cost for generated ic 121 : (10, 12.000000) count=0.187496
                                    949 ;	genAssign
                                    950 ;	genAssignLit
      000275 A0 02            [ 2]  951 	ldy	#0x02
      000277 8Cr00r00         [ 4]  952 	sty	_wcsncmp_PARM_3
      00027A 9Cr01r00         [ 4]  953 	stz	(_wcsncmp_PARM_3 + 1)
                                    954 ;	Raw cost for generated ic 124 : (8, 10.000000) count=0.187496
                                    955 ;	Raw cost for generated ic 122 : (0, 0.000000) count=0.187496
                                    956 ;	genCall
      00027D DA               [ 3]  957 	phx
                                    958 ;	genSend
      00027E AEr0Cr00         [ 4]  959 	ldx	(_wcstoul_ptr_10000_164 + 1)
      000281 ADr0Br00         [ 4]  960 	lda	_wcstoul_ptr_10000_164
      000284 20r00r00         [ 6]  961 	jsr	_wcsncmp
                                    962 ;	assignResultValue
      000287 85*03            [ 3]  963 	sta	*_wcstoul_sloc2_1_0
      000289 86*04            [ 3]  964 	stx	*(_wcstoul_sloc2_1_0 + 1)
      00028B FA               [ 4]  965 	plx
                                    966 ;	Raw cost for generated ic 125 : (15, 27.000000) count=0.187496
                                    967 ;	genIfx
      00028C A5*04            [ 3]  968 	lda	*(_wcstoul_sloc2_1_0 + 1)
      00028E 05*03            [ 3]  969 	ora	*_wcstoul_sloc2_1_0
                                    970 ;	genIfxJump : z
      000290 F0 27            [ 4]  971 	beq	00122$
                                    972 ;	Raw cost for generated ic 126 : (9, 11.600000) count=0.187496
                                    973 ;	skipping iCode since result will be rematerialized
                                    974 ;	Raw cost for generated ic 129 : (0, 0.000000) count=0.140622
                                    975 ;	genCast
                                    976 ;	genCopy
      000292 A9s00            [ 2]  977 	lda	#>___str_1
      000294 8Dr01r00         [ 4]  978 	sta	(_wcsncmp_PARM_2 + 1)
      000297 A9r0C            [ 2]  979 	lda	#___str_1
      000299 8Dr00r00         [ 4]  980 	sta	_wcsncmp_PARM_2
                                    981 ;	Raw cost for generated ic 130 : (10, 12.000000) count=0.140622
                                    982 ;	genAssign
                                    983 ;	genAssignLit
      00029C A0 02            [ 2]  984 	ldy	#0x02
      00029E 8Cr00r00         [ 4]  985 	sty	_wcsncmp_PARM_3
      0002A1 9Cr01r00         [ 4]  986 	stz	(_wcsncmp_PARM_3 + 1)
                                    987 ;	Raw cost for generated ic 133 : (8, 10.000000) count=0.140622
                                    988 ;	Raw cost for generated ic 131 : (0, 0.000000) count=0.140622
                                    989 ;	genCall
      0002A4 DA               [ 3]  990 	phx
                                    991 ;	genSend
      0002A5 AEr0Cr00         [ 4]  992 	ldx	(_wcstoul_ptr_10000_164 + 1)
      0002A8 ADr0Br00         [ 4]  993 	lda	_wcstoul_ptr_10000_164
      0002AB 20r00r00         [ 6]  994 	jsr	_wcsncmp
                                    995 ;	assignResultValue
      0002AE 85*03            [ 3]  996 	sta	*_wcstoul_sloc2_1_0
      0002B0 86*04            [ 3]  997 	stx	*(_wcstoul_sloc2_1_0 + 1)
      0002B2 FA               [ 4]  998 	plx
                                    999 ;	Raw cost for generated ic 134 : (15, 27.000000) count=0.140622
                                   1000 ;	genIfx
      0002B3 A5*04            [ 3] 1001 	lda	*(_wcstoul_sloc2_1_0 + 1)
      0002B5 05*03            [ 3] 1002 	ora	*_wcstoul_sloc2_1_0
                                   1003 ;	genIfxJump : z
      0002B7 D0 11            [ 4] 1004 	bne	00123$
                                   1005 ;	Raw cost for generated ic 135 : (9, 11.600000) count=0.140622
                                   1006 ;	genLabel
      0002B9                       1007 00122$:
                                   1008 ;	Raw cost for generated ic 137 : (0, 0.000000) count=0.152341
                                   1009 ;	../wcstoul.c: 106: ptr += 2;
                                   1010 ;	genPlus
                                   1011 ;	  genPlusInc
      0002B9 ADr0Br00         [ 4] 1012 	lda	_wcstoul_ptr_10000_164
      0002BC 18               [ 2] 1013 	clc
      0002BD 69 08            [ 3] 1014 	adc	#0x08
      0002BF 8Dr0Br00         [ 4] 1015 	sta	_wcstoul_ptr_10000_164
      0002C2 90 66            [ 4] 1016 	bcc	00129$
      0002C4 EEr0Cr00         [ 6] 1017 	inc	(_wcstoul_ptr_10000_164 + 1)
                                   1018 ;	Raw cost for generated ic 138 : (14, 20.600000) count=0.152341
                                   1019 ;	genGoto
      0002C7 4Cr2Ar03         [ 3] 1020 	jmp	00129$
                                   1021 ;	Raw cost for generated ic 140 : (3, 3.000000) count=0.152341
                                   1022 ;	genLabel
      0002CA                       1023 00123$:
                                   1024 ;	Raw cost for generated ic 141 : (0, 0.000000) count=0.097654
                                   1025 ;	../wcstoul.c: 107: else if (b == 2 && (!wcsncmp (ptr, L"0b", 2) || !wcsncmp (ptr, L"0B", 2)))
                                   1026 ;	genCmpEQorNE
      0002CA E0 02            [ 2] 1027 	cpx	#0x02
      0002CC D0 5C            [ 4] 1028 	bne	00129$
                                   1029 ;	Raw cost for generated ic 142 : (7, 7.600000) count=0.097654
                                   1030 ;	skipping generated iCode
                                   1031 ;	Raw cost for generated ic 143 : (0, 0.000000) count=0.097654
                                   1032 ;	skipping iCode since result will be rematerialized
                                   1033 ;	Raw cost for generated ic 146 : (0, 0.000000) count=0.073241
                                   1034 ;	genCast
                                   1035 ;	genCopy
      0002CE A9s00            [ 2] 1036 	lda	#>___str_2
      0002D0 8Dr01r00         [ 4] 1037 	sta	(_wcsncmp_PARM_2 + 1)
      0002D3 A9r18            [ 2] 1038 	lda	#___str_2
      0002D5 8Dr00r00         [ 4] 1039 	sta	_wcsncmp_PARM_2
                                   1040 ;	Raw cost for generated ic 147 : (10, 12.000000) count=0.073241
                                   1041 ;	genAssign
                                   1042 ;	genAssignLit
      0002D8 A0 02            [ 2] 1043 	ldy	#0x02
      0002DA 8Cr00r00         [ 4] 1044 	sty	_wcsncmp_PARM_3
      0002DD 9Cr01r00         [ 4] 1045 	stz	(_wcsncmp_PARM_3 + 1)
                                   1046 ;	Raw cost for generated ic 150 : (8, 10.000000) count=0.073241
                                   1047 ;	Raw cost for generated ic 148 : (0, 0.000000) count=0.073241
                                   1048 ;	genCall
      0002E0 DA               [ 3] 1049 	phx
                                   1050 ;	genSend
      0002E1 AEr0Cr00         [ 4] 1051 	ldx	(_wcstoul_ptr_10000_164 + 1)
      0002E4 ADr0Br00         [ 4] 1052 	lda	_wcstoul_ptr_10000_164
      0002E7 20r00r00         [ 6] 1053 	jsr	_wcsncmp
                                   1054 ;	assignResultValue
      0002EA 85*03            [ 3] 1055 	sta	*_wcstoul_sloc2_1_0
      0002EC 86*04            [ 3] 1056 	stx	*(_wcstoul_sloc2_1_0 + 1)
      0002EE FA               [ 4] 1057 	plx
                                   1058 ;	Raw cost for generated ic 151 : (15, 27.000000) count=0.073241
                                   1059 ;	genIfx
      0002EF A5*04            [ 3] 1060 	lda	*(_wcstoul_sloc2_1_0 + 1)
      0002F1 05*03            [ 3] 1061 	ora	*_wcstoul_sloc2_1_0
                                   1062 ;	genIfxJump : z
      0002F3 F0 27            [ 4] 1063 	beq	00118$
                                   1064 ;	Raw cost for generated ic 152 : (9, 11.600000) count=0.073241
                                   1065 ;	skipping iCode since result will be rematerialized
                                   1066 ;	Raw cost for generated ic 155 : (0, 0.000000) count=0.054931
                                   1067 ;	genCast
                                   1068 ;	genCopy
      0002F5 A9s00            [ 2] 1069 	lda	#>___str_3
      0002F7 8Dr01r00         [ 4] 1070 	sta	(_wcsncmp_PARM_2 + 1)
      0002FA A9r24            [ 2] 1071 	lda	#___str_3
      0002FC 8Dr00r00         [ 4] 1072 	sta	_wcsncmp_PARM_2
                                   1073 ;	Raw cost for generated ic 156 : (10, 12.000000) count=0.054931
                                   1074 ;	genAssign
                                   1075 ;	genAssignLit
      0002FF A0 02            [ 2] 1076 	ldy	#0x02
      000301 8Cr00r00         [ 4] 1077 	sty	_wcsncmp_PARM_3
      000304 9Cr01r00         [ 4] 1078 	stz	(_wcsncmp_PARM_3 + 1)
                                   1079 ;	Raw cost for generated ic 159 : (8, 10.000000) count=0.054931
                                   1080 ;	Raw cost for generated ic 157 : (0, 0.000000) count=0.054931
                                   1081 ;	genCall
      000307 DA               [ 3] 1082 	phx
                                   1083 ;	genSend
      000308 AEr0Cr00         [ 4] 1084 	ldx	(_wcstoul_ptr_10000_164 + 1)
      00030B ADr0Br00         [ 4] 1085 	lda	_wcstoul_ptr_10000_164
      00030E 20r00r00         [ 6] 1086 	jsr	_wcsncmp
                                   1087 ;	assignResultValue
      000311 85*03            [ 3] 1088 	sta	*_wcstoul_sloc2_1_0
      000313 86*04            [ 3] 1089 	stx	*(_wcstoul_sloc2_1_0 + 1)
      000315 FA               [ 4] 1090 	plx
                                   1091 ;	Raw cost for generated ic 160 : (15, 27.000000) count=0.054931
                                   1092 ;	genIfx
      000316 A5*04            [ 3] 1093 	lda	*(_wcstoul_sloc2_1_0 + 1)
      000318 05*03            [ 3] 1094 	ora	*_wcstoul_sloc2_1_0
                                   1095 ;	genIfxJump : z
      00031A D0 0E            [ 4] 1096 	bne	00129$
                                   1097 ;	Raw cost for generated ic 161 : (9, 11.600000) count=0.054931
                                   1098 ;	genLabel
      00031C                       1099 00118$:
                                   1100 ;	Raw cost for generated ic 163 : (0, 0.000000) count=0.059508
                                   1101 ;	../wcstoul.c: 108: ptr += 2;
                                   1102 ;	genPlus
                                   1103 ;	  genPlusInc
      00031C ADr0Br00         [ 4] 1104 	lda	_wcstoul_ptr_10000_164
      00031F 18               [ 2] 1105 	clc
      000320 69 08            [ 3] 1106 	adc	#0x08
      000322 8Dr0Br00         [ 4] 1107 	sta	_wcstoul_ptr_10000_164
      000325 90 03            [ 4] 1108 	bcc	00363$
      000327 EEr0Cr00         [ 6] 1109 	inc	(_wcstoul_ptr_10000_164 + 1)
      00032A                       1110 00363$:
                                   1111 ;	Raw cost for generated ic 164 : (14, 20.600000) count=0.059508
                                   1112 ;	genLabel
      00032A                       1113 00129$:
                                   1114 ;	Raw cost for generated ic 168 : (0, 0.000000) count=0.989349
                                   1115 ;	../wcstoul.c: 111: if (_isdigit (*ptr, b) < 0)
                                   1116 ;	genPointerGet
                                   1117 ;	  setupDPTR - off=0 remat=(null) savea=0
      00032A ADr0Br00         [ 4] 1118 	lda	_wcstoul_ptr_10000_164
      00032D 85*00            [ 3] 1119 	sta	*(DPTR+0)
      00032F ADr0Cr00         [ 4] 1120 	lda	(_wcstoul_ptr_10000_164 + 1)
      000332 85*01            [ 3] 1121 	sta	*(DPTR+1)
      000334 A0 00            [ 2] 1122 	ldy	#0x00
      000336 B1*00            [ 6] 1123 	lda	[DPTR],y
      000338 8Dr00r00         [ 4] 1124 	sta	__isdigit_PARM_1
      00033B C8               [ 2] 1125 	iny
      00033C B1*00            [ 6] 1126 	lda	[DPTR],y
      00033E 8Dr01r00         [ 4] 1127 	sta	(__isdigit_PARM_1 + 1)
      000341 C8               [ 2] 1128 	iny
      000342 B1*00            [ 6] 1129 	lda	[DPTR],y
      000344 8Dr02r00         [ 4] 1130 	sta	(__isdigit_PARM_1 + 2)
      000347 C8               [ 2] 1131 	iny
      000348 B1*00            [ 6] 1132 	lda	[DPTR],y
      00034A 8Dr03r00         [ 4] 1133 	sta	(__isdigit_PARM_1 + 3)
                                   1134 ;	Raw cost for generated ic 170 : (35, 58.000000) count=0.989349
                                   1135 ;	genAssign
                                   1136 ;	genCopy
      00034D 8Er04r00         [ 4] 1137 	stx	__isdigit_PARM_2
                                   1138 ;	Raw cost for generated ic 172 : (3, 4.000000) count=0.989349
                                   1139 ;	genCall
      000350 DA               [ 3] 1140 	phx
      000351 20r00r00         [ 6] 1141 	jsr	__isdigit
                                   1142 ;	assignResultValue
      000354 85*03            [ 3] 1143 	sta	*_wcstoul_sloc2_1_0
      000356 FA               [ 4] 1144 	plx
                                   1145 ;	Raw cost for generated ic 173 : (7, 16.000000) count=0.989349
                                   1146 ;	genCmp
      000357 24*03            [ 3] 1147 	bit	*_wcstoul_sloc2_1_0
      000359 10 27            [ 4] 1148 	bpl	00133$
                                   1149 ;	Raw cost for generated ic 174 : (7, 8.600000) count=0.989349
                                   1150 ;	skipping generated iCode
                                   1151 ;	Raw cost for generated ic 175 : (0, 0.000000) count=0.989349
                                   1152 ;	../wcstoul.c: 113: if (endptr)
                                   1153 ;	genIfx
      00035B ADr06r00         [ 4] 1154 	lda	(_wcstoul_PARM_2 + 1)
      00035E 0Dr05r00         [ 4] 1155 	ora	_wcstoul_PARM_2
                                   1156 ;	genIfxJump : z
      000361 F0 17            [ 4] 1157 	beq	00131$
                                   1158 ;	Raw cost for generated ic 178 : (11, 13.600000) count=0.742012
                                   1159 ;	../wcstoul.c: 114: *endptr = (wchar_t*)nptr;
                                   1160 ;	genAssign
                                   1161 ;	genCopy
      000363 AEr06r00         [ 4] 1162 	ldx	(_wcstoul_PARM_2 + 1)
      000366 ADr05r00         [ 4] 1163 	lda	_wcstoul_PARM_2
                                   1164 ;	Raw cost for generated ic 181 : (6, 8.000000) count=0.556509
                                   1165 ;	genPointerSet
                                   1166 ;	  setupDPTR - off=0 remat=(null) savea=0
      000369 85*00            [ 3] 1167 	sta	*(DPTR+0)
      00036B 86*01            [ 3] 1168 	stx	*(DPTR+1)
      00036D ADr09r00         [ 4] 1169 	lda	_wcstoul_nptr_10000_163
      000370 A0 00            [ 2] 1170 	ldy	#0x00
      000372 91*00            [ 6] 1171 	sta	[DPTR],y
      000374 ADr0Ar00         [ 4] 1172 	lda	(_wcstoul_nptr_10000_163 + 1)
      000377 C8               [ 2] 1173 	iny
      000378 91*00            [ 6] 1174 	sta	[DPTR],y
                                   1175 ;	Raw cost for generated ic 182 : (17, 30.000000) count=0.556509
                                   1176 ;	genLabel
      00037A                       1177 00131$:
                                   1178 ;	Raw cost for generated ic 183 : (0, 0.000000) count=0.742012
                                   1179 ;	../wcstoul.c: 115: return (0);
                                   1180 ;	genRet
      00037A A9 00            [ 2] 1181 	lda	#0x00
      00037C AA               [ 2] 1182 	tax
      00037D 85*00            [ 3] 1183 	sta	*___SDCC_m6502_ret2
      00037F 85*00            [ 3] 1184 	sta	*___SDCC_m6502_ret3
      000381 60               [ 6] 1185 	rts
                                   1186 ;	Raw cost for generated ic 184 : (10, 13.000000) count=0.742012
                                   1187 ;	genLabel
      000382                       1188 00133$:
                                   1189 ;	Raw cost for generated ic 185 : (0, 0.000000) count=0.989349
                                   1190 ;	../wcstoul.c: 118: for (ret = 0;; ptr++)
                                   1191 ;	genAssign
                                   1192 ;	genAssignLit
      000382 9Cr0Dr00         [ 4] 1193 	stz	_wcstoul_ret_10000_164
      000385 9Cr0Er00         [ 4] 1194 	stz	(_wcstoul_ret_10000_164 + 1)
      000388 9Cr0Fr00         [ 4] 1195 	stz	(_wcstoul_ret_10000_164 + 2)
      00038B 9Cr10r00         [ 4] 1196 	stz	(_wcstoul_ret_10000_164 + 3)
                                   1197 ;	Raw cost for generated ic 186 : (12, 16.000000) count=0.989349
                                   1198 ;	genAssign
                                   1199 ;	genCopy
      00038E ADr0Cr00         [ 4] 1200 	lda	(_wcstoul_ptr_10000_164 + 1)
      000391 85*04            [ 3] 1201 	sta	*(_wcstoul_sloc2_1_0 + 1)
      000393 ADr0Br00         [ 4] 1202 	lda	_wcstoul_ptr_10000_164
      000396 85*03            [ 3] 1203 	sta	*_wcstoul_sloc2_1_0
                                   1204 ;	Raw cost for generated ic 284 : (10, 14.000000) count=0.989349
                                   1205 ;	genLabel
      000398                       1206 00167$:
                                   1207 ;	Raw cost for generated ic 187 : (0, 0.000000) count=3.958003
                                   1208 ;	../wcstoul.c: 120: signed char digit = _isdigit (*ptr, b);
                                   1209 ;	genPointerGet
      000398 A0 00            [ 2] 1210 	ldy	#0x00
      00039A B1*03            [ 6] 1211 	lda	[*_wcstoul_sloc2_1_0],y
      00039C 8Dr00r00         [ 4] 1212 	sta	__isdigit_PARM_1
      00039F C8               [ 2] 1213 	iny
      0003A0 B1*03            [ 6] 1214 	lda	[*_wcstoul_sloc2_1_0],y
      0003A2 8Dr01r00         [ 4] 1215 	sta	(__isdigit_PARM_1 + 1)
      0003A5 C8               [ 2] 1216 	iny
      0003A6 B1*03            [ 6] 1217 	lda	[*_wcstoul_sloc2_1_0],y
      0003A8 8Dr02r00         [ 4] 1218 	sta	(__isdigit_PARM_1 + 2)
      0003AB C8               [ 2] 1219 	iny
      0003AC B1*03            [ 6] 1220 	lda	[*_wcstoul_sloc2_1_0],y
      0003AE 8Dr03r00         [ 4] 1221 	sta	(__isdigit_PARM_1 + 3)
                                   1222 ;	Raw cost for generated ic 189 : (25, 44.000000) count=3.958003
                                   1223 ;	genAssign
                                   1224 ;	genCopy
      0003B1 8Er04r00         [ 4] 1225 	stx	__isdigit_PARM_2
                                   1226 ;	Raw cost for generated ic 191 : (3, 4.000000) count=3.958003
                                   1227 ;	genCall
      0003B4 DA               [ 3] 1228 	phx
      0003B5 20r00r00         [ 6] 1229 	jsr	__isdigit
                                   1230 ;	assignResultValue
      0003B8 8Dr13r00         [ 4] 1231 	sta	_wcstoul_digit_30000_181
      0003BB FA               [ 4] 1232 	plx
                                   1233 ;	Raw cost for generated ic 192 : (8, 17.000000) count=3.958003
                                   1234 ;	../wcstoul.c: 122: if (digit < 0)
                                   1235 ;	genCmp
      0003BC 2Cr13r00         [ 4] 1236 	bit	_wcstoul_digit_30000_181
      0003BF 10 03            [ 4] 1237 	bpl	00367$
      0003C1 4CrA6r05         [ 3] 1238 	jmp	00136$
      0003C4                       1239 00367$:
                                   1240 ;	Raw cost for generated ic 194 : (8, 9.600000) count=3.958003
                                   1241 ;	skipping generated iCode
                                   1242 ;	Raw cost for generated ic 195 : (0, 0.000000) count=3.958003
                                   1243 ;	../wcstoul.c: 126: range_error |= ckd_mul (&ret, ret, b);
                                   1244 ;	genCast
                                   1245 ;	genCopy
      0003C4 9Cr07r00         [ 4] 1246 	stz	(__mullonglong_PARM_2 + 7)
      0003C7 9Cr06r00         [ 4] 1247 	stz	(__mullonglong_PARM_2 + 6)
      0003CA 9Cr05r00         [ 4] 1248 	stz	(__mullonglong_PARM_2 + 5)
      0003CD 9Cr04r00         [ 4] 1249 	stz	(__mullonglong_PARM_2 + 4)
      0003D0 9Cr03r00         [ 4] 1250 	stz	(__mullonglong_PARM_2 + 3)
      0003D3 9Cr02r00         [ 4] 1251 	stz	(__mullonglong_PARM_2 + 2)
      0003D6 9Cr01r00         [ 4] 1252 	stz	(__mullonglong_PARM_2 + 1)
      0003D9 8Er00r00         [ 4] 1253 	stx	__mullonglong_PARM_2
                                   1254 ;	Raw cost for generated ic 200 : (24, 32.000000) count=2.968654
                                   1255 ;	genCast
                                   1256 ;	genCopy
      0003DC 9Cr07r00         [ 4] 1257 	stz	(__mullonglong_PARM_1 + 7)
      0003DF 9Cr06r00         [ 4] 1258 	stz	(__mullonglong_PARM_1 + 6)
      0003E2 9Cr05r00         [ 4] 1259 	stz	(__mullonglong_PARM_1 + 5)
      0003E5 9Cr04r00         [ 4] 1260 	stz	(__mullonglong_PARM_1 + 4)
      0003E8 ADr10r00         [ 4] 1261 	lda	(_wcstoul_ret_10000_164 + 3)
      0003EB 8Dr03r00         [ 4] 1262 	sta	(__mullonglong_PARM_1 + 3)
      0003EE ADr0Fr00         [ 4] 1263 	lda	(_wcstoul_ret_10000_164 + 2)
      0003F1 8Dr02r00         [ 4] 1264 	sta	(__mullonglong_PARM_1 + 2)
      0003F4 ADr0Er00         [ 4] 1265 	lda	(_wcstoul_ret_10000_164 + 1)
      0003F7 8Dr01r00         [ 4] 1266 	sta	(__mullonglong_PARM_1 + 1)
      0003FA ADr0Dr00         [ 4] 1267 	lda	_wcstoul_ret_10000_164
      0003FD 8Dr00r00         [ 4] 1268 	sta	__mullonglong_PARM_1
                                   1269 ;	Raw cost for generated ic 202 : (36, 48.000000) count=2.968654
                                   1270 ;	skipping iCode since result will be rematerialized
                                   1271 ;	Raw cost for generated ic 204 : (0, 0.000000) count=2.968654
                                   1272 ;	skipping iCode since result will be rematerialized
                                   1273 ;	Raw cost for generated ic 205 : (0, 0.000000) count=2.968654
                                   1274 ;	skipping iCode since result will be rematerialized
                                   1275 ;	Raw cost for generated ic 206 : (0, 0.000000) count=2.968654
                                   1276 ;	./../../include/stdckdint.h: 77: inline _Bool __ckd_mul_ulong __CKD_DEFAULT_IMPL(unsigned long, *)
                                   1277 ;	genCall
      000400 DA               [ 3] 1278 	phx
      000401 20r00r00         [ 6] 1279 	jsr	__mullonglong
                                   1280 ;	assignResultValue
      000404 85*07            [ 3] 1281 	sta	*_wcstoul_sloc3_1_0
      000406 86*08            [ 3] 1282 	stx	*(_wcstoul_sloc3_1_0 + 1)
      000408 A5*00            [ 3] 1283 	lda	*___SDCC_m6502_ret2
      00040A 85*09            [ 3] 1284 	sta	*(_wcstoul_sloc3_1_0 + 2)
      00040C A5*00            [ 3] 1285 	lda	*___SDCC_m6502_ret3
      00040E 85*0A            [ 3] 1286 	sta	*(_wcstoul_sloc3_1_0 + 3)
      000410 A5*00            [ 3] 1287 	lda	*___SDCC_m6502_ret4
      000412 85*0B            [ 3] 1288 	sta	*(_wcstoul_sloc3_1_0 + 4)
      000414 A5*00            [ 3] 1289 	lda	*___SDCC_m6502_ret5
      000416 85*0C            [ 3] 1290 	sta	*(_wcstoul_sloc3_1_0 + 5)
      000418 A5*00            [ 3] 1291 	lda	*___SDCC_m6502_ret6
      00041A 85*0D            [ 3] 1292 	sta	*(_wcstoul_sloc3_1_0 + 6)
      00041C A5*00            [ 3] 1293 	lda	*___SDCC_m6502_ret7
      00041E 85*0E            [ 3] 1294 	sta	*(_wcstoul_sloc3_1_0 + 7)
      000420 FA               [ 4] 1295 	plx
                                   1296 ;	Raw cost for generated ic 295 : (33, 55.000000) count=2.968654
                                   1297 ;	genAssign
                                   1298 ;	genCopy
      000421 A5*0E            [ 3] 1299 	lda	*(_wcstoul_sloc3_1_0 + 7)
      000423 8Dr1Br00         [ 4] 1300 	sta	(_wcstoul_result_60000_215 + 7)
      000426 A5*0D            [ 3] 1301 	lda	*(_wcstoul_sloc3_1_0 + 6)
      000428 8Dr1Ar00         [ 4] 1302 	sta	(_wcstoul_result_60000_215 + 6)
      00042B A5*0C            [ 3] 1303 	lda	*(_wcstoul_sloc3_1_0 + 5)
      00042D 8Dr19r00         [ 4] 1304 	sta	(_wcstoul_result_60000_215 + 5)
      000430 A5*0B            [ 3] 1305 	lda	*(_wcstoul_sloc3_1_0 + 4)
      000432 8Dr18r00         [ 4] 1306 	sta	(_wcstoul_result_60000_215 + 4)
      000435 A5*0A            [ 3] 1307 	lda	*(_wcstoul_sloc3_1_0 + 3)
      000437 8Dr17r00         [ 4] 1308 	sta	(_wcstoul_result_60000_215 + 3)
      00043A A5*09            [ 3] 1309 	lda	*(_wcstoul_sloc3_1_0 + 2)
      00043C 8Dr16r00         [ 4] 1310 	sta	(_wcstoul_result_60000_215 + 2)
      00043F A5*08            [ 3] 1311 	lda	*(_wcstoul_sloc3_1_0 + 1)
      000441 8Dr15r00         [ 4] 1312 	sta	(_wcstoul_result_60000_215 + 1)
      000444 A5*07            [ 3] 1313 	lda	*_wcstoul_sloc3_1_0
      000446 8Dr14r00         [ 4] 1314 	sta	_wcstoul_result_60000_215
                                   1315 ;	Raw cost for generated ic 211 : (40, 56.000000) count=2.968654
                                   1316 ;	genCast
                                   1317 ;	genCopy
                                   1318 ;	Raw cost for generated ic 213 : (16, 24.000000) count=2.968654
                                   1319 ;	genPointerSet
                                   1320 ;	genDataPointerSet
      000449 A5*0A            [ 3] 1321 	lda	*(_wcstoul_sloc3_1_0 + 3)
      00044B 8Dr10r00         [ 4] 1322 	sta	(_wcstoul_ret_10000_164 + 3)
      00044E A5*09            [ 3] 1323 	lda	*(_wcstoul_sloc3_1_0 + 2)
      000450 8Dr0Fr00         [ 4] 1324 	sta	(_wcstoul_ret_10000_164 + 2)
      000453 A5*08            [ 3] 1325 	lda	*(_wcstoul_sloc3_1_0 + 1)
      000455 8Dr0Er00         [ 4] 1326 	sta	(_wcstoul_ret_10000_164 + 1)
      000458 A5*07            [ 3] 1327 	lda	*_wcstoul_sloc3_1_0
      00045A 8Dr0Dr00         [ 4] 1328 	sta	_wcstoul_ret_10000_164
                                   1329 ;	Raw cost for generated ic 214 : (20, 28.000000) count=2.968654
                                   1330 ;	genCast
                                   1331 ;	genCopy
      00045D 64*0E            [ 3] 1332 	stz	*(_wcstoul_sloc3_1_0 + 7)
      00045F 64*0D            [ 3] 1333 	stz	*(_wcstoul_sloc3_1_0 + 6)
      000461 64*0C            [ 3] 1334 	stz	*(_wcstoul_sloc3_1_0 + 5)
      000463 64*0B            [ 3] 1335 	stz	*(_wcstoul_sloc3_1_0 + 4)
      000465 A5*07            [ 3] 1336 	lda	*_wcstoul_sloc3_1_0
                                   1337 ;	Raw cost for generated ic 217 : (28, 40.000000) count=2.968654
                                   1338 ;	genCmpEQorNE
      000467 CDr14r00         [ 4] 1339 	cmp	_wcstoul_result_60000_215
      00046A D0 31            [ 4] 1340 	bne	00369$
      00046C A5*08            [ 3] 1341 	lda	*(_wcstoul_sloc3_1_0 + 1)
      00046E CDr15r00         [ 4] 1342 	cmp	(_wcstoul_result_60000_215 + 1)
      000471 D0 2A            [ 4] 1343 	bne	00369$
      000473 A5*09            [ 3] 1344 	lda	*(_wcstoul_sloc3_1_0 + 2)
      000475 CDr16r00         [ 4] 1345 	cmp	(_wcstoul_result_60000_215 + 2)
      000478 D0 23            [ 4] 1346 	bne	00369$
      00047A A5*0A            [ 3] 1347 	lda	*(_wcstoul_sloc3_1_0 + 3)
      00047C CDr17r00         [ 4] 1348 	cmp	(_wcstoul_result_60000_215 + 3)
      00047F D0 1C            [ 4] 1349 	bne	00369$
      000481 A5*0B            [ 3] 1350 	lda	*(_wcstoul_sloc3_1_0 + 4)
      000483 CDr18r00         [ 4] 1351 	cmp	(_wcstoul_result_60000_215 + 4)
      000486 D0 15            [ 4] 1352 	bne	00369$
      000488 A5*0C            [ 3] 1353 	lda	*(_wcstoul_sloc3_1_0 + 5)
      00048A CDr19r00         [ 4] 1354 	cmp	(_wcstoul_result_60000_215 + 5)
      00048D D0 0E            [ 4] 1355 	bne	00369$
      00048F A5*0D            [ 3] 1356 	lda	*(_wcstoul_sloc3_1_0 + 6)
      000491 CDr1Ar00         [ 4] 1357 	cmp	(_wcstoul_result_60000_215 + 6)
      000494 D0 07            [ 4] 1358 	bne	00369$
      000496 A5*0E            [ 3] 1359 	lda	*(_wcstoul_sloc3_1_0 + 7)
      000498 CDr1Br00         [ 4] 1360 	cmp	(_wcstoul_result_60000_215 + 7)
      00049B F0 04            [ 4] 1361 	beq	00377$
      00049D                       1362 00369$:
      00049D A9 00            [ 2] 1363 	lda	#0x00
      00049F 80 02            [ 4] 1364 	bra	00376$
      0004A1                       1365 00377$:
      0004A1 A9 01            [ 2] 1366 	lda	#0x01
      0004A3                       1367 00376$:
                                   1368 ;	Raw cost for generated ic 218 : (81, 101.399994) count=2.968654
                                   1369 ;	genNot
      0004A3 49 01            [ 2] 1370 	eor	#0x01
                                   1371 ;	Raw cost for generated ic 219 : (2, 2.000000) count=2.968654
                                   1372 ;	../wcstoul.c: 126: range_error |= ckd_mul (&ret, ret, b);
                                   1373 ;	genOr
      0004A5 05*00            [ 3] 1374 	ora	*_wcstoul_sloc0_1_0
      0004A7 8Dr11r00         [ 4] 1375 	sta	_wcstoul_range_error_10000_164
                                   1376 ;	Raw cost for generated ic 223 : (5, 7.000000) count=2.968654
                                   1377 ;	../wcstoul.c: 127: range_error |= ckd_add (&ret, ret, digit);
                                   1378 ;	genCast
      0004AA ADr13r00         [ 4] 1379 	lda	_wcstoul_digit_30000_181
      0004AD 85*07            [ 3] 1380 	sta	*_wcstoul_sloc3_1_0
      0004AF 0A               [ 2] 1381 	asl	a
      0004B0 A9 00            [ 2] 1382 	lda	#0x00
      0004B2 69 FF            [ 3] 1383 	adc	#0xff
      0004B4 49 FF            [ 2] 1384 	eor	#0xff
      0004B6 85*08            [ 3] 1385 	sta	*(_wcstoul_sloc3_1_0 + 1)
      0004B8 85*09            [ 3] 1386 	sta	*(_wcstoul_sloc3_1_0 + 2)
      0004BA 85*0A            [ 3] 1387 	sta	*(_wcstoul_sloc3_1_0 + 3)
      0004BC 85*0B            [ 3] 1388 	sta	*(_wcstoul_sloc3_1_0 + 4)
      0004BE 85*0C            [ 3] 1389 	sta	*(_wcstoul_sloc3_1_0 + 5)
      0004C0 85*0D            [ 3] 1390 	sta	*(_wcstoul_sloc3_1_0 + 6)
      0004C2 85*0E            [ 3] 1391 	sta	*(_wcstoul_sloc3_1_0 + 7)
                                   1392 ;	Raw cost for generated ic 225 : (26, 36.000000) count=2.968654
                                   1393 ;	genCast
                                   1394 ;	genCopy
      0004C4 64*16            [ 3] 1395 	stz	*(_wcstoul_sloc4_1_0 + 7)
      0004C6 64*15            [ 3] 1396 	stz	*(_wcstoul_sloc4_1_0 + 6)
      0004C8 64*14            [ 3] 1397 	stz	*(_wcstoul_sloc4_1_0 + 5)
      0004CA 64*13            [ 3] 1398 	stz	*(_wcstoul_sloc4_1_0 + 4)
      0004CC ADr10r00         [ 4] 1399 	lda	(_wcstoul_ret_10000_164 + 3)
      0004CF 85*12            [ 3] 1400 	sta	*(_wcstoul_sloc4_1_0 + 3)
      0004D1 ADr0Fr00         [ 4] 1401 	lda	(_wcstoul_ret_10000_164 + 2)
      0004D4 85*11            [ 3] 1402 	sta	*(_wcstoul_sloc4_1_0 + 2)
      0004D6 ADr0Er00         [ 4] 1403 	lda	(_wcstoul_ret_10000_164 + 1)
      0004D9 85*10            [ 3] 1404 	sta	*(_wcstoul_sloc4_1_0 + 1)
      0004DB ADr0Dr00         [ 4] 1405 	lda	_wcstoul_ret_10000_164
                                   1406 ;	Raw cost for generated ic 227 : (32, 44.000000) count=2.968654
                                   1407 ;	skipping iCode since result will be rematerialized
                                   1408 ;	Raw cost for generated ic 231 : (0, 0.000000) count=2.968654
                                   1409 ;	./../../include/stdckdint.h: 59: inline _Bool __ckd_add_ulong __CKD_DEFAULT_IMPL(unsigned long, +)
                                   1410 ;	genPlus
      0004DE 85*0F            [ 3] 1411 	sta	*_wcstoul_sloc4_1_0
      0004E0 09 00            [ 2] 1412 	ora	#0x00
      0004E2 18               [ 2] 1413 	clc
      0004E3 65*07            [ 4] 1414 	adc	*_wcstoul_sloc3_1_0
      0004E5 85*0F            [ 3] 1415 	sta	*_wcstoul_sloc4_1_0
      0004E7 A5*10            [ 3] 1416 	lda	*(_wcstoul_sloc4_1_0 + 1)
      0004E9 65*08            [ 4] 1417 	adc	*(_wcstoul_sloc3_1_0 + 1)
      0004EB 85*10            [ 3] 1418 	sta	*(_wcstoul_sloc4_1_0 + 1)
      0004ED A5*11            [ 3] 1419 	lda	*(_wcstoul_sloc4_1_0 + 2)
      0004EF 65*09            [ 4] 1420 	adc	*(_wcstoul_sloc3_1_0 + 2)
      0004F1 85*11            [ 3] 1421 	sta	*(_wcstoul_sloc4_1_0 + 2)
      0004F3 A5*12            [ 3] 1422 	lda	*(_wcstoul_sloc4_1_0 + 3)
      0004F5 65*0A            [ 4] 1423 	adc	*(_wcstoul_sloc3_1_0 + 3)
      0004F7 85*12            [ 3] 1424 	sta	*(_wcstoul_sloc4_1_0 + 3)
      0004F9 A5*13            [ 3] 1425 	lda	*(_wcstoul_sloc4_1_0 + 4)
      0004FB 65*0B            [ 4] 1426 	adc	*(_wcstoul_sloc3_1_0 + 4)
      0004FD 85*13            [ 3] 1427 	sta	*(_wcstoul_sloc4_1_0 + 4)
      0004FF A5*14            [ 3] 1428 	lda	*(_wcstoul_sloc4_1_0 + 5)
      000501 65*0C            [ 4] 1429 	adc	*(_wcstoul_sloc3_1_0 + 5)
      000503 85*14            [ 3] 1430 	sta	*(_wcstoul_sloc4_1_0 + 5)
      000505 A5*15            [ 3] 1431 	lda	*(_wcstoul_sloc4_1_0 + 6)
      000507 65*0D            [ 4] 1432 	adc	*(_wcstoul_sloc3_1_0 + 6)
      000509 85*15            [ 3] 1433 	sta	*(_wcstoul_sloc4_1_0 + 6)
      00050B A5*16            [ 3] 1434 	lda	*(_wcstoul_sloc4_1_0 + 7)
      00050D 65*0E            [ 4] 1435 	adc	*(_wcstoul_sloc3_1_0 + 7)
      00050F 85*16            [ 3] 1436 	sta	*(_wcstoul_sloc4_1_0 + 7)
                                   1437 ;	Raw cost for generated ic 235 : (49, 74.000000) count=2.968654
                                   1438 ;	genAssign
                                   1439 ;	genCopy
      000511 8Dr23r00         [ 4] 1440 	sta	(_wcstoul_result_60000_263 + 7)
      000514 A5*15            [ 3] 1441 	lda	*(_wcstoul_sloc4_1_0 + 6)
      000516 8Dr22r00         [ 4] 1442 	sta	(_wcstoul_result_60000_263 + 6)
      000519 A5*14            [ 3] 1443 	lda	*(_wcstoul_sloc4_1_0 + 5)
      00051B 8Dr21r00         [ 4] 1444 	sta	(_wcstoul_result_60000_263 + 5)
      00051E A5*13            [ 3] 1445 	lda	*(_wcstoul_sloc4_1_0 + 4)
      000520 8Dr20r00         [ 4] 1446 	sta	(_wcstoul_result_60000_263 + 4)
      000523 A5*12            [ 3] 1447 	lda	*(_wcstoul_sloc4_1_0 + 3)
      000525 8Dr1Fr00         [ 4] 1448 	sta	(_wcstoul_result_60000_263 + 3)
      000528 A5*11            [ 3] 1449 	lda	*(_wcstoul_sloc4_1_0 + 2)
      00052A 8Dr1Er00         [ 4] 1450 	sta	(_wcstoul_result_60000_263 + 2)
      00052D A5*10            [ 3] 1451 	lda	*(_wcstoul_sloc4_1_0 + 1)
      00052F 8Dr1Dr00         [ 4] 1452 	sta	(_wcstoul_result_60000_263 + 1)
      000532 A5*0F            [ 3] 1453 	lda	*_wcstoul_sloc4_1_0
      000534 8Dr1Cr00         [ 4] 1454 	sta	_wcstoul_result_60000_263
                                   1455 ;	Raw cost for generated ic 236 : (38, 53.000000) count=2.968654
                                   1456 ;	genCast
                                   1457 ;	genCopy
                                   1458 ;	Raw cost for generated ic 238 : (16, 24.000000) count=2.968654
                                   1459 ;	genPointerSet
                                   1460 ;	genDataPointerSet
      000537 A5*12            [ 3] 1461 	lda	*(_wcstoul_sloc4_1_0 + 3)
      000539 8Dr10r00         [ 4] 1462 	sta	(_wcstoul_ret_10000_164 + 3)
      00053C A5*11            [ 3] 1463 	lda	*(_wcstoul_sloc4_1_0 + 2)
      00053E 8Dr0Fr00         [ 4] 1464 	sta	(_wcstoul_ret_10000_164 + 2)
      000541 A5*10            [ 3] 1465 	lda	*(_wcstoul_sloc4_1_0 + 1)
      000543 8Dr0Er00         [ 4] 1466 	sta	(_wcstoul_ret_10000_164 + 1)
      000546 A5*0F            [ 3] 1467 	lda	*_wcstoul_sloc4_1_0
      000548 8Dr0Dr00         [ 4] 1468 	sta	_wcstoul_ret_10000_164
                                   1469 ;	Raw cost for generated ic 239 : (20, 28.000000) count=2.968654
                                   1470 ;	genCast
                                   1471 ;	genCopy
      00054B 64*16            [ 3] 1472 	stz	*(_wcstoul_sloc4_1_0 + 7)
      00054D 64*15            [ 3] 1473 	stz	*(_wcstoul_sloc4_1_0 + 6)
      00054F 64*14            [ 3] 1474 	stz	*(_wcstoul_sloc4_1_0 + 5)
      000551 64*13            [ 3] 1475 	stz	*(_wcstoul_sloc4_1_0 + 4)
      000553 A5*0F            [ 3] 1476 	lda	*_wcstoul_sloc4_1_0
                                   1477 ;	Raw cost for generated ic 242 : (28, 40.000000) count=2.968654
                                   1478 ;	genCmpEQorNE
      000555 CDr1Cr00         [ 4] 1479 	cmp	_wcstoul_result_60000_263
      000558 D0 31            [ 4] 1480 	bne	00380$
      00055A A5*10            [ 3] 1481 	lda	*(_wcstoul_sloc4_1_0 + 1)
      00055C CDr1Dr00         [ 4] 1482 	cmp	(_wcstoul_result_60000_263 + 1)
      00055F D0 2A            [ 4] 1483 	bne	00380$
      000561 A5*11            [ 3] 1484 	lda	*(_wcstoul_sloc4_1_0 + 2)
      000563 CDr1Er00         [ 4] 1485 	cmp	(_wcstoul_result_60000_263 + 2)
      000566 D0 23            [ 4] 1486 	bne	00380$
      000568 A5*12            [ 3] 1487 	lda	*(_wcstoul_sloc4_1_0 + 3)
      00056A CDr1Fr00         [ 4] 1488 	cmp	(_wcstoul_result_60000_263 + 3)
      00056D D0 1C            [ 4] 1489 	bne	00380$
      00056F A5*13            [ 3] 1490 	lda	*(_wcstoul_sloc4_1_0 + 4)
      000571 CDr20r00         [ 4] 1491 	cmp	(_wcstoul_result_60000_263 + 4)
      000574 D0 15            [ 4] 1492 	bne	00380$
      000576 A5*14            [ 3] 1493 	lda	*(_wcstoul_sloc4_1_0 + 5)
      000578 CDr21r00         [ 4] 1494 	cmp	(_wcstoul_result_60000_263 + 5)
      00057B D0 0E            [ 4] 1495 	bne	00380$
      00057D A5*15            [ 3] 1496 	lda	*(_wcstoul_sloc4_1_0 + 6)
      00057F CDr22r00         [ 4] 1497 	cmp	(_wcstoul_result_60000_263 + 6)
      000582 D0 07            [ 4] 1498 	bne	00380$
      000584 A5*16            [ 3] 1499 	lda	*(_wcstoul_sloc4_1_0 + 7)
      000586 CDr23r00         [ 4] 1500 	cmp	(_wcstoul_result_60000_263 + 7)
      000589 F0 04            [ 4] 1501 	beq	00388$
      00058B                       1502 00380$:
      00058B A9 00            [ 2] 1503 	lda	#0x00
      00058D 80 02            [ 4] 1504 	bra	00387$
      00058F                       1505 00388$:
      00058F A9 01            [ 2] 1506 	lda	#0x01
      000591                       1507 00387$:
                                   1508 ;	Raw cost for generated ic 243 : (81, 101.399994) count=2.968654
                                   1509 ;	genNot
      000591 49 01            [ 2] 1510 	eor	#0x01
                                   1511 ;	Raw cost for generated ic 244 : (2, 2.000000) count=2.968654
                                   1512 ;	../wcstoul.c: 127: range_error |= ckd_add (&ret, ret, digit);
                                   1513 ;	genOr
      000593 0Dr11r00         [ 4] 1514 	ora	_wcstoul_range_error_10000_164
      000596 85*00            [ 3] 1515 	sta	*_wcstoul_sloc0_1_0
                                   1516 ;	Raw cost for generated ic 248 : (5, 7.000000) count=2.968654
                                   1517 ;	../wcstoul.c: 118: for (ret = 0;; ptr++)
                                   1518 ;	genPlus
                                   1519 ;	  genPlusInc
      000598 A5*03            [ 3] 1520 	lda	*_wcstoul_sloc2_1_0
      00059A 18               [ 2] 1521 	clc
      00059B 69 04            [ 3] 1522 	adc	#0x04
      00059D 85*03            [ 3] 1523 	sta	*_wcstoul_sloc2_1_0
      00059F 90 02            [ 4] 1524 	bcc	00390$
      0005A1 E6*04            [ 5] 1525 	inc	*(_wcstoul_sloc2_1_0 + 1)
      0005A3                       1526 00390$:
                                   1527 ;	Raw cost for generated ic 252 : (11, 17.600000) count=2.968654
                                   1528 ;	genGoto
      0005A3 4Cr98r03         [ 3] 1529 	jmp	00167$
                                   1530 ;	Raw cost for generated ic 254 : (3, 3.000000) count=2.968654
                                   1531 ;	genLabel
      0005A6                       1532 00136$:
                                   1533 ;	Raw cost for generated ic 255 : (0, 0.000000) count=0.989619
                                   1534 ;	../wcstoul.c: 138: if (endptr)
                                   1535 ;	genIfx
      0005A6 ADr06r00         [ 4] 1536 	lda	(_wcstoul_PARM_2 + 1)
      0005A9 0Dr05r00         [ 4] 1537 	ora	_wcstoul_PARM_2
                                   1538 ;	genIfxJump : z
      0005AC F0 15            [ 4] 1539 	beq	00138$
                                   1540 ;	Raw cost for generated ic 256 : (11, 13.600000) count=0.989619
                                   1541 ;	../wcstoul.c: 139: *endptr = (wchar_t*)ptr;
                                   1542 ;	genAssign
                                   1543 ;	genCopy
      0005AE AEr06r00         [ 4] 1544 	ldx	(_wcstoul_PARM_2 + 1)
      0005B1 ADr05r00         [ 4] 1545 	lda	_wcstoul_PARM_2
                                   1546 ;	Raw cost for generated ic 259 : (6, 8.000000) count=0.742214
                                   1547 ;	genPointerSet
                                   1548 ;	  setupDPTR - off=0 remat=(null) savea=0
      0005B4 85*00            [ 3] 1549 	sta	*(DPTR+0)
      0005B6 86*01            [ 3] 1550 	stx	*(DPTR+1)
      0005B8 A5*03            [ 3] 1551 	lda	*_wcstoul_sloc2_1_0
      0005BA A0 00            [ 2] 1552 	ldy	#0x00
      0005BC 91*00            [ 6] 1553 	sta	[DPTR],y
      0005BE A5*04            [ 3] 1554 	lda	*(_wcstoul_sloc2_1_0 + 1)
      0005C0 C8               [ 2] 1555 	iny
      0005C1 91*00            [ 6] 1556 	sta	[DPTR],y
                                   1557 ;	Raw cost for generated ic 260 : (15, 28.000000) count=0.742214
                                   1558 ;	genLabel
      0005C3                       1559 00138$:
                                   1560 ;	Raw cost for generated ic 261 : (0, 0.000000) count=0.989619
                                   1561 ;	../wcstoul.c: 141: if (range_error)
                                   1562 ;	genIfx
      0005C3 A5*00            [ 3] 1563 	lda	*_wcstoul_sloc0_1_0
                                   1564 ;	genIfxJump : z
      0005C5 F0 10            [ 4] 1565 	beq	00140$
                                   1566 ;	Raw cost for generated ic 262 : (7, 8.600000) count=0.989619
                                   1567 ;	../wcstoul.c: 143: errno = ERANGE;
                                   1568 ;	genAssign
                                   1569 ;	genAssignLit
      0005C7 A2 22            [ 2] 1570 	ldx	#0x22
      0005C9 8Er00r00         [ 4] 1571 	stx	_errno
      0005CC 9Cr01r00         [ 4] 1572 	stz	(_errno + 1)
                                   1573 ;	Raw cost for generated ic 266 : (8, 10.000000) count=0.742214
                                   1574 ;	../wcstoul.c: 144: return (ULONG_MAX);
                                   1575 ;	genRet
      0005CF A9 FF            [ 2] 1576 	lda	#0xff
      0005D1 AA               [ 2] 1577 	tax
      0005D2 85*00            [ 3] 1578 	sta	*___SDCC_m6502_ret2
      0005D4 85*00            [ 3] 1579 	sta	*___SDCC_m6502_ret3
      0005D6 60               [ 6] 1580 	rts
                                   1581 ;	Raw cost for generated ic 267 : (10, 13.000000) count=0.742214
                                   1582 ;	genLabel
      0005D7                       1583 00140$:
                                   1584 ;	Raw cost for generated ic 268 : (0, 0.000000) count=0.989619
                                   1585 ;	../wcstoul.c: 147: return (neg ? -ret : ret);
                                   1586 ;	genIfx
      0005D7 ADr12r00         [ 4] 1587 	lda	_wcstoul_neg_10000_164
                                   1588 ;	genIfxJump : z
      0005DA F0 20            [ 4] 1589 	beq	00174$
                                   1590 ;	Raw cost for generated ic 269 : (8, 9.600000) count=0.989619
                                   1591 ;	genUminus
      0005DC A9 00            [ 2] 1592 	lda	#0x00
      0005DE 38               [ 2] 1593 	sec
      0005DF EDr0Dr00         [ 5] 1594 	sbc	_wcstoul_ret_10000_164
      0005E2 85*0F            [ 3] 1595 	sta	*_wcstoul_sloc4_1_0
      0005E4 A9 00            [ 2] 1596 	lda	#0x00
      0005E6 EDr0Er00         [ 5] 1597 	sbc	(_wcstoul_ret_10000_164 + 1)
      0005E9 85*10            [ 3] 1598 	sta	*(_wcstoul_sloc4_1_0 + 1)
      0005EB A9 00            [ 2] 1599 	lda	#0x00
      0005ED EDr0Fr00         [ 5] 1600 	sbc	(_wcstoul_ret_10000_164 + 2)
      0005F0 85*11            [ 3] 1601 	sta	*(_wcstoul_sloc4_1_0 + 2)
      0005F2 A9 00            [ 2] 1602 	lda	#0x00
      0005F4 EDr10r00         [ 5] 1603 	sbc	(_wcstoul_ret_10000_164 + 3)
      0005F7 85*12            [ 3] 1604 	sta	*(_wcstoul_sloc4_1_0 + 3)
                                   1605 ;	Raw cost for generated ic 270 : (29, 38.000000) count=0.742214
                                   1606 ;	genGoto
      0005F9 4Cr10r06         [ 3] 1607 	jmp	00175$
                                   1608 ;	Raw cost for generated ic 272 : (3, 3.000000) count=0.742214
                                   1609 ;	genLabel
      0005FC                       1610 00174$:
                                   1611 ;	Raw cost for generated ic 273 : (0, 0.000000) count=0.247550
                                   1612 ;	genAssign
                                   1613 ;	genCopy
      0005FC ADr10r00         [ 4] 1614 	lda	(_wcstoul_ret_10000_164 + 3)
      0005FF 85*12            [ 3] 1615 	sta	*(_wcstoul_sloc4_1_0 + 3)
      000601 ADr0Fr00         [ 4] 1616 	lda	(_wcstoul_ret_10000_164 + 2)
      000604 85*11            [ 3] 1617 	sta	*(_wcstoul_sloc4_1_0 + 2)
      000606 ADr0Er00         [ 4] 1618 	lda	(_wcstoul_ret_10000_164 + 1)
      000609 85*10            [ 3] 1619 	sta	*(_wcstoul_sloc4_1_0 + 1)
      00060B ADr0Dr00         [ 4] 1620 	lda	_wcstoul_ret_10000_164
      00060E 85*0F            [ 3] 1621 	sta	*_wcstoul_sloc4_1_0
                                   1622 ;	Raw cost for generated ic 274 : (20, 28.000000) count=0.247550
                                   1623 ;	genLabel
      000610                       1624 00175$:
                                   1625 ;	Raw cost for generated ic 275 : (0, 0.000000) count=0.989765
                                   1626 ;	genRet
      000610 A5*12            [ 3] 1627 	lda	*(_wcstoul_sloc4_1_0 + 3)
      000612 85*00            [ 3] 1628 	sta	*___SDCC_m6502_ret3
      000614 A5*11            [ 3] 1629 	lda	*(_wcstoul_sloc4_1_0 + 2)
      000616 85*00            [ 3] 1630 	sta	*___SDCC_m6502_ret2
      000618 A6*10            [ 3] 1631 	ldx	*(_wcstoul_sloc4_1_0 + 1)
      00061A A5*0F            [ 3] 1632 	lda	*_wcstoul_sloc4_1_0
                                   1633 ;	Raw cost for generated ic 276 : (12, 18.000000) count=0.989765
                                   1634 ;	genLabel
                                   1635 ;	Raw cost for generated ic 277 : (0, 0.000000) count=0.989765
                                   1636 ;	../wcstoul.c: 148: }
                                   1637 ;	genEndFunction
      00061C 60               [ 6] 1638 	rts
                                   1639 ;	Raw cost for generated ic 278 : (1, 6.000000) count=0.989765
                                   1640 	.area CODE
                                   1641 	.area RODATA
                                   1642 	.area RODATA
      000000                       1643 ___str_0:
      000000 30 00 00 00           1644 	.byte 48,0,0,0
      000004 78 00 00 00           1645 	.byte 120,0,0,0
      000008 00 00 00 00           1646 	.byte 0,0,0,0
                                   1647 	.area CODE
                                   1648 	.area RODATA
      00000C                       1649 ___str_1:
      00000C 30 00 00 00           1650 	.byte 48,0,0,0
      000010 58 00 00 00           1651 	.byte 88,0,0,0
      000014 00 00 00 00           1652 	.byte 0,0,0,0
                                   1653 	.area CODE
                                   1654 	.area RODATA
      000018                       1655 ___str_2:
      000018 30 00 00 00           1656 	.byte 48,0,0,0
      00001C 62 00 00 00           1657 	.byte 98,0,0,0
      000020 00 00 00 00           1658 	.byte 0,0,0,0
                                   1659 	.area CODE
                                   1660 	.area RODATA
      000024                       1661 ___str_3:
      000024 30 00 00 00           1662 	.byte 48,0,0,0
      000028 42 00 00 00           1663 	.byte 66,0,0,0
      00002C 00 00 00 00           1664 	.byte 0,0,0,0
                                   1665 	.area CODE
                                   1666 	.area XINIT
                                   1667 	.area CABS    (ABS)
